
chipcon_v2.elf:     file format elf32-avr

Sections:
Idx Name          Size      VMA       LMA       File off  Algn
  0 .data         00000008  00800100  00004b6e  00004c02  2**0
                  CONTENTS, ALLOC, LOAD, DATA
  1 .text         00004b6e  00000000  00000000  00000094  2**1
                  CONTENTS, ALLOC, LOAD, READONLY, CODE
  2 .bss          00000748  00800108  00800108  00004c0a  2**0
                  ALLOC
  3 .comment      00000030  00000000  00000000  00004c0a  2**0
                  CONTENTS, READONLY
  4 .debug_aranges 000004a8  00000000  00000000  00004c3a  2**0
                  CONTENTS, READONLY, DEBUGGING
  5 .debug_info   00005a1f  00000000  00000000  000050e2  2**0
                  CONTENTS, READONLY, DEBUGGING
  6 .debug_abbrev 00001a6c  00000000  00000000  0000ab01  2**0
                  CONTENTS, READONLY, DEBUGGING
  7 .debug_line   00001e10  00000000  00000000  0000c56d  2**0
                  CONTENTS, READONLY, DEBUGGING
  8 .debug_frame  00000d5c  00000000  00000000  0000e380  2**2
                  CONTENTS, READONLY, DEBUGGING
  9 .debug_str    00000ea5  00000000  00000000  0000f0dc  2**0
                  CONTENTS, READONLY, DEBUGGING
 10 .debug_loc    00004937  00000000  00000000  0000ff81  2**0
                  CONTENTS, READONLY, DEBUGGING
 11 .debug_ranges 000003a8  00000000  00000000  000148b8  2**0
                  CONTENTS, READONLY, DEBUGGING

Disassembly of section .text:

00000000 <__vectors>:
       0:	0c 94 d3 0e 	jmp	0x1da6	; 0x1da6 <__ctors_end>
       4:	0c 94 f0 0e 	jmp	0x1de0	; 0x1de0 <__bad_interrupt>
       8:	0c 94 f0 0e 	jmp	0x1de0	; 0x1de0 <__bad_interrupt>
       c:	0c 94 f0 0e 	jmp	0x1de0	; 0x1de0 <__bad_interrupt>
      10:	0c 94 f0 0e 	jmp	0x1de0	; 0x1de0 <__bad_interrupt>
      14:	0c 94 f0 0e 	jmp	0x1de0	; 0x1de0 <__bad_interrupt>
      18:	0c 94 f0 0e 	jmp	0x1de0	; 0x1de0 <__bad_interrupt>
      1c:	0c 94 f0 0e 	jmp	0x1de0	; 0x1de0 <__bad_interrupt>
      20:	0c 94 f0 0e 	jmp	0x1de0	; 0x1de0 <__bad_interrupt>
      24:	0c 94 f0 0e 	jmp	0x1de0	; 0x1de0 <__bad_interrupt>
      28:	0c 94 f0 0e 	jmp	0x1de0	; 0x1de0 <__bad_interrupt>
      2c:	0c 94 f0 0e 	jmp	0x1de0	; 0x1de0 <__bad_interrupt>
      30:	0c 94 d9 23 	jmp	0x47b2	; 0x47b2 <__vector_12>
      34:	0c 94 f0 0e 	jmp	0x1de0	; 0x1de0 <__bad_interrupt>
      38:	0c 94 f0 0e 	jmp	0x1de0	; 0x1de0 <__bad_interrupt>
      3c:	0c 94 f0 0e 	jmp	0x1de0	; 0x1de0 <__bad_interrupt>
      40:	0c 94 f0 0e 	jmp	0x1de0	; 0x1de0 <__bad_interrupt>
      44:	0c 94 f0 0e 	jmp	0x1de0	; 0x1de0 <__bad_interrupt>
      48:	0c 94 f0 0e 	jmp	0x1de0	; 0x1de0 <__bad_interrupt>
      4c:	0c 94 f0 0e 	jmp	0x1de0	; 0x1de0 <__bad_interrupt>
      50:	0c 94 f0 0e 	jmp	0x1de0	; 0x1de0 <__bad_interrupt>
      54:	0c 94 f0 0e 	jmp	0x1de0	; 0x1de0 <__bad_interrupt>
      58:	0c 94 f0 0e 	jmp	0x1de0	; 0x1de0 <__bad_interrupt>
      5c:	0c 94 f0 0e 	jmp	0x1de0	; 0x1de0 <__bad_interrupt>
      60:	0c 94 f0 0e 	jmp	0x1de0	; 0x1de0 <__bad_interrupt>
      64:	0c 94 f0 0e 	jmp	0x1de0	; 0x1de0 <__bad_interrupt>
      68:	61 12       	cpse	r6, r17
      6a:	a1 12       	cpse	r10, r17
      6c:	94 12       	cpse	r9, r20
      6e:	ab 12       	cpse	r10, r27
      70:	b1 12       	cpse	r11, r17
      72:	b7 12       	cpse	r11, r23
      74:	dd 12       	cpse	r13, r29
      76:	c5 12       	cpse	r12, r21
      78:	cc 12       	cpse	r12, r28
      7a:	59 13       	cpse	r21, r25
      7c:	00 14       	cp	r0, r0
      7e:	0d 14       	cp	r0, r13
      80:	19 14       	cp	r1, r9
      82:	24 14       	cp	r2, r4
      84:	68 14       	cp	r6, r8
      86:	87 14       	cp	r8, r7
      88:	d8 12       	cpse	r13, r24
      8a:	e3 12       	cpse	r14, r19
      8c:	f0 12       	cpse	r15, r16
      8e:	fd 12       	cpse	r15, r29
      90:	0a 13       	cpse	r16, r26
      92:	24 13       	cpse	r18, r20
      94:	30 13       	cpse	r19, r16
      96:	3a 13       	cpse	r19, r26
      98:	46 15       	cp	r20, r6
      9a:	46 15       	cp	r20, r6
      9c:	46 15       	cp	r20, r6
      9e:	46 15       	cp	r20, r6
      a0:	46 15       	cp	r20, r6
      a2:	46 15       	cp	r20, r6
      a4:	4d 13       	cpse	r20, r29
      a6:	65 13       	cpse	r22, r21
      a8:	7a 13       	cpse	r23, r26
      aa:	84 13       	cpse	r24, r20
      ac:	a7 13       	cpse	r26, r23
      ae:	b6 13       	cpse	r27, r22
      b0:	be 13       	cpse	r27, r30
      b2:	cd 13       	cpse	r28, r29
      b4:	e1 13       	cpse	r30, r17
      b6:	f4 13       	cpse	r31, r20
      b8:	fa 13       	cpse	r31, r26

000000ba <__trampolines_end>:
      ba:	10 09       	sbc	r17, r0
      bc:	4a 6f       	ori	r20, 0xFA	; 250
      be:	6e 61       	ori	r22, 0x1E	; 30
      c0:	73 20       	and	r7, r3
      c2:	4c 69       	ori	r20, 0x9C	; 156
      c4:	6e 64       	ori	r22, 0x4E	; 78
      c6:	73 74       	andi	r23, 0x43	; 67
      c8:	65 64       	ori	r22, 0x45	; 69
      ca:	74 00       	.word	0x0074	; ????
      cc:	00 ff       	sbrs	r16, 0
      ce:	10 45       	sbci	r17, 0x50	; 80
      d0:	64 01       	movw	r12, r8
      d2:	a1 92       	st	Z+, r10
      d4:	6b 00       	.word	0x006b	; ????
      d6:	6c 3b       	cpi	r22, 0xBC	; 188
      d8:	db c4       	rjmp	.+2486   	; 0xa90 <__stack+0x191>
      da:	7b 08       	sbc	r7, r11
      dc:	3b 80       	ldd	r3, Y+3	; 0x03
      de:	10 0f       	add	r17, r16
      e0:	68 3c       	cpi	r22, 0xC8	; 200
      e2:	a1 8e       	std	Z+25, r10	; 0x19
      e4:	69 35       	cpi	r22, 0x59	; 89
      e6:	d8 96       	adiw	r26, 0x38	; 56
      e8:	63 00       	.word	0x0063	; ????
      ea:	43 00       	.word	0x0043	; ????
      ec:	10 1d       	adc	r17, r0
      ee:	a1 91       	ld	r26, Z+
      f0:	d2 32       	cpi	r29, 0x22	; 34
      f2:	63 00       	.word	0x0063	; ????
      f4:	8c 40       	sbci	r24, 0x0C	; 12
      f6:	7c ff       	.word	0xff7c	; ????
      f8:	6b 03       	fmul	r22, r19
      fa:	8c b2       	in	r8, 0x1c	; 28
      fc:	6b 00       	.word	0x006b	; ????
      fe:	4c 00       	.word	0x004c	; ????
     100:	10 27       	eor	r17, r16
     102:	7b 05       	cpc	r23, r11
     104:	7c ff       	.word	0xff7c	; ????
     106:	10 22       	and	r1, r16
     108:	61 00       	.word	0x0061	; ????
     10a:	a1 81       	ldd	r26, Z+1	; 0x01
     10c:	fb 1e       	adc	r15, r27
     10e:	f0 65       	ori	r31, 0x50	; 80
     110:	a1 96       	adiw	r28, 0x21	; 33
     112:	f1 1e       	adc	r15, r17
     114:	f0 55       	subi	r31, 0x50	; 80
     116:	71 01       	movw	r14, r2
     118:	7b 01       	movw	r14, r22
     11a:	31 06       	cpc	r3, r17
     11c:	10 28       	or	r1, r0
     11e:	6d 08       	sbc	r6, r13
     120:	6e 05       	cpc	r22, r14
     122:	66 00       	.word	0x0066	; ????
     124:	6a 01       	movw	r12, r20
     126:	a1 96       	adiw	r28, 0x21	; 33
     128:	80 d0       	rcall	.+256    	; 0x22a <__trampolines_end+0x170>
     12a:	d0 e5       	ldi	r29, 0x50	; 80
     12c:	70 14       	cp	r7, r0
     12e:	30 6c       	ori	r19, 0xC0	; 192
     130:	10 38       	cpi	r17, 0x80	; 128
     132:	20 a4       	ldd	r2, Z+40	; 0x28
     134:	21 09       	sbc	r18, r1
     136:	20 7d       	andi	r18, 0xD0	; 208
     138:	20 c4       	rjmp	.+2112   	; 0x97a <__stack+0x7b>
     13a:	4f 42       	sbci	r20, 0x2F	; 47
     13c:	10 18       	sub	r1, r0
     13e:	21 28       	or	r2, r1
     140:	34 63       	ori	r19, 0x34	; 52
     142:	10 3d       	cpi	r17, 0xD0	; 208
     144:	00 e0       	ldi	r16, 0x00	; 0
     146:	a1 54       	subi	r26, 0x41	; 65
     148:	6d 28       	or	r6, r13
     14a:	6e 0a       	sbc	r6, r30
     14c:	6c 0a       	sbc	r6, r28
     14e:	dd ea       	ldi	r29, 0xAD	; 173
     150:	7d 08       	sbc	r7, r13
     152:	fc 1e       	adc	r15, r28
     154:	3d 58       	subi	r19, 0x8D	; 141
     156:	10 4a       	sbci	r17, 0xA0	; 160
     158:	a1 72       	andi	r26, 0x21	; 33
     15a:	6d 34       	cpi	r22, 0x4D	; 77
     15c:	6e 19       	sub	r22, r14
     15e:	6c 05       	cpc	r22, r12
     160:	dd e5       	ldi	r29, 0x5D	; 93
     162:	7d 08       	sbc	r7, r13
     164:	fc 1e       	adc	r15, r28
     166:	3d 4c       	sbci	r19, 0xCD	; 205
     168:	10 53       	subi	r17, 0x30	; 48
     16a:	6d 2d       	mov	r22, r13
     16c:	6e 28       	or	r6, r14
     16e:	6c 05       	cpc	r22, r12
     170:	dd e5       	ldi	r29, 0x5D	; 93
     172:	7d 08       	sbc	r7, r13
     174:	fc 1e       	adc	r15, r28
     176:	3d 45       	sbci	r19, 0x5D	; 93
     178:	10 5b       	subi	r17, 0xB0	; 176
     17a:	a1 95       	neg	r26
     17c:	f0 65       	ori	r31, 0x50	; 80
     17e:	a1 9c       	mul	r10, r1
     180:	f0 33       	cpi	r31, 0x30	; 48
     182:	6c 00       	.word	0x006c	; ????
     184:	a1 9c       	mul	r10, r1
     186:	fc 1e       	adc	r15, r28
     188:	f0 65       	ori	r31, 0x50	; 80
     18a:	f0 29       	or	r31, r0
     18c:	dd e5       	ldi	r29, 0x5D	; 93
     18e:	7d 05       	cpc	r23, r13
     190:	7c 01       	movw	r14, r24
     192:	3c 03       	fmul	r19, r20
     194:	10 65       	ori	r17, 0x50	; 80
     196:	6c 20       	and	r6, r12
     198:	ec 9e       	mul	r14, r28
     19a:	10 6f       	ori	r17, 0xF0	; 240
     19c:	a1 94       	neg	r10
     19e:	60 00       	.word	0x0060	; ????
     1a0:	61 00       	.word	0x0061	; ????
     1a2:	f1 55       	subi	r31, 0x51	; 81
     1a4:	6c 36       	cpi	r22, 0x6C	; 108
     1a6:	6f 0a       	sbc	r6, r31
     1a8:	21 4f       	sbci	r18, 0xF1	; 241
     1aa:	00 c1       	rjmp	.+512    	; 0x3ac <__trampolines_end+0x2f2>
     1ac:	7c ff       	.word	0xff7c	; ????
     1ae:	3c 00       	.word	0x003c	; ????
     1b0:	10 76       	andi	r17, 0x60	; 96
     1b2:	10 0b       	sbc	r17, r16
     1b4:	33 00       	.word	0x0033	; ????
     1b6:	10 97       	sbiw	r26, 0x00	; 0
     1b8:	cc 0f       	add	r28, r28
     1ba:	3c 00       	.word	0x003c	; ????
     1bc:	10 96       	adiw	r26, 0x00	; 0
     1be:	cc 07       	cpc	r28, r28
     1c0:	7c 01       	movw	r14, r24
     1c2:	8c 06       	cpc	r8, r28
     1c4:	a1 99       	sbic	0x14, 1	; 20
     1c6:	fc 1e       	adc	r15, r28
     1c8:	f0 65       	ori	r31, 0x50	; 80
     1ca:	40 00       	.word	0x0040	; ????
     1cc:	10 96       	adiw	r26, 0x00	; 0
     1ce:	82 d0       	rcall	.+260    	; 0x2d4 <__trampolines_end+0x21a>
     1d0:	83 e0       	ldi	r24, 0x03	; 3
     1d2:	73 05       	cpc	r23, r3
     1d4:	4c 00       	.word	0x004c	; ????
     1d6:	10 92 72 14 	sts	0x1472, r1
     1da:	7c ff       	.word	0xff7c	; ????
     1dc:	10 8d       	ldd	r17, Z+24	; 0x18
     1de:	a1 91       	ld	r26, Z+
     1e0:	d2 32       	cpi	r29, 0x22	; 34
     1e2:	3f 00       	.word	0x003f	; ????
     1e4:	10 9e       	mul	r1, r16
     1e6:	00 ee       	ldi	r16, 0xE0	; 224
     1e8:	a1 91       	ld	r26, Z+
     1ea:	d2 32       	cpi	r29, 0x22	; 34
     1ec:	73 01       	movw	r14, r6
     1ee:	33 3a       	cpi	r19, 0xA3	; 163
     1f0:	10 92 63 00 	sts	0x0063, r1
     1f4:	00 ee       	ldi	r16, 0xE0	; 224
     1f6:	6c 35       	cpi	r22, 0x5C	; 92
     1f8:	8b 30       	cpi	r24, 0x0B	; 11
     1fa:	8b c5       	rjmp	.+2838   	; 0xd12 <__stack+0x413>
     1fc:	3f 00       	.word	0x003f	; ????
     1fe:	64 63       	ori	r22, 0x34	; 52
     200:	00 ee       	ldi	r16, 0xE0	; 224
     202:	80 40       	sbci	r24, 0x00	; 0
     204:	70 01       	movw	r14, r0
     206:	80 06       	cpc	r8, r16
     208:	6c 00       	.word	0x006c	; ????
     20a:	a1 99       	sbic	0x14, 1	; 20
     20c:	fc 1e       	adc	r15, r28
     20e:	f0 55       	subi	r31, 0x50	; 80
     210:	7c 01       	movw	r14, r24
     212:	3c 05       	cpc	r19, r12
     214:	10 a8       	ldd	r1, Z+48	; 0x30
     216:	a1 9c       	mul	r10, r1
     218:	f4 33       	cpi	r31, 0x34	; 52
     21a:	20 b8       	out	0x00, r2	; 0
     21c:	6c 78       	andi	r22, 0x8C	; 140
     21e:	fc 15       	cp	r31, r12
     220:	fc 07       	cpc	r31, r28
     222:	3c 00       	.word	0x003c	; ????
     224:	10 b3       	in	r17, 0x10	; 16
     226:	20 b8       	out	0x00, r2	; 0
     228:	00 ee       	ldi	r16, 0xE0	; 224
     22a:	a1 9d       	mul	r26, r1
     22c:	f0 65       	ori	r31, 0x50	; 80
     22e:	f0 30       	cpi	r31, 0x00	; 0
     230:	6c 37       	cpi	r22, 0x7C	; 124
     232:	6b 1b       	sub	r22, r27
     234:	dc ba       	out	0x1c, r13	; 28
     236:	a1 9e       	mul	r10, r17
     238:	f0 65       	ori	r31, 0x50	; 80
     23a:	f0 30       	cpi	r31, 0x00	; 0
     23c:	6c 41       	sbci	r22, 0x1C	; 28
     23e:	dc ba       	out	0x1c, r13	; 28
     240:	00 ee       	ldi	r16, 0xE0	; 224
     242:	46 00       	.word	0x0046	; ????
     244:	11 02       	muls	r17, r17
     246:	a1 91       	ld	r26, Z+
     248:	d5 62       	ori	r29, 0x25	; 37
     24a:	76 ff       	sbrs	r23, 6
     24c:	46 00       	.word	0x0046	; ????
     24e:	11 02       	muls	r17, r17
     250:	d5 62       	ori	r29, 0x25	; 37
     252:	4f 00       	.word	0x004f	; ????
     254:	11 02       	muls	r17, r17
     256:	8c e0       	ldi	r24, 0x0C	; 12
     258:	7c 05       	cpc	r23, r12
     25a:	8c 65       	ori	r24, 0x5C	; 92
     25c:	4f 00       	.word	0x004f	; ????
     25e:	11 03       	mulsu	r17, r17
     260:	d5 62       	ori	r29, 0x25	; 37
     262:	75 fb       	bst	r23, 5
     264:	66 00       	.word	0x0066	; ????
     266:	8c d0       	rcall	.+280    	; 0x380 <__trampolines_end+0x2c6>
     268:	60 00       	.word	0x0060	; ????
     26a:	8b c0       	rjmp	.+278    	; 0x382 <__trampolines_end+0x2c8>
     26c:	8b 55       	subi	r24, 0x5B	; 91
     26e:	3f 00       	.word	0x003f	; ????
     270:	10 df       	rcall	.-480    	; 0x92 <__SREG__+0x53>
     272:	7c 14       	cp	r7, r12
     274:	70 01       	movw	r14, r0
     276:	10 d8       	rcall	.-4064   	; 0xfffff298 <__eeprom_end+0xff7ef298>
     278:	a1 99       	sbic	0x14, 1	; 20
     27a:	f0 1e       	adc	r15, r16
     27c:	f0 65       	ori	r31, 0x50	; 80
     27e:	70 ff       	sbrs	r23, 0
     280:	f0 55       	subi	r31, 0x50	; 80
     282:	a1 96       	adiw	r28, 0x21	; 33
     284:	40 00       	.word	0x0040	; ????
     286:	dc e5       	ldi	r29, 0x5C	; 92
     288:	6c 0a       	sbc	r6, r28
     28a:	fc 18       	sub	r15, r12
     28c:	a1 94       	neg	r10
     28e:	f0 65       	ori	r31, 0x50	; 80
     290:	6c ff       	.word	0xff6c	; ????
     292:	80 c3       	rjmp	.+1792   	; 0x994 <__stack+0x95>
     294:	f0 55       	subi	r31, 0x50	; 80
     296:	30 00       	.word	0x0030	; ????
     298:	10 f4       	brcc	.+4      	; 0x29e <__trampolines_end+0x1e4>
     29a:	a1 95       	neg	r26
     29c:	f0 65       	ori	r31, 0x50	; 80
     29e:	70 01       	movw	r14, r0
     2a0:	f0 55       	subi	r31, 0x50	; 80
     2a2:	6c 00       	.word	0x006c	; ????
     2a4:	6b 00       	.word	0x006b	; ????
     2a6:	a1 99       	sbic	0x14, 1	; 20
     2a8:	fc 1e       	adc	r15, r28
     2aa:	f0 65       	ori	r31, 0x50	; 80
     2ac:	30 00       	.word	0x0030	; ????
     2ae:	7b 01       	movw	r14, r22
     2b0:	7c 01       	movw	r14, r24
     2b2:	3c 05       	cpc	r19, r12
     2b4:	10 f6       	brcc	.-124    	; 0x23a <__trampolines_end+0x180>
     2b6:	3b 00       	.word	0x003b	; ????
     2b8:	11 02       	muls	r17, r17
     2ba:	74 01       	movw	r14, r8
     2bc:	6f 42       	sbci	r22, 0x2F	; 47
     2be:	00 ee       	ldi	r16, 0xE0	; 224
     2c0:	a1 91       	ld	r26, Z+
     2c2:	d2 32       	cpi	r29, 0x22	; 34
     2c4:	d5 62       	ori	r29, 0x25	; 37
     2c6:	63 00       	.word	0x0063	; ????
     2c8:	66 00       	.word	0x0066	; ????
     2ca:	00 ee       	ldi	r16, 0xE0	; 224
     2cc:	6b 00       	.word	0x006b	; ????
     2ce:	6c 08       	sbc	r6, r12
     2d0:	ec a1       	ldd	r30, Y+36	; 0x24
     2d2:	6b ff       	.word	0xff6b	; ????
     2d4:	6c 10       	cpse	r6, r12
     2d6:	ec a1       	ldd	r30, Y+36	; 0x24
     2d8:	6b 01       	movw	r12, r22
     2da:	4b 00       	.word	0x004b	; ????
     2dc:	11 1c       	adc	r1, r1
     2de:	48 01       	movw	r8, r16
     2e0:	6b 01       	movw	r12, r22
     2e2:	48 78       	andi	r20, 0x88	; 136
     2e4:	6b ff       	.word	0xff6b	; ????
     2e6:	a1 8e       	std	Z+25, r10	; 0x19
     2e8:	69 35       	cpi	r22, 0x59	; 89
     2ea:	d8 96       	adiw	r26, 0x38	; 56
     2ec:	88 b4       	in	r8, 0x28	; 40
     2ee:	d8 96       	adiw	r26, 0x38	; 56
     2f0:	11 25       	eor	r17, r1
     2f2:	6c 20       	and	r6, r12
     2f4:	ec 9e       	mul	r14, r28
     2f6:	11 25       	eor	r17, r1
     2f8:	36 00       	.word	0x0036	; ????
     2fa:	11 25       	eor	r17, r1
     2fc:	85 80       	ldd	r8, Z+5	; 0x05
     2fe:	66 35       	cpi	r22, 0x56	; 86
     300:	a1 91       	ld	r26, Z+
     302:	d5 62       	ori	r29, 0x25	; 37
     304:	6f 06       	cpc	r6, r31
     306:	21 4f       	sbci	r18, 0xF1	; 241
     308:	00 ee       	ldi	r16, 0xE0	; 224
     30a:	f0 07       	cpc	r31, r16
     30c:	30 00       	.word	0x0030	; ????
     30e:	11 37       	cpi	r17, 0x71	; 113
     310:	60 1e       	adc	r6, r16
     312:	f0 15       	cp	r31, r0
     314:	67 00       	.word	0x0067	; ????
     316:	3d 21       	and	r19, r13
     318:	11 32       	cpi	r17, 0x21	; 33
     31a:	6a ff       	.word	0xff6a	; ????
     31c:	11 35       	cpi	r17, 0x51	; 81
     31e:	3d 07       	cpc	r19, r29
     320:	11 36       	cpi	r17, 0x61	; 97
     322:	6a 01       	movw	r12, r20
     324:	67 01       	movw	r12, r14
     326:	21 38       	cpi	r18, 0x81	; 129
     328:	00 ee       	ldi	r16, 0xE0	; 224
     32a:	8b d0       	rcall	.+278    	; 0x442 <blinky+0x4a>
     32c:	6c 00       	.word	0x006c	; ????
     32e:	89 b0       	in	r8, 0x09	; 9
     330:	81 e0       	ldi	r24, 0x01	; 1
     332:	a1 99       	sbic	0x14, 1	; 20
     334:	fc 1e       	adc	r15, r28
     336:	f0 65       	ori	r31, 0x50	; 80
     338:	40 00       	.word	0x0040	; ????
     33a:	11 46       	sbci	r17, 0x61	; 97
     33c:	a1 96       	adiw	r28, 0x21	; 33
     33e:	d9 15       	cp	r29, r9
     340:	89 a4       	ldd	r8, Y+41	; 0x29
     342:	81 74       	andi	r24, 0x41	; 65
     344:	d9 15       	cp	r29, r9
     346:	7c 01       	movw	r14, r24
     348:	7b 14       	cp	r7, r11
     34a:	3c 05       	cpc	r19, r12
     34c:	11 3a       	cpi	r17, 0xA1	; 161
     34e:	8d a4       	ldd	r8, Y+45	; 0x2d
     350:	8e 74       	andi	r24, 0x4E	; 78
     352:	4e 30       	cpi	r20, 0x0E	; 14
     354:	64 63       	ori	r22, 0x34	; 52
     356:	00 ee       	ldi	r16, 0xE0	; 224
     358:	ff 15       	cp	r31, r15
     35a:	ff 07       	cpc	r31, r31
     35c:	3f 00       	.word	0x003f	; ????
     35e:	11 50       	subi	r17, 0x01	; 1
     360:	00 ee       	ldi	r16, 0xE0	; 224
     362:	3c 0c       	add	r3, r12
     364:	1e 1e       	adc	r1, r30
     366:	33 33       	cpi	r19, 0x33	; 51
     368:	3f 61       	ori	r19, 0x1F	; 31
     36a:	61 f3       	breq	.-40     	; 0x344 <__trampolines_end+0x28a>
     36c:	1f 0c       	add	r1, r15
     36e:	0c 0c       	add	r0, r12
     370:	0c 0c       	add	r0, r12
     372:	0c 8c       	ldd	r0, Y+28	; 0x1c
     374:	8c df       	rcall	.-232    	; 0x28e <__trampolines_end+0x1d4>
     376:	07 01       	movw	r0, r14
     378:	01 01       	movw	r0, r2
     37a:	01 01       	movw	r0, r2
     37c:	01 01       	movw	r0, r2
     37e:	61 e7       	ldi	r22, 0x71	; 113
     380:	e7 83       	std	Z+7, r30	; 0x07
     382:	83 83       	std	Z+3, r24	; 0x03
     384:	83 83       	std	Z+3, r24	; 0x03
     386:	83 83       	std	Z+3, r24	; 0x03
     388:	83 e7       	ldi	r24, 0x73	; 115
     38a:	fb 19       	sub	r31, r11
     38c:	01 61       	ori	r16, 0x11	; 17
     38e:	e1 61       	ori	r30, 0x11	; 17
     390:	01 01       	movw	r0, r2
     392:	19 fb       	.word	0xfb19	; ????
     394:	9f 86       	std	Y+15, r9	; 0x0f
     396:	c6 e6       	ldi	r28, 0x66	; 102
     398:	e6 b6       	in	r14, 0x36	; 54
     39a:	9e 9e       	mul	r9, r30
     39c:	8e e6       	ldi	r24, 0x6E	; 110
     39e:	e4 94       	.word	0x94e4	; ????
     3a0:	e7 90       	elpm	r14, Z+
     3a2:	f7 87       	std	Z+15, r31	; 0x0f
     3a4:	80 80       	ld	r8, Z
     3a6:	80 87       	std	Z+8, r24	; 0x08
     3a8:	88 88       	ldd	r8, Y+16	; 0x10
     3aa:	88 88       	ldd	r8, Y+16	; 0x10
     3ac:	af 66       	ori	r26, 0x6F	; 111
     3ae:	88 48       	sbci	r24, 0x88	; 136
     3b0:	28 c6       	rjmp	.+3152   	; 0x1002 <credits+0x16>
     3b2:	4c aa       	std	Y+52, r4	; 0x34
     3b4:	ac aa       	std	Y+52, r10	; 0x34
     3b6:	4a e0       	ldi	r20, 0x0A	; 10
     3b8:	88 c0       	rjmp	.+272    	; 0x4ca <blinky+0xd2>
     3ba:	88 e0       	ldi	r24, 0x08	; 8
     3bc:	00 00       	nop
     3be:	18 ff       	.word	0xff18	; ????
     3c0:	3c 00       	.word	0x003c	; ????
     3c2:	18 3c       	cpi	r17, 0xC8	; 200
     3c4:	ff 81       	ldd	r31, Y+7	; 0x07
     3c6:	42 3c       	cpi	r20, 0xC2	; 194
     3c8:	3c 3c       	cpi	r19, 0xCC	; 204
     3ca:	42 3c       	cpi	r20, 0xC2	; 194
     3cc:	5a 5a       	subi	r21, 0xAA	; 170
     3ce:	7e 7e       	andi	r23, 0xEE	; 238
     3d0:	00 00       	nop
     3d2:	24 3c       	cpi	r18, 0xC4	; 196
     3d4:	24 00       	.word	0x0024	; ????
     3d6:	00 18       	sub	r0, r0
     3d8:	18 3c       	cpi	r17, 0xC8	; 200
     3da:	7e ff       	.word	0xff7e	; ????
     3dc:	18 18       	sub	r1, r8
     3de:	ff 22       	and	r15, r31
     3e0:	55 88       	ldd	r5, Z+21	; 0x15
	...

000003f8 <blinky>:
     3f8:	10 1d 62 6c 69 6e 6b 79 20 32 2e 30 30 20 43 2e     ..blinky 2.00 C.
     408:	20 45 67 65 62 65 72 67 20 31 38 2f 38 2d 27 39      Egeberg 18/8-'9
     418:	31 00 4a 61 63 71 75 65 73 20 44 65 73 63 68 65     1.Jacques Desche
     428:	6e 65 73 2c 20 32 30 31 35 00 80 03 81 13 a3 88     nes, 2015.......
     438:	f1 55 60 05 a3 8a f0 55 87 73 86 63 22 df 00 e0     .U`....U.s.c"...
     448:	22 f0 6e 40 87 e2 6e 27 87 e1 68 34 69 18 6a 70     ".n@..n'..h4i.jp
     458:	6b 00 6c 04 6d 34 22 cd a3 ab da b8 dc d8 60 ff     k.l.m4".......`.
     468:	6e 14 70 ff 30 00 10 39 7e ff 3e 00 10 39 21 0d     n.p.0..9~.>..9!.
     478:	3e 00 10 56 a3 8a f0 65 85 00 c4 ff 84 52 21 a0     >..V...e.....R!.
     488:	c4 ff 84 52 22 34 60 20 e0 a1 23 14 36 f7 10 37     ...R"4` ..#.6..7
     498:	8e 60 23 66 6e 64 23 66 23 14 10 25 f0 07 40 00     .`#fnd#f#..%..@.
     4a8:	10 a8 80 80 80 06 80 06 81 a0 81 06 81 06 80 15     ................
     4b8:	40 00 10 67 40 01 10 67 40 ff 10 67 10 80 80 90     @..g@..g@..g....
     4c8:	80 06 80 06 81 b0 81 06 81 06 80 15 40 00 10 75     ............@..u
     4d8:	40 01 10 75 40 ff 10 75 10 80 a3 ab da b8 6a 70     @..u@..u......jp
     4e8:	6b 00 da b8 6e f3 87 e2 6e 04 87 e1 6e 32 23 66     k...n...n...n2#f
     4f8:	80 80 80 06 80 06 81 c0 81 06 81 06 80 15 40 00     ..............@.
     508:	10 8e 40 01 10 8e 40 ff 10 8e 10 42 80 90 80 06     ..@...@....B....
     518:	80 06 81 d0 81 06 81 06 80 15 40 00 10 9c 40 01     ..........@...@.
     528:	10 9c 40 ff 10 9c 10 42 a3 ab dc d8 6c 04 6d 34     ..@....B....l.m4
     538:	dc d8 6e cf 87 e2 6e 20 87 e1 6e 19 23 66 10 42     ..n...n ..n.#f.B
     548:	60 3c 23 7d 22 cd a3 ab da b8 dc d8 6e 40 87 e3     `<#}".......n@..
     558:	80 70 80 e2 30 00 10 29 8e 60 23 66 23 6e 00 e0     .p..0..).`#f#n..
     568:	66 24 67 14 a3 89 23 1c 66 24 67 20 a3 88 23 1c     f$g...#.f$g ..#.
     578:	64 00 65 10 66 01 67 0f a4 d7 d4 60 a4 e7 d5 60     d.e.f.g....`...`
     588:	60 0a 23 7d 3e 00 11 03 a4 d7 d4 60 a4 e7 d5 60     `.#}>......`...`
     598:	74 04 75 04 34 60 10 c4 a4 d7 d4 60 a4 e7 d5 60     t.u.4`.....`...`
     5a8:	60 0a 23 7d 3e 00 11 03 a4 d7 d4 60 a4 e7 d5 60     `.#}>......`...`
     5b8:	76 04 36 2d 10 d4 a4 d7 d4 60 a4 e7 d5 60 60 0a     v.6-.....`...``.
     5c8:	23 7d 3e 00 11 03 a4 d7 d4 60 a4 e7 d5 60 74 fc     #}>......`...`t.
     5d8:	75 fc 34 00 10 e3 a4 d7 d4 60 a4 e7 d5 60 60 0a     u.4......`...``.
     5e8:	23 7d 3e 00 11 03 a4 d7 d4 60 a4 e7 d5 60 76 fc     #}>......`...`v.
     5f8:	36 01 10 f3 10 c4 a4 e7 d5 60 a4 f7 d5 60 60 06     6........`...``.
     608:	f0 15 f0 07 30 00 11 09 10 1d 83 70 6e 03 83 e2     ....0......pn...
     618:	84 80 85 90 6e 04 ee a1 11 3e 6e 02 ee a1 11 4a     ....n....>n....J
     628:	6e 10 ee a1 11 56 6e 08 ee a1 11 62 43 03 75 04     n....Vn....bC.u.
     638:	43 00 75 fc 43 02 74 04 43 01 74 fc 80 40 81 50     C.u.C.t.C.t..@.P
     648:	23 04 82 00 6e 08 80 e2 30 00 11 6e 6e 07 80 20     #...n...0..nn.. 
     658:	82 e2 42 05 11 72 42 06 11 7e 42 07 11 9b 22 cd     ..B..rB..~B...".
     668:	6e fc 87 e2 87 31 88 40 89 50 12 cd 80 40 81 50     n....1.@.P...@.P
     678:	71 04 23 04 82 00 6e 08 80 e2 30 00 11 1e 63 03     q.#...n...0...c.
     688:	75 04 11 2c 80 40 81 50 71 fc 23 04 82 00 6e 08     u..,.@.Pq.#...n.
     698:	80 e2 30 00 11 1e 63 00 75 fc 11 2c 80 40 81 50     ..0...c.u..,.@.P
     6a8:	70 04 23 04 82 00 6e 08 80 e2 30 00 11 1e 63 02     p.#...n...0...c.
     6b8:	74 04 11 2c 80 40 81 50 70 fc 23 04 82 00 6e 08     t..,.@.Pp.#...n.
     6c8:	80 e2 30 00 11 1e 63 01 74 fc 11 2c 22 cd d8 98     ..0...c.t..,"...
     6d8:	8e f0 00 ee 6e f0 80 e2 80 31 f0 55 a3 af d4 58     ....n....1.U...X
     6e8:	76 01 61 05 f0 07 40 00 f1 18 11 37 6e f0 80 e2     v.a...@....7n...
     6f8:	80 31 f0 55 a3 b3 d4 58 76 04 80 a0 81 b0 23 04     .1.U...Xv.....#.
     708:	6e f0 80 e2 30 00 11 8e 6e 0c 87 e3 80 c0 81 d0     n...0...n.......
     718:	23 04 6e f0 80 e2 30 00 11 97 6e 30 87 e3 60 ff     #.n...0...n0..`.
     728:	f0 18 f0 15 11 37 43 01 64 74 43 02 64 00 11 37     .....7C.dtC.d..7
     738:	82 70 83 70 6e 0c 82 e2 80 a0 81 b0 23 04 a3 ab     .p.pn.......#...
     748:	6e f0 80 e2 30 00 11 b7 da b8 42 0c 7b 04 42 00     n...0.....B.{.B.
     758:	7b fc 42 08 7a 04 42 04 7a fc da b8 00 ee 6e 80     {.B.z.B.z.....n.
     768:	f1 07 31 00 12 0f 34 00 12 0f 81 00 83 0e 3f 00     ..1...4.......?.
     778:	11 d0 83 90 83 b5 4f 00 11 eb 33 00 11 df 87 e3     ......O...3.....
     788:	83 80 83 a5 4f 00 12 03 33 00 11 f7 87 e3 12 0f     ....O...3.......
     798:	83 80 83 a5 4f 00 12 03 33 00 11 f7 87 e3 83 90     ....O...3.......
     7a8:	83 b5 4f 00 11 eb 33 00 11 df 87 e3 12 0f 63 40     ..O...3.......c@
     7b8:	81 32 41 00 12 0f da b8 7b 04 da b8 6e f3 87 e2     .2A.....{...n...
     7c8:	62 0c 87 21 00 ee 63 10 81 32 41 00 12 0f da b8     b..!..c..2A.....
     7d8:	7b fc da b8 6e f3 87 e2 62 00 87 21 00 ee 63 20     {...n...b..!..c 
     7e8:	81 32 41 00 12 0f da b8 7a 04 da b8 6e f3 87 e2     .2A.....z...n...
     7f8:	62 08 87 21 00 ee 63 80 81 32 41 00 12 0f da b8     b..!..c..2A.....
     808:	7a fc da b8 6e f3 87 e2 62 04 87 21 00 ee c1 f0     z...n...b..!....
     818:	80 12 30 00 12 17 6e 0c 87 e3 82 e3 11 ac da b8     ..0...n.........
     828:	80 0e 4f 00 12 1e 62 04 7a fc 12 2f 80 0e 4f 00     ..O...b.z../..O.
     838:	12 24 62 0c 7b 04 12 2f 80 0e 4f 00 12 2a 62 08     .$b.{../..O..*b.
     848:	7a 04 12 2f 80 0e 4f 00 12 13 62 00 7b fc da b8     z../..O...b.{...
     858:	6e f3 87 e2 87 21 00 ee 82 70 83 70 6e 30 82 e2     n....!...p.pn0..
     868:	80 c0 81 d0 23 04 a3 ab 6e f0 80 e2 30 00 12 4b     ....#...n...0..K
     878:	dc d8 42 30 7d 04 42 00 7d fc 42 20 7c 04 42 10     ..B0}.B.}.B |.B.
     888:	7c fc dc d8 00 ee 6e 80 f1 07 31 00 12 a7 34 00     |.....n...1...4.
     898:	12 a7 81 00 83 0e 4f 00 12 64 83 90 83 d5 4f 00     ......O..d....O.
     8a8:	12 80 33 00 12 73 87 e3 83 80 83 c5 4f 00 12 9a     ..3..s......O...
     8b8:	33 00 12 8d 87 e3 12 a7 83 80 83 c5 4f 00 12 9a     3...........O...
     8c8:	33 00 12 8d 87 e3 83 90 83 d5 4f 00 12 80 33 00     3.........O...3.
     8d8:	12 73 87 e3 12 a7 63 40 81 32 41 00 12 a7 dc d8     .s....c@.2A.....
     8e8:	7d 04 dc d8 87 e3 6e cf 87 e2 62 30 87 21 00 ee     }.....n...b0.!..
     8f8:	63 10 81 32 41 00 12 a7 dc d8 7d fc dc d8 87 e3     c..2A.....}.....
     908:	6e cf 87 e2 62 00 87 21 00 ee 63 20 81 32 41 00     n...b..!..c .2A.
     918:	12 a7 dc d8 7c 04 dc d8 87 e3 6e cf 87 e2 62 20     ....|.....n...b 
     928:	87 21 00 ee 63 80 81 32 41 00 12 a7 dc d8 7c fc     .!..c..2A.....|.
     938:	dc d8 87 e3 6e cf 87 e2 62 10 87 21 00 ee c1 f0     ....n...b..!....
     948:	80 12 30 00 12 b0 87 e3 6e 30 87 e3 82 e3 12 40     ..0.....n0.....@
     958:	dc d8 80 0e 4f 00 12 b7 62 90 7c fc 12 c8 80 0e     ....O...b.|.....
     968:	4f 00 12 bd 62 30 7d 04 12 c8 80 0e 4f 00 12 c3     O...b0}.....O...
     978:	62 a0 7c 04 12 c8 80 0e 4f 00 12 ab 62 00 7d fc     b.|.....O...b.}.
     988:	dc d8 6e 4f 87 e2 87 21 00 ee 80 70 6e 03 80 e2     ..nO...!...pn...
     998:	80 0e 81 80 81 94 6e 04 81 e2 41 00 70 01 80 0e     ......n...A.p...
     9a8:	80 0e 80 0e a3 8b f0 1e d8 98 8e f0 00 ee 6e 00     ..............n.
     9b8:	a3 d7 fe 1e fe 1e fe 1e fe 1e f3 65 a5 07 fe 1e     ...........e....
     9c8:	fe 1e fe 1e fe 1e f3 55 7e 01 3e 80 12 e0 00 ee     .......U~.>.....
     9d8:	82 23 83 33 6e 0f 80 20 81 30 23 06 80 e2 80 0e     .#.3n.. .0#.....
     9e8:	80 0e a3 b7 f0 1e d2 34 72 04 32 80 12 f3 82 23     .......4r.2....#
     9f8:	73 04 43 40 00 ee 12 f3 70 04 71 04 80 06 80 06     s.C@....p.q.....
     a08:	81 06 81 06 81 0e 81 0e 81 0e 81 0e a5 07 f1 1e     ................
     a18:	f1 1e f0 1e f0 65 00 ee a3 8a f0 65 80 06 f0 55     .....e.....e...U
     a28:	60 20 e0 a1 13 19 00 ee f1 65 6e 01 84 43 82 00     ` .......en..C..
     a38:	83 10 65 10 83 55 4f 00 82 e5 4f 00 13 2f 65 27     ..e..UO...O../e'
     a48:	82 55 4f 00 13 2f 80 20 81 30 84 e4 13 21 f4 30     .UO../. .0...!.0
     a58:	d6 7a 76 0c 84 43 82 00 83 10 65 e8 83 55 4f 00     .zv..C....e..UO.
     a68:	82 e5 4f 00 13 43 65 03 82 55 4f 00 13 43 80 20     ..O..Ce..UO..C. 
     a78:	81 30 84 e4 13 35 f4 30 d6 7a 76 0c 84 43 82 00     .0...5.0.zv..C..
     a88:	83 10 65 64 83 55 4f 00 82 e5 4f 00 13 53 80 20     ..ed.UO...O..S. 
     a98:	81 30 84 e4 13 49 f4 30 d6 7a 76 0c 84 43 82 00     .0...I.0.zv..C..
     aa8:	83 10 65 0a 83 55 4f 00 13 60 81 30 84 e4 13 59     ..e..UO..`.0...Y
     ab8:	f4 30 d6 7a 76 0c f1 30 d6 7a 00 ee a3 88 f1 65     .0.zv..0.z.....e
     ac8:	81 e4 3f 00 70 01 a3 88 f1 55 00 ee a3 88 f3 65     ..?.p....U.....e
     ad8:	8e 00 8e 25 4f 00 00 ee 3e 00 13 7a 8e 10 8e 35     ...%O...>..z...5
     ae8:	4f 00 00 ee a3 89 f1 55 00 ee 8e e3 62 20 f0 15     O......U....b ..
     af8:	e2 a1 13 86 f0 07 30 00 13 80 00 ee 6e 01 00 ee     ......0.....n...
     b08:	00 00 00 00 05 00 00 22 63 63 77 7f 3e 1c 00 1c     ......."ccw.>...
     b18:	1e 5d 5d 6f 3e 1c 00 3c 7e 0f 07 0f 7e 3c 00 1c     .]]o>..<~...~<..
     b28:	26 7f 7f 7b 06 1c 00 1e 3f 78 70 78 3f 1e 00 1c     &..{....?xpx?...
     b38:	32 7f 7f 6f 30 1c 00 1c 3e 7f 77 63 63 22 00 1c     2..o0...>.wcc"..
     b48:	3e 6f 5d 5d 1e 1c 00 1c 3e 49 77 7f 63 7f 00 00     >o]]....>Iw.c...
     b58:	00 00 08 00 00 00 00 00 00 00 08 08 00 00 00 00     ................
	...
     b78:	00 00 80 00 00 00 80 80 00 00 00 00 00 00 f0 00     ................
     b88:	00 00 00 00 00 00 80 80 80 80 00 00 00 00 f0 80     ................
     b98:	80 80 80 80 80 80 f0 00 00 00 80 00 00 00 0c 08     ................
     ba8:	08 08 08 08 08 08 08 08 08 08 08 08 08 0d 0c 08     ................
     bb8:	08 08 08 08 08 08 08 08 08 08 08 08 08 0d 0a 65     ...............e
     bc8:	05 05 05 05 e5 05 05 e5 05 05 05 05 c5 0a 0a 65     ...............e
     bd8:	05 05 05 05 e5 05 05 e5 05 05 05 05 c5 0a 0a 05     ................
     be8:	0c 08 08 0f 05 0c 0d 05 08 08 08 0d 05 0e 0f 05     ................
     bf8:	0c 08 08 0f 05 0c 0d 05 08 08 08 0d 05 0a 0a 05     ................
     c08:	0a 65 06 05 95 0a 0a 35 05 05 c5 0a 35 05 05 95     .e.....5....5...
     c18:	0a 65 05 05 95 0a 0a 35 05 06 c5 0a 05 0a 0a 05     .e.....5........
     c28:	0f 05 08 08 08 08 08 0c 08 0f 05 08 08 08 08 08     ................
     c38:	0f 05 08 08 0c 08 08 08 08 0f 05 0f 05 0a 0a 75     ...............u
     c48:	05 b5 05 05 05 05 c5 0a 65 05 b5 05 e5 05 05 e5     ........e.......
     c58:	05 b5 05 c5 0a 65 05 05 05 05 b5 05 d5 0a 0a 05     .....e..........
     c68:	0c 08 08 08 08 0d 05 0f 05 0c 08 0f 05 08 0f 05     ................
     c78:	08 08 0d 05 0f 05 0c 08 08 08 08 0d 05 0a 0f 05     ................
     c88:	0f 65 05 05 c5 0a 35 e5 95 0a 65 05 b0 05 05 b5     .e....5...e.....
     c98:	05 c5 0a 35 e5 95 0a 65 05 05 c5 0f 05 0f 07 74     ...5...e.......t
     ca8:	05 d5 08 0f 05 0e 0f 05 08 0f 05 0c 08 08 08 08     ................
     cb8:	0d 05 08 0f 05 08 0f 05 08 0f 75 05 d4 07 0a 05     ..........u.....
     cc8:	0a 35 05 05 f5 05 05 b5 05 05 d5 08 08 0d 0c 08     .5..............
     cd8:	0f 75 05 05 b5 05 05 f5 05 05 95 0a 05 0a 0a 05     .u..............
     ce8:	08 08 08 0d 05 0c 08 08 08 0d 35 05 c5 0a 0a 65     ..........5....e
     cf8:	05 95 0c 08 08 08 0d 05 0c 08 08 0f 05 0a 0a 75     ...............u
     d08:	05 06 c5 0a 05 08 08 08 08 08 08 0f 05 08 0f 05     ................
     d18:	08 08 08 08 08 08 0f 05 0a 65 06 05 d5 0a 0a 05     .........e......
     d28:	0c 0d 05 0a 35 05 05 05 05 e5 05 05 f5 05 05 f5     ....5...........
     d38:	05 05 e5 05 05 05 05 95 0a 05 0c 0d 05 0a 0a 05     ................
     d48:	08 0f 05 08 08 08 08 08 0f 05 0c 0d 05 08 0f 05     ................
     d58:	0c 0d 05 08 08 08 08 08 0f 05 08 0f 05 0a 0a 35     ...............5
     d68:	05 05 b5 05 05 05 05 05 05 95 0a 0a 35 05 05 95     ............5...
     d78:	0a 0a 35 05 05 05 05 05 05 b5 05 05 95 0a 08 08     ..5.............
     d88:	08 08 08 08 08 08 08 08 08 08 0f 08 08 08 08 08     ................
     d98:	0f 08 08 08 08 08 08 08 08 08 08 08 08 0f 01 e0     ................
     da8:	02 10 04 c8 09 e4 0b f4 0b b4 09 e5 04 c9 02 13     ................
     db8:	01 e7 00 07 01 83 03 f0 01 ff 00 ff 00 3f 0f 00     .............?..
     dc8:	10 80 26 40 4f 20 5f a0 5d a0 4f 20 26 40 90 80     ..&@O _.].O &@..
     dd8:	cf 00 c0 00 83 00 1f 80 ff 00 fe 00 f8 00 0f 00     ................
     de8:	1f 80 3f c0 7f e0 7f e0 5f e0 47 e0 20 c0 90 80     ..?....._.G. ...
     df8:	cf 00 c0 80 83 c0 1f 80 ff 00 fe 00 f8 00 00 00     ................

00000e08 <car>:
     e08:	10 0f 31 2e 30 30 20 4b 2e 76 2e 53 65 6e 67 62     ..1.00 K.v.Sengb
     e18:	75 73 63 68 20 32 34 2f 34 2d 27 39 34 00 00 ff     usch 24/4-'94...
     e28:	6c 04 20 a4 65 32 66 32 67 28 83 50 84 60 62 64     l. .e2f2g(.P.`bd
     e38:	69 00 6a 01 6b 00 00 c1 20 66 60 01 82 05 60 28     i.j.k... f`...`(
     e48:	52 00 10 1b a0 c8 d3 48 a0 c8 d3 48 00 c1 d5 68     R......H...H...h
     e58:	3f 00 10 40 20 66 60 01 32 00 82 05 20 84 83 50     ?..@ f`.2... ..P
     e68:	84 60 60 08 e0 a1 20 58 60 10 e0 a1 20 54 c0 03     .``... X`... T..
     e78:	40 00 20 5d c0 03 40 00 20 61 80 c0 20 bd 10 24     @. ]..@. a.. ..$
     e88:	80 b0 70 03 80 06 80 06 f0 30 80 70 70 11 61 1b     ..p......0.pp.a.
     e98:	d0 1a 60 64 20 bd 00 c8 60 00 61 00 a0 cc 90 12     ..`d ...`.a.....
     ea8:	f0 0a 40 ff 10 50 10 11 75 01 45 6e 65 6d 00 ee     ..@..P..u.Enem..
     eb8:	60 01 85 05 4f 00 65 00 00 ee 77 01 47 46 67 45     `...O.e...w.GFgE
     ec8:	00 ee 60 01 87 05 47 14 67 15 00 ee 80 90 61 2d     ..`...G.g.....a-
     ed8:	81 05 88 10 61 00 80 70 a0 c2 d0 11 80 84 61 00     ....a..p......a.
     ee8:	d0 11 7a 01 4a 04 6a 01 4a 01 a0 c3 4a 02 a0 c4     ..z.J.j.J...J...
     ef8:	4a 03 a0 c5 61 00 60 00 d0 11 60 08 d0 11 60 70     J...a.`...`...`p
     f08:	d0 11 60 78 d0 11 00 ee 32 00 00 ee c0 0f 80 74     ..`x....2......t
     f18:	70 08 61 00 a0 c8 62 2d 4b 1e 20 96 3b 21 d0 18     p.a...b-K. .;!..
     f28:	7b 01 80 90 82 05 39 0b 79 01 00 ee 7b 03 a0 c6     {.....9.y...{...
     f38:	80 70 70 05 d0 11 70 08 d0 11 70 08 d0 11 70 08     .pp...p...p...p.
     f48:	a0 c7 d0 11 62 64 00 ee 00 e0 60 00 61 00 a0 d2     ....bd....`.a...
     f58:	90 12 62 08 82 c5 f2 29 60 2a d0 15 f0 0a 40 02     ..b....)`*....@.
     f68:	20 ba 40 04 20 b7 30 20 10 a4 00 e0 00 ee 3c 07      .@. .0 ......<.
     f78:	7c 01 10 bc 3c 01 7c ff 60 0f f0 15 f0 07 30 00     |...<.|.`.....0.
     f88:	10 be 00 ee 88 00 88 00 55 00 22 00 ff 00 f8 00     ........U.".....
     f98:	db ff db 18 24 e7 e7 db 61 6e 79 20 6b 65 79 2e     ....$...any key.
     fa8:	2e 2e 00 00 73 70 65 65 64 3a 20 00                 ....speed: .

00000fb4 <__c.2477>:
     fb4:	63 61 72 74 65 20 53 44 20 61 62 73 65 6e 74 65     carte SD absente
     fc4:	21 00                                               !.

00000fc6 <__c.2458>:
     fc6:	43 52 41 53 48 21 20 62 61 64 20 6f 70 63 6f 64     CRASH! bad opcod
     fd6:	65 0a 00                                            e..

00000fd9 <__c.2428>:
     fd9:	43 52 41 53 48 21 20 62 61 64 20 6f 70 63 6f 64     CRASH! bad opcod
     fe9:	65 0a 00                                            e..

00000fec <credits>:
     fec:	46 41 54 20 64 72 69 76 65 72 0a 43 6f 70 79 72     FAT driver.Copyr
     ffc:	69 67 68 74 20 32 30 30 36 2d 32 30 31 32 0a 52     ight 2006-2012.R
    100c:	6f 6c 61 6e 64 20 52 69 65 67 65 6c 0a 00           oland Riegel..

0000101a <flash_games>:
    101a:	4c 45 4d 0a 43 41 52 0a 57 4f 52 4d 0a 41 4c 49     LEM.CAR.WORM.ALI
    102a:	45 4e 0a 42 4c 49 4e 4b 59 0a 00                    EN.BLINKY..

00001035 <__c.2028>:
    1035:	76 61 72 5b 5d 3a 00                                var[]:.

0000103c <__c.2026>:
    103c:	20 53 50 3a 00                                       SP:.

00001041 <__c.2024>:
    1041:	49 3a 00                                            I:.

00001044 <__c.2022>:
    1044:	50 43 3a 00                                         PC:.

00001048 <__c.2074>:
    1048:	45 63 68 65 63 20 6f 75 76 65 72 74 2e 20 66 69     Echec ouvert. fi
    1058:	63 68 2e 0a 00                                      ch...

0000105d <__c.2062>:
    105d:	45 63 68 65 63 20 61 63 63 65 73 20 72 65 70 65     Echec acces repe
    106d:	72 74 2e 0a 00                                      rt...

00001072 <__c.2054>:
    1072:	45 63 68 65 63 20 61 63 63 65 73 20 66 69 63 68     Echec acces fich
    1082:	69 65 72 73 0a 00                                   iers..

00001088 <__c.2052>:
    1088:	45 63 68 65 63 20 61 63 63 65 73 20 70 61 72 74     Echec acces part
    1098:	69 74 69 6f 6e 0a 00                                ition..

0000109f <__c.1679>:
    109f:	62 6f 75 74 6f 6e 2e 2e 2e 00                       bouton....

000010a9 <lem>:
    10a9:	00 e0 20 c2 69 00 68 00 78 01 9e 08 60 10 8e 05     .. .i.h.x...`...
    10b9:	8e 06 6d 00 6c 00 6b 00 6a 64 20 87 20 6d 20 b3     ..m.l.k.jd . m .
    10c9:	4a 00 10 2b 60 08 e0 a1 10 1c 60 10 e0 a1 10 20     J..+`.....`.... 
    10d9:	60 20 e0 a1 10 24 10 2b 20 b3 7c ff 7a ff 10 29     ` ...$.+ .|.z..)
    10e9:	20 b3 7c 01 7a ff 10 29 20 b3 7b fe 3a 01 7a ff      .|.z..) .{.:.z.
    10f9:	7a ff 90 44 20 b3 20 b3 20 6d 8e c4 60 7f 8e 02     z..D . . m..`...
    1109:	8d b4 7b 01 20 6d 4f 01 10 4b 20 b3 4a 00 10 3b     ..{. mO..K .J..;
    1119:	60 14 20 46 10 10 20 b3 60 0a 61 04 90 11 60 04     `. F.. .`.a...`.
    1129:	20 46 20 b3 60 04 90 11 20 46 10 10 f0 15 f0 07      F .`... F......
    1139:	30 00 10 47 00 ee 20 b3 60 02 80 b5 3f 01 10 5c     0..G.. .`...?..\
    1149:	60 02 80 c5 3f 01 10 5c 5e 70 10 5c 79 01 a0 e8     `...?..\^p.\y...
    1159:	61 00 62 10 91 22 10 60 a0 e2 61 00 62 10 91 22     a.b..".`..a.b.."
    1169:	20 70 60 3c 20 46 60 20 e0 9e 10 64 61 01 62 0a      p`< F` ...da.b.
    1179:	91 21 e0 a1 10 69 00 e0 10 04 a0 cf de d0 00 ee     .!...i..........
    1189:	61 00 62 0a a1 0c f9 33 20 7c a0 df d1 25 71 04     a.b....3 |...%q.
    1199:	a1 0c f8 33 20 7c 00 ee 63 00 a1 0c f3 1e f0 65     ...3 |..c......e
    11a9:	f0 29 d1 25 71 04 73 01 33 03 10 7d 00 ee 65 00     .).%q.s.3..}..e.
    11b9:	c7 ff 90 08 63 10 80 35 90 06 80 75 90 07 3f 01     ....c..5...u..?.
    11c9:	87 00 84 70 74 10 c1 0f 90 09 81 07 83 50 83 75     ...pt........P.u
    11d9:	3f 01 10 9e 83 50 83 45 3f 01 10 ad 90 09 80 06     ?....P.E?.......
    11e9:	80 15 3f 00 71 01 90 09 70 ff 80 17 3f 00 71 ff     ..?.q...p...?.q.
    11f9:	c3 03 83 06 33 00 71 fe 71 01 95 13 75 01 90 08     ....3.q.q...u...
    1209:	55 00 10 96 00 ee 61 00 62 00 63 00 a1 0c fa 33     U.....a.b.c....3
    1219:	a1 0c f3 1e f0 65 f0 30 d1 2a 71 08 73 01 33 03     .....e.0.*q.s.3.
    1229:	10 b8 00 ee a0 f0 61 00 92 09 82 06 91 22 91 09     ......a......"..
    1239:	00 d1 60 03 20 46 71 ff 31 00 10 c8 00 ee 03 c0     ..`. Fq.1.......
    1249:	06 60 1f f8 3f fc 20 04 af f5 6c 36 2c 34 6f f6     .`..?. ...l6,4o.
    1259:	a0 05 3f fc 3f fc 12 90 24 48 60 0c c0 06 20 40     ..?.?...$H`... @
    1269:	40 80 80 00 79 6f 75 20 63 72 61 73 68 65 64 00     @...you crashed.
    1279:	63 6f 6e 67 72 61 74 75 6c 61 74 69 6f 6e 21 00     congratulation!.
    1289:	4c 45 4d 0a 4a 61 63 71 75 65 73 20 44 65 73 63     LEM.Jacques Desc
    1299:	68 65 6e 65 73 0a 43 6f 70 79 72 69 67 68 74 20     henes.Copyright 
    12a9:	32 30 31 34 2c 32 30 31 35 0a 6c 69 63 65 6e 63     2014,2015.licenc
    12b9:	65 20 47 50 4c 76 33 00 00 00 00 00                 e GPLv3.....

000012c5 <splash>:
    12c5:	ff ff ff ff ff ff ff ff ff ff ff ff ff ff ff ff     ................
    12d5:	ff ff ff ff ff ff ff ff ff ff ff ff ff ff ff ff     ................
    12e5:	ff ff ff ff ff ff ff ff ff ff ff ff ff ff ff ff     ................
    12f5:	ff ff ff ff ff ff ff ff ff ff ff ff ff ff ff ff     ................
    1305:	ff ff ff ff ff ff ff ff ff ff ff ff ff ff ff ff     ................
    1315:	ff ff ff ff ff ff ff ff ff ff ff ff ff ff ff ff     ................
    1325:	ff ff ff ff ff ff ff ff ff ff ff ff ff ff ff ff     ................
    1335:	ff ff ff ff ff ff ff ff ff ff ff ff ff ff ff ff     ................
    1345:	ff ff ff ff ff ff ff ff ff ff ff ff ff ff ff ff     ................
    1355:	ff ff ff ff ff ff ff ff ff ff ff ff ff ff ff ff     ................
    1365:	ff ff ff ff ff ff ff ff ff ff ff ff ff ff ff ff     ................
    1375:	ff ff ff ff ff ff ff ff ff ff ff ff ff ff ff ff     ................
    1385:	ff ff ff ff ff ff ff ff ff ff ff ff ff ff ff ff     ................
    1395:	ff ff c1 cf 99 81 ff ff ff ff ff ff ff ff ff ff     ................
    13a5:	ff ff 80 cf 99 80 ff ff ff ff ff ff ff ff ff ff     ................
    13b5:	ff ff 1c 4f 99 9c 7f ff ff ff ff ff ff ff ff ff     ...O............
    13c5:	ff ff 3e cf 99 9e 7f ff ff ff ff fb fe 7f ff ff     ..>.............
    13d5:	ff fe 7f cf 99 9e 78 7c 3c 87 ff fb fd bf ff ff     ......x|<.......
    13e5:	ff fe 7f cf 99 9e 70 38 1c 03 ff f3 fb df ff ff     ......p8........
    13f5:	ff fe 7f c0 19 9c 63 11 8c 73 ef ab fb df ff ff     ......c..s......
    1405:	ff fe 7f c0 19 80 e7 93 cc f3 f7 7b fb df ff ff     ...........{....
    1415:	ff fe 7f cf 99 81 e7 f3 cc f3 f7 7b fb df ff ff     ...........{....
    1425:	ff fe 7e cf 99 9f e7 f3 cc f3 f7 7b fb df ff ff     ..~........{....
    1435:	ff ff 3c 4f 99 9f e7 93 cc f3 fa fb fb df ff ff     ..<O............
    1445:	ff ff 1c cf 99 9f e3 11 8c f3 fa fb fb df ff ff     ................
    1455:	ff ff 80 cf 99 9f f0 38 1c f3 fa fb fd bf ff ff     .......8........
    1465:	ff ff c1 cf 99 9f f8 7c 3c f3 fd fb de 7f ff ff     .......|<.......
    1475:	ff ff ff ff ff ff ff ff ff ff ff ff ff ff ff ff     ................
    1485:	ff ff ff ff ff ff ff ff ff ff ff ff ff ff ff ff     ................
    1495:	ff ff ff ff ff ff ff ff ff ff ff ff ff ff ff ff     ................
    14a5:	ff ff ff ff ff ff ff ff ff ff ff ff ff ff ff ff     ................
    14b5:	ff ff ff ff ff ff ff ff ff ff ff ff ff ff ff ff     ................
    14c5:	ff ff ff ff ff ff ff ff ff ff ff ff ff ff ff ff     ................
    14d5:	ff ff ff ff ff ff ff ff ff ff ff ff ff ff ff ff     ................
    14e5:	ff ff ff ff ff ff ff ff ff ff ff ff ff ff ff ff     ................
    14f5:	ff ff 8f ff ff f7 f7 df 3e fb f7 fb fc 3f ff ff     ........>....?..
    1505:	ff ff 77 ff ff ff f7 de dd 73 e7 fb fd df ff ff     ..w......s......
    1515:	ff fe f6 34 dd 56 54 8e eb ab e7 fb 1d ec 7f ff     ...4.VT.........
    1525:	ff fe fd d3 5d 35 93 5f eb bb d7 fa ed eb bf ff     ....]5._........
    1535:	ff fe fd d7 6b 75 d7 5f db bb d7 fb ed eb bf ff     ....ku._........
    1545:	ff fe fd d7 6b 75 d7 5f bb bb b7 fb 0d e8 3f ff     ....ku._......?.
    1555:	ff fe f5 d7 6b 75 d7 5f 7b bb 83 da ed eb ff ff     ....ku._{.......
    1565:	ff ff 75 d3 77 75 97 5e fd 7b f7 da ed db bf ff     ..u.wu.^.{......
    1575:	ff ff 8e 34 f7 76 57 4e 0e fb f7 e7 0c 3c 7f ff     ...4.vWN.....<..
    1585:	ff ff ff f7 f7 ff df ff ff ff ff ff ff ff ff ff     ................
    1595:	ff ff ff f7 f7 fd df ff ff ff ff ff ff ff ff ff     ................
    15a5:	ff ff ff f7 cf fe 3f ff ff ff ff ff ff ff ff ff     ......?.........
    15b5:	ff ff ff ff ff ff ff ff ff ff ff ff ff ff ff ff     ................
    15c5:	ff ff ff ff ff ff ff ff ff ff ff ff ff ff ff ff     ................
    15d5:	ff ff ff ff ff ff ff ff ff ff ff ff ff ff ff ff     ................
    15e5:	ff ff ff ff ff ff ff ff ff ff ff ff ff ff ff ff     ................
    15f5:	ff ff ff ff ff ff ff ff ff ff ff ff ff ff ff ff     ................
    1605:	ff ff ff ff ff ff ff ff ff ff ff ff ff ff ff ff     ................
    1615:	ff ff ff ff ff ff ff ff ff ff ff ff ff ff ff ff     ................
    1625:	ff ff ff ff ff ff ff ff ff ff ff ff ff ff ff ff     ................
    1635:	ff ff ff ff ff ff ff ff ff ff ff ff ff ff ff ff     ................
    1645:	ff ff ff ff ff ff ff ff ff ff ff ff ff ff ff ff     ................
    1655:	ff ff ff ff ff ff ff ff ff ff ff ff ff ff ff ff     ................
    1665:	ff ff ff ff ff ff ff ff ff ff ff ff ff ff ff ff     ................
    1675:	ff ff ff ff ff ff ff ff ff ff ff ff ff ff ff ff     ................
    1685:	ff ff ff ff ff ff ff ff ff ff ff ff ff ff ff ff     ................
    1695:	ff ff ff ff ff ff ff ff ff ff ff ff ff ff ff ff     ................
    16a5:	ff ff ff ff ff ff ff ff ff ff ff ff ff ff ff ff     ................
    16b5:	ff ff ff ff ff ff ff ff ff ff ff ff ff ff ff ff     ................

000016c5 <font_6x8>:
	...
    16cd:	20 20 20 20 20 00 20 00 50 50 50 00 00 00 00 00          . .PPP.....
    16dd:	50 50 f8 50 f8 50 50 00 20 78 a0 70 28 f0 20 00     PP.P.PP. x.p(. .
    16ed:	c0 c8 10 20 40 98 18 00 60 90 a0 40 a8 90 68 00     ... @...`..@..h.
    16fd:	60 20 40 00 00 00 00 00 10 20 40 40 40 20 10 00     ` @...... @@@ ..
    170d:	40 20 10 10 10 20 40 00 00 20 a8 70 a8 20 00 00     @ ... @.. .p. ..
    171d:	00 20 20 f8 20 20 00 00 00 00 00 00 60 20 40 00     .  .  ......` @.
    172d:	00 00 00 f0 00 00 00 00 00 00 00 00 00 60 60 00     .............``.
    173d:	00 08 10 20 40 80 00 00 70 88 98 a8 c8 88 70 00     ... @...p.....p.
    174d:	20 60 20 20 20 20 f8 00 70 88 10 20 40 80 f8 00      `    ..p.. @...
    175d:	f0 08 08 f0 08 08 f0 00 10 30 50 90 f8 10 10 00     .........0P.....
    176d:	f8 80 80 f0 08 08 f0 00 30 40 80 f0 88 88 70 00     ........0@....p.
    177d:	f8 08 10 20 40 40 40 00 70 88 88 70 88 88 70 00     ... @@@.p..p..p.
    178d:	70 88 88 70 08 08 70 00 00 60 60 00 60 60 00 00     p..p..p..``.``..
    179d:	00 60 60 00 60 20 40 00 10 20 40 80 40 20 10 00     .``.` @.. @.@ ..
    17ad:	00 00 f8 00 f8 00 00 00 40 20 10 08 10 20 40 00     ........@ ... @.
    17bd:	70 88 08 10 20 00 20 00 70 88 08 68 a8 a8 70 00     p... . .p..h..p.
    17cd:	70 88 88 f8 88 88 88 00 f0 88 88 f0 88 88 f0 00     p...............
    17dd:	78 80 80 80 80 80 78 00 f0 88 88 88 88 88 f0 00     x.....x.........
    17ed:	f8 80 80 f8 80 80 f8 00 f8 80 80 f8 80 80 80 00     ................
    17fd:	78 80 80 b0 88 88 70 00 88 88 88 f8 88 88 88 00     x.....p.........
    180d:	70 20 20 20 20 20 70 00 78 08 08 08 08 90 60 00     p     p.x.....`.
    181d:	88 90 a0 c0 a0 90 88 00 80 80 80 80 80 80 f8 00     ................
    182d:	88 d8 a8 88 88 88 88 00 88 88 c8 a8 98 88 88 00     ................
    183d:	70 88 88 88 88 88 70 00 f0 88 88 f0 80 80 80 00     p.....p.........
    184d:	70 88 88 88 a8 98 78 00 f0 88 88 f0 a0 90 88 00     p.....x.........
    185d:	78 80 80 70 08 08 f0 00 f8 20 20 20 20 20 20 00     x..p.....      .
    186d:	88 88 88 88 88 88 70 00 88 88 88 88 88 50 20 00     ......p......P .
    187d:	88 88 88 a8 a8 d8 88 00 88 88 50 20 50 88 88 00     ..........P P...
    188d:	88 88 88 50 20 20 20 00 f8 10 20 40 80 80 f8 00     ...P   ... @....
    189d:	60 40 40 40 40 40 60 00 00 80 40 20 10 08 00 00     `@@@@@`...@ ....
    18ad:	18 08 08 08 08 08 18 00 20 50 88 00 00 00 00 00     ........ P......
    18bd:	00 00 00 00 00 00 f8 00 40 20 10 00 00 00 00 00     ........@ ......
    18cd:	00 00 70 08 78 88 78 00 80 80 80 b0 c8 88 f0 00     ..p.x.x.........
    18dd:	00 00 70 80 80 88 70 00 08 08 08 68 98 88 78 00     ..p...p....h..x.
    18ed:	00 00 70 88 f8 80 70 00 30 48 40 e0 40 40 40 00     ..p...p.0H@.@@@.
    18fd:	00 00 78 88 88 78 08 70 80 80 b0 c8 88 88 88 00     ..x..x.p........
    190d:	00 20 00 20 20 20 20 00 10 00 30 10 10 90 60 00     . .    ...0...`.
    191d:	80 80 90 a0 c0 a0 90 00 60 20 20 20 20 20 70 00     ........`     p.
    192d:	00 00 d0 a8 a8 88 88 00 00 00 b0 c8 88 88 88 00     ................
    193d:	00 00 70 88 88 88 70 00 00 00 f0 88 88 f0 80 80     ..p...p.........
    194d:	00 00 68 90 90 b0 50 18 00 00 b0 c8 80 80 80 00     ..h...P.........
    195d:	00 00 70 80 70 08 f0 00 40 40 e0 40 40 48 30 00     ..p.p...@@.@@H0.
    196d:	00 00 88 88 88 98 68 00 00 00 88 88 88 50 20 00     ......h......P .
    197d:	00 00 88 88 a8 a8 50 00 00 00 88 50 20 50 88 00     ......P....P P..
    198d:	00 00 88 88 88 78 08 70 00 00 f8 10 20 40 f8 00     .....x.p.... @..
    199d:	20 40 40 80 40 40 20 00 20 20 20 20 20 20 20 00      @@.@@ .       .
    19ad:	40 20 20 10 20 20 40 00 00 00 40 a8 10 00 00 00     @  .  @...@.....
    19bd:	fc fc fc fc fc fc fc fc 40 20 10 f8 10 20 40 00     ........@ ... @.
    19cd:	10 20 40 f8 40 20 10 00 20 70 a8 20 20 20 00 00     . @.@ .. p.   ..
    19dd:	00 20 20 20 a8 70 20 00 00 70 f8 f8 f8 70 00 00     .   .p ..p...p..

000019ed <font_hex_8x10>:
    19ed:	7c 82 86 8a 92 a2 c2 82 7c 00 08 18 28 08 08 08     |.......|...(...
    19fd:	08 08 3e 00 38 44 82 04 08 10 20 40 fe 00 38 44     ..>.8D.... @..8D
    1a0d:	82 02 3c 02 82 44 38 00 84 84 84 84 7e 04 04 04     ..<..D8.....~...
    1a1d:	04 00 7e 80 80 80 7c 02 02 02 fe 00 78 84 80 80     ..~...|.....x...
    1a2d:	fc 82 82 82 7c 00 7e 82 04 08 08 08 08 08 08 00     ....|.~.........
    1a3d:	38 44 82 82 7c 82 82 44 38 00 38 44 82 82 46 3a     8D..|..D8.8D..F:
    1a4d:	02 04 38 00 38 44 82 82 fe 82 82 82 82 00 fc 82     ..8.8D..........
    1a5d:	82 82 fc 82 82 82 fc 00 3e 40 80 80 80 80 80 40     ........>@.....@
    1a6d:	3e 00 f8 84 82 82 82 82 82 84 f8 00 fe 80 80 80     >...............
    1a7d:	fe 80 80 80 fe 00 fe 80 80 80 fe 80 80 80 80 00     ................

00001a8d <font_hex_4x6>:
    1a8d:	e0 a0 a0 a0 e0 00 c0 40 40 40 e0 00 e0 20 e0 80     .......@@@... ..
    1a9d:	e0 00 e0 20 e0 20 e0 00 a0 a0 e0 20 20 00 e0 80     ... . .....  ...
    1aad:	e0 20 e0 00 80 80 e0 a0 e0 00 e0 20 20 20 20 00     . .........    .
    1abd:	e0 a0 e0 a0 e0 00 e0 a0 e0 20 20 00 e0 a0 e0 a0     .........  .....
    1acd:	a0 00 c0 a0 c0 a0 c0 00 e0 80 80 80 e0 00 c0 a0     ................
    1add:	a0 a0 c0 00 e0 80 e0 80 e0 00 e0 80 e0 80 80 00     ................

00001aed <SCALE>:
    1aed:	0b 02 2a 02 4b 02 6e 02 93 02 ba 02 e4 02 10 03     ..*.K.n.........
    1afd:	3f 03 70 03 a4 03 dc 03 17 04 55 04 97 04 dd 04     ?.p.......U.....

00001b0d <worm>:
    1b0d:	10 0e 57 6f 72 6d 00 52 42 39 32 00 00 00 00 3e     ..Worm.RB92....>
    1b1d:	05 00 2b 7c 00 00 06 1e 01 00 04 00 00 ff 00 e0     ..+|............
    1b2d:	a0 06 fe 65 a0 cc f0 55 fc 1e 71 01 31 00 10 13     ...e...U..q.1...
    1b3d:	a0 b5 da b3 d4 21 d4 31 74 03 34 7a 10 1a a0 be     .....!.1t.4z....
    1b4d:	63 04 d3 29 d4 29 72 09 32 3f 10 21 a0 03 f0 65     c..).)r.2?.!...e
    1b5d:	a0 01 f0 33 63 2e 20 73 a0 01 f5 33 20 72 20 a6     ...3c. s...3 r .
    1b6d:	a0 bd d7 61 76 fe 36 11 10 30 63 0a f3 15 a0 cc     ...av.6..0c.....
    1b7d:	f8 1e f0 65 84 00 80 a0 f0 55 a1 4c f8 1e f0 65     ...e.....U.L...e
    1b8d:	81 00 80 b0 f0 55 a0 b6 34 00 d4 13 a0 b1 f9 1e     .....U..4.......
    1b9d:	f1 65 a0 b8 da b2 8a 04 8b 14 a0 b5 da b3 3f 00     .e............?.
    1bad:	10 7f c0 0f 40 00 20 a4 78 01 98 e0 68 00 61 08     ....@. .x...h.a.
    1bbd:	e1 9e 66 00 e1 9e 10 61 36 00 10 61 79 02 66 06     ..f....a6..ay.f.
    1bcd:	89 62 61 10 e1 9e 67 00 e1 9e 10 6b 37 00 10 6b     .ba...g....k7..k
    1bdd:	79 fe 67 06 89 72 f3 07 33 00 10 57 10 35 20 72     y.g..r..3..W.5 r
    1bed:	a0 01 f5 33 63 00 64 7c a0 01 f2 65 f0 29 d4 35     ...3c.d|...e.).5
    1bfd:	73 06 f1 29 d4 35 73 06 f2 29 d4 35 00 ee 20 ae     s..).5s..).5.. .
    1c0d:	a0 b5 da b3 da b3 3f 00 10 8a 64 02 f4 18 75 01     ......?...d...u.
    1c1d:	20 6f 10 54 64 0a f4 18 da b3 8a 05 8b 15 a0 b8      o.Td...........
    1c2d:	da b2 a0 03 f0 65 80 55 80 50 4f 00 f0 55 60 64     .....e.U.PO..U`d
    1c3d:	f0 15 f0 07 30 00 10 99 00 c8 81 00 a0 c3 90 12     ....0...........
    1c4d:	f0 0a 30 20 10 a0 10 0e 7e 01 00 ee a0 b9 cc 7c     ..0 ....~......|
    1c5d:	7c 02 cd 3c 7d 02 dc d7 4f 00 00 ee a0 b9 dc d7     |..<}...O.......
    1c6d:	10 a7 04 00 00 fc fc 00 00 04 e0 e0 e0 a0 e0 00     ................
    1c7d:	00 40 38 7c de fe fe 7c 38 00 f0 00 80 80 80 80     .@8|...|8.......
    1c8d:	80 80 80 80 80 00 73 65 6c 65 63 74 20 72 65 73     ......select res
    1c9d:	74 61 72 74 2e 2e 2e 00 00 00 00 00 00 00 00 00     tart............
	...

00001da6 <__ctors_end>:
    1da6:	11 24       	eor	r1, r1
    1da8:	1f be       	out	0x3f, r1	; 63
    1daa:	cf ef       	ldi	r28, 0xFF	; 255
    1dac:	d8 e0       	ldi	r29, 0x08	; 8
    1dae:	de bf       	out	0x3e, r29	; 62
    1db0:	cd bf       	out	0x3d, r28	; 61

00001db2 <__do_copy_data>:
    1db2:	11 e0       	ldi	r17, 0x01	; 1
    1db4:	a0 e0       	ldi	r26, 0x00	; 0
    1db6:	b1 e0       	ldi	r27, 0x01	; 1
    1db8:	ee e6       	ldi	r30, 0x6E	; 110
    1dba:	fb e4       	ldi	r31, 0x4B	; 75
    1dbc:	02 c0       	rjmp	.+4      	; 0x1dc2 <__do_copy_data+0x10>
    1dbe:	05 90       	lpm	r0, Z+
    1dc0:	0d 92       	st	X+, r0
    1dc2:	a8 30       	cpi	r26, 0x08	; 8
    1dc4:	b1 07       	cpc	r27, r17
    1dc6:	d9 f7       	brne	.-10     	; 0x1dbe <__do_copy_data+0xc>

00001dc8 <__do_clear_bss>:
    1dc8:	28 e0       	ldi	r18, 0x08	; 8
    1dca:	a8 e0       	ldi	r26, 0x08	; 8
    1dcc:	b1 e0       	ldi	r27, 0x01	; 1
    1dce:	01 c0       	rjmp	.+2      	; 0x1dd2 <.do_clear_bss_start>

00001dd0 <.do_clear_bss_loop>:
    1dd0:	1d 92       	st	X+, r1

00001dd2 <.do_clear_bss_start>:
    1dd2:	a0 35       	cpi	r26, 0x50	; 80
    1dd4:	b2 07       	cpc	r27, r18
    1dd6:	e1 f7       	brne	.-8      	; 0x1dd0 <.do_clear_bss_loop>
    1dd8:	0e 94 57 11 	call	0x22ae	; 0x22ae <main>
    1ddc:	0c 94 b5 25 	jmp	0x4b6a	; 0x4b6a <_exit>

00001de0 <__bad_interrupt>:
    1de0:	0c 94 00 00 	jmp	0	; 0x0 <__vectors>

00001de4 <read16>:
 *
 * \param[in] p Pointer from where to read the integer.
 * \returns The 16-bit integer read from memory.
 */
uint16_t read16(const uint8_t* p)
{
    1de4:	fc 01       	movw	r30, r24
    return (((uint16_t) p[1]) << 8) |
    1de6:	81 81       	ldd	r24, Z+1	; 0x01
    1de8:	90 e0       	ldi	r25, 0x00	; 0
    1dea:	98 2f       	mov	r25, r24
    1dec:	88 27       	eor	r24, r24
           (((uint16_t) p[0]) << 0);
    1dee:	20 81       	ld	r18, Z
}
    1df0:	82 2b       	or	r24, r18
    1df2:	08 95       	ret

00001df4 <read32>:
 *
 * \param[in] p Pointer from where to read the integer.
 * \returns The 32-bit integer read from memory.
 */
uint32_t read32(const uint8_t* p)
{
    1df4:	fc 01       	movw	r30, r24
    return (((uint32_t) p[3]) << 24) |
    1df6:	23 81       	ldd	r18, Z+3	; 0x03
           (((uint32_t) p[2]) << 16) |
    1df8:	62 81       	ldd	r22, Z+2	; 0x02
    1dfa:	86 2f       	mov	r24, r22
    1dfc:	90 e0       	ldi	r25, 0x00	; 0
    1dfe:	a0 e0       	ldi	r26, 0x00	; 0
    1e00:	b0 e0       	ldi	r27, 0x00	; 0
    1e02:	77 27       	eor	r23, r23
    1e04:	66 27       	eor	r22, r22
 * \param[in] p Pointer from where to read the integer.
 * \returns The 32-bit integer read from memory.
 */
uint32_t read32(const uint8_t* p)
{
    return (((uint32_t) p[3]) << 24) |
    1e06:	92 2b       	or	r25, r18
           (((uint32_t) p[2]) << 16) |
           (((uint32_t) p[1]) <<  8) |
           (((uint32_t) p[0]) <<  0);
    1e08:	20 81       	ld	r18, Z
 * \returns The 32-bit integer read from memory.
 */
uint32_t read32(const uint8_t* p)
{
    return (((uint32_t) p[3]) << 24) |
           (((uint32_t) p[2]) << 16) |
    1e0a:	62 2b       	or	r22, r18
           (((uint32_t) p[1]) <<  8) |
    1e0c:	21 81       	ldd	r18, Z+1	; 0x01
 * \param[in] p Pointer from where to read the integer.
 * \returns The 32-bit integer read from memory.
 */
uint32_t read32(const uint8_t* p)
{
    return (((uint32_t) p[3]) << 24) |
    1e0e:	72 2b       	or	r23, r18
           (((uint32_t) p[2]) << 16) |
           (((uint32_t) p[1]) <<  8) |
           (((uint32_t) p[0]) <<  0);
}
    1e10:	08 95       	ret

00001e12 <load_flash_game>:
#include "blinky.h"

extern vm_state_t vms;


void load_flash_game(const uint8_t *addr,uint16_t size){
    1e12:	ef 92       	push	r14
    1e14:	ff 92       	push	r15
    1e16:	0f 93       	push	r16
    1e18:	1f 93       	push	r17
    1e1a:	cf 93       	push	r28
    1e1c:	df 93       	push	r29
    1e1e:	8c 01       	movw	r16, r24
    1e20:	7b 01       	movw	r14, r22
	uint16_t i;
	
	for (i=0;i<size;i++){
    1e22:	c0 e0       	ldi	r28, 0x00	; 0
    1e24:	d0 e0       	ldi	r29, 0x00	; 0
    1e26:	ce 15       	cp	r28, r14
    1e28:	df 05       	cpc	r29, r15
    1e2a:	49 f0       	breq	.+18     	; 0x1e3e <load_flash_game+0x2c>
    1e2c:	f8 01       	movw	r30, r16
    1e2e:	ec 0f       	add	r30, r28
    1e30:	fd 1f       	adc	r31, r29
		sram_write_byte(CODE_BASE_ADDR+i,pgm_read_byte(&addr[i]));
    1e32:	64 91       	lpm	r22, Z
    1e34:	ce 01       	movw	r24, r28
    1e36:	0e 94 f1 1e 	call	0x3de2	; 0x3de2 <sram_write_byte>


void load_flash_game(const uint8_t *addr,uint16_t size){
	uint16_t i;
	
	for (i=0;i<size;i++){
    1e3a:	21 96       	adiw	r28, 0x01	; 1
    1e3c:	f4 cf       	rjmp	.-24     	; 0x1e26 <load_flash_game+0x14>
		sram_write_byte(CODE_BASE_ADDR+i,pgm_read_byte(&addr[i]));
	}
}
    1e3e:	df 91       	pop	r29
    1e40:	cf 91       	pop	r28
    1e42:	1f 91       	pop	r17
    1e44:	0f 91       	pop	r16
    1e46:	ff 90       	pop	r15
    1e48:	ef 90       	pop	r14
    1e4a:	08 95       	ret

00001e4c <display_page>:
#define MAX_ENTRIES (2048)
#define DISPLAY_LINES (10)



uint8_t display_page(int16_t page){
    1e4c:	df 92       	push	r13
    1e4e:	ef 92       	push	r14
    1e50:	ff 92       	push	r15
    1e52:	0f 93       	push	r16
    1e54:	1f 93       	push	r17
    1e56:	cf 93       	push	r28
    1e58:	df 93       	push	r29
    1e5a:	cd b7       	in	r28, 0x3d	; 61
    1e5c:	de b7       	in	r29, 0x3e	; 62
    1e5e:	a0 97       	sbiw	r28, 0x20	; 32
    1e60:	0f b6       	in	r0, 0x3f	; 63
    1e62:	f8 94       	cli
    1e64:	de bf       	out	0x3e, r29	; 62
    1e66:	0f be       	out	0x3f, r0	; 63
    1e68:	cd bf       	out	0x3d, r28	; 61
	uint8_t fname[ENTRY_SIZE];
	uint8_t i;
	for (i=0;i<DISPLAY_LINES;i++){
		sram_load_block(page*DISPLAY_LINES*ENTRY_SIZE+(i*ENTRY_SIZE),ENTRY_SIZE,fname);
    1e6a:	2a e0       	ldi	r18, 0x0A	; 10
    1e6c:	28 9f       	mul	r18, r24
    1e6e:	70 01       	movw	r14, r0
    1e70:	29 9f       	mul	r18, r25
    1e72:	f0 0c       	add	r15, r0
    1e74:	11 24       	eor	r1, r1
    1e76:	85 e0       	ldi	r24, 0x05	; 5
    1e78:	ee 0c       	add	r14, r14
    1e7a:	ff 1c       	adc	r15, r15
    1e7c:	8a 95       	dec	r24
    1e7e:	e1 f7       	brne	.-8      	; 0x1e78 <display_page+0x2c>
    1e80:	00 e0       	ldi	r16, 0x00	; 0
    1e82:	10 e0       	ldi	r17, 0x00	; 0


uint8_t display_page(int16_t page){
	uint8_t fname[ENTRY_SIZE];
	uint8_t i;
	for (i=0;i<DISPLAY_LINES;i++){
    1e84:	d1 2c       	mov	r13, r1
		sram_load_block(page*DISPLAY_LINES*ENTRY_SIZE+(i*ENTRY_SIZE),ENTRY_SIZE,fname);
    1e86:	ae 01       	movw	r20, r28
    1e88:	4f 5f       	subi	r20, 0xFF	; 255
    1e8a:	5f 4f       	sbci	r21, 0xFF	; 255
    1e8c:	60 e2       	ldi	r22, 0x20	; 32
    1e8e:	70 e0       	ldi	r23, 0x00	; 0
    1e90:	c8 01       	movw	r24, r16
    1e92:	8e 0d       	add	r24, r14
    1e94:	9f 1d       	adc	r25, r15
    1e96:	0e 94 32 1f 	call	0x3e64	; 0x3e64 <sram_load_block>
		if (strlen((char *)fname)){
    1e9a:	89 81       	ldd	r24, Y+1	; 0x01
    1e9c:	88 23       	and	r24, r24
    1e9e:	91 f0       	breq	.+36     	; 0x1ec4 <display_page+0x78>
			put_char(' ');
    1ea0:	80 e2       	ldi	r24, 0x20	; 32
    1ea2:	0e 94 b4 1f 	call	0x3f68	; 0x3f68 <put_char>
			print(fname);
    1ea6:	ce 01       	movw	r24, r28
    1ea8:	01 96       	adiw	r24, 0x01	; 1
    1eaa:	0e 94 12 20 	call	0x4024	; 0x4024 <print>
			if (i<7) new_line();
    1eae:	86 e0       	ldi	r24, 0x06	; 6
    1eb0:	8d 15       	cp	r24, r13
    1eb2:	10 f0       	brcs	.+4      	; 0x1eb8 <display_page+0x6c>
    1eb4:	0e 94 86 1f 	call	0x3f0c	; 0x3f0c <new_line>


uint8_t display_page(int16_t page){
	uint8_t fname[ENTRY_SIZE];
	uint8_t i;
	for (i=0;i<DISPLAY_LINES;i++){
    1eb8:	d3 94       	inc	r13
    1eba:	00 5e       	subi	r16, 0xE0	; 224
    1ebc:	1f 4f       	sbci	r17, 0xFF	; 255
    1ebe:	8a e0       	ldi	r24, 0x0A	; 10
    1ec0:	d8 12       	cpse	r13, r24
    1ec2:	e1 cf       	rjmp	.-62     	; 0x1e86 <display_page+0x3a>
		}else{
			break;
		}
	}
	return i;
}
    1ec4:	8d 2d       	mov	r24, r13
    1ec6:	a0 96       	adiw	r28, 0x20	; 32
    1ec8:	0f b6       	in	r0, 0x3f	; 63
    1eca:	f8 94       	cli
    1ecc:	de bf       	out	0x3e, r29	; 62
    1ece:	0f be       	out	0x3f, r0	; 63
    1ed0:	cd bf       	out	0x3d, r28	; 61
    1ed2:	df 91       	pop	r29
    1ed4:	cf 91       	pop	r28
    1ed6:	1f 91       	pop	r17
    1ed8:	0f 91       	pop	r16
    1eda:	ff 90       	pop	r15
    1edc:	ef 90       	pop	r14
    1ede:	df 90       	pop	r13
    1ee0:	08 95       	ret

00001ee2 <select_file>:
}

// slectionne un fichier
//  partir de la liste
// affiche  l'cran
int16_t select_file(int16_t fcount){
    1ee2:	9f 92       	push	r9
    1ee4:	af 92       	push	r10
    1ee6:	bf 92       	push	r11
    1ee8:	cf 92       	push	r12
    1eea:	df 92       	push	r13
    1eec:	ef 92       	push	r14
    1eee:	ff 92       	push	r15
    1ef0:	0f 93       	push	r16
    1ef2:	1f 93       	push	r17
    1ef4:	cf 93       	push	r28
    1ef6:	df 93       	push	r29
    1ef8:	6c 01       	movw	r12, r24
	int16_t page, selected;
	uint8_t key, pg_lines;
	
	cls();
    1efa:	0e 94 23 23 	call	0x4646	; 0x4646 <cls>
	page=0;
	selected=0;
	frame_delay=2;
    1efe:	82 e0       	ldi	r24, 0x02	; 2
    1f00:	80 93 cf 02 	sts	0x02CF, r24
	while (frame_delay);
    1f04:	80 91 cf 02 	lds	r24, 0x02CF
    1f08:	81 11       	cpse	r24, r1
    1f0a:	fc cf       	rjmp	.-8      	; 0x1f04 <select_file+0x22>
	pg_lines=display_page(page);
    1f0c:	80 e0       	ldi	r24, 0x00	; 0
    1f0e:	90 e0       	ldi	r25, 0x00	; 0
    1f10:	0e 94 26 0f 	call	0x1e4c	; 0x1e4c <display_page>
    1f14:	98 2e       	mov	r9, r24
	int16_t page, selected;
	uint8_t key, pg_lines;
	
	cls();
	page=0;
	selected=0;
    1f16:	c0 e0       	ldi	r28, 0x00	; 0
    1f18:	d0 e0       	ldi	r29, 0x00	; 0
int16_t select_file(int16_t fcount){
	int16_t page, selected;
	uint8_t key, pg_lines;
	
	cls();
	page=0;
    1f1a:	e1 2c       	mov	r14, r1
    1f1c:	f1 2c       	mov	r15, r1
			}else{
				selected=0;
			}
			break;
		case BTN_RIGHT: // page suivante
			if ((page*DISPLAY_LINES+DISPLAY_LINES)<fcount){
    1f1e:	9a e0       	ldi	r25, 0x0A	; 10
    1f20:	a9 2e       	mov	r10, r25
	}
	return i;
}

inline void display_cursor(uint8_t line){
	put_sprite(0,line*CHAR_HEIGHT,8,&font_6x8[(RIGHT_ARROW-32)*CHAR_HEIGHT],FLASH_MEM);
    1f22:	00 e0       	ldi	r16, 0x00	; 0
    1f24:	25 ec       	ldi	r18, 0xC5	; 197
    1f26:	39 e1       	ldi	r19, 0x19	; 25
    1f28:	48 e0       	ldi	r20, 0x08	; 8
    1f2a:	1c 2f       	mov	r17, r28
    1f2c:	11 0f       	add	r17, r17
    1f2e:	11 0f       	add	r17, r17
    1f30:	11 0f       	add	r17, r17
    1f32:	61 2f       	mov	r22, r17
    1f34:	80 e0       	ldi	r24, 0x00	; 0
    1f36:	0e 94 8a 21 	call	0x4314	; 0x4314 <put_sprite>
	frame_delay=2;
	while (frame_delay);
	pg_lines=display_page(page);
	while (1){
		display_cursor(selected);
		key=joystick_wait_any();
    1f3a:	0e 94 e9 1b 	call	0x37d2	; 0x37d2 <joystick_wait_any>
    1f3e:	b8 2e       	mov	r11, r24
	}
	return i;
}

inline void display_cursor(uint8_t line){
	put_sprite(0,line*CHAR_HEIGHT,8,&font_6x8[(RIGHT_ARROW-32)*CHAR_HEIGHT],FLASH_MEM);
    1f40:	25 ec       	ldi	r18, 0xC5	; 197
    1f42:	39 e1       	ldi	r19, 0x19	; 25
    1f44:	48 e0       	ldi	r20, 0x08	; 8
    1f46:	61 2f       	mov	r22, r17
    1f48:	80 e0       	ldi	r24, 0x00	; 0
    1f4a:	0e 94 8a 21 	call	0x4314	; 0x4314 <put_sprite>
	while (1){
		display_cursor(selected);
		key=joystick_wait_any();
		//key_tone(key,6,false);
		display_cursor(selected);
		switch(key){
    1f4e:	88 e0       	ldi	r24, 0x08	; 8
    1f50:	b8 16       	cp	r11, r24
    1f52:	31 f1       	breq	.+76     	; 0x1fa0 <select_file+0xbe>
    1f54:	8b 15       	cp	r24, r11
    1f56:	40 f0       	brcs	.+16     	; 0x1f68 <select_file+0x86>
    1f58:	82 e0       	ldi	r24, 0x02	; 2
    1f5a:	b8 16       	cp	r11, r24
    1f5c:	d9 f1       	breq	.+118    	; 0x1fd4 <select_file+0xf2>
    1f5e:	84 e0       	ldi	r24, 0x04	; 4
    1f60:	b8 16       	cp	r11, r24
    1f62:	09 f4       	brne	.+2      	; 0x1f66 <select_file+0x84>
    1f64:	4a c0       	rjmp	.+148    	; 0x1ffa <select_file+0x118>
    1f66:	66 c0       	rjmp	.+204    	; 0x2034 <select_file+0x152>
    1f68:	80 e1       	ldi	r24, 0x10	; 16
    1f6a:	b8 16       	cp	r11, r24
    1f6c:	f1 f0       	breq	.+60     	; 0x1faa <select_file+0xc8>
    1f6e:	80 e2       	ldi	r24, 0x20	; 32
    1f70:	b8 12       	cpse	r11, r24
    1f72:	60 c0       	rjmp	.+192    	; 0x2034 <select_file+0x152>
		case BTN_FIRE: 
		    joystick_wait_release();
    1f74:	0e 94 f1 1b 	call	0x37e2	; 0x37e2 <joystick_wait_release>
			return page*DISPLAY_LINES+selected;
    1f78:	2a e0       	ldi	r18, 0x0A	; 10
    1f7a:	2e 9d       	mul	r18, r14
    1f7c:	c0 01       	movw	r24, r0
    1f7e:	2f 9d       	mul	r18, r15
    1f80:	90 0d       	add	r25, r0
    1f82:	11 24       	eor	r1, r1
    1f84:	8c 0f       	add	r24, r28
    1f86:	9d 1f       	adc	r25, r29
		default:
			break;
		}//switch
		while (_joystick_state()!=JSTK_IMASK)key_tone(key,2,true);
	}//while	
}
    1f88:	df 91       	pop	r29
    1f8a:	cf 91       	pop	r28
    1f8c:	1f 91       	pop	r17
    1f8e:	0f 91       	pop	r16
    1f90:	ff 90       	pop	r15
    1f92:	ef 90       	pop	r14
    1f94:	df 90       	pop	r13
    1f96:	cf 90       	pop	r12
    1f98:	bf 90       	pop	r11
    1f9a:	af 90       	pop	r10
    1f9c:	9f 90       	pop	r9
    1f9e:	08 95       	ret
		case BTN_FIRE: 
		    joystick_wait_release();
			return page*DISPLAY_LINES+selected;
			break;
		case BTN_LEFT: // page prcdente
			if (page){
    1fa0:	e1 14       	cp	r14, r1
    1fa2:	f1 04       	cpc	r15, r1
    1fa4:	09 f4       	brne	.+2      	; 0x1fa8 <select_file+0xc6>
    1fa6:	44 c0       	rjmp	.+136    	; 0x2030 <select_file+0x14e>
    1fa8:	1c c0       	rjmp	.+56     	; 0x1fe2 <select_file+0x100>
			}else{
				selected=0;
			}
			break;
		case BTN_RIGHT: // page suivante
			if ((page*DISPLAY_LINES+DISPLAY_LINES)<fcount){
    1faa:	e7 01       	movw	r28, r14
    1fac:	21 96       	adiw	r28, 0x01	; 1
    1fae:	ac 9e       	mul	r10, r28
    1fb0:	90 01       	movw	r18, r0
    1fb2:	ad 9e       	mul	r10, r29
    1fb4:	30 0d       	add	r19, r0
    1fb6:	11 24       	eor	r1, r1
    1fb8:	2c 15       	cp	r18, r12
    1fba:	3d 05       	cpc	r19, r13
    1fbc:	44 f4       	brge	.+16     	; 0x1fce <select_file+0xec>
				page++;
				selected=0;
				cls();
    1fbe:	0e 94 23 23 	call	0x4646	; 0x4646 <cls>
				pg_lines=display_page(page);
    1fc2:	ce 01       	movw	r24, r28
    1fc4:	0e 94 26 0f 	call	0x1e4c	; 0x1e4c <display_page>
    1fc8:	98 2e       	mov	r9, r24
				selected=0;
			}
			break;
		case BTN_RIGHT: // page suivante
			if ((page*DISPLAY_LINES+DISPLAY_LINES)<fcount){
				page++;
    1fca:	7e 01       	movw	r14, r28
    1fcc:	31 c0       	rjmp	.+98     	; 0x2030 <select_file+0x14e>
				selected=0;
				cls();
				pg_lines=display_page(page);
			}else{
				selected=pg_lines-1;
    1fce:	c9 2d       	mov	r28, r9
    1fd0:	d0 e0       	ldi	r29, 0x00	; 0
    1fd2:	02 c0       	rjmp	.+4      	; 0x1fd8 <select_file+0xf6>
			}
			break;	
		case BTN_UP: // item prcdent
			if (selected){
    1fd4:	20 97       	sbiw	r28, 0x00	; 0
    1fd6:	11 f0       	breq	.+4      	; 0x1fdc <select_file+0xfa>
				selected--;
    1fd8:	21 97       	sbiw	r28, 0x01	; 1
    1fda:	2c c0       	rjmp	.+88     	; 0x2034 <select_file+0x152>
			}else if (page){
    1fdc:	e1 14       	cp	r14, r1
    1fde:	f1 04       	cpc	r15, r1
    1fe0:	49 f1       	breq	.+82     	; 0x2034 <select_file+0x152>
				page--;
    1fe2:	81 e0       	ldi	r24, 0x01	; 1
    1fe4:	e8 1a       	sub	r14, r24
    1fe6:	f1 08       	sbc	r15, r1
				selected=7;
				cls();
    1fe8:	0e 94 23 23 	call	0x4646	; 0x4646 <cls>
				pg_lines=display_page(page);
    1fec:	c7 01       	movw	r24, r14
    1fee:	0e 94 26 0f 	call	0x1e4c	; 0x1e4c <display_page>
    1ff2:	98 2e       	mov	r9, r24
		case BTN_UP: // item prcdent
			if (selected){
				selected--;
			}else if (page){
				page--;
				selected=7;
    1ff4:	c7 e0       	ldi	r28, 0x07	; 7
    1ff6:	d0 e0       	ldi	r29, 0x00	; 0
    1ff8:	1d c0       	rjmp	.+58     	; 0x2034 <select_file+0x152>
				cls();
				pg_lines=display_page(page);
			}
			break;
		case BTN_DOWN: // item suivant
			if (selected<(pg_lines-1)){
    1ffa:	29 2d       	mov	r18, r9
    1ffc:	30 e0       	ldi	r19, 0x00	; 0
    1ffe:	21 50       	subi	r18, 0x01	; 1
    2000:	31 09       	sbc	r19, r1
    2002:	c2 17       	cp	r28, r18
    2004:	d3 07       	cpc	r29, r19
    2006:	14 f4       	brge	.+4      	; 0x200c <select_file+0x12a>
				selected++;
    2008:	21 96       	adiw	r28, 0x01	; 1
    200a:	14 c0       	rjmp	.+40     	; 0x2034 <select_file+0x152>
			}else if ((page*DISPLAY_LINES+DISPLAY_LINES)<fcount){
    200c:	87 01       	movw	r16, r14
    200e:	0f 5f       	subi	r16, 0xFF	; 255
    2010:	1f 4f       	sbci	r17, 0xFF	; 255
    2012:	a0 9e       	mul	r10, r16
    2014:	90 01       	movw	r18, r0
    2016:	a1 9e       	mul	r10, r17
    2018:	30 0d       	add	r19, r0
    201a:	11 24       	eor	r1, r1
    201c:	2c 15       	cp	r18, r12
    201e:	3d 05       	cpc	r19, r13
    2020:	4c f4       	brge	.+18     	; 0x2034 <select_file+0x152>
				page++;
				selected=0;
				cls();
    2022:	0e 94 23 23 	call	0x4646	; 0x4646 <cls>
				pg_lines=display_page(page);
    2026:	c8 01       	movw	r24, r16
    2028:	0e 94 26 0f 	call	0x1e4c	; 0x1e4c <display_page>
    202c:	98 2e       	mov	r9, r24
			break;
		case BTN_DOWN: // item suivant
			if (selected<(pg_lines-1)){
				selected++;
			}else if ((page*DISPLAY_LINES+DISPLAY_LINES)<fcount){
				page++;
    202e:	78 01       	movw	r14, r16
				selected=0;
    2030:	c0 e0       	ldi	r28, 0x00	; 0
    2032:	d0 e0       	ldi	r29, 0x00	; 0
			}
			break;
		default:
			break;
		}//switch
		while (_joystick_state()!=JSTK_IMASK)key_tone(key,2,true);
    2034:	86 b1       	in	r24, 0x06	; 6
    2036:	8e 73       	andi	r24, 0x3E	; 62
    2038:	8e 33       	cpi	r24, 0x3E	; 62
    203a:	09 f4       	brne	.+2      	; 0x203e <select_file+0x15c>
    203c:	72 cf       	rjmp	.-284    	; 0x1f22 <select_file+0x40>
    203e:	41 e0       	ldi	r20, 0x01	; 1
    2040:	62 e0       	ldi	r22, 0x02	; 2
    2042:	8b 2d       	mov	r24, r11
    2044:	0e 94 f1 20 	call	0x41e2	; 0x41e2 <key_tone>
    2048:	f5 cf       	rjmp	.-22     	; 0x2034 <select_file+0x152>

0000204a <sdc_files>:

#if SDC_SUPPORT
// copie la liste des fichiers
// du rpertoire racine
// dans la SRAM
int16_t sdc_files(){
    204a:	ef 92       	push	r14
    204c:	ff 92       	push	r15
    204e:	0f 93       	push	r16
    2050:	1f 93       	push	r17
    2052:	cf 93       	push	r28
    2054:	df 93       	push	r29
    2056:	cd b7       	in	r28, 0x3d	; 61
    2058:	de b7       	in	r29, 0x3e	; 62
    205a:	cb 54       	subi	r28, 0x4B	; 75
    205c:	d1 09       	sbc	r29, r1
    205e:	0f b6       	in	r0, 0x3f	; 63
    2060:	f8 94       	cli
    2062:	de bf       	out	0x3e, r29	; 62
    2064:	0f be       	out	0x3f, r0	; 63
    2066:	cd bf       	out	0x3d, r28	; 61
		int16_t entry_nbr;
        struct fat_dir_entry_struct dir_entry;
		
        /* charge les fichiers dans la SRAM */
		entry_nbr=0;
		fname[ENTRY_SIZE-1]=0;
    2068:	2c 96       	adiw	r28, 0x0c	; 12
    206a:	1f ae       	std	Y+63, r1	; 0x3f
    206c:	2c 97       	sbiw	r28, 0x0c	; 12
        while((entry_nbr<MAX_ENTRIES) && fs_read_dir(&dir_entry))
    206e:	e1 2c       	mov	r14, r1
    2070:	f1 2c       	mov	r15, r1
		uint8_t fname[ENTRY_SIZE];
		int16_t entry_nbr;
        struct fat_dir_entry_struct dir_entry;
		
        /* charge les fichiers dans la SRAM */
		entry_nbr=0;
    2072:	00 e0       	ldi	r16, 0x00	; 0
    2074:	10 e0       	ldi	r17, 0x00	; 0
		fname[ENTRY_SIZE-1]=0;
        while((entry_nbr<MAX_ENTRIES) && fs_read_dir(&dir_entry))
    2076:	ce 01       	movw	r24, r28
    2078:	01 96       	adiw	r24, 0x01	; 1
    207a:	0e 94 dc 1b 	call	0x37b8	; 0x37b8 <fs_read_dir>
    207e:	88 23       	and	r24, r24
    2080:	c1 f0       	breq	.+48     	; 0x20b2 <sdc_files+0x68>
        {
	        if (!(dir_entry.attributes & FAT_ATTRIB_DIR)){
    2082:	89 a1       	ldd	r24, Y+33	; 0x21
    2084:	84 fd       	sbrc	r24, 4
    2086:	f7 cf       	rjmp	.-18     	; 0x2076 <sdc_files+0x2c>
				strcpy((char*)fname,dir_entry.long_name);
    2088:	be 01       	movw	r22, r28
    208a:	6f 5f       	subi	r22, 0xFF	; 255
    208c:	7f 4f       	sbci	r23, 0xFF	; 255
    208e:	ce 01       	movw	r24, r28
    2090:	8c 96       	adiw	r24, 0x2c	; 44
    2092:	0e 94 8f 25 	call	0x4b1e	; 0x4b1e <strcpy>
				sram_store_block(entry_nbr*ENTRY_SIZE,ENTRY_SIZE,fname);
    2096:	ae 01       	movw	r20, r28
    2098:	44 5d       	subi	r20, 0xD4	; 212
    209a:	5f 4f       	sbci	r21, 0xFF	; 255
    209c:	60 e2       	ldi	r22, 0x20	; 32
    209e:	70 e0       	ldi	r23, 0x00	; 0
    20a0:	c7 01       	movw	r24, r14
    20a2:	0e 94 5b 1f 	call	0x3eb6	; 0x3eb6 <sram_store_block>
				entry_nbr++;
    20a6:	0f 5f       	subi	r16, 0xFF	; 255
    20a8:	1f 4f       	sbci	r17, 0xFF	; 255
    20aa:	80 e2       	ldi	r24, 0x20	; 32
    20ac:	e8 0e       	add	r14, r24
    20ae:	f1 1c       	adc	r15, r1
    20b0:	e2 cf       	rjmp	.-60     	; 0x2076 <sdc_files+0x2c>
			}
        }
		fname[0]=0;
    20b2:	1c a6       	std	Y+44, r1	; 0x2c
		sram_store_block(entry_nbr*ENTRY_SIZE,ENTRY_SIZE,fname);
    20b4:	ae 01       	movw	r20, r28
    20b6:	44 5d       	subi	r20, 0xD4	; 212
    20b8:	5f 4f       	sbci	r21, 0xFF	; 255
    20ba:	60 e2       	ldi	r22, 0x20	; 32
    20bc:	70 e0       	ldi	r23, 0x00	; 0
    20be:	c8 01       	movw	r24, r16
    20c0:	25 e0       	ldi	r18, 0x05	; 5
    20c2:	88 0f       	add	r24, r24
    20c4:	99 1f       	adc	r25, r25
    20c6:	2a 95       	dec	r18
    20c8:	e1 f7       	brne	.-8      	; 0x20c2 <sdc_files+0x78>
    20ca:	0e 94 5b 1f 	call	0x3eb6	; 0x3eb6 <sram_store_block>
		return entry_nbr;
}
    20ce:	c8 01       	movw	r24, r16
    20d0:	c5 5b       	subi	r28, 0xB5	; 181
    20d2:	df 4f       	sbci	r29, 0xFF	; 255
    20d4:	0f b6       	in	r0, 0x3f	; 63
    20d6:	f8 94       	cli
    20d8:	de bf       	out	0x3e, r29	; 62
    20da:	0f be       	out	0x3f, r0	; 63
    20dc:	cd bf       	out	0x3d, r28	; 61
    20de:	df 91       	pop	r29
    20e0:	cf 91       	pop	r28
    20e2:	1f 91       	pop	r17
    20e4:	0f 91       	pop	r16
    20e6:	ff 90       	pop	r15
    20e8:	ef 90       	pop	r14
    20ea:	08 95       	ret

000020ec <games_on_sdcard>:

void games_on_sdcard(){
	int16_t fcount, selected;

	
	fcount=sdc_files();
    20ec:	0e 94 25 10 	call	0x204a	; 0x204a <sdc_files>
	if (fcount && ((selected=select_file(fcount))>-1)){
    20f0:	00 97       	sbiw	r24, 0x00	; 0
    20f2:	91 f0       	breq	.+36     	; 0x2118 <games_on_sdcard+0x2c>
    20f4:	0e 94 71 0f 	call	0x1ee2	; 0x1ee2 <select_file>
    20f8:	97 fd       	sbrc	r25, 7
    20fa:	0e c0       	rjmp	.+28     	; 0x2118 <games_on_sdcard+0x2c>
		if (fs_load_file(selected)){
    20fc:	0e 94 91 1b 	call	0x3722	; 0x3722 <fs_load_file>
    2100:	88 23       	and	r24, r24
    2102:	51 f0       	breq	.+20     	; 0x2118 <games_on_sdcard+0x2c>
			cls();
    2104:	0e 94 23 23 	call	0x4646	; 0x4646 <cls>
			if (schipp()==CHIP_BAD_OPCODE){
    2108:	0e 94 f1 11 	call	0x23e2	; 0x23e2 <schipp>
    210c:	82 30       	cpi	r24, 0x02	; 2
    210e:	21 f4       	brne	.+8      	; 0x2118 <games_on_sdcard+0x2c>
				print_vms(PSTR("CRASH! bad opcode\n"));
    2110:	89 ed       	ldi	r24, 0xD9	; 217
    2112:	9f e0       	ldi	r25, 0x0F	; 15
    2114:	0c 94 a0 11 	jmp	0x2340	; 0x2340 <print_vms>
    2118:	08 95       	ret

0000211a <games_in_flash>:


// slection et excution
// d'un jeux qui est en
// mmoire flash
void games_in_flash(){
    211a:	8f 92       	push	r8
    211c:	9f 92       	push	r9
    211e:	af 92       	push	r10
    2120:	bf 92       	push	r11
    2122:	cf 92       	push	r12
    2124:	df 92       	push	r13
    2126:	ef 92       	push	r14
    2128:	ff 92       	push	r15
    212a:	0f 93       	push	r16
    212c:	1f 93       	push	r17
    212e:	cf 93       	push	r28
    2130:	df 93       	push	r29
    2132:	cd b7       	in	r28, 0x3d	; 61
    2134:	de b7       	in	r29, 0x3e	; 62
    2136:	a0 97       	sbiw	r28, 0x20	; 32
    2138:	0f b6       	in	r0, 0x3f	; 63
    213a:	f8 94       	cli
    213c:	de bf       	out	0x3e, r29	; 62
    213e:	0f be       	out	0x3f, r0	; 63
    2140:	cd bf       	out	0x3d, r28	; 61
	uint16_t i=0,j,entry=0,selected;
	uint8_t c, name[32];

	memset(name,0,ENTRY_SIZE);
    2142:	ce 01       	movw	r24, r28
    2144:	01 96       	adiw	r24, 0x01	; 1
    2146:	7c 01       	movw	r14, r24
    2148:	80 e2       	ldi	r24, 0x20	; 32
    214a:	f7 01       	movw	r30, r14
    214c:	11 92       	st	Z+, r1
    214e:	8a 95       	dec	r24
    2150:	e9 f7       	brne	.-6      	; 0x214c <games_in_flash+0x32>
	while ((c=pgm_read_byte(&flash_games[i++]))){
    2152:	a1 2c       	mov	r10, r1
    2154:	b1 2c       	mov	r11, r1

// slection et excution
// d'un jeux qui est en
// mmoire flash
void games_in_flash(){
	uint16_t i=0,j,entry=0,selected;
    2156:	c1 2c       	mov	r12, r1
    2158:	d1 2c       	mov	r13, r1
    215a:	00 e0       	ldi	r16, 0x00	; 0
    215c:	10 e0       	ldi	r17, 0x00	; 0
			name[j++]=c;
			c=pgm_read_byte(&flash_games[i++]);
		}
		sram_store_block(entry*ENTRY_SIZE,ENTRY_SIZE,name);
		entry++;
		memset(name,0,ENTRY_SIZE);
    215e:	40 e2       	ldi	r20, 0x20	; 32
    2160:	84 2e       	mov	r8, r20
void games_in_flash(){
	uint16_t i=0,j,entry=0,selected;
	uint8_t c, name[32];

	memset(name,0,ENTRY_SIZE);
	while ((c=pgm_read_byte(&flash_games[i++]))){
    2162:	c8 01       	movw	r24, r16
    2164:	01 96       	adiw	r24, 0x01	; 1
    2166:	f8 01       	movw	r30, r16
    2168:	e6 5e       	subi	r30, 0xE6	; 230
    216a:	ff 4e       	sbci	r31, 0xEF	; 239
    216c:	94 90       	lpm	r9, Z
    216e:	99 20       	and	r9, r9
    2170:	09 f1       	breq	.+66     	; 0x21b4 <games_in_flash+0x9a>
    2172:	d7 01       	movw	r26, r14
    2174:	8c 01       	movw	r16, r24
		j=0;
		while (c && (c!='\n')){
    2176:	fa e0       	ldi	r31, 0x0A	; 10
    2178:	9f 16       	cp	r9, r31
    217a:	49 f0       	breq	.+18     	; 0x218e <games_in_flash+0x74>
			name[j++]=c;
    217c:	9d 92       	st	X+, r9
			c=pgm_read_byte(&flash_games[i++]);
    217e:	0f 5f       	subi	r16, 0xFF	; 255
    2180:	1f 4f       	sbci	r17, 0xFF	; 255
    2182:	f8 01       	movw	r30, r16
    2184:	e7 5e       	subi	r30, 0xE7	; 231
    2186:	ff 4e       	sbci	r31, 0xEF	; 239
    2188:	94 90       	lpm	r9, Z
	uint8_t c, name[32];

	memset(name,0,ENTRY_SIZE);
	while ((c=pgm_read_byte(&flash_games[i++]))){
		j=0;
		while (c && (c!='\n')){
    218a:	91 10       	cpse	r9, r1
    218c:	f4 cf       	rjmp	.-24     	; 0x2176 <games_in_flash+0x5c>
			name[j++]=c;
			c=pgm_read_byte(&flash_games[i++]);
		}
		sram_store_block(entry*ENTRY_SIZE,ENTRY_SIZE,name);
    218e:	a7 01       	movw	r20, r14
    2190:	60 e2       	ldi	r22, 0x20	; 32
    2192:	70 e0       	ldi	r23, 0x00	; 0
    2194:	c5 01       	movw	r24, r10
    2196:	0e 94 5b 1f 	call	0x3eb6	; 0x3eb6 <sram_store_block>
		entry++;
    219a:	8f ef       	ldi	r24, 0xFF	; 255
    219c:	c8 1a       	sub	r12, r24
    219e:	d8 0a       	sbc	r13, r24
		memset(name,0,ENTRY_SIZE);
    21a0:	f7 01       	movw	r30, r14
    21a2:	88 2d       	mov	r24, r8
    21a4:	11 92       	st	Z+, r1
    21a6:	8a 95       	dec	r24
    21a8:	e9 f7       	brne	.-6      	; 0x21a4 <games_in_flash+0x8a>
    21aa:	90 e2       	ldi	r25, 0x20	; 32
    21ac:	a9 0e       	add	r10, r25
    21ae:	b1 1c       	adc	r11, r1
		if (!c) break;
    21b0:	91 10       	cpse	r9, r1
    21b2:	d7 cf       	rjmp	.-82     	; 0x2162 <games_in_flash+0x48>
	}
    sram_store_block(entry*ENTRY_SIZE,ENTRY_SIZE,name);
    21b4:	a7 01       	movw	r20, r14
    21b6:	60 e2       	ldi	r22, 0x20	; 32
    21b8:	70 e0       	ldi	r23, 0x00	; 0
    21ba:	c6 01       	movw	r24, r12
    21bc:	35 e0       	ldi	r19, 0x05	; 5
    21be:	88 0f       	add	r24, r24
    21c0:	99 1f       	adc	r25, r25
    21c2:	3a 95       	dec	r19
    21c4:	e1 f7       	brne	.-8      	; 0x21be <games_in_flash+0xa4>
    21c6:	0e 94 5b 1f 	call	0x3eb6	; 0x3eb6 <sram_store_block>
	cls();
    21ca:	0e 94 23 23 	call	0x4646	; 0x4646 <cls>
	selected=select_file(entry);
    21ce:	c6 01       	movw	r24, r12
    21d0:	0e 94 71 0f 	call	0x1ee2	; 0x1ee2 <select_file>
	switch(selected){
    21d4:	82 30       	cpi	r24, 0x02	; 2
    21d6:	91 05       	cpc	r25, r1
    21d8:	c9 f0       	breq	.+50     	; 0x220c <games_in_flash+0xf2>
    21da:	48 f4       	brcc	.+18     	; 0x21ee <games_in_flash+0xd4>
    21dc:	00 97       	sbiw	r24, 0x00	; 0
    21de:	89 f0       	breq	.+34     	; 0x2202 <games_in_flash+0xe8>
    21e0:	01 97       	sbiw	r24, 0x01	; 1
    21e2:	49 f5       	brne	.+82     	; 0x2236 <games_in_flash+0x11c>
		load_flash_game((const uint8_t*)lem,LEM_SIZE);
//		text_scroller((const uint8_t*)lem_info,4);
		break;
		
	case 1:
		load_flash_game((const uint8_t*)car,CAR_SIZE);
    21e4:	6c ea       	ldi	r22, 0xAC	; 172
    21e6:	71 e0       	ldi	r23, 0x01	; 1
    21e8:	88 e0       	ldi	r24, 0x08	; 8
    21ea:	9e e0       	ldi	r25, 0x0E	; 14
    21ec:	18 c0       	rjmp	.+48     	; 0x221e <games_in_flash+0x104>
		if (!c) break;
	}
    sram_store_block(entry*ENTRY_SIZE,ENTRY_SIZE,name);
	cls();
	selected=select_file(entry);
	switch(selected){
    21ee:	83 30       	cpi	r24, 0x03	; 3
    21f0:	91 05       	cpc	r25, r1
    21f2:	89 f0       	breq	.+34     	; 0x2216 <games_in_flash+0xfc>
    21f4:	04 97       	sbiw	r24, 0x04	; 4
    21f6:	f9 f4       	brne	.+62     	; 0x2236 <games_in_flash+0x11c>
		load_flash_game(alien,ALIEN_SIZE);
//		text_scroller(alien_info,4);
		break;

	case 4:
		load_flash_game(blinky,BLINKY_SIZE);
    21f8:	60 e1       	ldi	r22, 0x10	; 16
    21fa:	7a e0       	ldi	r23, 0x0A	; 10
    21fc:	88 ef       	ldi	r24, 0xF8	; 248
    21fe:	93 e0       	ldi	r25, 0x03	; 3
    2200:	0e c0       	rjmp	.+28     	; 0x221e <games_in_flash+0x104>
    sram_store_block(entry*ENTRY_SIZE,ENTRY_SIZE,name);
	cls();
	selected=select_file(entry);
	switch(selected){
	case 0:
		load_flash_game((const uint8_t*)lem,LEM_SIZE);
    2202:	6c e1       	ldi	r22, 0x1C	; 28
    2204:	72 e0       	ldi	r23, 0x02	; 2
    2206:	89 ea       	ldi	r24, 0xA9	; 169
    2208:	90 e1       	ldi	r25, 0x10	; 16
    220a:	09 c0       	rjmp	.+18     	; 0x221e <games_in_flash+0x104>
		load_flash_game((const uint8_t*)car,CAR_SIZE);
//		text_scroller((const uint8_t*)car_info,4);
		break;

	case 2:
		load_flash_game(worm,WORM_SIZE);
    220c:	68 e9       	ldi	r22, 0x98	; 152
    220e:	72 e0       	ldi	r23, 0x02	; 2
    2210:	8d e0       	ldi	r24, 0x0D	; 13
    2212:	9b e1       	ldi	r25, 0x1B	; 27
    2214:	04 c0       	rjmp	.+8      	; 0x221e <games_in_flash+0x104>
//		text_scroller(worm_info,4);
		break;

	case 3:
		load_flash_game(alien,ALIEN_SIZE);
    2216:	6e e3       	ldi	r22, 0x3E	; 62
    2218:	73 e0       	ldi	r23, 0x03	; 3
    221a:	8a eb       	ldi	r24, 0xBA	; 186
    221c:	90 e0       	ldi	r25, 0x00	; 0
//		text_scroller(alien_info,4);
		break;

	case 4:
		load_flash_game(blinky,BLINKY_SIZE);
    221e:	0e 94 09 0f 	call	0x1e12	; 0x1e12 <load_flash_game>
		break;
*/
	default:
		return;	
	}
	cls();
    2222:	0e 94 23 23 	call	0x4646	; 0x4646 <cls>
	if (schipp()==CHIP_BAD_OPCODE){
    2226:	0e 94 f1 11 	call	0x23e2	; 0x23e2 <schipp>
    222a:	82 30       	cpi	r24, 0x02	; 2
    222c:	21 f4       	brne	.+8      	; 0x2236 <games_in_flash+0x11c>
		print_vms(PSTR("CRASH! bad opcode\n"));	
    222e:	86 ec       	ldi	r24, 0xC6	; 198
    2230:	9f e0       	ldi	r25, 0x0F	; 15
    2232:	0e 94 a0 11 	call	0x2340	; 0x2340 <print_vms>
	};

}
    2236:	a0 96       	adiw	r28, 0x20	; 32
    2238:	0f b6       	in	r0, 0x3f	; 63
    223a:	f8 94       	cli
    223c:	de bf       	out	0x3e, r29	; 62
    223e:	0f be       	out	0x3f, r0	; 63
    2240:	cd bf       	out	0x3d, r28	; 61
    2242:	df 91       	pop	r29
    2244:	cf 91       	pop	r28
    2246:	1f 91       	pop	r17
    2248:	0f 91       	pop	r16
    224a:	ff 90       	pop	r15
    224c:	ef 90       	pop	r14
    224e:	df 90       	pop	r13
    2250:	cf 90       	pop	r12
    2252:	bf 90       	pop	r11
    2254:	af 90       	pop	r10
    2256:	9f 90       	pop	r9
    2258:	8f 90       	pop	r8
    225a:	08 95       	ret

0000225c <splash_screen>:
	"FAT driver\n"
	"Copyright 2006-2012\n"
	"Roland Riegel\n";


void splash_screen(){
    225c:	cf 93       	push	r28
    225e:	df 93       	push	r29
    2260:	c0 e0       	ldi	r28, 0x00	; 0
    2262:	d0 e8       	ldi	r29, 0x80	; 128
    2264:	fe 01       	movw	r30, r28
    2266:	eb 53       	subi	r30, 0x3B	; 59
    2268:	fd 46       	sbci	r31, 0x6D	; 109
	uint16_t i;
	
	for (i=0;i<SPLASH_SIZE;i++) sram_write_byte(SAVE_SCREEN_ADDR+i,pgm_read_byte((splash+i)));
    226a:	64 91       	lpm	r22, Z
    226c:	ce 01       	movw	r24, r28
    226e:	0e 94 f1 1e 	call	0x3de2	; 0x3de2 <sram_write_byte>
    2272:	21 96       	adiw	r28, 0x01	; 1
    2274:	c1 15       	cp	r28, r1
    2276:	84 e8       	ldi	r24, 0x84	; 132
    2278:	d8 07       	cpc	r29, r24
    227a:	a1 f7       	brne	.-24     	; 0x2264 <splash_screen+0x8>
	screen_restore();
    227c:	0e 94 d1 23 	call	0x47a2	; 0x47a2 <screen_restore>
	frame_delay=120;
    2280:	88 e7       	ldi	r24, 0x78	; 120
    2282:	80 93 cf 02 	sts	0x02CF, r24
	while (frame_delay){
    2286:	80 91 cf 02 	lds	r24, 0x02CF
    228a:	88 23       	and	r24, r24
    228c:	61 f0       	breq	.+24     	; 0x22a6 <splash_screen+0x4a>
		if (_joystick_state()!=JSTK_IMASK){
    228e:	86 b1       	in	r24, 0x06	; 6
    2290:	8e 73       	andi	r24, 0x3E	; 62
    2292:	8e 33       	cpi	r24, 0x3E	; 62
    2294:	c1 f3       	breq	.-16     	; 0x2286 <splash_screen+0x2a>
			 tone(1000,2);
    2296:	62 e0       	ldi	r22, 0x02	; 2
    2298:	88 ee       	ldi	r24, 0xE8	; 232
    229a:	93 e0       	ldi	r25, 0x03	; 3
    229c:	0e 94 df 20 	call	0x41be	; 0x41be <tone>
			 frame_delay=0;
    22a0:	10 92 cf 02 	sts	0x02CF, r1
    22a4:	f0 cf       	rjmp	.-32     	; 0x2286 <splash_screen+0x2a>
		}
	}
	joystick_wait_release(); 
}
    22a6:	df 91       	pop	r29
    22a8:	cf 91       	pop	r28
		if (_joystick_state()!=JSTK_IMASK){
			 tone(1000,2);
			 frame_delay=0;
		}
	}
	joystick_wait_release(); 
    22aa:	0c 94 f1 1b 	jmp	0x37e2	; 0x37e2 <joystick_wait_release>

000022ae <main>:
}

int main(void){
	uint8_t sdc_ok=0;
	
	CLKPR= (1<<7);
    22ae:	80 e8       	ldi	r24, 0x80	; 128
    22b0:	80 93 61 00 	sts	0x0061, r24
	CLKPR = 0 ; // dsactivation du diviseur
    22b4:	10 92 61 00 	sts	0x0061, r1
	tvout_init();
    22b8:	0e 94 21 21 	call	0x4242	; 0x4242 <tvout_init>
	//initialisation SPI
	SPI_DDR |= SPI_CLK+SPI_MOSI;
    22bc:	84 b1       	in	r24, 0x04	; 4
    22be:	88 62       	ori	r24, 0x28	; 40
    22c0:	84 b9       	out	0x04, r24	; 4
	SPI_CR = (1<<SPE)|(1<<MSTR);
    22c2:	80 e5       	ldi	r24, 0x50	; 80
    22c4:	8c bd       	out	0x2c, r24	; 44
	SPI_SR |= 1; // Fosc/2
    22c6:	8d b5       	in	r24, 0x2d	; 45
    22c8:	81 60       	ori	r24, 0x01	; 1
    22ca:	8d bd       	out	0x2d, r24	; 45
	// initialisation du joystick Atari 2600
	_joystick_init();
    22cc:	87 b1       	in	r24, 0x07	; 7
    22ce:	81 7c       	andi	r24, 0xC1	; 193
    22d0:	87 b9       	out	0x07, r24	; 7
    22d2:	88 b1       	in	r24, 0x08	; 8
    22d4:	8e 63       	ori	r24, 0x3E	; 62
    22d6:	88 b9       	out	0x08, r24	; 8
	// initialisation sons
	tone_init();
    22d8:	0e 94 d9 20 	call	0x41b2	; 0x41b2 <tone_init>
	// initialisation mmoire SRAM
	sram_init();
    22dc:	0e 94 ea 1e 	call	0x3dd4	; 0x3dd4 <sram_init>
	sei();// activation des interruptions
    22e0:	78 94       	sei
	srand(TCNT1);
    22e2:	80 91 84 00 	lds	r24, 0x0084
    22e6:	90 91 85 00 	lds	r25, 0x0085
    22ea:	0e 94 57 25 	call	0x4aae	; 0x4aae <srand>
#if SDC_SUPPORT
	//initialisation carte SD
	sd_raw_init();
    22ee:	0e 94 f6 1c 	call	0x39ec	; 0x39ec <sd_raw_init>
	if (fs_mount()) sdc_ok=fs_open_dir("/");
    22f2:	0e 94 b3 1a 	call	0x3566	; 0x3566 <fs_mount>
    22f6:	88 23       	and	r24, r24
    22f8:	31 f0       	breq	.+12     	; 0x2306 <main+0x58>
    22fa:	85 e0       	ldi	r24, 0x05	; 5
    22fc:	91 e0       	ldi	r25, 0x01	; 1
    22fe:	0e 94 10 1b 	call	0x3620	; 0x3620 <fs_open_dir>
    2302:	c8 2f       	mov	r28, r24
    2304:	01 c0       	rjmp	.+2      	; 0x2308 <main+0x5a>
	}
	joystick_wait_release(); 
}

int main(void){
	uint8_t sdc_ok=0;
    2306:	c0 e0       	ldi	r28, 0x00	; 0
	//initialisation carte SD
	sd_raw_init();
	if (fs_mount()) sdc_ok=fs_open_dir("/");
#endif
#if !FW_DEBUG
	splash_screen();
    2308:	0e 94 2e 11 	call	0x225c	; 0x225c <splash_screen>
	text_scroller(credits,4);
    230c:	64 e0       	ldi	r22, 0x04	; 4
    230e:	8c ee       	ldi	r24, 0xEC	; 236
    2310:	9f e0       	ldi	r25, 0x0F	; 15
    2312:	0e 94 82 20 	call	0x4104	; 0x4104 <text_scroller>
#endif	
	while (1){
		//sram_clear();
		cls();
    2316:	0e 94 23 23 	call	0x4646	; 0x4646 <cls>
		select_font(FONT_ASCII);
    231a:	82 e0       	ldi	r24, 0x02	; 2
    231c:	0e 94 83 1f 	call	0x3f06	; 0x3f06 <select_font>
prt_pstr((PSTR("first line")));
set_cursor(0,VRES-CHAR_HEIGHT);
prt_pstr(PSTR("last line"));
while(1);
*/
		if (!sdc_ok){
    2320:	c1 11       	cpse	r28, r1
    2322:	0b c0       	rjmp	.+22     	; 0x233a <main+0x8c>
			prt_pstr(PSTR("carte SD absente!"));
    2324:	84 eb       	ldi	r24, 0xB4	; 180
    2326:	9f e0       	ldi	r25, 0x0F	; 15
    2328:	0e 94 1e 20 	call	0x403c	; 0x403c <prt_pstr>
			new_line();
    232c:	0e 94 86 1f 	call	0x3f0c	; 0x3f0c <new_line>
			prompt_btn();
    2330:	0e 94 fc 1b 	call	0x37f8	; 0x37f8 <prompt_btn>
#endif
			games_in_flash();
    2334:	0e 94 8d 10 	call	0x211a	; 0x211a <games_in_flash>
    2338:	ee cf       	rjmp	.-36     	; 0x2316 <main+0x68>
#if SDC_SUPPORT 
		}else{
			games_on_sdcard();
    233a:	0e 94 76 10 	call	0x20ec	; 0x20ec <games_on_sdcard>
    233e:	eb cf       	rjmp	.-42     	; 0x2316 <main+0x68>

00002340 <print_vms>:
static uint16_t cache_base=0;

#define load_cache() sram_load_block(cache_base,ICACHE_SIZE,icache);
#endif

void print_vms(const char *msg){
    2340:	cf 93       	push	r28
    2342:	df 93       	push	r29
    2344:	ec 01       	movw	r28, r24
	cls();
    2346:	0e 94 23 23 	call	0x4646	; 0x4646 <cls>
	select_font(FONT_ASCII);
    234a:	82 e0       	ldi	r24, 0x02	; 2
    234c:	0e 94 83 1f 	call	0x3f06	; 0x3f06 <select_font>
	prt_pstr(msg);
    2350:	ce 01       	movw	r24, r28
    2352:	0e 94 1e 20 	call	0x403c	; 0x403c <prt_pstr>
	prt_pstr(PSTR("PC:"));
    2356:	84 e4       	ldi	r24, 0x44	; 68
    2358:	90 e1       	ldi	r25, 0x10	; 16
    235a:	0e 94 1e 20 	call	0x403c	; 0x403c <prt_pstr>
	print_hex(vms.pc-2,4);
    235e:	80 91 32 01 	lds	r24, 0x0132
    2362:	90 91 33 01 	lds	r25, 0x0133
    2366:	64 e0       	ldi	r22, 0x04	; 4
    2368:	02 97       	sbiw	r24, 0x02	; 2
    236a:	0e 94 2d 20 	call	0x405a	; 0x405a <print_hex>
	print_hex(vms.b1,2);
    236e:	80 91 57 01 	lds	r24, 0x0157
    2372:	62 e0       	ldi	r22, 0x02	; 2
    2374:	90 e0       	ldi	r25, 0x00	; 0
    2376:	0e 94 2d 20 	call	0x405a	; 0x405a <print_hex>
	print_hex(vms.b2,2);
    237a:	80 91 58 01 	lds	r24, 0x0158
    237e:	62 e0       	ldi	r22, 0x02	; 2
    2380:	90 e0       	ldi	r25, 0x00	; 0
    2382:	0e 94 2d 20 	call	0x405a	; 0x405a <print_hex>
	new_line();
    2386:	0e 94 86 1f 	call	0x3f0c	; 0x3f0c <new_line>
	prt_pstr(PSTR("I:"));
    238a:	81 e4       	ldi	r24, 0x41	; 65
    238c:	90 e1       	ldi	r25, 0x10	; 16
    238e:	0e 94 1e 20 	call	0x403c	; 0x403c <prt_pstr>
	print_hex(vms.ix,4);
    2392:	64 e0       	ldi	r22, 0x04	; 4
    2394:	80 91 34 01 	lds	r24, 0x0134
    2398:	90 91 35 01 	lds	r25, 0x0135
    239c:	0e 94 2d 20 	call	0x405a	; 0x405a <print_hex>
	prt_pstr(PSTR(" SP:"));
    23a0:	8c e3       	ldi	r24, 0x3C	; 60
    23a2:	90 e1       	ldi	r25, 0x10	; 16
    23a4:	0e 94 1e 20 	call	0x403c	; 0x403c <prt_pstr>
	print_hex(vms.sp,2);
    23a8:	80 91 36 01 	lds	r24, 0x0136
    23ac:	62 e0       	ldi	r22, 0x02	; 2
    23ae:	90 e0       	ldi	r25, 0x00	; 0
    23b0:	0e 94 2d 20 	call	0x405a	; 0x405a <print_hex>
	new_line();
    23b4:	0e 94 86 1f 	call	0x3f0c	; 0x3f0c <new_line>
	prt_pstr(PSTR("var[]:"));
    23b8:	85 e3       	ldi	r24, 0x35	; 53
    23ba:	90 e1       	ldi	r25, 0x10	; 16
    23bc:	0e 94 1e 20 	call	0x403c	; 0x403c <prt_pstr>
    23c0:	c7 e3       	ldi	r28, 0x37	; 55
    23c2:	d1 e0       	ldi	r29, 0x01	; 1
	for (int i=0;i<16;i++){
		print_hex(vms.var[i],2);
    23c4:	89 91       	ld	r24, Y+
    23c6:	62 e0       	ldi	r22, 0x02	; 2
    23c8:	90 e0       	ldi	r25, 0x00	; 0
    23ca:	0e 94 2d 20 	call	0x405a	; 0x405a <print_hex>
	print_hex(vms.ix,4);
	prt_pstr(PSTR(" SP:"));
	print_hex(vms.sp,2);
	new_line();
	prt_pstr(PSTR("var[]:"));
	for (int i=0;i<16;i++){
    23ce:	81 e0       	ldi	r24, 0x01	; 1
    23d0:	c7 34       	cpi	r28, 0x47	; 71
    23d2:	d8 07       	cpc	r29, r24
    23d4:	b9 f7       	brne	.-18     	; 0x23c4 <print_vms+0x84>
		print_hex(vms.var[i],2);
	}
	new_line();
    23d6:	0e 94 86 1f 	call	0x3f0c	; 0x3f0c <new_line>
	for (int i=0;i<16;i++){
		print_hex(vms.rpl[i++],2);
	}
*/	
	prompt_btn();
}
    23da:	df 91       	pop	r29
    23dc:	cf 91       	pop	r28
	prt_pstr(PSTR("rpl[]:"));
	for (int i=0;i<16;i++){
		print_hex(vms.rpl[i++],2);
	}
*/	
	prompt_btn();
    23de:	0c 94 fc 1b 	jmp	0x37f8	; 0x37f8 <prompt_btn>

000023e2 <schipp>:
}

#define VM_DECODER 1
// machine virtuelle SCHIP+
uint8_t schipp(){
    23e2:	af 92       	push	r10
    23e4:	bf 92       	push	r11
    23e6:	df 92       	push	r13
    23e8:	ef 92       	push	r14
    23ea:	ff 92       	push	r15
    23ec:	0f 93       	push	r16
    23ee:	1f 93       	push	r17
    23f0:	cf 93       	push	r28
    23f2:	df 93       	push	r29
	uint8_t x,y,n;
	uint16_t code;
	
	vms.pc=CODE_BASE_ADDR;
    23f4:	10 92 33 01 	sts	0x0133, r1
    23f8:	10 92 32 01 	sts	0x0132, r1
	vms.sp=0;
    23fc:	10 92 36 01 	sts	0x0136, r1
	vms.ix=0;
    2400:	10 92 35 01 	sts	0x0135, r1
    2404:	10 92 34 01 	sts	0x0134, r1
#if ICACHE==1
	cache_base=0;
    2408:	10 92 09 01 	sts	0x0109, r1
    240c:	10 92 08 01 	sts	0x0108, r1
	load_cache();
    2410:	4a e0       	ldi	r20, 0x0A	; 10
    2412:	51 e0       	ldi	r21, 0x01	; 1
    2414:	68 e0       	ldi	r22, 0x08	; 8
    2416:	70 e0       	ldi	r23, 0x00	; 0
    2418:	80 e0       	ldi	r24, 0x00	; 0
    241a:	90 e0       	ldi	r25, 0x00	; 0
    241c:	0e 94 32 1f 	call	0x3e64	; 0x3e64 <sram_load_block>
				select_font(FONT_LHEX);
				vms.src_mem=FLASH_MEM;
				break;
			case 0x33: // FX33 LD B, VX  ;  met la reprsentation BCD de VX dans M[I]..M[I+2]
				n=vms.var[x];
				block[2]=n%10;
    2420:	ca e0       	ldi	r28, 0x0A	; 10
				break;
			case 0x8: // 9X08, SCRX  ;  VX=HRES nombre de pixels en largeur d'cran.
				vms.var[x]=HRES;
				break;
			case 0x9: // 9X09, SCRY  ; VX=VRES  nombre de pixels en hauteur d'cran.
				vms.var[x]=VRES;
    2422:	d8 e5       	ldi	r29, 0x58	; 88
				break;
			case 0x7: // 9X07, POP VX  ; transfert le sommet de la pile dans VX
				vms.var[x]=vms.stack[vms.sp--];
				break;
			case 0x8: // 9X08, SCRX  ;  VX=HRES nombre de pixels en largeur d'cran.
				vms.var[x]=HRES;
    2424:	10 e8       	ldi	r17, 0x80	; 128
    2426:	d1 2e       	mov	r13, r17
#if ICACHE==1
	cache_base=0;
	load_cache();
#endif
 	while (1){
		if (joystick_break()) return CHIP_EXIT_OK;
    2428:	0e 94 04 1c 	call	0x3808	; 0x3808 <joystick_break>
    242c:	81 11       	cpse	r24, r1
    242e:	2c c3       	rjmp	.+1624   	; 0x2a88 <schipp+0x6a6>
#if ICACHE!=1		
		vms.opcode=sram_read_word(vms.pc);
		vms.pc+=2;
#else
/* cette cache d'instruction amliore la vitesse d'xcution */	
		if ((vms.pc<cache_base) || (vms.pc>=cache_base+ICACHE_SIZE)){
    2430:	80 91 32 01 	lds	r24, 0x0132
    2434:	90 91 33 01 	lds	r25, 0x0133
    2438:	20 91 08 01 	lds	r18, 0x0108
    243c:	30 91 09 01 	lds	r19, 0x0109
    2440:	82 17       	cp	r24, r18
    2442:	93 07       	cpc	r25, r19
    2444:	28 f0       	brcs	.+10     	; 0x2450 <schipp+0x6e>
    2446:	28 5f       	subi	r18, 0xF8	; 248
    2448:	3f 4f       	sbci	r19, 0xFF	; 255
    244a:	82 17       	cp	r24, r18
    244c:	93 07       	cpc	r25, r19
    244e:	50 f0       	brcs	.+20     	; 0x2464 <schipp+0x82>
			 cache_base=vms.pc;
    2450:	90 93 09 01 	sts	0x0109, r25
    2454:	80 93 08 01 	sts	0x0108, r24
			 load_cache();
    2458:	4a e0       	ldi	r20, 0x0A	; 10
    245a:	51 e0       	ldi	r21, 0x01	; 1
    245c:	68 e0       	ldi	r22, 0x08	; 8
    245e:	70 e0       	ldi	r23, 0x00	; 0
    2460:	0e 94 32 1f 	call	0x3e64	; 0x3e64 <sram_load_block>
		}
		vms.b1=icache[vms.pc-cache_base];
    2464:	20 91 32 01 	lds	r18, 0x0132
    2468:	30 91 33 01 	lds	r19, 0x0133
    246c:	80 91 08 01 	lds	r24, 0x0108
    2470:	90 91 09 01 	lds	r25, 0x0109
    2474:	f9 01       	movw	r30, r18
    2476:	e8 1b       	sub	r30, r24
    2478:	f9 0b       	sbc	r31, r25
    247a:	e6 5f       	subi	r30, 0xF6	; 246
    247c:	fe 4f       	sbci	r31, 0xFE	; 254
    247e:	a0 81       	ld	r26, Z
    2480:	a0 93 57 01 	sts	0x0157, r26
		vms.pc++;
		vms.b2=icache[vms.pc-cache_base];
    2484:	f9 01       	movw	r30, r18
    2486:	e8 1b       	sub	r30, r24
    2488:	f9 0b       	sbc	r31, r25
    248a:	e5 5f       	subi	r30, 0xF5	; 245
    248c:	fe 4f       	sbci	r31, 0xFE	; 254
    248e:	80 81       	ld	r24, Z
    2490:	80 93 58 01 	sts	0x0158, r24
		vms.pc++;
    2494:	59 01       	movw	r10, r18
    2496:	92 e0       	ldi	r25, 0x02	; 2
    2498:	a9 0e       	add	r10, r25
    249a:	b1 1c       	adc	r11, r1
    249c:	b0 92 33 01 	sts	0x0133, r11
    24a0:	a0 92 32 01 	sts	0x0132, r10
#endif		
		x=rx(vms.b1);
    24a4:	0a 2f       	mov	r16, r26
    24a6:	0f 70       	andi	r16, 0x0F	; 15
		y=ry(vms.b2);
    24a8:	f8 2e       	mov	r15, r24
    24aa:	f2 94       	swap	r15
    24ac:	bf e0       	ldi	r27, 0x0F	; 15
    24ae:	fb 22       	and	r15, r27
#if VM_DECODER==1
	    switch (vms.b1>>4){
    24b0:	4a 2f       	mov	r20, r26
    24b2:	42 95       	swap	r20
    24b4:	4f 70       	andi	r20, 0x0F	; 15
    24b6:	50 e0       	ldi	r21, 0x00	; 0
    24b8:	4c 5c       	subi	r20, 0xCC	; 204
    24ba:	5f 4f       	sbci	r21, 0xFF	; 255
    24bc:	fa 01       	movw	r30, r20
    24be:	0c 94 e4 24 	jmp	0x49c8	; 0x49c8 <__tablejump2__>
		case 0:
			if ((vms.b2&0xf0)==0xc0){
    24c2:	98 2f       	mov	r25, r24
    24c4:	90 7f       	andi	r25, 0xF0	; 240
    24c6:	90 3c       	cpi	r25, 0xC0	; 192
    24c8:	21 f4       	brne	.+8      	; 0x24d2 <schipp+0xf0>
				scroll_down(vms.b2&0xf);
    24ca:	8f 70       	andi	r24, 0x0F	; 15
    24cc:	0e 94 31 23 	call	0x4662	; 0x4662 <scroll_down>
    24d0:	ab cf       	rjmp	.-170    	; 0x2428 <schipp+0x46>
			}else if ((vms.b2&0xf0)==0xd0){
    24d2:	90 3d       	cpi	r25, 0xD0	; 208
    24d4:	21 f4       	brne	.+8      	; 0x24de <schipp+0xfc>
				scroll_up(vms.b2&0xf);				
    24d6:	8f 70       	andi	r24, 0x0F	; 15
    24d8:	0e 94 59 23 	call	0x46b2	; 0x46b2 <scroll_up>
    24dc:	a5 cf       	rjmp	.-182    	; 0x2428 <schipp+0x46>
			}else switch(vms.b2){
    24de:	8c 3f       	cpi	r24, 0xFC	; 252
    24e0:	01 f1       	breq	.+64     	; 0x2522 <schipp+0x140>
    24e2:	50 f4       	brcc	.+20     	; 0x24f8 <schipp+0x116>
    24e4:	8e 3e       	cpi	r24, 0xEE	; 238
    24e6:	61 f0       	breq	.+24     	; 0x2500 <schipp+0x11e>
    24e8:	8b 3f       	cpi	r24, 0xFB	; 251
    24ea:	c1 f0       	breq	.+48     	; 0x251c <schipp+0x13a>
    24ec:	80 3e       	cpi	r24, 0xE0	; 224
    24ee:	09 f0       	breq	.+2      	; 0x24f2 <schipp+0x110>
    24f0:	cd c2       	rjmp	.+1434   	; 0x2a8c <schipp+0x6aa>
				case 0xe0: // 00E0, CLS   ;efface l'cran
					cls();
    24f2:	0e 94 23 23 	call	0x4646	; 0x4646 <cls>
					break;
    24f6:	98 cf       	rjmp	.-208    	; 0x2428 <schipp+0x46>
		case 0:
			if ((vms.b2&0xf0)==0xc0){
				scroll_down(vms.b2&0xf);
			}else if ((vms.b2&0xf0)==0xd0){
				scroll_up(vms.b2&0xf);				
			}else switch(vms.b2){
    24f8:	8d 3f       	cpi	r24, 0xFD	; 253
    24fa:	09 f0       	breq	.+2      	; 0x24fe <schipp+0x11c>
    24fc:	95 cf       	rjmp	.-214    	; 0x2428 <schipp+0x46>
    24fe:	c4 c2       	rjmp	.+1416   	; 0x2a88 <schipp+0x6a6>
				case 0xe0: // 00E0, CLS   ;efface l'cran
					cls();
					break;
				case 0xee: // 00EE, RET   ;sortie de sous-routine
					vms.pc=vms.stack[vms.sp--];
    2500:	e0 91 36 01 	lds	r30, 0x0136
    2504:	8f ef       	ldi	r24, 0xFF	; 255
    2506:	8e 0f       	add	r24, r30
    2508:	80 93 36 01 	sts	0x0136, r24
    250c:	f0 e0       	ldi	r31, 0x00	; 0
    250e:	ee 0f       	add	r30, r30
    2510:	ff 1f       	adc	r31, r31
    2512:	ee 5c       	subi	r30, 0xCE	; 206
    2514:	fe 4f       	sbci	r31, 0xFE	; 254
    2516:	87 a1       	ldd	r24, Z+39	; 0x27
    2518:	90 a5       	ldd	r25, Z+40	; 0x28
    251a:	18 c0       	rjmp	.+48     	; 0x254c <schipp+0x16a>
					break;
				case 0xfb: // 00FB, SCR   ;glisse l'affichage vers la droite de 4 pixels
					chip_scroll_right();
    251c:	0e 94 8e 23 	call	0x471c	; 0x471c <chip_scroll_right>
					break;
    2520:	83 cf       	rjmp	.-250    	; 0x2428 <schipp+0x46>
				case 0xfc: // 00FC, SCL   ;glisse l'affichage vers la gauche de 4 pixels
					chip_scroll_left();
    2522:	0e 94 b5 23 	call	0x476a	; 0x476a <chip_scroll_left>
					break;
    2526:	80 cf       	rjmp	.-256    	; 0x2428 <schipp+0x46>
			break;
		case 0x1: // 1NNN JP label  ;saut vers 'label'  adresse=2*NNN
			vms.pc=caddr(vms.b1,vms.b2);
			break;
		case 0x2: // 2NNN  CALL label  ; appelle la sous-routine 'label' adresse=2*NNN
			vms.stack[++vms.sp]=vms.pc;
    2528:	40 91 36 01 	lds	r20, 0x0136
    252c:	4f 5f       	subi	r20, 0xFF	; 255
    252e:	40 93 36 01 	sts	0x0136, r20
    2532:	50 e0       	ldi	r21, 0x00	; 0
    2534:	44 0f       	add	r20, r20
    2536:	55 1f       	adc	r21, r21
    2538:	4e 5c       	subi	r20, 0xCE	; 206
    253a:	5e 4f       	sbci	r21, 0xFE	; 254
    253c:	fa 01       	movw	r30, r20
    253e:	b0 a6       	std	Z+40, r11	; 0x28
    2540:	a7 a2       	std	Z+39, r10	; 0x27
				default:
					return CHIP_BAD_OPCODE;
			}//switch(b2)
			break;
		case 0x1: // 1NNN JP label  ;saut vers 'label'  adresse=2*NNN
			vms.pc=caddr(vms.b1,vms.b2);
    2542:	90 e0       	ldi	r25, 0x00	; 0
    2544:	9a 2b       	or	r25, r26
    2546:	88 0f       	add	r24, r24
    2548:	99 1f       	adc	r25, r25
    254a:	9f 70       	andi	r25, 0x0F	; 15
    254c:	90 93 33 01 	sts	0x0133, r25
    2550:	80 93 32 01 	sts	0x0132, r24
			break;
    2554:	69 cf       	rjmp	.-302    	; 0x2428 <schipp+0x46>
		case 0x2: // 2NNN  CALL label  ; appelle la sous-routine 'label' adresse=2*NNN
			vms.stack[++vms.sp]=vms.pc;
			vms.pc=caddr(vms.b1,vms.b2);
			break;
		case 0x3: // 3XKK   SE VX, KK  ;saute l'instruction suivante si VX == KK
			if (vms.var[x]==vms.b2) vms.pc+=2;
    2556:	e0 2f       	mov	r30, r16
    2558:	f0 e0       	ldi	r31, 0x00	; 0
    255a:	ee 5c       	subi	r30, 0xCE	; 206
    255c:	fe 4f       	sbci	r31, 0xFE	; 254
    255e:	95 81       	ldd	r25, Z+5	; 0x05
    2560:	11 c0       	rjmp	.+34     	; 0x2584 <schipp+0x1a2>
			break;
		case 0x4: // 4XKK  SNE VX,VY  ;Saute l'instruction suivante si VX <> KK
			if (vms.var[x]!=vms.b2)vms.pc+=2;
    2562:	e0 2f       	mov	r30, r16
    2564:	f0 e0       	ldi	r31, 0x00	; 0
    2566:	ee 5c       	subi	r30, 0xCE	; 206
    2568:	fe 4f       	sbci	r31, 0xFE	; 254
    256a:	95 81       	ldd	r25, Z+5	; 0x05
    256c:	b9 c0       	rjmp	.+370    	; 0x26e0 <schipp+0x2fe>
			break;
		case 0x5: // 5XY0  SE VX,VY   ;Saute l'instruction suivante si VX == VY
			if (vms.var[x]==vms.var[y]) vms.pc+=2;
    256e:	e0 2f       	mov	r30, r16
    2570:	f0 e0       	ldi	r31, 0x00	; 0
    2572:	ee 5c       	subi	r30, 0xCE	; 206
    2574:	fe 4f       	sbci	r31, 0xFE	; 254
    2576:	af 2d       	mov	r26, r15
    2578:	b0 e0       	ldi	r27, 0x00	; 0
    257a:	ae 5c       	subi	r26, 0xCE	; 206
    257c:	be 4f       	sbci	r27, 0xFE	; 254
    257e:	95 81       	ldd	r25, Z+5	; 0x05
    2580:	15 96       	adiw	r26, 0x05	; 5
    2582:	8c 91       	ld	r24, X
    2584:	98 13       	cpse	r25, r24
    2586:	50 cf       	rjmp	.-352    	; 0x2428 <schipp+0x46>
    2588:	ae c0       	rjmp	.+348    	; 0x26e6 <schipp+0x304>
			break;
		case 0x6: // 6XKK   LD VX,KK  ; VX := KK
			vms.var[x]=vms.b2;
			break;
		case 0x7: // 7XKK   ADD VX,KK  ; VX := VX + KK
			vms.var[x]+=vms.b2;
    258a:	e0 2f       	mov	r30, r16
    258c:	f0 e0       	ldi	r31, 0x00	; 0
    258e:	ee 5c       	subi	r30, 0xCE	; 206
    2590:	fe 4f       	sbci	r31, 0xFE	; 254
    2592:	95 81       	ldd	r25, Z+5	; 0x05
    2594:	98 0f       	add	r25, r24
    2596:	56 c1       	rjmp	.+684    	; 0x2844 <schipp+0x462>
			break;
		case 0x8: // 8XY0   LD VX, VY  ; VX := VY
			switch(vms.b2&0xf){
    2598:	48 2f       	mov	r20, r24
    259a:	4f 70       	andi	r20, 0x0F	; 15
    259c:	50 e0       	ldi	r21, 0x00	; 0
    259e:	4f 30       	cpi	r20, 0x0F	; 15
    25a0:	51 05       	cpc	r21, r1
    25a2:	08 f0       	brcs	.+2      	; 0x25a6 <schipp+0x1c4>
    25a4:	73 c2       	rjmp	.+1254   	; 0x2a8c <schipp+0x6aa>
    25a6:	fa 01       	movw	r30, r20
    25a8:	ec 5b       	subi	r30, 0xBC	; 188
    25aa:	ff 4f       	sbci	r31, 0xFF	; 255
    25ac:	0c 94 e4 24 	jmp	0x49c8	; 0x49c8 <__tablejump2__>
			case 0:
				vms.var[x]=vms.var[y];
    25b0:	ef 2d       	mov	r30, r15
    25b2:	f0 e0       	ldi	r31, 0x00	; 0
    25b4:	ee 5c       	subi	r30, 0xCE	; 206
    25b6:	fe 4f       	sbci	r31, 0xFE	; 254
    25b8:	85 81       	ldd	r24, Z+5	; 0x05
    25ba:	e0 2f       	mov	r30, r16
    25bc:	f0 e0       	ldi	r31, 0x00	; 0
    25be:	ee 5c       	subi	r30, 0xCE	; 206
    25c0:	fe 4f       	sbci	r31, 0xFE	; 254
    25c2:	85 83       	std	Z+5, r24	; 0x05
				break;
    25c4:	31 cf       	rjmp	.-414    	; 0x2428 <schipp+0x46>
			case 1: // 8XY1  OR VX, VY  ; VX := VX OR VY
				vms.var[x]|=vms.var[y];
    25c6:	e0 2f       	mov	r30, r16
    25c8:	f0 e0       	ldi	r31, 0x00	; 0
    25ca:	ee 5c       	subi	r30, 0xCE	; 206
    25cc:	fe 4f       	sbci	r31, 0xFE	; 254
    25ce:	af 2d       	mov	r26, r15
    25d0:	b0 e0       	ldi	r27, 0x00	; 0
    25d2:	ae 5c       	subi	r26, 0xCE	; 206
    25d4:	be 4f       	sbci	r27, 0xFE	; 254
    25d6:	15 96       	adiw	r26, 0x05	; 5
    25d8:	8c 91       	ld	r24, X
    25da:	95 81       	ldd	r25, Z+5	; 0x05
    25dc:	89 2b       	or	r24, r25
    25de:	f1 cf       	rjmp	.-30     	; 0x25c2 <schipp+0x1e0>
				break;
			case 0x2: // 8XY2  AND VX,VY  ; VX := VX AND VY
				vms.var[x]&=vms.var[y];
    25e0:	e0 2f       	mov	r30, r16
    25e2:	f0 e0       	ldi	r31, 0x00	; 0
    25e4:	ee 5c       	subi	r30, 0xCE	; 206
    25e6:	fe 4f       	sbci	r31, 0xFE	; 254
    25e8:	af 2d       	mov	r26, r15
    25ea:	b0 e0       	ldi	r27, 0x00	; 0
    25ec:	ae 5c       	subi	r26, 0xCE	; 206
    25ee:	be 4f       	sbci	r27, 0xFE	; 254
    25f0:	15 96       	adiw	r26, 0x05	; 5
    25f2:	8c 91       	ld	r24, X
    25f4:	95 81       	ldd	r25, Z+5	; 0x05
    25f6:	89 23       	and	r24, r25
    25f8:	e4 cf       	rjmp	.-56     	; 0x25c2 <schipp+0x1e0>
				break;
			case 0x3: // 8XY3  XOR VX,VY  ; VX := VX XOR VY
				vms.var[x]^=vms.var[y];
    25fa:	e0 2f       	mov	r30, r16
    25fc:	f0 e0       	ldi	r31, 0x00	; 0
    25fe:	ee 5c       	subi	r30, 0xCE	; 206
    2600:	fe 4f       	sbci	r31, 0xFE	; 254
    2602:	af 2d       	mov	r26, r15
    2604:	b0 e0       	ldi	r27, 0x00	; 0
    2606:	ae 5c       	subi	r26, 0xCE	; 206
    2608:	be 4f       	sbci	r27, 0xFE	; 254
    260a:	15 96       	adiw	r26, 0x05	; 5
    260c:	8c 91       	ld	r24, X
    260e:	95 81       	ldd	r25, Z+5	; 0x05
    2610:	89 27       	eor	r24, r25
    2612:	d7 cf       	rjmp	.-82     	; 0x25c2 <schipp+0x1e0>
				break;
			case 0x4: // 8XY4  ADD VX,VY  ; VX := VX + VY, VF := carry
				n=(vms.var[x]+vms.var[y])>255;
    2614:	e0 2f       	mov	r30, r16
    2616:	f0 e0       	ldi	r31, 0x00	; 0
    2618:	ee 5c       	subi	r30, 0xCE	; 206
    261a:	fe 4f       	sbci	r31, 0xFE	; 254
    261c:	25 81       	ldd	r18, Z+5	; 0x05
    261e:	af 2d       	mov	r26, r15
    2620:	b0 e0       	ldi	r27, 0x00	; 0
    2622:	ae 5c       	subi	r26, 0xCE	; 206
    2624:	be 4f       	sbci	r27, 0xFE	; 254
    2626:	15 96       	adiw	r26, 0x05	; 5
    2628:	8c 91       	ld	r24, X
				vms.var[x]+=vms.var[y];
    262a:	98 2f       	mov	r25, r24
    262c:	92 0f       	add	r25, r18
    262e:	95 83       	std	Z+5, r25	; 0x05
				break;
			case 0x3: // 8XY3  XOR VX,VY  ; VX := VX XOR VY
				vms.var[x]^=vms.var[y];
				break;
			case 0x4: // 8XY4  ADD VX,VY  ; VX := VX + VY, VF := carry
				n=(vms.var[x]+vms.var[y])>255;
    2630:	90 e0       	ldi	r25, 0x00	; 0
    2632:	82 0f       	add	r24, r18
    2634:	91 1d       	adc	r25, r1
    2636:	21 e0       	ldi	r18, 0x01	; 1
    2638:	8f 3f       	cpi	r24, 0xFF	; 255
    263a:	91 05       	cpc	r25, r1
    263c:	09 f0       	breq	.+2      	; 0x2640 <schipp+0x25e>
    263e:	0c f4       	brge	.+2      	; 0x2642 <schipp+0x260>
    2640:	20 e0       	ldi	r18, 0x00	; 0
				vms.var[x]+=vms.var[y];
				vms.var[15]=n;
    2642:	20 93 46 01 	sts	0x0146, r18
				break;
    2646:	f0 ce       	rjmp	.-544    	; 0x2428 <schipp+0x46>
			case 0x5: // 8XY5  SUB VX,VY  ; VX := VX - VY, VF := not borrow
				n=vms.var[x]>=vms.var[y];
    2648:	e0 2f       	mov	r30, r16
    264a:	f0 e0       	ldi	r31, 0x00	; 0
    264c:	ee 5c       	subi	r30, 0xCE	; 206
    264e:	fe 4f       	sbci	r31, 0xFE	; 254
    2650:	25 81       	ldd	r18, Z+5	; 0x05
    2652:	af 2d       	mov	r26, r15
    2654:	b0 e0       	ldi	r27, 0x00	; 0
    2656:	ae 5c       	subi	r26, 0xCE	; 206
    2658:	be 4f       	sbci	r27, 0xFE	; 254
    265a:	15 96       	adiw	r26, 0x05	; 5
    265c:	9c 91       	ld	r25, X
    265e:	14 c0       	rjmp	.+40     	; 0x2688 <schipp+0x2a6>
				vms.var[x]-=vms.var[y];
				vms.var[15]=n;
				break;
			case 0x6: // 8XY6  SHR VX  ; VX := VX shr 1, VF := carry
				n=(vms.var[x]&1u);
    2660:	e0 2f       	mov	r30, r16
    2662:	f0 e0       	ldi	r31, 0x00	; 0
    2664:	ee 5c       	subi	r30, 0xCE	; 206
    2666:	fe 4f       	sbci	r31, 0xFE	; 254
    2668:	85 81       	ldd	r24, Z+5	; 0x05
				vms.var[x]>>=1;
    266a:	98 2f       	mov	r25, r24
    266c:	96 95       	lsr	r25
    266e:	95 83       	std	Z+5, r25	; 0x05
				n=vms.var[x]>=vms.var[y];
				vms.var[x]-=vms.var[y];
				vms.var[15]=n;
				break;
			case 0x6: // 8XY6  SHR VX  ; VX := VX shr 1, VF := carry
				n=(vms.var[x]&1u);
    2670:	81 70       	andi	r24, 0x01	; 1
    2672:	2b c1       	rjmp	.+598    	; 0x28ca <schipp+0x4e8>
				vms.var[x]>>=1;
				vms.var[15]=n;
				break;
			case 0x7: // 8XY7  SUBN VX,VY  ; VX := VY - VX, VF := not borrow
				n=vms.var[y]>=vms.var[x];
    2674:	ef 2d       	mov	r30, r15
    2676:	f0 e0       	ldi	r31, 0x00	; 0
    2678:	ee 5c       	subi	r30, 0xCE	; 206
    267a:	fe 4f       	sbci	r31, 0xFE	; 254
    267c:	25 81       	ldd	r18, Z+5	; 0x05
    267e:	e0 2f       	mov	r30, r16
    2680:	f0 e0       	ldi	r31, 0x00	; 0
    2682:	ee 5c       	subi	r30, 0xCE	; 206
    2684:	fe 4f       	sbci	r31, 0xFE	; 254
    2686:	95 81       	ldd	r25, Z+5	; 0x05
				vms.var[x]=vms.var[y]-vms.var[x];
    2688:	82 2f       	mov	r24, r18
    268a:	89 1b       	sub	r24, r25
    268c:	85 83       	std	Z+5, r24	; 0x05
				n=(vms.var[x]&1u);
				vms.var[x]>>=1;
				vms.var[15]=n;
				break;
			case 0x7: // 8XY7  SUBN VX,VY  ; VX := VY - VX, VF := not borrow
				n=vms.var[y]>=vms.var[x];
    268e:	81 e0       	ldi	r24, 0x01	; 1
    2690:	29 17       	cp	r18, r25
    2692:	08 f0       	brcs	.+2      	; 0x2696 <schipp+0x2b4>
    2694:	1a c1       	rjmp	.+564    	; 0x28ca <schipp+0x4e8>
    2696:	80 e0       	ldi	r24, 0x00	; 0
    2698:	18 c1       	rjmp	.+560    	; 0x28ca <schipp+0x4e8>
				vms.var[x]=vms.var[y]-vms.var[x];
				vms.var[15]=n;
				break;
			case 0xe: // 8XYE  SHL VX  ; VX := VX shl 1, VF := carry
				n=(vms.var[x]&128)>>7;
    269a:	e0 2f       	mov	r30, r16
    269c:	f0 e0       	ldi	r31, 0x00	; 0
    269e:	ee 5c       	subi	r30, 0xCE	; 206
    26a0:	fe 4f       	sbci	r31, 0xFE	; 254
    26a2:	85 81       	ldd	r24, Z+5	; 0x05
				vms.var[x]<<=1;
    26a4:	98 2f       	mov	r25, r24
    26a6:	99 0f       	add	r25, r25
    26a8:	95 83       	std	Z+5, r25	; 0x05
				n=vms.var[y]>=vms.var[x];
				vms.var[x]=vms.var[y]-vms.var[x];
				vms.var[15]=n;
				break;
			case 0xe: // 8XYE  SHL VX  ; VX := VX shl 1, VF := carry
				n=(vms.var[x]&128)>>7;
    26aa:	88 1f       	adc	r24, r24
    26ac:	88 27       	eor	r24, r24
    26ae:	88 1f       	adc	r24, r24
    26b0:	0c c1       	rjmp	.+536    	; 0x28ca <schipp+0x4e8>
			default:
				return CHIP_BAD_OPCODE;
			}//switch(vms.b2&0xf)
			break;
		case 0x9:
			switch (vms.b2&0xf){
    26b2:	48 2f       	mov	r20, r24
    26b4:	4f 70       	andi	r20, 0x0F	; 15
    26b6:	50 e0       	ldi	r21, 0x00	; 0
    26b8:	4a 30       	cpi	r20, 0x0A	; 10
    26ba:	51 05       	cpc	r21, r1
    26bc:	08 f0       	brcs	.+2      	; 0x26c0 <schipp+0x2de>
    26be:	e6 c1       	rjmp	.+972    	; 0x2a8c <schipp+0x6aa>
    26c0:	fa 01       	movw	r30, r20
    26c2:	ed 5a       	subi	r30, 0xAD	; 173
    26c4:	ff 4f       	sbci	r31, 0xFF	; 255
    26c6:	0c 94 e4 24 	jmp	0x49c8	; 0x49c8 <__tablejump2__>
			case 0x0: // 9XY0  SNE VX,VY  ; Saute l'instruction suivante si VX <> VY
				if (vms.var[x]!=vms.var[y]) vms.pc+=2;
    26ca:	e0 2f       	mov	r30, r16
    26cc:	f0 e0       	ldi	r31, 0x00	; 0
    26ce:	ee 5c       	subi	r30, 0xCE	; 206
    26d0:	fe 4f       	sbci	r31, 0xFE	; 254
    26d2:	af 2d       	mov	r26, r15
    26d4:	b0 e0       	ldi	r27, 0x00	; 0
    26d6:	ae 5c       	subi	r26, 0xCE	; 206
    26d8:	be 4f       	sbci	r27, 0xFE	; 254
    26da:	95 81       	ldd	r25, Z+5	; 0x05
    26dc:	15 96       	adiw	r26, 0x05	; 5
    26de:	8c 91       	ld	r24, X
    26e0:	98 17       	cp	r25, r24
    26e2:	09 f4       	brne	.+2      	; 0x26e6 <schipp+0x304>
    26e4:	a1 ce       	rjmp	.-702    	; 0x2428 <schipp+0x46>
    26e6:	2c 5f       	subi	r18, 0xFC	; 252
    26e8:	3f 4f       	sbci	r19, 0xFF	; 255
    26ea:	30 93 33 01 	sts	0x0133, r19
    26ee:	20 93 32 01 	sts	0x0132, r18
    26f2:	9a ce       	rjmp	.-716    	; 0x2428 <schipp+0x46>
				break;
			case 0x1: // 9XY1  TONE VX, VY ; joue une note de la gamme tempre. VX=note, VY=dure
				key_tone(vms.var[x],vms.var[y],false);
    26f4:	af 2d       	mov	r26, r15
    26f6:	b0 e0       	ldi	r27, 0x00	; 0
    26f8:	ae 5c       	subi	r26, 0xCE	; 206
    26fa:	be 4f       	sbci	r27, 0xFE	; 254
    26fc:	e0 2f       	mov	r30, r16
    26fe:	f0 e0       	ldi	r31, 0x00	; 0
    2700:	ee 5c       	subi	r30, 0xCE	; 206
    2702:	fe 4f       	sbci	r31, 0xFE	; 254
    2704:	40 e0       	ldi	r20, 0x00	; 0
    2706:	43 c0       	rjmp	.+134    	; 0x278e <schipp+0x3ac>
				break;
			case 0x2: // 9XY2  PRT VX, VY ; imprime le texte point par I. I est incrment. position VX, VY
				select_font(FONT_ASCII);
    2708:	82 e0       	ldi	r24, 0x02	; 2
    270a:	0e 94 83 1f 	call	0x3f06	; 0x3f06 <select_font>
				set_cursor(vms.var[x],vms.var[y]);
    270e:	af 2d       	mov	r26, r15
    2710:	b0 e0       	ldi	r27, 0x00	; 0
    2712:	ae 5c       	subi	r26, 0xCE	; 206
    2714:	be 4f       	sbci	r27, 0xFE	; 254
    2716:	e0 2f       	mov	r30, r16
    2718:	f0 e0       	ldi	r31, 0x00	; 0
    271a:	ee 5c       	subi	r30, 0xCE	; 206
    271c:	fe 4f       	sbci	r31, 0xFE	; 254
    271e:	15 96       	adiw	r26, 0x05	; 5
    2720:	6c 91       	ld	r22, X
    2722:	85 81       	ldd	r24, Z+5	; 0x05
    2724:	0e 94 0d 20 	call	0x401a	; 0x401a <set_cursor>
				n=sram_read_byte(vms.ix++);
				while (n){
					put_char(n);
					n=sram_read_byte(vms.ix++);
    2728:	80 91 34 01 	lds	r24, 0x0134
    272c:	90 91 35 01 	lds	r25, 0x0135
    2730:	9c 01       	movw	r18, r24
    2732:	2f 5f       	subi	r18, 0xFF	; 255
    2734:	3f 4f       	sbci	r19, 0xFF	; 255
    2736:	30 93 35 01 	sts	0x0135, r19
    273a:	20 93 34 01 	sts	0x0134, r18
    273e:	0e 94 11 1f 	call	0x3e22	; 0x3e22 <sram_read_byte>
				break;
			case 0x2: // 9XY2  PRT VX, VY ; imprime le texte point par I. I est incrment. position VX, VY
				select_font(FONT_ASCII);
				set_cursor(vms.var[x],vms.var[y]);
				n=sram_read_byte(vms.ix++);
				while (n){
    2742:	88 23       	and	r24, r24
    2744:	09 f4       	brne	.+2      	; 0x2748 <schipp+0x366>
    2746:	70 ce       	rjmp	.-800    	; 0x2428 <schipp+0x46>
					put_char(n);
    2748:	0e 94 b4 1f 	call	0x3f68	; 0x3f68 <put_char>
    274c:	ed cf       	rjmp	.-38     	; 0x2728 <schipp+0x346>
					n=sram_read_byte(vms.ix++);
				}
				break;
			case 0x3: // 9XY3 PIXI VX, VY  ; inverse le pixel  la position VX,VY
				plot(vms.var[x],vms.var[y],INVERT);
    274e:	af 2d       	mov	r26, r15
    2750:	b0 e0       	ldi	r27, 0x00	; 0
    2752:	ae 5c       	subi	r26, 0xCE	; 206
    2754:	be 4f       	sbci	r27, 0xFE	; 254
    2756:	e0 2f       	mov	r30, r16
    2758:	f0 e0       	ldi	r31, 0x00	; 0
    275a:	ee 5c       	subi	r30, 0xCE	; 206
    275c:	fe 4f       	sbci	r31, 0xFE	; 254
    275e:	42 e0       	ldi	r20, 0x02	; 2
    2760:	15 96       	adiw	r26, 0x05	; 5
    2762:	6c 91       	ld	r22, X
    2764:	85 81       	ldd	r24, Z+5	; 0x05
    2766:	0e 94 3d 21 	call	0x427a	; 0x427a <plot>
				break;
    276a:	5e ce       	rjmp	.-836    	; 0x2428 <schipp+0x46>
			case 0x4: // 9NN4  NOISE NN ; bruit blanc dure NN*frame
				noise((x<<4)+y);
    276c:	8f 2d       	mov	r24, r15
    276e:	f0 e1       	ldi	r31, 0x10	; 16
    2770:	0f 9f       	mul	r16, r31
    2772:	80 0d       	add	r24, r0
    2774:	11 24       	eor	r1, r1
    2776:	0e 94 0d 21 	call	0x421a	; 0x421a <noise>
				break;
    277a:	56 ce       	rjmp	.-852    	; 0x2428 <schipp+0x46>
			case 0x5: // 9XY5 TONE VX, VY, WAIT ; joue une note attend la fin avant de poursuivre. VX=note, VY=dure
				key_tone(vms.var[x],vms.var[y],true);
    277c:	af 2d       	mov	r26, r15
    277e:	b0 e0       	ldi	r27, 0x00	; 0
    2780:	ae 5c       	subi	r26, 0xCE	; 206
    2782:	be 4f       	sbci	r27, 0xFE	; 254
    2784:	e0 2f       	mov	r30, r16
    2786:	f0 e0       	ldi	r31, 0x00	; 0
    2788:	ee 5c       	subi	r30, 0xCE	; 206
    278a:	fe 4f       	sbci	r31, 0xFE	; 254
    278c:	41 e0       	ldi	r20, 0x01	; 1
    278e:	15 96       	adiw	r26, 0x05	; 5
    2790:	6c 91       	ld	r22, X
    2792:	85 81       	ldd	r24, Z+5	; 0x05
    2794:	0e 94 f1 20 	call	0x41e2	; 0x41e2 <key_tone>
				break;
    2798:	47 ce       	rjmp	.-882    	; 0x2428 <schipp+0x46>
			case 0x6: // 9X06, PUSH VX  ; empile le contenu de VX
				vms.stack[++vms.sp]=vms.var[x];
    279a:	e0 91 36 01 	lds	r30, 0x0136
    279e:	ef 5f       	subi	r30, 0xFF	; 255
    27a0:	e0 93 36 01 	sts	0x0136, r30
    27a4:	f0 e0       	ldi	r31, 0x00	; 0
    27a6:	ee 0f       	add	r30, r30
    27a8:	ff 1f       	adc	r31, r31
    27aa:	ee 5c       	subi	r30, 0xCE	; 206
    27ac:	fe 4f       	sbci	r31, 0xFE	; 254
    27ae:	a0 2f       	mov	r26, r16
    27b0:	b0 e0       	ldi	r27, 0x00	; 0
    27b2:	ae 5c       	subi	r26, 0xCE	; 206
    27b4:	be 4f       	sbci	r27, 0xFE	; 254
    27b6:	15 96       	adiw	r26, 0x05	; 5
    27b8:	8c 91       	ld	r24, X
    27ba:	90 e0       	ldi	r25, 0x00	; 0
    27bc:	90 a7       	std	Z+40, r25	; 0x28
    27be:	87 a3       	std	Z+39, r24	; 0x27
				break;
    27c0:	33 ce       	rjmp	.-922    	; 0x2428 <schipp+0x46>
			case 0x7: // 9X07, POP VX  ; transfert le sommet de la pile dans VX
				vms.var[x]=vms.stack[vms.sp--];
    27c2:	e0 91 36 01 	lds	r30, 0x0136
    27c6:	8f ef       	ldi	r24, 0xFF	; 255
    27c8:	8e 0f       	add	r24, r30
    27ca:	80 93 36 01 	sts	0x0136, r24
    27ce:	a0 2f       	mov	r26, r16
    27d0:	b0 e0       	ldi	r27, 0x00	; 0
    27d2:	ae 5c       	subi	r26, 0xCE	; 206
    27d4:	be 4f       	sbci	r27, 0xFE	; 254
    27d6:	f0 e0       	ldi	r31, 0x00	; 0
    27d8:	ee 0f       	add	r30, r30
    27da:	ff 1f       	adc	r31, r31
    27dc:	ee 5c       	subi	r30, 0xCE	; 206
    27de:	fe 4f       	sbci	r31, 0xFE	; 254
    27e0:	87 a1       	ldd	r24, Z+39	; 0x27
    27e2:	15 96       	adiw	r26, 0x05	; 5
    27e4:	8c 93       	st	X, r24
				break;
    27e6:	20 ce       	rjmp	.-960    	; 0x2428 <schipp+0x46>
			case 0x8: // 9X08, SCRX  ;  VX=HRES nombre de pixels en largeur d'cran.
				vms.var[x]=HRES;
    27e8:	e0 2f       	mov	r30, r16
    27ea:	f0 e0       	ldi	r31, 0x00	; 0
    27ec:	ee 5c       	subi	r30, 0xCE	; 206
    27ee:	fe 4f       	sbci	r31, 0xFE	; 254
    27f0:	d5 82       	std	Z+5, r13	; 0x05
				break;
    27f2:	1a ce       	rjmp	.-972    	; 0x2428 <schipp+0x46>
			case 0x9: // 9X09, SCRY  ; VX=VRES  nombre de pixels en hauteur d'cran.
				vms.var[x]=VRES;
    27f4:	e0 2f       	mov	r30, r16
    27f6:	f0 e0       	ldi	r31, 0x00	; 0
    27f8:	ee 5c       	subi	r30, 0xCE	; 206
    27fa:	fe 4f       	sbci	r31, 0xFE	; 254
    27fc:	d5 83       	std	Z+5, r29	; 0x05
				break;
    27fe:	14 ce       	rjmp	.-984    	; 0x2428 <schipp+0x46>
			default:
				return CHIP_BAD_OPCODE;
			}//switch(vms.b2&0xf)
			break;
		case 0xa: // ANNN    LD I, NNN  ; I := 2*NNN
			vms.ix=caddr(vms.b1,vms.b2);  // adressse de 13 bits toujours paire
    2800:	90 e0       	ldi	r25, 0x00	; 0
    2802:	9a 2b       	or	r25, r26
    2804:	88 0f       	add	r24, r24
    2806:	99 1f       	adc	r25, r25
    2808:	9f 70       	andi	r25, 0x0F	; 15
    280a:	90 93 35 01 	sts	0x0135, r25
    280e:	80 93 34 01 	sts	0x0134, r24
			vms.src_mem=RAM_MEM;
    2812:	80 91 99 01 	lds	r24, 0x0199
    2816:	81 60       	ori	r24, 0x01	; 1
    2818:	11 c1       	rjmp	.+546    	; 0x2a3c <schipp+0x65a>
			break;
		case 0xb: // BNNN     JP V0, NNN  ;  saut  2*(NNN+V0)
			vms.pc=(vms.var[0]<<1)+caddr(vms.b1,vms.b2);
    281a:	20 91 37 01 	lds	r18, 0x0137
    281e:	90 e0       	ldi	r25, 0x00	; 0
    2820:	9a 2b       	or	r25, r26
    2822:	88 0f       	add	r24, r24
    2824:	99 1f       	adc	r25, r25
    2826:	9f 70       	andi	r25, 0x0F	; 15
    2828:	82 0f       	add	r24, r18
    282a:	91 1d       	adc	r25, r1
    282c:	82 0f       	add	r24, r18
    282e:	91 1d       	adc	r25, r1
    2830:	8d ce       	rjmp	.-742    	; 0x254c <schipp+0x16a>
			break;
		case 0xc: //CXKK  RND VX,KK  ; VX=random_number&KK
			vms.var[x]=rand()&vms.b2;
    2832:	0e 94 52 25 	call	0x4aa4	; 0x4aa4 <rand>
    2836:	e0 2f       	mov	r30, r16
    2838:	f0 e0       	ldi	r31, 0x00	; 0
    283a:	ee 5c       	subi	r30, 0xCE	; 206
    283c:	fe 4f       	sbci	r31, 0xFE	; 254
    283e:	90 91 58 01 	lds	r25, 0x0158
    2842:	98 23       	and	r25, r24
    2844:	95 83       	std	Z+5, r25	; 0x05
			break;
    2846:	f0 cd       	rjmp	.-1056   	; 0x2428 <schipp+0x46>
		case 0xd: //DXYN DRW VX,VY   ; dessine un sprite  la position indique par vx,vy
			n=vms.b2&0xf;
    2848:	8f 70       	andi	r24, 0x0F	; 15
    284a:	b8 2e       	mov	r11, r24
    284c:	10 e0       	ldi	r17, 0x00	; 0
    284e:	ef 2c       	mov	r14, r15
    2850:	f1 2c       	mov	r15, r1
    2852:	80 91 34 01 	lds	r24, 0x0134
    2856:	90 91 35 01 	lds	r25, 0x0135
			if (!n){
    285a:	b1 10       	cpse	r11, r1
    285c:	14 c0       	rjmp	.+40     	; 0x2886 <schipp+0x4a4>
				sram_load_block(vms.ix,32,block);
    285e:	42 e1       	ldi	r20, 0x12	; 18
    2860:	51 e0       	ldi	r21, 0x01	; 1
    2862:	60 e2       	ldi	r22, 0x20	; 32
    2864:	70 e0       	ldi	r23, 0x00	; 0
    2866:	0e 94 32 1f 	call	0x3e64	; 0x3e64 <sram_load_block>
				vms.var[15]=put_big_sprite((int8_t)vms.var[x],(int8_t)vms.var[y],(const uint8_t*)block);
    286a:	d7 01       	movw	r26, r14
    286c:	ae 5c       	subi	r26, 0xCE	; 206
    286e:	be 4f       	sbci	r27, 0xFE	; 254
    2870:	f8 01       	movw	r30, r16
    2872:	ee 5c       	subi	r30, 0xCE	; 206
    2874:	fe 4f       	sbci	r31, 0xFE	; 254
    2876:	42 e1       	ldi	r20, 0x12	; 18
    2878:	51 e0       	ldi	r21, 0x01	; 1
    287a:	15 96       	adiw	r26, 0x05	; 5
    287c:	6c 91       	ld	r22, X
    287e:	85 81       	ldd	r24, Z+5	; 0x05
    2880:	0e 94 27 22 	call	0x444e	; 0x444e <put_big_sprite>
    2884:	22 c0       	rjmp	.+68     	; 0x28ca <schipp+0x4e8>
				}else{
				if (vms.src_mem==FLASH_MEM){
    2886:	20 91 99 01 	lds	r18, 0x0199
    288a:	20 fd       	sbrc	r18, 0
    288c:	09 c0       	rjmp	.+18     	; 0x28a0 <schipp+0x4be>
					vms.var[15]=put_sprite((int8_t)vms.var[x],(int8_t)vms.var[y],n,(const uint8_t *)vms.ix,FLASH_MEM);
    288e:	d7 01       	movw	r26, r14
    2890:	ae 5c       	subi	r26, 0xCE	; 206
    2892:	be 4f       	sbci	r27, 0xFE	; 254
    2894:	f8 01       	movw	r30, r16
    2896:	ee 5c       	subi	r30, 0xCE	; 206
    2898:	fe 4f       	sbci	r31, 0xFE	; 254
    289a:	00 e0       	ldi	r16, 0x00	; 0
    289c:	9c 01       	movw	r18, r24
    289e:	0f c0       	rjmp	.+30     	; 0x28be <schipp+0x4dc>
					}else{
					sram_load_block(vms.ix,n,block);
    28a0:	6b 2d       	mov	r22, r11
    28a2:	70 e0       	ldi	r23, 0x00	; 0
    28a4:	42 e1       	ldi	r20, 0x12	; 18
    28a6:	51 e0       	ldi	r21, 0x01	; 1
    28a8:	0e 94 32 1f 	call	0x3e64	; 0x3e64 <sram_load_block>
					vms.var[15]=put_sprite((int8_t)vms.var[x],(int8_t)vms.var[y],n,(const uint8_t*)block,RAM_MEM);
    28ac:	d7 01       	movw	r26, r14
    28ae:	ae 5c       	subi	r26, 0xCE	; 206
    28b0:	be 4f       	sbci	r27, 0xFE	; 254
    28b2:	f8 01       	movw	r30, r16
    28b4:	ee 5c       	subi	r30, 0xCE	; 206
    28b6:	fe 4f       	sbci	r31, 0xFE	; 254
    28b8:	01 e0       	ldi	r16, 0x01	; 1
    28ba:	22 e1       	ldi	r18, 0x12	; 18
    28bc:	31 e0       	ldi	r19, 0x01	; 1
    28be:	4b 2d       	mov	r20, r11
    28c0:	15 96       	adiw	r26, 0x05	; 5
    28c2:	6c 91       	ld	r22, X
    28c4:	85 81       	ldd	r24, Z+5	; 0x05
    28c6:	0e 94 8a 21 	call	0x4314	; 0x4314 <put_sprite>
    28ca:	80 93 46 01 	sts	0x0146, r24
    28ce:	ac cd       	rjmp	.-1192   	; 0x2428 <schipp+0x46>
				}
			}
			break;
		case 0xe:
				switch(vms.b2){
    28d0:	8e 39       	cpi	r24, 0x9E	; 158
    28d2:	19 f0       	breq	.+6      	; 0x28da <schipp+0x4f8>
    28d4:	81 3a       	cpi	r24, 0xA1	; 161
    28d6:	61 f0       	breq	.+24     	; 0x28f0 <schipp+0x50e>
    28d8:	d9 c0       	rjmp	.+434    	; 0x2a8c <schipp+0x6aa>
				case 0x9e: //EX9E, SKP VX   ; saute l'instruction suivante si le bouton indiqu par VX est enfonce
					if (joystick_btn_down(vms.var[x])) vms.pc+=2;
    28da:	e0 2f       	mov	r30, r16
    28dc:	f0 e0       	ldi	r31, 0x00	; 0
    28de:	ee 5c       	subi	r30, 0xCE	; 206
    28e0:	fe 4f       	sbci	r31, 0xFE	; 254
    28e2:	85 81       	ldd	r24, Z+5	; 0x05
    28e4:	0e 94 e3 1b 	call	0x37c6	; 0x37c6 <joystick_btn_down>
    28e8:	88 23       	and	r24, r24
    28ea:	09 f4       	brne	.+2      	; 0x28ee <schipp+0x50c>
    28ec:	9d cd       	rjmp	.-1222   	; 0x2428 <schipp+0x46>
    28ee:	09 c0       	rjmp	.+18     	; 0x2902 <schipp+0x520>
					break;
				case 0xa1: //EXA1, SKNP VX  ; saute l'instruction suivante si la boutin indiqu par VX n'est pas enfonce
					if (!joystick_btn_down(vms.var[x])) vms.pc+=2;
    28f0:	e0 2f       	mov	r30, r16
    28f2:	f0 e0       	ldi	r31, 0x00	; 0
    28f4:	ee 5c       	subi	r30, 0xCE	; 206
    28f6:	fe 4f       	sbci	r31, 0xFE	; 254
    28f8:	85 81       	ldd	r24, Z+5	; 0x05
    28fa:	0e 94 e3 1b 	call	0x37c6	; 0x37c6 <joystick_btn_down>
    28fe:	81 11       	cpse	r24, r1
    2900:	93 cd       	rjmp	.-1242   	; 0x2428 <schipp+0x46>
    2902:	80 91 32 01 	lds	r24, 0x0132
    2906:	90 91 33 01 	lds	r25, 0x0133
    290a:	02 96       	adiw	r24, 0x02	; 2
    290c:	1f ce       	rjmp	.-962    	; 0x254c <schipp+0x16a>
				default:
					return CHIP_BAD_OPCODE;
				}//switch(vms.b2)
				break;
		case 0xf:
			switch(vms.b2){
    290e:	89 32       	cpi	r24, 0x29	; 41
    2910:	09 f4       	brne	.+2      	; 0x2914 <schipp+0x532>
    2912:	6e c0       	rjmp	.+220    	; 0x29f0 <schipp+0x60e>
    2914:	18 f5       	brcc	.+70     	; 0x295c <schipp+0x57a>
    2916:	85 31       	cpi	r24, 0x15	; 21
    2918:	09 f4       	brne	.+2      	; 0x291c <schipp+0x53a>
    291a:	58 c0       	rjmp	.+176    	; 0x29cc <schipp+0x5ea>
    291c:	48 f4       	brcc	.+18     	; 0x2930 <schipp+0x54e>
    291e:	87 30       	cpi	r24, 0x07	; 7
    2920:	09 f4       	brne	.+2      	; 0x2924 <schipp+0x542>
    2922:	51 c0       	rjmp	.+162    	; 0x29c6 <schipp+0x5e4>
    2924:	8a 30       	cpi	r24, 0x0A	; 10
    2926:	09 f0       	breq	.+2      	; 0x292a <schipp+0x548>
    2928:	b1 c0       	rjmp	.+354    	; 0x2a8c <schipp+0x6aa>
			case 0x07: // FX07  LD VX, DT   VX := delay_cntr
				vms.var[x]=frame_delay;
				break;
			case 0x0a: // FX0A  LD VX, K  ; attend qu'une touche soit enfonce et met sa valeur dans VX
				vms.var[x]=joystick_wait_any();
    292a:	0e 94 e9 1b 	call	0x37d2	; 0x37d2 <joystick_wait_any>
    292e:	45 ce       	rjmp	.-886    	; 0x25ba <schipp+0x1d8>
				default:
					return CHIP_BAD_OPCODE;
				}//switch(vms.b2)
				break;
		case 0xf:
			switch(vms.b2){
    2930:	88 31       	cpi	r24, 0x18	; 24
    2932:	09 f4       	brne	.+2      	; 0x2936 <schipp+0x554>
    2934:	53 c0       	rjmp	.+166    	; 0x29dc <schipp+0x5fa>
    2936:	8e 31       	cpi	r24, 0x1E	; 30
    2938:	09 f0       	breq	.+2      	; 0x293c <schipp+0x55a>
    293a:	a8 c0       	rjmp	.+336    	; 0x2a8c <schipp+0x6aa>
				break;
			case 0x18: // FX18  LD ST, VX  ; beep d'une dure VX (multiple de 16.7 msec)
				tone(523,vms.var[x]);
				break;
			case 0x1e: // FX1E  ADD I, VX  ;  I := I + VX
				vms.ix += vms.var[x];
    293c:	e0 2f       	mov	r30, r16
    293e:	f0 e0       	ldi	r31, 0x00	; 0
    2940:	ee 5c       	subi	r30, 0xCE	; 206
    2942:	fe 4f       	sbci	r31, 0xFE	; 254
    2944:	25 81       	ldd	r18, Z+5	; 0x05
    2946:	80 91 34 01 	lds	r24, 0x0134
    294a:	90 91 35 01 	lds	r25, 0x0135
    294e:	82 0f       	add	r24, r18
    2950:	91 1d       	adc	r25, r1
    2952:	90 93 35 01 	sts	0x0135, r25
    2956:	80 93 34 01 	sts	0x0134, r24
				break;
    295a:	66 cd       	rjmp	.-1332   	; 0x2428 <schipp+0x46>
				default:
					return CHIP_BAD_OPCODE;
				}//switch(vms.b2)
				break;
		case 0xf:
			switch(vms.b2){
    295c:	85 35       	cpi	r24, 0x55	; 85
    295e:	09 f4       	brne	.+2      	; 0x2962 <schipp+0x580>
    2960:	70 c0       	rjmp	.+224    	; 0x2a42 <schipp+0x660>
    2962:	d8 f4       	brcc	.+54     	; 0x299a <schipp+0x5b8>
    2964:	80 33       	cpi	r24, 0x30	; 48
    2966:	09 f4       	brne	.+2      	; 0x296a <schipp+0x588>
    2968:	54 c0       	rjmp	.+168    	; 0x2a12 <schipp+0x630>
    296a:	83 33       	cpi	r24, 0x33	; 51
    296c:	09 f0       	breq	.+2      	; 0x2970 <schipp+0x58e>
    296e:	8e c0       	rjmp	.+284    	; 0x2a8c <schipp+0x6aa>
				vms.ix=(int16_t)font_hex_8x10+vms.var[x]*LHEX_HEIGHT;
				select_font(FONT_LHEX);
				vms.src_mem=FLASH_MEM;
				break;
			case 0x33: // FX33 LD B, VX  ;  met la reprsentation BCD de VX dans M[I]..M[I+2]
				n=vms.var[x];
    2970:	e0 2f       	mov	r30, r16
    2972:	f0 e0       	ldi	r31, 0x00	; 0
    2974:	ee 5c       	subi	r30, 0xCE	; 206
    2976:	fe 4f       	sbci	r31, 0xFE	; 254
    2978:	85 81       	ldd	r24, Z+5	; 0x05
				block[2]=n%10;
    297a:	6c 2f       	mov	r22, r28
    297c:	0e 94 83 24 	call	0x4906	; 0x4906 <__udivmodqi4>
    2980:	90 93 14 01 	sts	0x0114, r25
				n /=10;
				block[1]=n%10;
    2984:	0e 94 83 24 	call	0x4906	; 0x4906 <__udivmodqi4>
    2988:	90 93 13 01 	sts	0x0113, r25
				block[0]=n/10;
    298c:	80 93 12 01 	sts	0x0112, r24
				sram_store_block(vms.ix,3,block);
    2990:	42 e1       	ldi	r20, 0x12	; 18
    2992:	51 e0       	ldi	r21, 0x01	; 1
    2994:	63 e0       	ldi	r22, 0x03	; 3
    2996:	70 e0       	ldi	r23, 0x00	; 0
    2998:	5a c0       	rjmp	.+180    	; 0x2a4e <schipp+0x66c>
				default:
					return CHIP_BAD_OPCODE;
				}//switch(vms.b2)
				break;
		case 0xf:
			switch(vms.b2){
    299a:	85 37       	cpi	r24, 0x75	; 117
    299c:	09 f4       	brne	.+2      	; 0x29a0 <schipp+0x5be>
    299e:	5e c0       	rjmp	.+188    	; 0x2a5c <schipp+0x67a>
    29a0:	85 38       	cpi	r24, 0x85	; 133
    29a2:	09 f4       	brne	.+2      	; 0x29a6 <schipp+0x5c4>
    29a4:	66 c0       	rjmp	.+204    	; 0x2a72 <schipp+0x690>
    29a6:	85 36       	cpi	r24, 0x65	; 101
    29a8:	09 f0       	breq	.+2      	; 0x29ac <schipp+0x5ca>
    29aa:	70 c0       	rjmp	.+224    	; 0x2a8c <schipp+0x6aa>
				break;
			case 0x55: // FX55  LD [I], VX  ; Sauvegarde les registres V0..VX dans la mmoire SRAM  l'adresse M[I]...
				sram_store_block(vms.ix,x+1,vms.var);
				break;
			case 0x65: // FX65 LD VX,[I]  ;charge les registres V0..VX  partir de la mmoire SRAM  l'adresse M[I]
				sram_load_block(vms.ix,x+1,vms.var);
    29ac:	60 2f       	mov	r22, r16
    29ae:	70 e0       	ldi	r23, 0x00	; 0
    29b0:	6f 5f       	subi	r22, 0xFF	; 255
    29b2:	7f 4f       	sbci	r23, 0xFF	; 255
    29b4:	47 e3       	ldi	r20, 0x37	; 55
    29b6:	51 e0       	ldi	r21, 0x01	; 1
    29b8:	80 91 34 01 	lds	r24, 0x0134
    29bc:	90 91 35 01 	lds	r25, 0x0135
    29c0:	0e 94 32 1f 	call	0x3e64	; 0x3e64 <sram_load_block>
				break;
    29c4:	31 cd       	rjmp	.-1438   	; 0x2428 <schipp+0x46>
				}//switch(vms.b2)
				break;
		case 0xf:
			switch(vms.b2){
			case 0x07: // FX07  LD VX, DT   VX := delay_cntr
				vms.var[x]=frame_delay;
    29c6:	80 91 cf 02 	lds	r24, 0x02CF
    29ca:	f7 cd       	rjmp	.-1042   	; 0x25ba <schipp+0x1d8>
				break;
			case 0x0a: // FX0A  LD VX, K  ; attend qu'une touche soit enfonce et met sa valeur dans VX
				vms.var[x]=joystick_wait_any();
				break;
			case 0x15: // FX15  LD DT, VX  ; dmarre la minuterie delay_cntr avec la valeur indique par VX
				frame_delay=vms.var[x];
    29cc:	e0 2f       	mov	r30, r16
    29ce:	f0 e0       	ldi	r31, 0x00	; 0
    29d0:	ee 5c       	subi	r30, 0xCE	; 206
    29d2:	fe 4f       	sbci	r31, 0xFE	; 254
    29d4:	85 81       	ldd	r24, Z+5	; 0x05
    29d6:	80 93 cf 02 	sts	0x02CF, r24
				break;
    29da:	26 cd       	rjmp	.-1460   	; 0x2428 <schipp+0x46>
			case 0x18: // FX18  LD ST, VX  ; beep d'une dure VX (multiple de 16.7 msec)
				tone(523,vms.var[x]);
    29dc:	e0 2f       	mov	r30, r16
    29de:	f0 e0       	ldi	r31, 0x00	; 0
    29e0:	ee 5c       	subi	r30, 0xCE	; 206
    29e2:	fe 4f       	sbci	r31, 0xFE	; 254
    29e4:	65 81       	ldd	r22, Z+5	; 0x05
    29e6:	8b e0       	ldi	r24, 0x0B	; 11
    29e8:	92 e0       	ldi	r25, 0x02	; 2
    29ea:	0e 94 df 20 	call	0x41be	; 0x41be <tone>
				break;
    29ee:	1c cd       	rjmp	.-1480   	; 0x2428 <schipp+0x46>
			case 0x1e: // FX1E  ADD I, VX  ;  I := I + VX
				vms.ix += vms.var[x];
				break;
			case 0x29: // FX29  LD F,VX   ; fait point I vers le caractre indiqu par VX dans la police FONT_SHEX
				vms.ix=(int16_t)font_hex_4x6+vms.var[x]*SHEX_HEIGHT;
    29f0:	e0 2f       	mov	r30, r16
    29f2:	f0 e0       	ldi	r31, 0x00	; 0
    29f4:	ee 5c       	subi	r30, 0xCE	; 206
    29f6:	fe 4f       	sbci	r31, 0xFE	; 254
    29f8:	85 81       	ldd	r24, Z+5	; 0x05
    29fa:	26 e0       	ldi	r18, 0x06	; 6
    29fc:	82 9f       	mul	r24, r18
    29fe:	c0 01       	movw	r24, r0
    2a00:	11 24       	eor	r1, r1
    2a02:	83 57       	subi	r24, 0x73	; 115
    2a04:	95 4e       	sbci	r25, 0xE5	; 229
    2a06:	90 93 35 01 	sts	0x0135, r25
    2a0a:	80 93 34 01 	sts	0x0134, r24
				select_font(FONT_SHEX);
    2a0e:	80 e0       	ldi	r24, 0x00	; 0
    2a10:	10 c0       	rjmp	.+32     	; 0x2a32 <schipp+0x650>
				vms.src_mem=FLASH_MEM;
				break;
			case 0x30: // FX30 LD LF,VX  ;fait point I vers le caractre indiqu par VX dans la police FONT_LHEX
				vms.ix=(int16_t)font_hex_8x10+vms.var[x]*LHEX_HEIGHT;
    2a12:	e0 2f       	mov	r30, r16
    2a14:	f0 e0       	ldi	r31, 0x00	; 0
    2a16:	ee 5c       	subi	r30, 0xCE	; 206
    2a18:	fe 4f       	sbci	r31, 0xFE	; 254
    2a1a:	85 81       	ldd	r24, Z+5	; 0x05
    2a1c:	ea e0       	ldi	r30, 0x0A	; 10
    2a1e:	8e 9f       	mul	r24, r30
    2a20:	c0 01       	movw	r24, r0
    2a22:	11 24       	eor	r1, r1
    2a24:	83 51       	subi	r24, 0x13	; 19
    2a26:	96 4e       	sbci	r25, 0xE6	; 230
    2a28:	90 93 35 01 	sts	0x0135, r25
    2a2c:	80 93 34 01 	sts	0x0134, r24
				select_font(FONT_LHEX);
    2a30:	81 e0       	ldi	r24, 0x01	; 1
    2a32:	0e 94 83 1f 	call	0x3f06	; 0x3f06 <select_font>
				vms.src_mem=FLASH_MEM;
    2a36:	80 91 99 01 	lds	r24, 0x0199
    2a3a:	8e 7f       	andi	r24, 0xFE	; 254
    2a3c:	80 93 99 01 	sts	0x0199, r24
				break;
    2a40:	f3 cc       	rjmp	.-1562   	; 0x2428 <schipp+0x46>
				block[1]=n%10;
				block[0]=n/10;
				sram_store_block(vms.ix,3,block);
				break;
			case 0x55: // FX55  LD [I], VX  ; Sauvegarde les registres V0..VX dans la mmoire SRAM  l'adresse M[I]...
				sram_store_block(vms.ix,x+1,vms.var);
    2a42:	60 2f       	mov	r22, r16
    2a44:	70 e0       	ldi	r23, 0x00	; 0
    2a46:	6f 5f       	subi	r22, 0xFF	; 255
    2a48:	7f 4f       	sbci	r23, 0xFF	; 255
    2a4a:	47 e3       	ldi	r20, 0x37	; 55
    2a4c:	51 e0       	ldi	r21, 0x01	; 1
    2a4e:	80 91 34 01 	lds	r24, 0x0134
    2a52:	90 91 35 01 	lds	r25, 0x0135
    2a56:	0e 94 5b 1f 	call	0x3eb6	; 0x3eb6 <sram_store_block>
				break;
    2a5a:	e6 cc       	rjmp	.-1588   	; 0x2428 <schipp+0x46>
				default:
					return CHIP_BAD_OPCODE;
				}//switch(vms.b2)
				break;
		case 0xf:
			switch(vms.b2){
    2a5c:	80 e0       	ldi	r24, 0x00	; 0
			case 0x65: // FX65 LD VX,[I]  ;charge les registres V0..VX  partir de la mmoire SRAM  l'adresse M[I]
				sram_load_block(vms.ix,x+1,vms.var);
				break;
			case 0x75: // FX75 LD R,VX  ; sauvegarde les registres V0..VX dans la banque R
				for (n=0;n<=x;n++){
					vms.rpl[n]=vms.var[n];
    2a5e:	e8 2f       	mov	r30, r24
    2a60:	f0 e0       	ldi	r31, 0x00	; 0
    2a62:	ee 5c       	subi	r30, 0xCE	; 206
    2a64:	fe 4f       	sbci	r31, 0xFE	; 254
    2a66:	95 81       	ldd	r25, Z+5	; 0x05
    2a68:	95 8b       	std	Z+21, r25	; 0x15
				break;
			case 0x65: // FX65 LD VX,[I]  ;charge les registres V0..VX  partir de la mmoire SRAM  l'adresse M[I]
				sram_load_block(vms.ix,x+1,vms.var);
				break;
			case 0x75: // FX75 LD R,VX  ; sauvegarde les registres V0..VX dans la banque R
				for (n=0;n<=x;n++){
    2a6a:	8f 5f       	subi	r24, 0xFF	; 255
    2a6c:	08 17       	cp	r16, r24
    2a6e:	b8 f7       	brcc	.-18     	; 0x2a5e <schipp+0x67c>
    2a70:	db cc       	rjmp	.-1610   	; 0x2428 <schipp+0x46>
				default:
					return CHIP_BAD_OPCODE;
				}//switch(vms.b2)
				break;
		case 0xf:
			switch(vms.b2){
    2a72:	80 e0       	ldi	r24, 0x00	; 0
					vms.rpl[n]=vms.var[n];
				}
				break;
			case 0x85: // FX85 LD VX, R  ;charge les registres V0..VX  partir de la banque R
				for (n=0;n<=x;n++){
					vms.var[n]=vms.rpl[n];
    2a74:	e8 2f       	mov	r30, r24
    2a76:	f0 e0       	ldi	r31, 0x00	; 0
    2a78:	ee 5c       	subi	r30, 0xCE	; 206
    2a7a:	fe 4f       	sbci	r31, 0xFE	; 254
    2a7c:	95 89       	ldd	r25, Z+21	; 0x15
    2a7e:	95 83       	std	Z+5, r25	; 0x05
				for (n=0;n<=x;n++){
					vms.rpl[n]=vms.var[n];
				}
				break;
			case 0x85: // FX85 LD VX, R  ;charge les registres V0..VX  partir de la banque R
				for (n=0;n<=x;n++){
    2a80:	8f 5f       	subi	r24, 0xFF	; 255
    2a82:	08 17       	cp	r16, r24
    2a84:	b8 f7       	brcc	.-18     	; 0x2a74 <schipp+0x692>
    2a86:	d0 cc       	rjmp	.-1632   	; 0x2428 <schipp+0x46>
#if ICACHE==1
	cache_base=0;
	load_cache();
#endif
 	while (1){
		if (joystick_break()) return CHIP_EXIT_OK;
    2a88:	81 e0       	ldi	r24, 0x01	; 1
    2a8a:	01 c0       	rjmp	.+2      	; 0x2a8e <schipp+0x6ac>
				for (n=0;n<=x;n++){
					vms.var[n]=vms.rpl[n];
				}
				break;
			default:
				return CHIP_BAD_OPCODE;
    2a8c:	82 e0       	ldi	r24, 0x02	; 2
			default:
				return CHIP_BAD_OPCODE;
		}//switch
#endif		
	}//while(1)
}//schipp()
    2a8e:	df 91       	pop	r29
    2a90:	cf 91       	pop	r28
    2a92:	1f 91       	pop	r17
    2a94:	0f 91       	pop	r16
    2a96:	ff 90       	pop	r15
    2a98:	ef 90       	pop	r14
    2a9a:	df 90       	pop	r13
    2a9c:	bf 90       	pop	r11
    2a9e:	af 90       	pop	r10
    2aa0:	08 95       	ret

00002aa2 <fat_dir_entry_read_callback>:
 * \param[in,out] p An argument structure controlling operation.
 * \returns 0 on failure or completion, 1 if reading has
 *          to be continued
 */
uint8_t fat_dir_entry_read_callback(uint8_t* buffer, offset_t offset, void* p)
{
    2aa2:	ef 92       	push	r14
    2aa4:	ff 92       	push	r15
    2aa6:	0f 93       	push	r16
    2aa8:	1f 93       	push	r17
    2aaa:	cf 93       	push	r28
    2aac:	df 93       	push	r29
    2aae:	7c 01       	movw	r14, r24
    2ab0:	e9 01       	movw	r28, r18
    struct fat_read_dir_callback_arg* arg = p;
    struct fat_dir_entry_struct* dir_entry = arg->dir_entry;
    2ab2:	08 81       	ld	r16, Y
    2ab4:	19 81       	ldd	r17, Y+1	; 0x01

    arg->bytes_read += 32;
    2ab6:	8a 81       	ldd	r24, Y+2	; 0x02
    2ab8:	9b 81       	ldd	r25, Y+3	; 0x03
    2aba:	80 96       	adiw	r24, 0x20	; 32
    2abc:	9b 83       	std	Y+3, r25	; 0x03
    2abe:	8a 83       	std	Y+2, r24	; 0x02

    /* skip deleted or empty entries */
    if(buffer[0] == FAT_DIRENTRY_DELETED || !buffer[0])
    2ac0:	d7 01       	movw	r26, r14
    2ac2:	8c 91       	ld	r24, X
    2ac4:	85 3e       	cpi	r24, 0xE5	; 229
    2ac6:	09 f4       	brne	.+2      	; 0x2aca <fat_dir_entry_read_callback+0x28>
    2ac8:	78 c0       	rjmp	.+240    	; 0x2bba <fat_dir_entry_read_callback+0x118>
    2aca:	88 23       	and	r24, r24
    2acc:	09 f4       	brne	.+2      	; 0x2ad0 <fat_dir_entry_read_callback+0x2e>
    2ace:	75 c0       	rjmp	.+234    	; 0x2bba <fat_dir_entry_read_callback+0x118>
        return 1;
    }

#if !FAT_LFN_SUPPORT
    /* skip lfn entries */
    if(buffer[11] == 0x0f)
    2ad0:	1b 96       	adiw	r26, 0x0b	; 11
    2ad2:	8c 91       	ld	r24, X
    2ad4:	8f 30       	cpi	r24, 0x0F	; 15
    2ad6:	09 f4       	brne	.+2      	; 0x2ada <fat_dir_entry_read_callback+0x38>
    2ad8:	70 c0       	rjmp	.+224    	; 0x2bba <fat_dir_entry_read_callback+0x118>
        /* if we do not have a long name or the previous lfn does not match, take the 8.3 name */
        if(long_name[0] == '\0' || arg->checksum != fat_calc_83_checksum(buffer))
#endif
        {
            /* reset directory entry */
            memset(dir_entry, 0, sizeof(*dir_entry));
    2ada:	8b e2       	ldi	r24, 0x2B	; 43
    2adc:	f8 01       	movw	r30, r16
    2ade:	11 92       	st	Z+, r1
    2ae0:	8a 95       	dec	r24
    2ae2:	e9 f7       	brne	.-6      	; 0x2ade <fat_dir_entry_read_callback+0x3c>
            dir_entry->entry_offset = offset;
    2ae4:	d8 01       	movw	r26, r16
    2ae6:	97 96       	adiw	r26, 0x27	; 39
    2ae8:	4d 93       	st	X+, r20
    2aea:	5d 93       	st	X+, r21
    2aec:	6d 93       	st	X+, r22
    2aee:	7c 93       	st	X, r23
    2af0:	9a 97       	sbiw	r26, 0x2a	; 42
    2af2:	d7 01       	movw	r26, r14
    2af4:	a8 01       	movw	r20, r16

            uint8_t i;
            for(i = 0; i < 8; ++i)
    2af6:	80 e0       	ldi	r24, 0x00	; 0
            {
                if(buffer[i] == ' ')
    2af8:	9c 91       	ld	r25, X
    2afa:	90 32       	cpi	r25, 0x20	; 32
    2afc:	99 f0       	breq	.+38     	; 0x2b24 <fat_dir_entry_read_callback+0x82>
                    break;
                long_name[i] = buffer[i];
    2afe:	fa 01       	movw	r30, r20
    2b00:	90 83       	st	Z, r25
                /* Windows NT and later versions do not store lfn entries
                 * for 8.3 names which have a lowercase basename, extension
                 * or both when everything else is uppercase. They use two
                 * extra bits to signal a lowercase basename or extension.
                 */
                if((buffer[12] & 0x08) && buffer[i] >= 'A' && buffer[i] <= 'Z')
    2b02:	f7 01       	movw	r30, r14
    2b04:	24 85       	ldd	r18, Z+12	; 0x0c
    2b06:	23 ff       	sbrs	r18, 3
    2b08:	07 c0       	rjmp	.+14     	; 0x2b18 <fat_dir_entry_read_callback+0x76>
    2b0a:	2c 91       	ld	r18, X
    2b0c:	21 54       	subi	r18, 0x41	; 65
    2b0e:	2a 31       	cpi	r18, 0x1A	; 26
    2b10:	18 f4       	brcc	.+6      	; 0x2b18 <fat_dir_entry_read_callback+0x76>
                    long_name[i] += 'a' - 'A';
    2b12:	90 5e       	subi	r25, 0xE0	; 224
    2b14:	fa 01       	movw	r30, r20
    2b16:	90 83       	st	Z, r25
            /* reset directory entry */
            memset(dir_entry, 0, sizeof(*dir_entry));
            dir_entry->entry_offset = offset;

            uint8_t i;
            for(i = 0; i < 8; ++i)
    2b18:	8f 5f       	subi	r24, 0xFF	; 255
    2b1a:	11 96       	adiw	r26, 0x01	; 1
    2b1c:	4f 5f       	subi	r20, 0xFF	; 255
    2b1e:	5f 4f       	sbci	r21, 0xFF	; 255
    2b20:	88 30       	cpi	r24, 0x08	; 8
    2b22:	51 f7       	brne	.-44     	; 0x2af8 <fat_dir_entry_read_callback+0x56>
                 * extra bits to signal a lowercase basename or extension.
                 */
                if((buffer[12] & 0x08) && buffer[i] >= 'A' && buffer[i] <= 'Z')
                    long_name[i] += 'a' - 'A';
            }
            if(long_name[0] == 0x05)
    2b24:	d8 01       	movw	r26, r16
    2b26:	9c 91       	ld	r25, X
    2b28:	95 30       	cpi	r25, 0x05	; 5
    2b2a:	11 f4       	brne	.+4      	; 0x2b30 <fat_dir_entry_read_callback+0x8e>
                long_name[0] = (char) FAT_DIRENTRY_DELETED;
    2b2c:	95 ee       	ldi	r25, 0xE5	; 229
    2b2e:	9c 93       	st	X, r25

            if(buffer[8] != ' ')
    2b30:	f7 01       	movw	r30, r14
    2b32:	90 85       	ldd	r25, Z+8	; 0x08
    2b34:	90 32       	cpi	r25, 0x20	; 32
    2b36:	11 f1       	breq	.+68     	; 0x2b7c <fat_dir_entry_read_callback+0xda>
            {
                long_name[i++] = '.';
    2b38:	f8 01       	movw	r30, r16
    2b3a:	e8 0f       	add	r30, r24
    2b3c:	f1 1d       	adc	r31, r1
    2b3e:	9e e2       	ldi	r25, 0x2E	; 46
    2b40:	90 83       	st	Z, r25
    2b42:	f7 01       	movw	r30, r14
    2b44:	38 96       	adiw	r30, 0x08	; 8
    2b46:	34 e0       	ldi	r19, 0x04	; 4
    2b48:	38 0f       	add	r19, r24
    2b4a:	8f 5f       	subi	r24, 0xFF	; 255

                uint8_t j = 8;
                for(; j < 11; ++j)
                {
                    if(buffer[j] == ' ')
    2b4c:	90 81       	ld	r25, Z
    2b4e:	90 32       	cpi	r25, 0x20	; 32
    2b50:	a9 f0       	breq	.+42     	; 0x2b7c <fat_dir_entry_read_callback+0xda>
                        break;
                    long_name[i] = buffer[j];
    2b52:	a8 01       	movw	r20, r16
    2b54:	48 0f       	add	r20, r24
    2b56:	51 1d       	adc	r21, r1
    2b58:	da 01       	movw	r26, r20
    2b5a:	9c 93       	st	X, r25

                    /* See above for the lowercase 8.3 name handling of
                     * Windows NT and later.
                     */
                    if((buffer[12] & 0x10) && buffer[j] >= 'A' && buffer[j] <= 'Z')
    2b5c:	d7 01       	movw	r26, r14
    2b5e:	1c 96       	adiw	r26, 0x0c	; 12
    2b60:	2c 91       	ld	r18, X
    2b62:	24 ff       	sbrs	r18, 4
    2b64:	07 c0       	rjmp	.+14     	; 0x2b74 <fat_dir_entry_read_callback+0xd2>
    2b66:	20 81       	ld	r18, Z
    2b68:	21 54       	subi	r18, 0x41	; 65
    2b6a:	2a 31       	cpi	r18, 0x1A	; 26
    2b6c:	18 f4       	brcc	.+6      	; 0x2b74 <fat_dir_entry_read_callback+0xd2>
                        long_name[i] += 'a' - 'A';
    2b6e:	90 5e       	subi	r25, 0xE0	; 224
    2b70:	da 01       	movw	r26, r20
    2b72:	9c 93       	st	X, r25

                    ++i;
    2b74:	8f 5f       	subi	r24, 0xFF	; 255
    2b76:	31 96       	adiw	r30, 0x01	; 1
            if(buffer[8] != ' ')
            {
                long_name[i++] = '.';

                uint8_t j = 8;
                for(; j < 11; ++j)
    2b78:	83 13       	cpse	r24, r19
    2b7a:	e8 cf       	rjmp	.-48     	; 0x2b4c <fat_dir_entry_read_callback+0xaa>

                    ++i;
                }
            } 

            long_name[i] = '\0';
    2b7c:	f8 01       	movw	r30, r16
    2b7e:	e8 0f       	add	r30, r24
    2b80:	f1 1d       	adc	r31, r1
    2b82:	10 82       	st	Z, r1
        }
        
        /* extract properties of file and store them within the structure */
        dir_entry->attributes = buffer[11];
    2b84:	f7 01       	movw	r30, r14
    2b86:	83 85       	ldd	r24, Z+11	; 0x0b
    2b88:	d8 01       	movw	r26, r16
    2b8a:	90 96       	adiw	r26, 0x20	; 32
    2b8c:	8c 93       	st	X, r24
        dir_entry->cluster = read16(&buffer[26]);
    2b8e:	c7 01       	movw	r24, r14
    2b90:	4a 96       	adiw	r24, 0x1a	; 26
    2b92:	0e 94 f2 0e 	call	0x1de4	; 0x1de4 <read16>
    2b96:	f8 01       	movw	r30, r16
    2b98:	92 a3       	std	Z+34, r25	; 0x22
    2b9a:	81 a3       	std	Z+33, r24	; 0x21
#if FAT_FAT32_SUPPORT
        dir_entry->cluster |= ((cluster_t) read16(&buffer[20])) << 16;
#endif
        dir_entry->file_size = read32(&buffer[28]);
    2b9c:	c7 01       	movw	r24, r14
    2b9e:	4c 96       	adiw	r24, 0x1c	; 28
    2ba0:	0e 94 fa 0e 	call	0x1df4	; 0x1df4 <read32>
    2ba4:	d8 01       	movw	r26, r16
    2ba6:	93 96       	adiw	r26, 0x23	; 35
    2ba8:	6d 93       	st	X+, r22
    2baa:	7d 93       	st	X+, r23
    2bac:	8d 93       	st	X+, r24
    2bae:	9c 93       	st	X, r25
    2bb0:	96 97       	sbiw	r26, 0x26	; 38
#if FAT_DATETIME_SUPPORT
        dir_entry->modification_time = read16(&buffer[22]);
        dir_entry->modification_date = read16(&buffer[24]);
#endif

        arg->finished = 1;
    2bb2:	81 e0       	ldi	r24, 0x01	; 1
    2bb4:	8c 83       	std	Y+4, r24	; 0x04
        return 0;
    2bb6:	80 e0       	ldi	r24, 0x00	; 0
    2bb8:	01 c0       	rjmp	.+2      	; 0x2bbc <fat_dir_entry_read_callback+0x11a>
    if(buffer[0] == FAT_DIRENTRY_DELETED || !buffer[0])
    {
#if FAT_LFN_SUPPORT
        arg->checksum = 0;
#endif
        return 1;
    2bba:	81 e0       	ldi	r24, 0x01	; 1
#endif

        arg->finished = 1;
        return 0;
    }
}
    2bbc:	df 91       	pop	r29
    2bbe:	cf 91       	pop	r28
    2bc0:	1f 91       	pop	r17
    2bc2:	0f 91       	pop	r16
    2bc4:	ff 90       	pop	r15
    2bc6:	ef 90       	pop	r14
    2bc8:	08 95       	ret

00002bca <fat_get_next_cluster>:
 * \param[in] fs The filesystem for which to determine the next cluster.
 * \param[in] cluster_num The number of the cluster for which to determine its successor.
 * \returns The wanted cluster number, or 0 on error.
 */
cluster_t fat_get_next_cluster(const struct fat_fs_struct* fs, cluster_t cluster_num)
{
    2bca:	0f 93       	push	r16
    2bcc:	1f 93       	push	r17
    2bce:	cf 93       	push	r28
    2bd0:	df 93       	push	r29
    2bd2:	00 d0       	rcall	.+0      	; 0x2bd4 <fat_get_next_cluster+0xa>
    2bd4:	cd b7       	in	r28, 0x3d	; 61
    2bd6:	de b7       	in	r29, 0x3e	; 62
    2bd8:	fc 01       	movw	r30, r24
    if(!fs || cluster_num < 2)
    2bda:	00 97       	sbiw	r24, 0x00	; 0
    2bdc:	31 f1       	breq	.+76     	; 0x2c2a <fat_get_next_cluster+0x60>
    2bde:	62 30       	cpi	r22, 0x02	; 2
    2be0:	71 05       	cpc	r23, r1
    2be2:	18 f1       	brcs	.+70     	; 0x2c2a <fat_get_next_cluster+0x60>
    else
#endif
    {
        /* read appropriate fat entry */
        uint16_t fat_entry;
        if(!fs->partition->device_read(fs->header.fat_offset + (offset_t) cluster_num * sizeof(fat_entry), (uint8_t*) &fat_entry, sizeof(fat_entry)))
    2be4:	a0 81       	ld	r26, Z
    2be6:	b1 81       	ldd	r27, Z+1	; 0x01
    2be8:	80 e0       	ldi	r24, 0x00	; 0
    2bea:	90 e0       	ldi	r25, 0x00	; 0
    2bec:	66 0f       	add	r22, r22
    2bee:	77 1f       	adc	r23, r23
    2bf0:	88 1f       	adc	r24, r24
    2bf2:	99 1f       	adc	r25, r25
    2bf4:	06 81       	ldd	r16, Z+6	; 0x06
    2bf6:	17 81       	ldd	r17, Z+7	; 0x07
    2bf8:	20 85       	ldd	r18, Z+8	; 0x08
    2bfa:	31 85       	ldd	r19, Z+9	; 0x09
    2bfc:	60 0f       	add	r22, r16
    2bfe:	71 1f       	adc	r23, r17
    2c00:	82 1f       	adc	r24, r18
    2c02:	93 1f       	adc	r25, r19
    2c04:	ed 91       	ld	r30, X+
    2c06:	fc 91       	ld	r31, X
    2c08:	22 e0       	ldi	r18, 0x02	; 2
    2c0a:	30 e0       	ldi	r19, 0x00	; 0
    2c0c:	ae 01       	movw	r20, r28
    2c0e:	4f 5f       	subi	r20, 0xFF	; 255
    2c10:	5f 4f       	sbci	r21, 0xFF	; 255
    2c12:	09 95       	icall
    2c14:	88 23       	and	r24, r24
    2c16:	49 f0       	breq	.+18     	; 0x2c2a <fat_get_next_cluster+0x60>
            return 0;

        /* determine next cluster from fat */
        cluster_num = ltoh16(fat_entry);
    2c18:	29 81       	ldd	r18, Y+1	; 0x01
    2c1a:	3a 81       	ldd	r19, Y+2	; 0x02
        
        if(cluster_num == FAT16_CLUSTER_FREE ||
    2c1c:	c9 01       	movw	r24, r18
    2c1e:	01 97       	sbiw	r24, 0x01	; 1
    2c20:	8f 3e       	cpi	r24, 0xEF	; 239
    2c22:	9f 4f       	sbci	r25, 0xFF	; 255
    2c24:	10 f4       	brcc	.+4      	; 0x2c2a <fat_get_next_cluster+0x60>
    2c26:	c9 01       	movw	r24, r18
    2c28:	02 c0       	rjmp	.+4      	; 0x2c2e <fat_get_next_cluster+0x64>
 * \returns The wanted cluster number, or 0 on error.
 */
cluster_t fat_get_next_cluster(const struct fat_fs_struct* fs, cluster_t cluster_num)
{
    if(!fs || cluster_num < 2)
        return 0;
    2c2a:	80 e0       	ldi	r24, 0x00	; 0
    2c2c:	90 e0       	ldi	r25, 0x00	; 0
           (cluster_num >= FAT16_CLUSTER_LAST_MIN && cluster_num <= FAT16_CLUSTER_LAST_MAX))
            return 0;
    }

    return cluster_num;
}
    2c2e:	0f 90       	pop	r0
    2c30:	0f 90       	pop	r0
    2c32:	df 91       	pop	r29
    2c34:	cf 91       	pop	r28
    2c36:	1f 91       	pop	r17
    2c38:	0f 91       	pop	r16
    2c3a:	08 95       	ret

00002c3c <fat_open>:
 * \param[in] partition Discriptor of partition on which the filesystem resides.
 * \returns 0 on error, a FAT filesystem descriptor on success.
 * \see fat_close
 */
struct fat_fs_struct* fat_open(struct partition_struct* partition)
{
    2c3c:	2f 92       	push	r2
    2c3e:	3f 92       	push	r3
    2c40:	4f 92       	push	r4
    2c42:	5f 92       	push	r5
    2c44:	6f 92       	push	r6
    2c46:	7f 92       	push	r7
    2c48:	8f 92       	push	r8
    2c4a:	9f 92       	push	r9
    2c4c:	af 92       	push	r10
    2c4e:	bf 92       	push	r11
    2c50:	cf 92       	push	r12
    2c52:	df 92       	push	r13
    2c54:	ef 92       	push	r14
    2c56:	ff 92       	push	r15
    2c58:	0f 93       	push	r16
    2c5a:	1f 93       	push	r17
    2c5c:	cf 93       	push	r28
    2c5e:	df 93       	push	r29
    2c60:	cd b7       	in	r28, 0x3d	; 61
    2c62:	de b7       	in	r29, 0x3e	; 62
    2c64:	a8 97       	sbiw	r28, 0x28	; 40
    2c66:	0f b6       	in	r0, 0x3f	; 63
    2c68:	f8 94       	cli
    2c6a:	de bf       	out	0x3e, r29	; 62
    2c6c:	0f be       	out	0x3f, r0	; 63
    2c6e:	cd bf       	out	0x3d, r28	; 61
    2c70:	9b 8f       	std	Y+27, r25	; 0x1b
    2c72:	8a 8f       	std	Y+26, r24	; 0x1a
    if(!partition ||
    2c74:	89 2b       	or	r24, r25
    2c76:	09 f4       	brne	.+2      	; 0x2c7a <fat_open+0x3e>
    2c78:	43 c1       	rjmp	.+646    	; 0x2f00 <fat_open+0x2c4>
#else
    struct fat_fs_struct* fs = fat_fs_handles;
    uint8_t i;
    for(i = 0; i < FAT_FS_COUNT; ++i)
    {
        if(!fs->partition)
    2c7a:	80 91 93 02 	lds	r24, 0x0293
    2c7e:	90 91 94 02 	lds	r25, 0x0294
    2c82:	89 2b       	or	r24, r25
    2c84:	09 f0       	breq	.+2      	; 0x2c88 <fat_open+0x4c>
    2c86:	3c c1       	rjmp	.+632    	; 0x2f00 <fat_open+0x2c4>
    }
    if(i >= FAT_FS_COUNT)
        return 0;
#endif

    memset(fs, 0, sizeof(*fs));
    2c88:	e3 e9       	ldi	r30, 0x93	; 147
    2c8a:	f2 e0       	ldi	r31, 0x02	; 2
    2c8c:	8c e1       	ldi	r24, 0x1C	; 28
    2c8e:	df 01       	movw	r26, r30
    2c90:	1d 92       	st	X+, r1
    2c92:	8a 95       	dec	r24
    2c94:	e9 f7       	brne	.-6      	; 0x2c90 <fat_open+0x54>

    fs->partition = partition;
    2c96:	ea 8d       	ldd	r30, Y+26	; 0x1a
    2c98:	fb 8d       	ldd	r31, Y+27	; 0x1b
    2c9a:	f0 93 94 02 	sts	0x0294, r31
    2c9e:	e0 93 93 02 	sts	0x0293, r30
#if FAT_FAT32_SUPPORT
    uint8_t buffer[37];
#else
    uint8_t buffer[25];
#endif
    offset_t partition_offset = (offset_t) partition->offset * 512;
    2ca2:	81 85       	ldd	r24, Z+9	; 0x09
    2ca4:	92 85       	ldd	r25, Z+10	; 0x0a
    2ca6:	a3 85       	ldd	r26, Z+11	; 0x0b
    2ca8:	b4 85       	ldd	r27, Z+12	; 0x0c
    2caa:	39 e0       	ldi	r19, 0x09	; 9
    2cac:	88 0f       	add	r24, r24
    2cae:	99 1f       	adc	r25, r25
    2cb0:	aa 1f       	adc	r26, r26
    2cb2:	bb 1f       	adc	r27, r27
    2cb4:	3a 95       	dec	r19
    2cb6:	d1 f7       	brne	.-12     	; 0x2cac <fat_open+0x70>
    2cb8:	8c 8f       	std	Y+28, r24	; 0x1c
    2cba:	9d 8f       	std	Y+29, r25	; 0x1d
    2cbc:	ae 8f       	std	Y+30, r26	; 0x1e
    2cbe:	bf 8f       	std	Y+31, r27	; 0x1f
    if(!partition->device_read(partition_offset + 0x0b, buffer, sizeof(buffer)))
    2cc0:	bc 01       	movw	r22, r24
    2cc2:	cd 01       	movw	r24, r26
    2cc4:	65 5f       	subi	r22, 0xF5	; 245
    2cc6:	7f 4f       	sbci	r23, 0xFF	; 255
    2cc8:	8f 4f       	sbci	r24, 0xFF	; 255
    2cca:	9f 4f       	sbci	r25, 0xFF	; 255
    2ccc:	01 90       	ld	r0, Z+
    2cce:	f0 81       	ld	r31, Z
    2cd0:	e0 2d       	mov	r30, r0
    2cd2:	29 e1       	ldi	r18, 0x19	; 25
    2cd4:	30 e0       	ldi	r19, 0x00	; 0
    2cd6:	ae 01       	movw	r20, r28
    2cd8:	4f 5f       	subi	r20, 0xFF	; 255
    2cda:	5f 4f       	sbci	r21, 0xFF	; 255
    2cdc:	09 95       	icall
    2cde:	81 11       	cpse	r24, r1
    2ce0:	05 c0       	rjmp	.+10     	; 0x2cec <fat_open+0xb0>
    if(!fat_read_header(fs))
    {
#if USE_DYNAMIC_MEMORY
        free(fs);
#else
        fs->partition = 0;
    2ce2:	10 92 94 02 	sts	0x0294, r1
    2ce6:	10 92 93 02 	sts	0x0293, r1
    2cea:	0a c1       	rjmp	.+532    	; 0x2f00 <fat_open+0x2c4>
#endif
    offset_t partition_offset = (offset_t) partition->offset * 512;
    if(!partition->device_read(partition_offset + 0x0b, buffer, sizeof(buffer)))
        return 0;

    uint16_t bytes_per_sector = read16(&buffer[0x00]);
    2cec:	ce 01       	movw	r24, r28
    2cee:	01 96       	adiw	r24, 0x01	; 1
    2cf0:	0e 94 f2 0e 	call	0x1de4	; 0x1de4 <read16>
    2cf4:	1c 01       	movw	r2, r24
    uint16_t reserved_sectors = read16(&buffer[0x03]);
    2cf6:	ce 01       	movw	r24, r28
    2cf8:	04 96       	adiw	r24, 0x04	; 4
    2cfa:	0e 94 f2 0e 	call	0x1de4	; 0x1de4 <read16>
    2cfe:	99 a3       	std	Y+33, r25	; 0x21
    2d00:	88 a3       	std	Y+32, r24	; 0x20
    uint8_t sectors_per_cluster = buffer[0x02];
    2d02:	2b 81       	ldd	r18, Y+3	; 0x03
    2d04:	2a a3       	std	Y+34, r18	; 0x22
    uint8_t fat_copies = buffer[0x05];
    2d06:	9e 80       	ldd	r9, Y+6	; 0x06
    uint16_t max_root_entries = read16(&buffer[0x06]);
    2d08:	ce 01       	movw	r24, r28
    2d0a:	07 96       	adiw	r24, 0x07	; 7
    2d0c:	0e 94 f2 0e 	call	0x1de4	; 0x1de4 <read16>
    2d10:	9c a3       	std	Y+36, r25	; 0x24
    2d12:	8b a3       	std	Y+35, r24	; 0x23
    uint16_t sector_count_16 = read16(&buffer[0x08]);
    2d14:	ce 01       	movw	r24, r28
    2d16:	09 96       	adiw	r24, 0x09	; 9
    2d18:	0e 94 f2 0e 	call	0x1de4	; 0x1de4 <read16>
    2d1c:	5c 01       	movw	r10, r24
    uint16_t sectors_per_fat = read16(&buffer[0x0b]);
    2d1e:	ce 01       	movw	r24, r28
    2d20:	0c 96       	adiw	r24, 0x0c	; 12
    2d22:	0e 94 f2 0e 	call	0x1de4	; 0x1de4 <read16>
    2d26:	8c 01       	movw	r16, r24
    uint32_t sector_count = read32(&buffer[0x15]);
    2d28:	ce 01       	movw	r24, r28
    2d2a:	46 96       	adiw	r24, 0x16	; 22
    2d2c:	0e 94 fa 0e 	call	0x1df4	; 0x1df4 <read32>
    2d30:	6b 01       	movw	r12, r22
    2d32:	7c 01       	movw	r14, r24
#if FAT_FAT32_SUPPORT
    uint32_t sectors_per_fat32 = read32(&buffer[0x19]);
    uint32_t cluster_root_dir = read32(&buffer[0x21]);
#endif

    if(sector_count == 0)
    2d34:	61 15       	cp	r22, r1
    2d36:	71 05       	cpc	r23, r1
    2d38:	81 05       	cpc	r24, r1
    2d3a:	91 05       	cpc	r25, r1
    2d3c:	31 f4       	brne	.+12     	; 0x2d4a <fat_open+0x10e>
    {
        if(sector_count_16 == 0)
    2d3e:	a1 14       	cp	r10, r1
    2d40:	b1 04       	cpc	r11, r1
    2d42:	79 f2       	breq	.-98     	; 0x2ce2 <fat_open+0xa6>
            /* illegal volume size */
            return 0;
        else
            sector_count = sector_count_16;
    2d44:	65 01       	movw	r12, r10
    2d46:	e1 2c       	mov	r14, r1
    2d48:	f1 2c       	mov	r15, r1
        sectors_per_fat32 = sectors_per_fat;
    else if(sectors_per_fat32 == 0)
        /* this is neither FAT16 nor FAT32 */
        return 0;
#else
    if(sectors_per_fat == 0)
    2d4a:	01 15       	cp	r16, r1
    2d4c:	11 05       	cpc	r17, r1
    2d4e:	49 f2       	breq	.-110    	; 0x2ce2 <fat_open+0xa6>
    uint32_t data_sector_count = sector_count
                                 - reserved_sectors
#if FAT_FAT32_SUPPORT
                                 - sectors_per_fat32 * fat_copies
#else
                                 - (uint32_t) sectors_per_fat * fat_copies
    2d50:	98 01       	movw	r18, r16
    2d52:	a9 2d       	mov	r26, r9
    2d54:	b0 e0       	ldi	r27, 0x00	; 0
    2d56:	0e 94 ea 24 	call	0x49d4	; 0x49d4 <__umulhisi3>
    2d5a:	4b 01       	movw	r8, r22
    2d5c:	5c 01       	movw	r10, r24
        return 0;
#endif

    /* determine the type of FAT we have here */
    uint32_t data_sector_count = sector_count
                                 - reserved_sectors
    2d5e:	97 01       	movw	r18, r14
    2d60:	86 01       	movw	r16, r12
    2d62:	48 a1       	ldd	r20, Y+32	; 0x20
    2d64:	59 a1       	ldd	r21, Y+33	; 0x21
    2d66:	04 1b       	sub	r16, r20
    2d68:	15 0b       	sbc	r17, r21
    2d6a:	21 09       	sbc	r18, r1
    2d6c:	31 09       	sbc	r19, r1
#if FAT_FAT32_SUPPORT
                                 - sectors_per_fat32 * fat_copies
#else
                                 - (uint32_t) sectors_per_fat * fat_copies
    2d6e:	06 1b       	sub	r16, r22
    2d70:	17 0b       	sbc	r17, r23
    2d72:	28 0b       	sbc	r18, r24
    2d74:	39 0b       	sbc	r19, r25
#endif
                                 - ((max_root_entries * 32 + bytes_per_sector - 1) / bytes_per_sector);
    2d76:	c1 01       	movw	r24, r2
    2d78:	01 97       	sbiw	r24, 0x01	; 1
    2d7a:	4b a1       	ldd	r20, Y+35	; 0x23
    2d7c:	5c a1       	ldd	r21, Y+36	; 0x24
    2d7e:	65 e0       	ldi	r22, 0x05	; 5
    2d80:	44 0f       	add	r20, r20
    2d82:	55 1f       	adc	r21, r21
    2d84:	6a 95       	dec	r22
    2d86:	e1 f7       	brne	.-8      	; 0x2d80 <fat_open+0x144>
    2d88:	84 0f       	add	r24, r20
    2d8a:	95 1f       	adc	r25, r21
    2d8c:	b1 01       	movw	r22, r2
    2d8e:	0e 94 8f 24 	call	0x491e	; 0x491e <__udivmodhi4>
        /* this is not a FAT16 */
        return 0;
#endif

    /* determine the type of FAT we have here */
    uint32_t data_sector_count = sector_count
    2d92:	06 1b       	sub	r16, r22
    2d94:	17 0b       	sbc	r17, r23
    2d96:	21 09       	sbc	r18, r1
    2d98:	31 09       	sbc	r19, r1
                                 - sectors_per_fat32 * fat_copies
#else
                                 - (uint32_t) sectors_per_fat * fat_copies
#endif
                                 - ((max_root_entries * 32 + bytes_per_sector - 1) / bytes_per_sector);
    uint32_t data_cluster_count = data_sector_count / sectors_per_cluster;
    2d9a:	5a a1       	ldd	r21, Y+34	; 0x22
    2d9c:	45 2e       	mov	r4, r21
    2d9e:	51 2c       	mov	r5, r1
    2da0:	61 2c       	mov	r6, r1
    2da2:	71 2c       	mov	r7, r1
    2da4:	c9 01       	movw	r24, r18
    2da6:	b8 01       	movw	r22, r16
    2da8:	a3 01       	movw	r20, r6
    2daa:	92 01       	movw	r18, r4
    2dac:	0e 94 a3 24 	call	0x4946	; 0x4946 <__udivmodsi4>
    2db0:	29 01       	movw	r4, r18
    2db2:	3a 01       	movw	r6, r20
    if(data_cluster_count < 4085)
    2db4:	25 3f       	cpi	r18, 0xF5	; 245
    2db6:	8f e0       	ldi	r24, 0x0F	; 15
    2db8:	38 07       	cpc	r19, r24
    2dba:	41 05       	cpc	r20, r1
    2dbc:	51 05       	cpc	r21, r1
    2dbe:	08 f4       	brcc	.+2      	; 0x2dc2 <fat_open+0x186>
    2dc0:	90 cf       	rjmp	.-224    	; 0x2ce2 <fat_open+0xa6>
        /* this is a FAT12, not supported */
        return 0;
    else if(data_cluster_count < 65525)
    2dc2:	25 3f       	cpi	r18, 0xF5	; 245
    2dc4:	9f ef       	ldi	r25, 0xFF	; 255
    2dc6:	39 07       	cpc	r19, r25
    2dc8:	41 05       	cpc	r20, r1
    2dca:	51 05       	cpc	r21, r1
    2dcc:	30 f4       	brcc	.+12     	; 0x2dda <fat_open+0x19e>
        /* this is a FAT16 */
        partition->type = PARTITION_TYPE_FAT16;
    2dce:	86 e0       	ldi	r24, 0x06	; 6
    2dd0:	aa 8d       	ldd	r26, Y+26	; 0x1a
    2dd2:	bb 8d       	ldd	r27, Y+27	; 0x1b
    2dd4:	18 96       	adiw	r26, 0x08	; 8
    2dd6:	8c 93       	st	X, r24
    2dd8:	04 c0       	rjmp	.+8      	; 0x2de2 <fat_open+0x1a6>
    else
        /* this is a FAT32 */
        partition->type = PARTITION_TYPE_FAT32;
    2dda:	8b e0       	ldi	r24, 0x0B	; 11
    2ddc:	ea 8d       	ldd	r30, Y+26	; 0x1a
    2dde:	fb 8d       	ldd	r31, Y+27	; 0x1b
    2de0:	80 87       	std	Z+8, r24	; 0x08

    /* fill header information */
    struct fat_header_struct* header = &fs->header;
    memset(header, 0, sizeof(*header));
    2de2:	88 e1       	ldi	r24, 0x18	; 24
    2de4:	e5 e9       	ldi	r30, 0x95	; 149
    2de6:	f2 e0       	ldi	r31, 0x02	; 2
    2de8:	df 01       	movw	r26, r30
    2dea:	1d 92       	st	X+, r1
    2dec:	8a 95       	dec	r24
    2dee:	e9 f7       	brne	.-6      	; 0x2dea <fat_open+0x1ae>
    
    header->size = (offset_t) sector_count * bytes_per_sector;
    2df0:	c1 01       	movw	r24, r2
    2df2:	a0 e0       	ldi	r26, 0x00	; 0
    2df4:	b0 e0       	ldi	r27, 0x00	; 0
    2df6:	8d a3       	std	Y+37, r24	; 0x25
    2df8:	9e a3       	std	Y+38, r25	; 0x26
    2dfa:	af a3       	std	Y+39, r26	; 0x27
    2dfc:	b8 a7       	std	Y+40, r27	; 0x28
    2dfe:	a7 01       	movw	r20, r14
    2e00:	96 01       	movw	r18, r12
    2e02:	bc 01       	movw	r22, r24
    2e04:	cd 01       	movw	r24, r26
    2e06:	0e 94 73 24 	call	0x48e6	; 0x48e6 <__mulsi3>
    2e0a:	60 93 95 02 	sts	0x0295, r22
    2e0e:	70 93 96 02 	sts	0x0296, r23
    2e12:	80 93 97 02 	sts	0x0297, r24
    2e16:	90 93 98 02 	sts	0x0298, r25

    header->fat_offset = /* jump to partition */
                         partition_offset +
                         /* jump to fat */
                         (offset_t) reserved_sectors * bytes_per_sector;
    2e1a:	91 01       	movw	r18, r2
    2e1c:	a8 a1       	ldd	r26, Y+32	; 0x20
    2e1e:	b9 a1       	ldd	r27, Y+33	; 0x21
    2e20:	0e 94 ea 24 	call	0x49d4	; 0x49d4 <__umulhisi3>
    2e24:	6b 01       	movw	r12, r22
    2e26:	7c 01       	movw	r14, r24
    memset(header, 0, sizeof(*header));
    
    header->size = (offset_t) sector_count * bytes_per_sector;

    header->fat_offset = /* jump to partition */
                         partition_offset +
    2e28:	8c 8d       	ldd	r24, Y+28	; 0x1c
    2e2a:	9d 8d       	ldd	r25, Y+29	; 0x1d
    2e2c:	ae 8d       	ldd	r26, Y+30	; 0x1e
    2e2e:	bf 8d       	ldd	r27, Y+31	; 0x1f
    2e30:	c8 0e       	add	r12, r24
    2e32:	d9 1e       	adc	r13, r25
    2e34:	ea 1e       	adc	r14, r26
    2e36:	fb 1e       	adc	r15, r27
    struct fat_header_struct* header = &fs->header;
    memset(header, 0, sizeof(*header));
    
    header->size = (offset_t) sector_count * bytes_per_sector;

    header->fat_offset = /* jump to partition */
    2e38:	c0 92 99 02 	sts	0x0299, r12
    2e3c:	d0 92 9a 02 	sts	0x029A, r13
    2e40:	e0 92 9b 02 	sts	0x029B, r14
    2e44:	f0 92 9c 02 	sts	0x029C, r15
                         partition_offset +
                         /* jump to fat */
                         (offset_t) reserved_sectors * bytes_per_sector;
    header->fat_size = (data_cluster_count + 2) * (partition->type == PARTITION_TYPE_FAT16 ? 2 : 4);
    2e48:	c3 01       	movw	r24, r6
    2e4a:	b2 01       	movw	r22, r4
    2e4c:	6e 5f       	subi	r22, 0xFE	; 254
    2e4e:	7f 4f       	sbci	r23, 0xFF	; 255
    2e50:	8f 4f       	sbci	r24, 0xFF	; 255
    2e52:	9f 4f       	sbci	r25, 0xFF	; 255
    2e54:	aa 8d       	ldd	r26, Y+26	; 0x1a
    2e56:	bb 8d       	ldd	r27, Y+27	; 0x1b
    2e58:	18 96       	adiw	r26, 0x08	; 8
    2e5a:	2c 91       	ld	r18, X
    2e5c:	26 30       	cpi	r18, 0x06	; 6
    2e5e:	29 f4       	brne	.+10     	; 0x2e6a <fat_open+0x22e>
    2e60:	22 e0       	ldi	r18, 0x02	; 2
    2e62:	30 e0       	ldi	r19, 0x00	; 0
    2e64:	40 e0       	ldi	r20, 0x00	; 0
    2e66:	50 e0       	ldi	r21, 0x00	; 0
    2e68:	04 c0       	rjmp	.+8      	; 0x2e72 <fat_open+0x236>
    2e6a:	24 e0       	ldi	r18, 0x04	; 4
    2e6c:	30 e0       	ldi	r19, 0x00	; 0
    2e6e:	40 e0       	ldi	r20, 0x00	; 0
    2e70:	50 e0       	ldi	r21, 0x00	; 0
    2e72:	0e 94 73 24 	call	0x48e6	; 0x48e6 <__mulsi3>
    2e76:	60 93 9d 02 	sts	0x029D, r22
    2e7a:	70 93 9e 02 	sts	0x029E, r23
    2e7e:	80 93 9f 02 	sts	0x029F, r24
    2e82:	90 93 a0 02 	sts	0x02A0, r25

    header->sector_size = bytes_per_sector;
    2e86:	30 92 a2 02 	sts	0x02A2, r3
    2e8a:	20 92 a1 02 	sts	0x02A1, r2
    header->cluster_size = (uint16_t) bytes_per_sector * sectors_per_cluster;
    2e8e:	ba a1       	ldd	r27, Y+34	; 0x22
    2e90:	b2 9d       	mul	r27, r2
    2e92:	c0 01       	movw	r24, r0
    2e94:	b3 9d       	mul	r27, r3
    2e96:	90 0d       	add	r25, r0
    2e98:	11 24       	eor	r1, r1
    2e9a:	90 93 a4 02 	sts	0x02A4, r25
    2e9e:	80 93 a3 02 	sts	0x02A3, r24
#endif
    {
        header->root_dir_offset = /* jump to fats */
                                  header->fat_offset +
                                  /* jump to root directory entries */
                                  (offset_t) fat_copies * sectors_per_fat * bytes_per_sector;
    2ea2:	a5 01       	movw	r20, r10
    2ea4:	94 01       	movw	r18, r8
    2ea6:	6d a1       	ldd	r22, Y+37	; 0x25
    2ea8:	7e a1       	ldd	r23, Y+38	; 0x26
    2eaa:	8f a1       	ldd	r24, Y+39	; 0x27
    2eac:	98 a5       	ldd	r25, Y+40	; 0x28
    2eae:	0e 94 73 24 	call	0x48e6	; 0x48e6 <__mulsi3>
#if FAT_FAT32_SUPPORT
    if(partition->type == PARTITION_TYPE_FAT16)
#endif
    {
        header->root_dir_offset = /* jump to fats */
                                  header->fat_offset +
    2eb2:	6c 0d       	add	r22, r12
    2eb4:	7d 1d       	adc	r23, r13
    2eb6:	8e 1d       	adc	r24, r14
    2eb8:	9f 1d       	adc	r25, r15

#if FAT_FAT32_SUPPORT
    if(partition->type == PARTITION_TYPE_FAT16)
#endif
    {
        header->root_dir_offset = /* jump to fats */
    2eba:	60 93 a9 02 	sts	0x02A9, r22
    2ebe:	70 93 aa 02 	sts	0x02AA, r23
    2ec2:	80 93 ab 02 	sts	0x02AB, r24
    2ec6:	90 93 ac 02 	sts	0x02AC, r25
                                  (offset_t) fat_copies * sectors_per_fat * bytes_per_sector;

        header->cluster_zero_offset = /* jump to root directory entries */
                                      header->root_dir_offset +
                                      /* skip root directory entries */
                                      (offset_t) max_root_entries * 32;
    2eca:	eb a1       	ldd	r30, Y+35	; 0x23
    2ecc:	fc a1       	ldd	r31, Y+36	; 0x24
    2ece:	8f 01       	movw	r16, r30
    2ed0:	20 e0       	ldi	r18, 0x00	; 0
    2ed2:	30 e0       	ldi	r19, 0x00	; 0
    2ed4:	45 e0       	ldi	r20, 0x05	; 5
    2ed6:	00 0f       	add	r16, r16
    2ed8:	11 1f       	adc	r17, r17
    2eda:	22 1f       	adc	r18, r18
    2edc:	33 1f       	adc	r19, r19
    2ede:	4a 95       	dec	r20
    2ee0:	d1 f7       	brne	.-12     	; 0x2ed6 <fat_open+0x29a>
                                  header->fat_offset +
                                  /* jump to root directory entries */
                                  (offset_t) fat_copies * sectors_per_fat * bytes_per_sector;

        header->cluster_zero_offset = /* jump to root directory entries */
                                      header->root_dir_offset +
    2ee2:	06 0f       	add	r16, r22
    2ee4:	17 1f       	adc	r17, r23
    2ee6:	28 1f       	adc	r18, r24
    2ee8:	39 1f       	adc	r19, r25
        header->root_dir_offset = /* jump to fats */
                                  header->fat_offset +
                                  /* jump to root directory entries */
                                  (offset_t) fat_copies * sectors_per_fat * bytes_per_sector;

        header->cluster_zero_offset = /* jump to root directory entries */
    2eea:	00 93 a5 02 	sts	0x02A5, r16
    2eee:	10 93 a6 02 	sts	0x02A6, r17
    2ef2:	20 93 a7 02 	sts	0x02A7, r18
    2ef6:	30 93 a8 02 	sts	0x02A8, r19
    2efa:	83 e9       	ldi	r24, 0x93	; 147
    2efc:	92 e0       	ldi	r25, 0x02	; 2
    2efe:	02 c0       	rjmp	.+4      	; 0x2f04 <fat_open+0x2c8>
       !partition->device_write_interval
#else
       0
#endif
      )
        return 0;
    2f00:	80 e0       	ldi	r24, 0x00	; 0
    2f02:	90 e0       	ldi	r25, 0x00	; 0
#endif
        return 0;
    }
    
    return fs;
}
    2f04:	a8 96       	adiw	r28, 0x28	; 40
    2f06:	0f b6       	in	r0, 0x3f	; 63
    2f08:	f8 94       	cli
    2f0a:	de bf       	out	0x3e, r29	; 62
    2f0c:	0f be       	out	0x3f, r0	; 63
    2f0e:	cd bf       	out	0x3d, r28	; 61
    2f10:	df 91       	pop	r29
    2f12:	cf 91       	pop	r28
    2f14:	1f 91       	pop	r17
    2f16:	0f 91       	pop	r16
    2f18:	ff 90       	pop	r15
    2f1a:	ef 90       	pop	r14
    2f1c:	df 90       	pop	r13
    2f1e:	cf 90       	pop	r12
    2f20:	bf 90       	pop	r11
    2f22:	af 90       	pop	r10
    2f24:	9f 90       	pop	r9
    2f26:	8f 90       	pop	r8
    2f28:	7f 90       	pop	r7
    2f2a:	6f 90       	pop	r6
    2f2c:	5f 90       	pop	r5
    2f2e:	4f 90       	pop	r4
    2f30:	3f 90       	pop	r3
    2f32:	2f 90       	pop	r2
    2f34:	08 95       	ret

00002f36 <fat_close>:
 * \param[in] fs The filesystem to close.
 * \see fat_open
 */
void fat_close(struct fat_fs_struct* fs)
{
    if(!fs)
    2f36:	00 97       	sbiw	r24, 0x00	; 0
    2f38:	19 f0       	breq	.+6      	; 0x2f40 <fat_close+0xa>
        return;

#if USE_DYNAMIC_MEMORY
    free(fs);
#else
    fs->partition = 0;
    2f3a:	fc 01       	movw	r30, r24
    2f3c:	11 82       	std	Z+1, r1	; 0x01
    2f3e:	10 82       	st	Z, r1
    2f40:	08 95       	ret

00002f42 <fat_open_file>:
 * \param[in] dir_entry The directory entry of the file to open.
 * \returns The file handle, or 0 on failure.
 * \see fat_close_file
 */
struct fat_file_struct* fat_open_file(struct fat_fs_struct* fs, const struct fat_dir_entry_struct* dir_entry)
{
    2f42:	cf 93       	push	r28
    2f44:	df 93       	push	r29
    if(!fs || !dir_entry || (dir_entry->attributes & FAT_ATTRIB_DIR))
    2f46:	00 97       	sbiw	r24, 0x00	; 0
    2f48:	99 f0       	breq	.+38     	; 0x2f70 <fat_open_file+0x2e>
    2f4a:	61 15       	cp	r22, r1
    2f4c:	71 05       	cpc	r23, r1
    2f4e:	81 f0       	breq	.+32     	; 0x2f70 <fat_open_file+0x2e>
    2f50:	fb 01       	movw	r30, r22
    2f52:	20 a1       	ldd	r18, Z+32	; 0x20
    2f54:	24 fd       	sbrc	r18, 4
    2f56:	0c c0       	rjmp	.+24     	; 0x2f70 <fat_open_file+0x2e>
#else
    struct fat_file_struct* fd = fat_file_handles;
    uint8_t i;
    for(i = 0; i < FAT_FILE_COUNT; ++i)
    {
        if(!fd->fs)
    2f58:	20 91 2d 02 	lds	r18, 0x022D
    2f5c:	30 91 2e 02 	lds	r19, 0x022E
    2f60:	23 2b       	or	r18, r19
    2f62:	49 f0       	breq	.+18     	; 0x2f76 <fat_open_file+0x34>
    2f64:	20 91 60 02 	lds	r18, 0x0260
    2f68:	30 91 61 02 	lds	r19, 0x0261
    2f6c:	23 2b       	or	r18, r19
    2f6e:	31 f0       	breq	.+12     	; 0x2f7c <fat_open_file+0x3a>
 * \see fat_close_file
 */
struct fat_file_struct* fat_open_file(struct fat_fs_struct* fs, const struct fat_dir_entry_struct* dir_entry)
{
    if(!fs || !dir_entry || (dir_entry->attributes & FAT_ATTRIB_DIR))
        return 0;
    2f70:	80 e0       	ldi	r24, 0x00	; 0
    2f72:	90 e0       	ldi	r25, 0x00	; 0
    2f74:	19 c0       	rjmp	.+50     	; 0x2fa8 <fat_open_file+0x66>
#else
    struct fat_file_struct* fd = fat_file_handles;
    uint8_t i;
    for(i = 0; i < FAT_FILE_COUNT; ++i)
    {
        if(!fd->fs)
    2f76:	cd e2       	ldi	r28, 0x2D	; 45
    2f78:	d2 e0       	ldi	r29, 0x02	; 2
    2f7a:	02 c0       	rjmp	.+4      	; 0x2f80 <fat_open_file+0x3e>
            break;

        ++fd;
    2f7c:	c0 e6       	ldi	r28, 0x60	; 96
    2f7e:	d2 e0       	ldi	r29, 0x02	; 2
    }
    if(i >= FAT_FILE_COUNT)
        return 0;
#endif
    
    memcpy(&fd->dir_entry, dir_entry, sizeof(*dir_entry));
    2f80:	de 01       	movw	r26, r28
    2f82:	12 96       	adiw	r26, 0x02	; 2
    2f84:	2b e2       	ldi	r18, 0x2B	; 43
    2f86:	fb 01       	movw	r30, r22
    2f88:	01 90       	ld	r0, Z+
    2f8a:	0d 92       	st	X+, r0
    2f8c:	2a 95       	dec	r18
    2f8e:	e1 f7       	brne	.-8      	; 0x2f88 <fat_open_file+0x46>
    fd->fs = fs;
    2f90:	99 83       	std	Y+1, r25	; 0x01
    2f92:	88 83       	st	Y, r24
    fd->pos = 0;
    2f94:	1d a6       	std	Y+45, r1	; 0x2d
    2f96:	1e a6       	std	Y+46, r1	; 0x2e
    2f98:	1f a6       	std	Y+47, r1	; 0x2f
    2f9a:	18 aa       	std	Y+48, r1	; 0x30
    fd->pos_cluster = dir_entry->cluster;
    2f9c:	fb 01       	movw	r30, r22
    2f9e:	81 a1       	ldd	r24, Z+33	; 0x21
    2fa0:	92 a1       	ldd	r25, Z+34	; 0x22
    2fa2:	9a ab       	std	Y+50, r25	; 0x32
    2fa4:	89 ab       	std	Y+49, r24	; 0x31

    return fd;
    2fa6:	ce 01       	movw	r24, r28
}
    2fa8:	df 91       	pop	r29
    2faa:	cf 91       	pop	r28
    2fac:	08 95       	ret

00002fae <fat_close_file>:
 * \param[in] fd The file handle of the file to close.
 * \see fat_open_file
 */
void fat_close_file(struct fat_file_struct* fd)
{
    if(fd)
    2fae:	00 97       	sbiw	r24, 0x00	; 0
    2fb0:	19 f0       	breq	.+6      	; 0x2fb8 <fat_close_file+0xa>
#endif

#if USE_DYNAMIC_MEMORY
        free(fd);
#else
        fd->fs = 0;
    2fb2:	fc 01       	movw	r30, r24
    2fb4:	11 82       	std	Z+1, r1	; 0x01
    2fb6:	10 82       	st	Z, r1
    2fb8:	08 95       	ret

00002fba <fat_read_file>:
 * \param[in] buffer_len The amount of data to read.
 * \returns The number of bytes read, 0 on end of file, or -1 on failure.
 * \see fat_write_file
 */
intptr_t fat_read_file(struct fat_file_struct* fd, uint8_t* buffer, uintptr_t buffer_len)
{
    2fba:	2f 92       	push	r2
    2fbc:	3f 92       	push	r3
    2fbe:	4f 92       	push	r4
    2fc0:	5f 92       	push	r5
    2fc2:	6f 92       	push	r6
    2fc4:	7f 92       	push	r7
    2fc6:	8f 92       	push	r8
    2fc8:	9f 92       	push	r9
    2fca:	af 92       	push	r10
    2fcc:	bf 92       	push	r11
    2fce:	cf 92       	push	r12
    2fd0:	df 92       	push	r13
    2fd2:	ef 92       	push	r14
    2fd4:	ff 92       	push	r15
    2fd6:	0f 93       	push	r16
    2fd8:	1f 93       	push	r17
    2fda:	cf 93       	push	r28
    2fdc:	df 93       	push	r29
    2fde:	cd b7       	in	r28, 0x3d	; 61
    2fe0:	de b7       	in	r29, 0x3e	; 62
    2fe2:	28 97       	sbiw	r28, 0x08	; 8
    2fe4:	0f b6       	in	r0, 0x3f	; 63
    2fe6:	f8 94       	cli
    2fe8:	de bf       	out	0x3e, r29	; 62
    2fea:	0f be       	out	0x3f, r0	; 63
    2fec:	cd bf       	out	0x3d, r28	; 61
    2fee:	98 87       	std	Y+8, r25	; 0x08
    2ff0:	8f 83       	std	Y+7, r24	; 0x07
    2ff2:	1b 01       	movw	r2, r22
    2ff4:	7a 01       	movw	r14, r20
    /* check arguments */
    if(!fd || !buffer || buffer_len < 1)
    2ff6:	89 2b       	or	r24, r25
    2ff8:	19 f4       	brne	.+6      	; 0x3000 <fat_read_file+0x46>
        return -1;
    2ffa:	8f ef       	ldi	r24, 0xFF	; 255
    2ffc:	9f ef       	ldi	r25, 0xFF	; 255
    2ffe:	e3 c0       	rjmp	.+454    	; 0x31c6 <fat_read_file+0x20c>
 * \see fat_write_file
 */
intptr_t fat_read_file(struct fat_file_struct* fd, uint8_t* buffer, uintptr_t buffer_len)
{
    /* check arguments */
    if(!fd || !buffer || buffer_len < 1)
    3000:	61 15       	cp	r22, r1
    3002:	71 05       	cpc	r23, r1
    3004:	d1 f3       	breq	.-12     	; 0x2ffa <fat_read_file+0x40>
    3006:	41 15       	cp	r20, r1
    3008:	51 05       	cpc	r21, r1
    300a:	b9 f3       	breq	.-18     	; 0x2ffa <fat_read_file+0x40>
        return -1;

    /* determine number of bytes to read */
    if(fd->pos + buffer_len > fd->dir_entry.file_size)
    300c:	af 81       	ldd	r26, Y+7	; 0x07
    300e:	b8 85       	ldd	r27, Y+8	; 0x08
    3010:	9d 96       	adiw	r26, 0x2d	; 45
    3012:	8d 90       	ld	r8, X+
    3014:	9d 90       	ld	r9, X+
    3016:	ad 90       	ld	r10, X+
    3018:	bc 90       	ld	r11, X
    301a:	d0 97       	sbiw	r26, 0x30	; 48
    301c:	95 96       	adiw	r26, 0x25	; 37
    301e:	8d 91       	ld	r24, X+
    3020:	9d 91       	ld	r25, X+
    3022:	0d 90       	ld	r0, X+
    3024:	bc 91       	ld	r27, X
    3026:	a0 2d       	mov	r26, r0
    3028:	b5 01       	movw	r22, r10
    302a:	a4 01       	movw	r20, r8
    302c:	4e 0d       	add	r20, r14
    302e:	5f 1d       	adc	r21, r15
    3030:	61 1d       	adc	r22, r1
    3032:	71 1d       	adc	r23, r1
    3034:	84 17       	cp	r24, r20
    3036:	95 07       	cpc	r25, r21
    3038:	a6 07       	cpc	r26, r22
    303a:	b7 07       	cpc	r27, r23
    303c:	28 f4       	brcc	.+10     	; 0x3048 <fat_read_file+0x8e>
        buffer_len = fd->dir_entry.file_size - fd->pos;
    303e:	7c 01       	movw	r14, r24
    3040:	e8 18       	sub	r14, r8
    3042:	f9 08       	sbc	r15, r9
    if(buffer_len == 0)
    3044:	09 f4       	brne	.+2      	; 0x3048 <fat_read_file+0x8e>
    3046:	bd c0       	rjmp	.+378    	; 0x31c2 <fat_read_file+0x208>
        return 0;
    
    uint16_t cluster_size = fd->fs->header.cluster_size;
    3048:	af 81       	ldd	r26, Y+7	; 0x07
    304a:	b8 85       	ldd	r27, Y+8	; 0x08
    304c:	ed 91       	ld	r30, X+
    304e:	fc 91       	ld	r31, X
    3050:	11 97       	sbiw	r26, 0x01	; 1
    3052:	80 89       	ldd	r24, Z+16	; 0x10
    3054:	91 89       	ldd	r25, Z+17	; 0x11
    3056:	9a 83       	std	Y+2, r25	; 0x02
    3058:	89 83       	std	Y+1, r24	; 0x01
    cluster_t cluster_num = fd->pos_cluster;
    305a:	d1 96       	adiw	r26, 0x31	; 49
    305c:	0d 91       	ld	r16, X+
    305e:	1c 91       	ld	r17, X
    3060:	d2 97       	sbiw	r26, 0x32	; 50
    uintptr_t buffer_left = buffer_len;
    uint16_t first_cluster_offset = (uint16_t) (fd->pos & (cluster_size - 1));

    /* find cluster in which to start reading */
    if(!cluster_num)
    3062:	01 15       	cp	r16, r1
    3064:	11 05       	cpc	r17, r1
    3066:	d9 f5       	brne	.+118    	; 0x30de <fat_read_file+0x124>
    {
        cluster_num = fd->dir_entry.cluster;
    3068:	93 96       	adiw	r26, 0x23	; 35
    306a:	0d 91       	ld	r16, X+
    306c:	1c 91       	ld	r17, X
    306e:	94 97       	sbiw	r26, 0x24	; 36
        
        if(!cluster_num)
    3070:	01 15       	cp	r16, r1
    3072:	11 05       	cpc	r17, r1
    3074:	61 f4       	brne	.+24     	; 0x308e <fat_read_file+0xd4>
        {
            if(!fd->pos)
    3076:	81 e0       	ldi	r24, 0x01	; 1
    3078:	90 e0       	ldi	r25, 0x00	; 0
    307a:	89 28       	or	r8, r9
    307c:	8a 28       	or	r8, r10
    307e:	8b 28       	or	r8, r11
    3080:	11 f4       	brne	.+4      	; 0x3086 <fat_read_file+0xcc>
    3082:	80 e0       	ldi	r24, 0x00	; 0
    3084:	90 e0       	ldi	r25, 0x00	; 0
    3086:	91 95       	neg	r25
    3088:	81 95       	neg	r24
    308a:	91 09       	sbc	r25, r1
    308c:	9c c0       	rjmp	.+312    	; 0x31c6 <fat_read_file+0x20c>
                return 0;
            else
                return -1;
        }

        if(fd->pos)
    308e:	81 14       	cp	r8, r1
    3090:	91 04       	cpc	r9, r1
    3092:	a1 04       	cpc	r10, r1
    3094:	b1 04       	cpc	r11, r1
    3096:	19 f1       	breq	.+70     	; 0x30de <fat_read_file+0x124>
    3098:	24 01       	movw	r4, r8
    309a:	35 01       	movw	r6, r10
        {
            uint32_t pos = fd->pos;
            while(pos >= cluster_size)
    309c:	a9 81       	ldd	r26, Y+1	; 0x01
    309e:	ba 81       	ldd	r27, Y+2	; 0x02
    30a0:	9d 01       	movw	r18, r26
    30a2:	40 e0       	ldi	r20, 0x00	; 0
    30a4:	50 e0       	ldi	r21, 0x00	; 0
    30a6:	42 16       	cp	r4, r18
    30a8:	53 06       	cpc	r5, r19
    30aa:	64 06       	cpc	r6, r20
    30ac:	75 06       	cpc	r7, r21
    30ae:	b8 f0       	brcs	.+46     	; 0x30de <fat_read_file+0x124>
            {
                pos -= cluster_size;
    30b0:	42 1a       	sub	r4, r18
    30b2:	53 0a       	sbc	r5, r19
    30b4:	64 0a       	sbc	r6, r20
    30b6:	75 0a       	sbc	r7, r21
                cluster_num = fat_get_next_cluster(fd->fs, cluster_num);
    30b8:	b8 01       	movw	r22, r16
    30ba:	ef 81       	ldd	r30, Y+7	; 0x07
    30bc:	f8 85       	ldd	r31, Y+8	; 0x08
    30be:	80 81       	ld	r24, Z
    30c0:	91 81       	ldd	r25, Z+1	; 0x01
    30c2:	2b 83       	std	Y+3, r18	; 0x03
    30c4:	3c 83       	std	Y+4, r19	; 0x04
    30c6:	4d 83       	std	Y+5, r20	; 0x05
    30c8:	5e 83       	std	Y+6, r21	; 0x06
    30ca:	0e 94 e5 15 	call	0x2bca	; 0x2bca <fat_get_next_cluster>
    30ce:	8c 01       	movw	r16, r24
                if(!cluster_num)
    30d0:	2b 81       	ldd	r18, Y+3	; 0x03
    30d2:	3c 81       	ldd	r19, Y+4	; 0x04
    30d4:	4d 81       	ldd	r20, Y+5	; 0x05
    30d6:	5e 81       	ldd	r21, Y+6	; 0x06
    30d8:	00 97       	sbiw	r24, 0x00	; 0
    30da:	29 f7       	brne	.-54     	; 0x30a6 <fat_read_file+0xec>
    30dc:	8e cf       	rjmp	.-228    	; 0x2ffa <fat_read_file+0x40>
        return 0;
    
    uint16_t cluster_size = fd->fs->header.cluster_size;
    cluster_t cluster_num = fd->pos_cluster;
    uintptr_t buffer_left = buffer_len;
    uint16_t first_cluster_offset = (uint16_t) (fd->pos & (cluster_size - 1));
    30de:	c9 80       	ldd	r12, Y+1	; 0x01
    30e0:	da 80       	ldd	r13, Y+2	; 0x02
    30e2:	f1 e0       	ldi	r31, 0x01	; 1
    30e4:	cf 1a       	sub	r12, r31
    30e6:	d1 08       	sbc	r13, r1
    30e8:	c8 20       	and	r12, r8
    30ea:	d9 20       	and	r13, r9
    30ec:	57 01       	movw	r10, r14
    }
    /* read data */
    do
    {
        /* calculate data size to copy from cluster */
        offset_t cluster_offset = fat_cluster_offset(fd->fs, cluster_num) + first_cluster_offset;
    30ee:	af 81       	ldd	r26, Y+7	; 0x07
    30f0:	b8 85       	ldd	r27, Y+8	; 0x08
    30f2:	ed 91       	ld	r30, X+
    30f4:	fc 91       	ld	r31, X
 * \param[in] cluster_num The cluster whose offset to calculate.
 * \returns The cluster offset.
 */
offset_t fat_cluster_offset(const struct fat_fs_struct* fs, cluster_t cluster_num)
{
    if(!fs || cluster_num < 2)
    30f6:	30 97       	sbiw	r30, 0x00	; 0
    30f8:	99 f0       	breq	.+38     	; 0x3120 <fat_read_file+0x166>
    30fa:	02 30       	cpi	r16, 0x02	; 2
    30fc:	11 05       	cpc	r17, r1
    30fe:	80 f0       	brcs	.+32     	; 0x3120 <fat_read_file+0x166>
        return 0;

    return fs->header.cluster_zero_offset + (offset_t) (cluster_num - 2) * fs->header.cluster_size;
    3100:	a0 89       	ldd	r26, Z+16	; 0x10
    3102:	b1 89       	ldd	r27, Z+17	; 0x11
    3104:	98 01       	movw	r18, r16
    3106:	22 50       	subi	r18, 0x02	; 2
    3108:	31 09       	sbc	r19, r1
    310a:	0e 94 ea 24 	call	0x49d4	; 0x49d4 <__umulhisi3>
    310e:	42 88       	ldd	r4, Z+18	; 0x12
    3110:	53 88       	ldd	r5, Z+19	; 0x13
    3112:	64 88       	ldd	r6, Z+20	; 0x14
    3114:	75 88       	ldd	r7, Z+21	; 0x15
    3116:	64 0d       	add	r22, r4
    3118:	75 1d       	adc	r23, r5
    311a:	86 1d       	adc	r24, r6
    311c:	97 1d       	adc	r25, r7
    311e:	03 c0       	rjmp	.+6      	; 0x3126 <fat_read_file+0x16c>
 * \returns The cluster offset.
 */
offset_t fat_cluster_offset(const struct fat_fs_struct* fs, cluster_t cluster_num)
{
    if(!fs || cluster_num < 2)
        return 0;
    3120:	60 e0       	ldi	r22, 0x00	; 0
    3122:	70 e0       	ldi	r23, 0x00	; 0
    3124:	cb 01       	movw	r24, r22
    3126:	89 80       	ldd	r8, Y+1	; 0x01
    3128:	9a 80       	ldd	r9, Y+2	; 0x02
    312a:	8c 18       	sub	r8, r12
    312c:	9d 08       	sbc	r9, r13
    312e:	a8 14       	cp	r10, r8
    3130:	b9 04       	cpc	r11, r9
    3132:	08 f4       	brcc	.+2      	; 0x3136 <fat_read_file+0x17c>
    3134:	45 01       	movw	r8, r10
        uint16_t copy_length = cluster_size - first_cluster_offset;
        if(copy_length > buffer_left)
            copy_length = buffer_left;

        /* read data */
        if(!fd->fs->partition->device_read(cluster_offset, buffer, copy_length))
    3136:	01 90       	ld	r0, Z+
    3138:	f0 81       	ld	r31, Z
    313a:	e0 2d       	mov	r30, r0
    }
    /* read data */
    do
    {
        /* calculate data size to copy from cluster */
        offset_t cluster_offset = fat_cluster_offset(fd->fs, cluster_num) + first_cluster_offset;
    313c:	6c 0d       	add	r22, r12
    313e:	7d 1d       	adc	r23, r13
    3140:	81 1d       	adc	r24, r1
    3142:	91 1d       	adc	r25, r1
        uint16_t copy_length = cluster_size - first_cluster_offset;
        if(copy_length > buffer_left)
            copy_length = buffer_left;

        /* read data */
        if(!fd->fs->partition->device_read(cluster_offset, buffer, copy_length))
    3144:	01 90       	ld	r0, Z+
    3146:	f0 81       	ld	r31, Z
    3148:	e0 2d       	mov	r30, r0
    314a:	94 01       	movw	r18, r8
    314c:	a1 01       	movw	r20, r2
    314e:	09 95       	icall
    3150:	88 23       	and	r24, r24
    3152:	39 f1       	breq	.+78     	; 0x31a2 <fat_read_file+0x1e8>
            return buffer_len - buffer_left;

        /* calculate new file position */
        buffer += copy_length;
    3154:	28 0c       	add	r2, r8
    3156:	39 1c       	adc	r3, r9
        buffer_left -= copy_length;
    3158:	a8 18       	sub	r10, r8
    315a:	b9 08       	sbc	r11, r9
        fd->pos += copy_length;
    315c:	ef 81       	ldd	r30, Y+7	; 0x07
    315e:	f8 85       	ldd	r31, Y+8	; 0x08
    3160:	85 a5       	ldd	r24, Z+45	; 0x2d
    3162:	96 a5       	ldd	r25, Z+46	; 0x2e
    3164:	a7 a5       	ldd	r26, Z+47	; 0x2f
    3166:	b0 a9       	ldd	r27, Z+48	; 0x30
    3168:	88 0d       	add	r24, r8
    316a:	99 1d       	adc	r25, r9
    316c:	a1 1d       	adc	r26, r1
    316e:	b1 1d       	adc	r27, r1
    3170:	85 a7       	std	Z+45, r24	; 0x2d
    3172:	96 a7       	std	Z+46, r25	; 0x2e
    3174:	a7 a7       	std	Z+47, r26	; 0x2f
    3176:	b0 ab       	std	Z+48, r27	; 0x30

        if(first_cluster_offset + copy_length >= cluster_size)
    3178:	8c 0c       	add	r8, r12
    317a:	9d 1c       	adc	r9, r13
    317c:	89 81       	ldd	r24, Y+1	; 0x01
    317e:	9a 81       	ldd	r25, Y+2	; 0x02
    3180:	88 16       	cp	r8, r24
    3182:	99 06       	cpc	r9, r25
    3184:	a0 f0       	brcs	.+40     	; 0x31ae <fat_read_file+0x1f4>
        {
            /* we are on a cluster boundary, so get the next cluster */
            if((cluster_num = fat_get_next_cluster(fd->fs, cluster_num)))
    3186:	b8 01       	movw	r22, r16
    3188:	80 81       	ld	r24, Z
    318a:	91 81       	ldd	r25, Z+1	; 0x01
    318c:	0e 94 e5 15 	call	0x2bca	; 0x2bca <fat_get_next_cluster>
    3190:	8c 01       	movw	r16, r24
    3192:	00 97       	sbiw	r24, 0x00	; 0
    3194:	51 f4       	brne	.+20     	; 0x31aa <fat_read_file+0x1f0>
            {
                first_cluster_offset = 0;
            }
            else
            {
                fd->pos_cluster = 0;
    3196:	af 81       	ldd	r26, Y+7	; 0x07
    3198:	b8 85       	ldd	r27, Y+8	; 0x08
    319a:	d2 96       	adiw	r26, 0x32	; 50
    319c:	1c 92       	st	X, r1
    319e:	1e 92       	st	-X, r1
    31a0:	d1 97       	sbiw	r26, 0x31	; 49
                return buffer_len - buffer_left;
    31a2:	c7 01       	movw	r24, r14
    31a4:	8a 19       	sub	r24, r10
    31a6:	9b 09       	sbc	r25, r11
    31a8:	0e c0       	rjmp	.+28     	; 0x31c6 <fat_read_file+0x20c>
        if(first_cluster_offset + copy_length >= cluster_size)
        {
            /* we are on a cluster boundary, so get the next cluster */
            if((cluster_num = fat_get_next_cluster(fd->fs, cluster_num)))
            {
                first_cluster_offset = 0;
    31aa:	c1 2c       	mov	r12, r1
    31ac:	d1 2c       	mov	r13, r1
                fd->pos_cluster = 0;
                return buffer_len - buffer_left;
            }
        }

        fd->pos_cluster = cluster_num;
    31ae:	ef 81       	ldd	r30, Y+7	; 0x07
    31b0:	f8 85       	ldd	r31, Y+8	; 0x08
    31b2:	12 ab       	std	Z+50, r17	; 0x32
    31b4:	01 ab       	std	Z+49, r16	; 0x31

    } while(buffer_left > 0); /* check if we are done */
    31b6:	a1 14       	cp	r10, r1
    31b8:	b1 04       	cpc	r11, r1
    31ba:	09 f0       	breq	.+2      	; 0x31be <fat_read_file+0x204>
    31bc:	98 cf       	rjmp	.-208    	; 0x30ee <fat_read_file+0x134>

    return buffer_len;
    31be:	c7 01       	movw	r24, r14
    31c0:	02 c0       	rjmp	.+4      	; 0x31c6 <fat_read_file+0x20c>

    /* determine number of bytes to read */
    if(fd->pos + buffer_len > fd->dir_entry.file_size)
        buffer_len = fd->dir_entry.file_size - fd->pos;
    if(buffer_len == 0)
        return 0;
    31c2:	80 e0       	ldi	r24, 0x00	; 0
    31c4:	90 e0       	ldi	r25, 0x00	; 0
        fd->pos_cluster = cluster_num;

    } while(buffer_left > 0); /* check if we are done */

    return buffer_len;
}
    31c6:	28 96       	adiw	r28, 0x08	; 8
    31c8:	0f b6       	in	r0, 0x3f	; 63
    31ca:	f8 94       	cli
    31cc:	de bf       	out	0x3e, r29	; 62
    31ce:	0f be       	out	0x3f, r0	; 63
    31d0:	cd bf       	out	0x3d, r28	; 61
    31d2:	df 91       	pop	r29
    31d4:	cf 91       	pop	r28
    31d6:	1f 91       	pop	r17
    31d8:	0f 91       	pop	r16
    31da:	ff 90       	pop	r15
    31dc:	ef 90       	pop	r14
    31de:	df 90       	pop	r13
    31e0:	cf 90       	pop	r12
    31e2:	bf 90       	pop	r11
    31e4:	af 90       	pop	r10
    31e6:	9f 90       	pop	r9
    31e8:	8f 90       	pop	r8
    31ea:	7f 90       	pop	r7
    31ec:	6f 90       	pop	r6
    31ee:	5f 90       	pop	r5
    31f0:	4f 90       	pop	r4
    31f2:	3f 90       	pop	r3
    31f4:	2f 90       	pop	r2
    31f6:	08 95       	ret

000031f8 <fat_open_dir>:
 * \param[in] dir_entry The directory entry which stands for the directory to open.
 * \returns An opaque directory descriptor on success, 0 on failure.
 * \see fat_close_dir
 */
struct fat_dir_struct* fat_open_dir(struct fat_fs_struct* fs, const struct fat_dir_entry_struct* dir_entry)
{
    31f8:	cf 93       	push	r28
    31fa:	df 93       	push	r29
    if(!fs || !dir_entry || !(dir_entry->attributes & FAT_ATTRIB_DIR))
    31fc:	00 97       	sbiw	r24, 0x00	; 0
    31fe:	91 f0       	breq	.+36     	; 0x3224 <fat_open_dir+0x2c>
    3200:	61 15       	cp	r22, r1
    3202:	71 05       	cpc	r23, r1
    3204:	79 f0       	breq	.+30     	; 0x3224 <fat_open_dir+0x2c>
    3206:	fb 01       	movw	r30, r22
    3208:	20 a1       	ldd	r18, Z+32	; 0x20
    320a:	24 ff       	sbrs	r18, 4
    320c:	0b c0       	rjmp	.+22     	; 0x3224 <fat_open_dir+0x2c>
    320e:	ca e9       	ldi	r28, 0x9A	; 154
    3210:	d1 e0       	ldi	r29, 0x01	; 1
#else
    struct fat_dir_struct* dd = fat_dir_handles;
    uint8_t i;
    for(i = 0; i < FAT_DIR_COUNT; ++i)
    {
        if(!dd->fs)
    3212:	28 81       	ld	r18, Y
    3214:	39 81       	ldd	r19, Y+1	; 0x01
    3216:	23 2b       	or	r18, r19
    3218:	41 f0       	breq	.+16     	; 0x322a <fat_open_dir+0x32>
            break;

        ++dd;
    321a:	e1 96       	adiw	r28, 0x31	; 49
    if(!dd)
        return 0;
#else
    struct fat_dir_struct* dd = fat_dir_handles;
    uint8_t i;
    for(i = 0; i < FAT_DIR_COUNT; ++i)
    321c:	f2 e0       	ldi	r31, 0x02	; 2
    321e:	cd 32       	cpi	r28, 0x2D	; 45
    3220:	df 07       	cpc	r29, r31
    3222:	b9 f7       	brne	.-18     	; 0x3212 <fat_open_dir+0x1a>
 * \see fat_close_dir
 */
struct fat_dir_struct* fat_open_dir(struct fat_fs_struct* fs, const struct fat_dir_entry_struct* dir_entry)
{
    if(!fs || !dir_entry || !(dir_entry->attributes & FAT_ATTRIB_DIR))
        return 0;
    3224:	80 e0       	ldi	r24, 0x00	; 0
    3226:	90 e0       	ldi	r25, 0x00	; 0
    3228:	12 c0       	rjmp	.+36     	; 0x324e <fat_open_dir+0x56>
    }
    if(i >= FAT_DIR_COUNT)
        return 0;
#endif
    
    memcpy(&dd->dir_entry, dir_entry, sizeof(*dir_entry));
    322a:	de 01       	movw	r26, r28
    322c:	12 96       	adiw	r26, 0x02	; 2
    322e:	2b e2       	ldi	r18, 0x2B	; 43
    3230:	fb 01       	movw	r30, r22
    3232:	01 90       	ld	r0, Z+
    3234:	0d 92       	st	X+, r0
    3236:	2a 95       	dec	r18
    3238:	e1 f7       	brne	.-8      	; 0x3232 <fat_open_dir+0x3a>
    dd->fs = fs;
    323a:	99 83       	std	Y+1, r25	; 0x01
    323c:	88 83       	st	Y, r24
    dd->entry_cluster = dir_entry->cluster;
    323e:	fb 01       	movw	r30, r22
    3240:	81 a1       	ldd	r24, Z+33	; 0x21
    3242:	92 a1       	ldd	r25, Z+34	; 0x22
    3244:	9e a7       	std	Y+46, r25	; 0x2e
    3246:	8d a7       	std	Y+45, r24	; 0x2d
    dd->entry_offset = 0;
    3248:	18 aa       	std	Y+48, r1	; 0x30
    324a:	1f a6       	std	Y+47, r1	; 0x2f

    return dd;
    324c:	ce 01       	movw	r24, r28
}
    324e:	df 91       	pop	r29
    3250:	cf 91       	pop	r28
    3252:	08 95       	ret

00003254 <fat_close_dir>:
 * \param[in] dd The directory descriptor to close.
 * \see fat_open_dir
 */
void fat_close_dir(struct fat_dir_struct* dd)
{
    if(dd)
    3254:	00 97       	sbiw	r24, 0x00	; 0
    3256:	19 f0       	breq	.+6      	; 0x325e <fat_close_dir+0xa>
#if USE_DYNAMIC_MEMORY
        free(dd);
#else
        dd->fs = 0;
    3258:	fc 01       	movw	r30, r24
    325a:	11 82       	std	Z+1, r1	; 0x01
    325c:	10 82       	st	Z, r1
    325e:	08 95       	ret

00003260 <fat_reset_dir>:
 * \param[in] dd The directory handle to reset.
 * \returns 0 on failure, 1 on success.
 * \see fat_read_dir
 */
uint8_t fat_reset_dir(struct fat_dir_struct* dd)
{
    3260:	fc 01       	movw	r30, r24
    if(!dd)
    3262:	00 97       	sbiw	r24, 0x00	; 0
    3264:	41 f0       	breq	.+16     	; 0x3276 <fat_reset_dir+0x16>
        return 0;

    dd->entry_cluster = dd->dir_entry.cluster;
    3266:	83 a1       	ldd	r24, Z+35	; 0x23
    3268:	94 a1       	ldd	r25, Z+36	; 0x24
    326a:	96 a7       	std	Z+46, r25	; 0x2e
    326c:	85 a7       	std	Z+45, r24	; 0x2d
    dd->entry_offset = 0;
    326e:	10 aa       	std	Z+48, r1	; 0x30
    3270:	17 a6       	std	Z+47, r1	; 0x2f
    return 1;
    3272:	81 e0       	ldi	r24, 0x01	; 1
    3274:	08 95       	ret
 * \see fat_read_dir
 */
uint8_t fat_reset_dir(struct fat_dir_struct* dd)
{
    if(!dd)
        return 0;
    3276:	80 e0       	ldi	r24, 0x00	; 0

    dd->entry_cluster = dd->dir_entry.cluster;
    dd->entry_offset = 0;
    return 1;
}
    3278:	08 95       	ret

0000327a <fat_read_dir>:
 * \param[out] dir_entry Pointer to a buffer into which to write the directory entry information.
 * \returns 0 on failure, 1 on success.
 * \see fat_reset_dir
 */
uint8_t fat_read_dir(struct fat_dir_struct* dd, struct fat_dir_entry_struct* dir_entry)
{
    327a:	2f 92       	push	r2
    327c:	3f 92       	push	r3
    327e:	4f 92       	push	r4
    3280:	5f 92       	push	r5
    3282:	6f 92       	push	r6
    3284:	7f 92       	push	r7
    3286:	8f 92       	push	r8
    3288:	9f 92       	push	r9
    328a:	af 92       	push	r10
    328c:	bf 92       	push	r11
    328e:	cf 92       	push	r12
    3290:	df 92       	push	r13
    3292:	ef 92       	push	r14
    3294:	ff 92       	push	r15
    3296:	0f 93       	push	r16
    3298:	1f 93       	push	r17
    329a:	cf 93       	push	r28
    329c:	df 93       	push	r29
    329e:	cd b7       	in	r28, 0x3d	; 61
    32a0:	de b7       	in	r29, 0x3e	; 62
    32a2:	a9 97       	sbiw	r28, 0x29	; 41
    32a4:	0f b6       	in	r0, 0x3f	; 63
    32a6:	f8 94       	cli
    32a8:	de bf       	out	0x3e, r29	; 62
    32aa:	0f be       	out	0x3f, r0	; 63
    32ac:	cd bf       	out	0x3d, r28	; 61
    32ae:	3c 01       	movw	r6, r24
    if(!dd || !dir_entry)
    32b0:	00 97       	sbiw	r24, 0x00	; 0
    32b2:	c1 f0       	breq	.+48     	; 0x32e4 <fat_read_dir+0x6a>
    32b4:	61 15       	cp	r22, r1
    32b6:	71 05       	cpc	r23, r1
    32b8:	a9 f0       	breq	.+42     	; 0x32e4 <fat_read_dir+0x6a>
        return 0;

    /* get current position of directory handle */
    struct fat_fs_struct* fs = dd->fs;
    32ba:	dc 01       	movw	r26, r24
    32bc:	2d 90       	ld	r2, X+
    32be:	3c 90       	ld	r3, X
    32c0:	11 97       	sbiw	r26, 0x01	; 1
    const struct fat_header_struct* header = &fs->header;
    uint16_t cluster_size = header->cluster_size;
    32c2:	f1 01       	movw	r30, r2
    32c4:	40 88       	ldd	r4, Z+16	; 0x10
    32c6:	51 88       	ldd	r5, Z+17	; 0x11
    cluster_t cluster_num = dd->entry_cluster;
    32c8:	9d 96       	adiw	r26, 0x2d	; 45
    32ca:	8d 90       	ld	r8, X+
    32cc:	9c 90       	ld	r9, X
    32ce:	9e 97       	sbiw	r26, 0x2e	; 46
    uint16_t cluster_offset = dd->entry_offset;
    32d0:	9f 96       	adiw	r26, 0x2f	; 47
    32d2:	ad 90       	ld	r10, X+
    32d4:	bc 90       	ld	r11, X
    32d6:	d0 97       	sbiw	r26, 0x30	; 48
    struct fat_read_dir_callback_arg arg;

    if(cluster_offset >= cluster_size)
    32d8:	a4 14       	cp	r10, r4
    32da:	b5 04       	cpc	r11, r5
    32dc:	28 f0       	brcs	.+10     	; 0x32e8 <fat_read_dir+0x6e>
        /* The latest call hit the border of the last cluster in
         * the chain, but it still returned a directory entry.
         * So we now reset the handle and signal the caller the
         * end of the listing.
         */
        fat_reset_dir(dd);
    32de:	c3 01       	movw	r24, r6
    32e0:	0e 94 30 19 	call	0x3260	; 0x3260 <fat_reset_dir>
        return 0;
    32e4:	80 e0       	ldi	r24, 0x00	; 0
    32e6:	8d c0       	rjmp	.+282    	; 0x3402 <fat_read_dir+0x188>
    }

    /* reset callback arguments */
    memset(&arg, 0, sizeof(arg));
    32e8:	9e 01       	movw	r18, r28
    32ea:	2f 5d       	subi	r18, 0xDF	; 223
    32ec:	3f 4f       	sbci	r19, 0xFF	; 255
    32ee:	3f a3       	std	Y+39, r19	; 0x27
    32f0:	2e a3       	std	Y+38, r18	; 0x26
    32f2:	85 e0       	ldi	r24, 0x05	; 5
    32f4:	d9 01       	movw	r26, r18
    32f6:	1d 92       	st	X+, r1
    32f8:	8a 95       	dec	r24
    32fa:	e9 f7       	brne	.-6      	; 0x32f6 <fat_read_dir+0x7c>
    memset(dir_entry, 0, sizeof(*dir_entry));
    32fc:	8b e2       	ldi	r24, 0x2B	; 43
    32fe:	fb 01       	movw	r30, r22
    3300:	11 92       	st	Z+, r1
    3302:	8a 95       	dec	r24
    3304:	e9 f7       	brne	.-6      	; 0x3300 <fat_read_dir+0x86>
    arg.dir_entry = dir_entry;
    3306:	7a a3       	std	Y+34, r23	; 0x22
    3308:	69 a3       	std	Y+33, r22	; 0x21

    /* check if we read from the root directory */
    if(cluster_num == 0)
    330a:	81 14       	cp	r8, r1
    330c:	91 04       	cpc	r9, r1
    330e:	09 f0       	breq	.+2      	; 0x3312 <fat_read_dir+0x98>
    3310:	4a c0       	rjmp	.+148    	; 0x33a6 <fat_read_dir+0x12c>
#if FAT_FAT32_SUPPORT
        if(fs->partition->type == PARTITION_TYPE_FAT32)
            cluster_num = header->root_dir_cluster;
        else
#endif
            cluster_size = header->cluster_zero_offset - header->root_dir_offset;
    3312:	d1 01       	movw	r26, r2
    3314:	52 96       	adiw	r26, 0x12	; 18
    3316:	4d 90       	ld	r4, X+
    3318:	5c 90       	ld	r5, X
    331a:	53 97       	sbiw	r26, 0x13	; 19
    331c:	56 96       	adiw	r26, 0x16	; 22
    331e:	8d 91       	ld	r24, X+
    3320:	9c 91       	ld	r25, X
    3322:	57 97       	sbiw	r26, 0x17	; 23
    3324:	48 1a       	sub	r4, r24
    3326:	59 0a       	sbc	r5, r25
    3328:	3e c0       	rjmp	.+124    	; 0x33a6 <fat_read_dir+0x12c>
    }

    /* read entries */
    uint8_t buffer[32];
    while(!arg.finished)
    332a:	8d a1       	ldd	r24, Y+37	; 0x25
    332c:	81 11       	cpse	r24, r1
    332e:	5f c0       	rjmp	.+190    	; 0x33ee <fat_read_dir+0x174>
    {
        /* read directory entries up to the cluster border */
        uint16_t cluster_left = cluster_size - cluster_offset;
    3330:	82 01       	movw	r16, r4
    3332:	0a 19       	sub	r16, r10
    3334:	1b 09       	sbc	r17, r11
        offset_t pos = cluster_offset;
    3336:	65 01       	movw	r12, r10
    3338:	e1 2c       	mov	r14, r1
    333a:	f1 2c       	mov	r15, r1
        if(cluster_num == 0)
    333c:	81 14       	cp	r8, r1
    333e:	91 04       	cpc	r9, r1
    3340:	b9 f5       	brne	.+110    	; 0x33b0 <fat_read_dir+0x136>
            pos += header->root_dir_offset;
    3342:	f1 01       	movw	r30, r2
    3344:	66 89       	ldd	r22, Z+22	; 0x16
    3346:	77 89       	ldd	r23, Z+23	; 0x17
    3348:	80 8d       	ldd	r24, Z+24	; 0x18
    334a:	91 8d       	ldd	r25, Z+25	; 0x19
        else
            pos += fat_cluster_offset(fs, cluster_num);
    334c:	6c 0d       	add	r22, r12
    334e:	7d 1d       	adc	r23, r13
    3350:	8e 1d       	adc	r24, r14
    3352:	9f 1d       	adc	r25, r15

        arg.bytes_read = 0;
    3354:	1c a2       	std	Y+36, r1	; 0x24
    3356:	1b a2       	std	Y+35, r1	; 0x23
        if(!fs->partition->device_read_interval(pos,
    3358:	d1 01       	movw	r26, r2
    335a:	ed 91       	ld	r30, X+
    335c:	fc 91       	ld	r31, X
    335e:	02 80       	ldd	r0, Z+2	; 0x02
    3360:	f3 81       	ldd	r31, Z+3	; 0x03
    3362:	e0 2d       	mov	r30, r0
    3364:	9e 01       	movw	r18, r28
    3366:	2f 5d       	subi	r18, 0xDF	; 223
    3368:	3f 4f       	sbci	r19, 0xFF	; 255
    336a:	69 01       	movw	r12, r18
    336c:	a1 e5       	ldi	r26, 0x51	; 81
    336e:	ea 2e       	mov	r14, r26
    3370:	a5 e1       	ldi	r26, 0x15	; 21
    3372:	fa 2e       	mov	r15, r26
    3374:	20 e2       	ldi	r18, 0x20	; 32
    3376:	30 e0       	ldi	r19, 0x00	; 0
    3378:	ae 01       	movw	r20, r28
    337a:	4f 5f       	subi	r20, 0xFF	; 255
    337c:	5f 4f       	sbci	r21, 0xFF	; 255
    337e:	09 95       	icall
    3380:	88 23       	and	r24, r24
    3382:	09 f4       	brne	.+2      	; 0x3386 <fat_read_dir+0x10c>
    3384:	af cf       	rjmp	.-162    	; 0x32e4 <fat_read_dir+0x6a>
                                                fat_dir_entry_read_callback,
                                                &arg)
          )
            return 0;

        cluster_offset += arg.bytes_read;
    3386:	8b a1       	ldd	r24, Y+35	; 0x23
    3388:	9c a1       	ldd	r25, Y+36	; 0x24
    338a:	a8 0e       	add	r10, r24
    338c:	b9 1e       	adc	r11, r25

        if(cluster_offset >= cluster_size)
    338e:	a4 14       	cp	r10, r4
    3390:	b5 04       	cpc	r11, r5
    3392:	58 f2       	brcs	.-106    	; 0x332a <fat_read_dir+0xb0>
        {
            /* we reached the cluster border and switch to the next cluster */

            /* get number of next cluster */
            if((cluster_num = fat_get_next_cluster(fs, cluster_num)) != 0)
    3394:	b4 01       	movw	r22, r8
    3396:	c1 01       	movw	r24, r2
    3398:	0e 94 e5 15 	call	0x2bca	; 0x2bca <fat_get_next_cluster>
    339c:	4c 01       	movw	r8, r24
    339e:	00 97       	sbiw	r24, 0x00	; 0
    33a0:	11 f1       	breq	.+68     	; 0x33e6 <fat_read_dir+0x16c>
            {
                cluster_offset = 0;
    33a2:	a1 2c       	mov	r10, r1
    33a4:	b1 2c       	mov	r11, r1
offset_t fat_cluster_offset(const struct fat_fs_struct* fs, cluster_t cluster_num)
{
    if(!fs || cluster_num < 2)
        return 0;

    return fs->header.cluster_zero_offset + (offset_t) (cluster_num - 2) * fs->header.cluster_size;
    33a6:	c4 01       	movw	r24, r8
    33a8:	02 97       	sbiw	r24, 0x02	; 2
    33aa:	99 a7       	std	Y+41, r25	; 0x29
    33ac:	88 a7       	std	Y+40, r24	; 0x28
    33ae:	bd cf       	rjmp	.-134    	; 0x332a <fat_read_dir+0xb0>
 * \param[in] cluster_num The cluster whose offset to calculate.
 * \returns The cluster offset.
 */
offset_t fat_cluster_offset(const struct fat_fs_struct* fs, cluster_t cluster_num)
{
    if(!fs || cluster_num < 2)
    33b0:	21 14       	cp	r2, r1
    33b2:	31 04       	cpc	r3, r1
    33b4:	a1 f0       	breq	.+40     	; 0x33de <fat_read_dir+0x164>
    33b6:	f2 e0       	ldi	r31, 0x02	; 2
    33b8:	8f 16       	cp	r8, r31
    33ba:	91 04       	cpc	r9, r1
    33bc:	80 f0       	brcs	.+32     	; 0x33de <fat_read_dir+0x164>
        return 0;

    return fs->header.cluster_zero_offset + (offset_t) (cluster_num - 2) * fs->header.cluster_size;
    33be:	f1 01       	movw	r30, r2
    33c0:	a0 89       	ldd	r26, Z+16	; 0x10
    33c2:	b1 89       	ldd	r27, Z+17	; 0x11
    33c4:	28 a5       	ldd	r18, Y+40	; 0x28
    33c6:	39 a5       	ldd	r19, Y+41	; 0x29
    33c8:	0e 94 ea 24 	call	0x49d4	; 0x49d4 <__umulhisi3>
    33cc:	22 89       	ldd	r18, Z+18	; 0x12
    33ce:	33 89       	ldd	r19, Z+19	; 0x13
    33d0:	44 89       	ldd	r20, Z+20	; 0x14
    33d2:	55 89       	ldd	r21, Z+21	; 0x15
    33d4:	62 0f       	add	r22, r18
    33d6:	73 1f       	adc	r23, r19
    33d8:	84 1f       	adc	r24, r20
    33da:	95 1f       	adc	r25, r21
    33dc:	b7 cf       	rjmp	.-146    	; 0x334c <fat_read_dir+0xd2>
 * \returns The cluster offset.
 */
offset_t fat_cluster_offset(const struct fat_fs_struct* fs, cluster_t cluster_num)
{
    if(!fs || cluster_num < 2)
        return 0;
    33de:	60 e0       	ldi	r22, 0x00	; 0
    33e0:	70 e0       	ldi	r23, 0x00	; 0
    33e2:	cb 01       	movw	r24, r22
    33e4:	b3 cf       	rjmp	.-154    	; 0x334c <fat_read_dir+0xd2>
                cluster_offset = 0;
                continue;
            }

            /* we are at the end of the cluster chain */
            if(!arg.finished)
    33e6:	8d a1       	ldd	r24, Y+37	; 0x25
    33e8:	88 23       	and	r24, r24
    33ea:	09 f4       	brne	.+2      	; 0x33ee <fat_read_dir+0x174>
    33ec:	78 cf       	rjmp	.-272    	; 0x32de <fat_read_dir+0x64>

            break;
        }
    }

    dd->entry_cluster = cluster_num;
    33ee:	d3 01       	movw	r26, r6
    33f0:	9e 96       	adiw	r26, 0x2e	; 46
    33f2:	9c 92       	st	X, r9
    33f4:	8e 92       	st	-X, r8
    33f6:	9d 97       	sbiw	r26, 0x2d	; 45
    dd->entry_offset = cluster_offset;
    33f8:	d0 96       	adiw	r26, 0x30	; 48
    33fa:	bc 92       	st	X, r11
    33fc:	ae 92       	st	-X, r10
    33fe:	9f 97       	sbiw	r26, 0x2f	; 47

    return arg.finished;
    3400:	8d a1       	ldd	r24, Y+37	; 0x25
}
    3402:	a9 96       	adiw	r28, 0x29	; 41
    3404:	0f b6       	in	r0, 0x3f	; 63
    3406:	f8 94       	cli
    3408:	de bf       	out	0x3e, r29	; 62
    340a:	0f be       	out	0x3f, r0	; 63
    340c:	cd bf       	out	0x3d, r28	; 61
    340e:	df 91       	pop	r29
    3410:	cf 91       	pop	r28
    3412:	1f 91       	pop	r17
    3414:	0f 91       	pop	r16
    3416:	ff 90       	pop	r15
    3418:	ef 90       	pop	r14
    341a:	df 90       	pop	r13
    341c:	cf 90       	pop	r12
    341e:	bf 90       	pop	r11
    3420:	af 90       	pop	r10
    3422:	9f 90       	pop	r9
    3424:	8f 90       	pop	r8
    3426:	7f 90       	pop	r7
    3428:	6f 90       	pop	r6
    342a:	5f 90       	pop	r5
    342c:	4f 90       	pop	r4
    342e:	3f 90       	pop	r3
    3430:	2f 90       	pop	r2
    3432:	08 95       	ret

00003434 <fat_get_dir_entry_of_path>:
 * \param[out] dir_entry The directory entry to fill.
 * \returns 0 on failure, 1 on success.
 * \see fat_read_dir
 */
uint8_t fat_get_dir_entry_of_path(struct fat_fs_struct* fs, const char* path, struct fat_dir_entry_struct* dir_entry)
{
    3434:	8f 92       	push	r8
    3436:	9f 92       	push	r9
    3438:	af 92       	push	r10
    343a:	bf 92       	push	r11
    343c:	cf 92       	push	r12
    343e:	df 92       	push	r13
    3440:	ef 92       	push	r14
    3442:	ff 92       	push	r15
    3444:	0f 93       	push	r16
    3446:	1f 93       	push	r17
    3448:	cf 93       	push	r28
    344a:	df 93       	push	r29
    344c:	5c 01       	movw	r10, r24
    344e:	eb 01       	movw	r28, r22
    3450:	8a 01       	movw	r16, r20
    if(!fs || !path || path[0] == '\0' || !dir_entry)
    3452:	00 97       	sbiw	r24, 0x00	; 0
    3454:	09 f4       	brne	.+2      	; 0x3458 <fat_get_dir_entry_of_path+0x24>
    3456:	6a c0       	rjmp	.+212    	; 0x352c <fat_get_dir_entry_of_path+0xf8>
    3458:	20 97       	sbiw	r28, 0x00	; 0
    345a:	09 f4       	brne	.+2      	; 0x345e <fat_get_dir_entry_of_path+0x2a>
    345c:	67 c0       	rjmp	.+206    	; 0x352c <fat_get_dir_entry_of_path+0xf8>
    345e:	88 81       	ld	r24, Y
    3460:	88 23       	and	r24, r24
    3462:	09 f4       	brne	.+2      	; 0x3466 <fat_get_dir_entry_of_path+0x32>
    3464:	63 c0       	rjmp	.+198    	; 0x352c <fat_get_dir_entry_of_path+0xf8>
    3466:	41 15       	cp	r20, r1
    3468:	51 05       	cpc	r21, r1
    346a:	09 f4       	brne	.+2      	; 0x346e <fat_get_dir_entry_of_path+0x3a>
    346c:	5f c0       	rjmp	.+190    	; 0x352c <fat_get_dir_entry_of_path+0xf8>
        return 0;

    if(path[0] == '/')
    346e:	8f 32       	cpi	r24, 0x2F	; 47
    3470:	09 f4       	brne	.+2      	; 0x3474 <fat_get_dir_entry_of_path+0x40>
        ++path;
    3472:	21 96       	adiw	r28, 0x01	; 1

    /* begin with the root directory */
    memset(dir_entry, 0, sizeof(*dir_entry));
    3474:	8b e2       	ldi	r24, 0x2B	; 43
    3476:	f8 01       	movw	r30, r16
    3478:	11 92       	st	Z+, r1
    347a:	8a 95       	dec	r24
    347c:	e9 f7       	brne	.-6      	; 0x3478 <fat_get_dir_entry_of_path+0x44>
    dir_entry->attributes = FAT_ATTRIB_DIR;
    347e:	80 e1       	ldi	r24, 0x10	; 16
    3480:	f8 01       	movw	r30, r16
    3482:	80 a3       	std	Z+32, r24	; 0x20

    while(1)
    {
        if(path[0] == '\0')
    3484:	88 81       	ld	r24, Y
    3486:	81 11       	cpse	r24, r1
    3488:	02 c0       	rjmp	.+4      	; 0x348e <fat_get_dir_entry_of_path+0x5a>
            return 1;
    348a:	81 e0       	ldi	r24, 0x01	; 1
    348c:	50 c0       	rjmp	.+160    	; 0x352e <fat_get_dir_entry_of_path+0xfa>

        struct fat_dir_struct* dd = fat_open_dir(fs, dir_entry);
    348e:	b8 01       	movw	r22, r16
    3490:	c5 01       	movw	r24, r10
    3492:	0e 94 fc 18 	call	0x31f8	; 0x31f8 <fat_open_dir>
    3496:	7c 01       	movw	r14, r24
        if(!dd)
    3498:	00 97       	sbiw	r24, 0x00	; 0
    349a:	09 f4       	brne	.+2      	; 0x349e <fat_get_dir_entry_of_path+0x6a>
    349c:	47 c0       	rjmp	.+142    	; 0x352c <fat_get_dir_entry_of_path+0xf8>
            break;

        /* extract the next hierarchy we will search for */
        const char* sub_path = strchr(path, '/');
    349e:	6f e2       	ldi	r22, 0x2F	; 47
    34a0:	70 e0       	ldi	r23, 0x00	; 0
    34a2:	ce 01       	movw	r24, r28
    34a4:	0e 94 7b 25 	call	0x4af6	; 0x4af6 <strchr>
        uint8_t length_to_sep;
        if(sub_path)
    34a8:	00 97       	sbiw	r24, 0x00	; 0
    34aa:	41 f0       	breq	.+16     	; 0x34bc <fat_get_dir_entry_of_path+0x88>
        {
            length_to_sep = sub_path - path;
    34ac:	c8 2e       	mov	r12, r24
    34ae:	cc 1a       	sub	r12, r28
            ++sub_path;
    34b0:	4c 01       	movw	r8, r24
    34b2:	2f ef       	ldi	r18, 0xFF	; 255
    34b4:	82 1a       	sub	r8, r18
    34b6:	92 0a       	sbc	r9, r18
        
        /* read directory entries */
        while(fat_read_dir(dd, dir_entry))
        {
            /* check if we have found the next hierarchy */
            if((strlen(dir_entry->long_name) != length_to_sep ||
    34b8:	d1 2c       	mov	r13, r1
    34ba:	16 c0       	rjmp	.+44     	; 0x34e8 <fat_get_dir_entry_of_path+0xb4>
            length_to_sep = sub_path - path;
            ++sub_path;
        }
        else
        {
            length_to_sep = strlen(path);
    34bc:	fe 01       	movw	r30, r28
    34be:	01 90       	ld	r0, Z+
    34c0:	00 20       	and	r0, r0
    34c2:	e9 f7       	brne	.-6      	; 0x34be <fat_get_dir_entry_of_path+0x8a>
    34c4:	31 97       	sbiw	r30, 0x01	; 1
    34c6:	ec 1b       	sub	r30, r28
    34c8:	fd 0b       	sbc	r31, r29
    34ca:	ce 2e       	mov	r12, r30
            sub_path = path + length_to_sep;
    34cc:	4e 01       	movw	r8, r28
    34ce:	8e 0e       	add	r8, r30
    34d0:	91 1c       	adc	r9, r1
    34d2:	f2 cf       	rjmp	.-28     	; 0x34b8 <fat_get_dir_entry_of_path+0x84>
        
        /* read directory entries */
        while(fat_read_dir(dd, dir_entry))
        {
            /* check if we have found the next hierarchy */
            if((strlen(dir_entry->long_name) != length_to_sep ||
    34d4:	f8 01       	movw	r30, r16
    34d6:	01 90       	ld	r0, Z+
    34d8:	00 20       	and	r0, r0
    34da:	e9 f7       	brne	.-6      	; 0x34d6 <fat_get_dir_entry_of_path+0xa2>
    34dc:	31 97       	sbiw	r30, 0x01	; 1
    34de:	e0 1b       	sub	r30, r16
    34e0:	f1 0b       	sbc	r31, r17
    34e2:	ec 15       	cp	r30, r12
    34e4:	fd 05       	cpc	r31, r13
    34e6:	39 f0       	breq	.+14     	; 0x34f6 <fat_get_dir_entry_of_path+0xc2>
            length_to_sep = strlen(path);
            sub_path = path + length_to_sep;
        }
        
        /* read directory entries */
        while(fat_read_dir(dd, dir_entry))
    34e8:	b8 01       	movw	r22, r16
    34ea:	c7 01       	movw	r24, r14
    34ec:	0e 94 3d 19 	call	0x327a	; 0x327a <fat_read_dir>
    34f0:	81 11       	cpse	r24, r1
    34f2:	f0 cf       	rjmp	.-32     	; 0x34d4 <fat_get_dir_entry_of_path+0xa0>
    34f4:	17 c0       	rjmp	.+46     	; 0x3524 <fat_get_dir_entry_of_path+0xf0>
        {
            /* check if we have found the next hierarchy */
            if((strlen(dir_entry->long_name) != length_to_sep ||
                strncmp(path, dir_entry->long_name, length_to_sep) != 0))
    34f6:	a6 01       	movw	r20, r12
    34f8:	b8 01       	movw	r22, r16
    34fa:	ce 01       	movw	r24, r28
    34fc:	0e 94 96 25 	call	0x4b2c	; 0x4b2c <strncmp>
        
        /* read directory entries */
        while(fat_read_dir(dd, dir_entry))
        {
            /* check if we have found the next hierarchy */
            if((strlen(dir_entry->long_name) != length_to_sep ||
    3500:	89 2b       	or	r24, r25
    3502:	91 f7       	brne	.-28     	; 0x34e8 <fat_get_dir_entry_of_path+0xb4>
                strncmp(path, dir_entry->long_name, length_to_sep) != 0))
                continue;

            fat_close_dir(dd);
    3504:	c7 01       	movw	r24, r14
    3506:	0e 94 2a 19 	call	0x3254	; 0x3254 <fat_close_dir>
            dd = 0;

            if(path[length_to_sep] == '\0')
    350a:	cc 0d       	add	r28, r12
    350c:	dd 1d       	adc	r29, r13
    350e:	88 81       	ld	r24, Y
    3510:	88 23       	and	r24, r24
    3512:	09 f4       	brne	.+2      	; 0x3516 <fat_get_dir_entry_of_path+0xe2>
    3514:	ba cf       	rjmp	.-140    	; 0x348a <fat_get_dir_entry_of_path+0x56>
                /* we iterated through the whole path and have found the file */
                return 1;

            if(dir_entry->attributes & FAT_ATTRIB_DIR)
    3516:	f8 01       	movw	r30, r16
    3518:	80 a1       	ldd	r24, Z+32	; 0x20
    351a:	84 ff       	sbrs	r24, 4
    351c:	07 c0       	rjmp	.+14     	; 0x352c <fat_get_dir_entry_of_path+0xf8>
            {
                /* we found a parent directory of the file we are searching for */
                path = sub_path;
    351e:	e4 01       	movw	r28, r8
            if((strlen(dir_entry->long_name) != length_to_sep ||
                strncmp(path, dir_entry->long_name, length_to_sep) != 0))
                continue;

            fat_close_dir(dd);
            dd = 0;
    3520:	e1 2c       	mov	r14, r1
    3522:	f1 2c       	mov	r15, r1

            /* a parent of the file exists, but not the file itself */
            return 0;
        }

        fat_close_dir(dd);
    3524:	c7 01       	movw	r24, r14
    3526:	0e 94 2a 19 	call	0x3254	; 0x3254 <fat_close_dir>
    }
    352a:	ac cf       	rjmp	.-168    	; 0x3484 <fat_get_dir_entry_of_path+0x50>
 * \see fat_read_dir
 */
uint8_t fat_get_dir_entry_of_path(struct fat_fs_struct* fs, const char* path, struct fat_dir_entry_struct* dir_entry)
{
    if(!fs || !path || path[0] == '\0' || !dir_entry)
        return 0;
    352c:	80 e0       	ldi	r24, 0x00	; 0

        fat_close_dir(dd);
    }
    
    return 0;
}
    352e:	df 91       	pop	r29
    3530:	cf 91       	pop	r28
    3532:	1f 91       	pop	r17
    3534:	0f 91       	pop	r16
    3536:	ff 90       	pop	r15
    3538:	ef 90       	pop	r14
    353a:	df 90       	pop	r13
    353c:	cf 90       	pop	r12
    353e:	bf 90       	pop	r11
    3540:	af 90       	pop	r10
    3542:	9f 90       	pop	r9
    3544:	8f 90       	pop	r8
    3546:	08 95       	ret

00003548 <bad_sdcard>:
static struct fat_dir_struct *dd;
static struct fat_file_struct *fd;
static struct partition_struct *partition;


void bad_sdcard(const char *msg){
    3548:	cf 93       	push	r28
    354a:	df 93       	push	r29
    354c:	ec 01       	movw	r28, r24
	cls();
    354e:	0e 94 23 23 	call	0x4646	; 0x4646 <cls>
	select_font(FONT_ASCII);
    3552:	82 e0       	ldi	r24, 0x02	; 2
    3554:	0e 94 83 1f 	call	0x3f06	; 0x3f06 <select_font>
	prt_pstr(msg);
    3558:	ce 01       	movw	r24, r28
    355a:	0e 94 1e 20 	call	0x403c	; 0x403c <prt_pstr>
	prompt_btn();
}
    355e:	df 91       	pop	r29
    3560:	cf 91       	pop	r28

void bad_sdcard(const char *msg){
	cls();
	select_font(FONT_ASCII);
	prt_pstr(msg);
	prompt_btn();
    3562:	0c 94 fc 1b 	jmp	0x37f8	; 0x37f8 <prompt_btn>

00003566 <fs_mount>:
}


uint8_t fs_mount(){
    3566:	0f 93       	push	r16
		if (get_pin_available()){
    3568:	18 99       	sbic	0x03, 0	; 3
    356a:	3d c0       	rjmp	.+122    	; 0x35e6 <fs_mount+0x80>
			// pas de carte SD
			// dans le lecteur
			return 0;
		}
        /* ouvre la premire partition */
        partition = partition_open(sd_raw_read, sd_raw_read_interval, 0, 0, 0);
    356c:	00 e0       	ldi	r16, 0x00	; 0
    356e:	20 e0       	ldi	r18, 0x00	; 0
    3570:	30 e0       	ldi	r19, 0x00	; 0
    3572:	40 e0       	ldi	r20, 0x00	; 0
    3574:	50 e0       	ldi	r21, 0x00	; 0
    3576:	6a ed       	ldi	r22, 0xDA	; 218
    3578:	7d e1       	ldi	r23, 0x1D	; 29
    357a:	86 e6       	ldi	r24, 0x66	; 102
    357c:	9d e1       	ldi	r25, 0x1D	; 29
    357e:	0e 94 10 1c 	call	0x3820	; 0x3820 <partition_open>
    3582:	90 93 b0 02 	sts	0x02B0, r25
    3586:	80 93 af 02 	sts	0x02AF, r24
        if(!partition)
    358a:	89 2b       	or	r24, r25
    358c:	b1 f4       	brne	.+44     	; 0x35ba <fs_mount+0x54>
        {
            /* Si la partition n'a pas ouvert essaie
             * pour  "superfloppy", i.e. pas de MBR.
             */
            partition = partition_open(sd_raw_read, sd_raw_read_interval, 0, 0, -1);
    358e:	0f ef       	ldi	r16, 0xFF	; 255
    3590:	20 e0       	ldi	r18, 0x00	; 0
    3592:	30 e0       	ldi	r19, 0x00	; 0
    3594:	40 e0       	ldi	r20, 0x00	; 0
    3596:	50 e0       	ldi	r21, 0x00	; 0
    3598:	6a ed       	ldi	r22, 0xDA	; 218
    359a:	7d e1       	ldi	r23, 0x1D	; 29
    359c:	86 e6       	ldi	r24, 0x66	; 102
    359e:	9d e1       	ldi	r25, 0x1D	; 29
    35a0:	0e 94 10 1c 	call	0x3820	; 0x3820 <partition_open>
    35a4:	90 93 b0 02 	sts	0x02B0, r25
    35a8:	80 93 af 02 	sts	0x02AF, r24
            if(!partition)
    35ac:	89 2b       	or	r24, r25
    35ae:	29 f4       	brne	.+10     	; 0x35ba <fs_mount+0x54>
            {   // rien  faire avec cette carte
                bad_sdcard(PSTR("Echec acces partition\n"));
    35b0:	88 e8       	ldi	r24, 0x88	; 136
    35b2:	90 e1       	ldi	r25, 0x10	; 16
    35b4:	0e 94 a4 1a 	call	0x3548	; 0x3548 <bad_sdcard>
    35b8:	16 c0       	rjmp	.+44     	; 0x35e6 <fs_mount+0x80>
				return 0;
			}
        }

        /* ouvre le systme de fichiers */
        fs = fat_open(partition);
    35ba:	80 91 af 02 	lds	r24, 0x02AF
    35be:	90 91 b0 02 	lds	r25, 0x02B0
    35c2:	0e 94 1e 16 	call	0x2c3c	; 0x2c3c <fat_open>
    35c6:	90 93 b6 02 	sts	0x02B6, r25
    35ca:	80 93 b5 02 	sts	0x02B5, r24
        if(!fs)
    35ce:	89 2b       	or	r24, r25
    35d0:	61 f4       	brne	.+24     	; 0x35ea <fs_mount+0x84>
        {
            bad_sdcard(PSTR("Echec acces fichiers\n"));
    35d2:	82 e7       	ldi	r24, 0x72	; 114
    35d4:	90 e1       	ldi	r25, 0x10	; 16
    35d6:	0e 94 a4 1a 	call	0x3548	; 0x3548 <bad_sdcard>
			partition_close(partition);
    35da:	80 91 af 02 	lds	r24, 0x02AF
    35de:	90 91 b0 02 	lds	r25, 0x02B0
    35e2:	0e 94 9b 1c 	call	0x3936	; 0x3936 <partition_close>
			return 0;
    35e6:	80 e0       	ldi	r24, 0x00	; 0
    35e8:	01 c0       	rjmp	.+2      	; 0x35ec <fs_mount+0x86>
		}

		return 1;
    35ea:	81 e0       	ldi	r24, 0x01	; 1
}
    35ec:	0f 91       	pop	r16
    35ee:	08 95       	ret

000035f0 <fs_umount>:

void fs_umount(){
	fat_close_file(fd);
    35f0:	80 91 b1 02 	lds	r24, 0x02B1
    35f4:	90 91 b2 02 	lds	r25, 0x02B2
    35f8:	0e 94 d7 17 	call	0x2fae	; 0x2fae <fat_close_file>
	fat_close_dir(dd);
    35fc:	80 91 b3 02 	lds	r24, 0x02B3
    3600:	90 91 b4 02 	lds	r25, 0x02B4
    3604:	0e 94 2a 19 	call	0x3254	; 0x3254 <fat_close_dir>
	fat_close(fs);
    3608:	80 91 b5 02 	lds	r24, 0x02B5
    360c:	90 91 b6 02 	lds	r25, 0x02B6
    3610:	0e 94 9b 17 	call	0x2f36	; 0x2f36 <fat_close>
	partition_close(partition);	
    3614:	80 91 af 02 	lds	r24, 0x02AF
    3618:	90 91 b0 02 	lds	r25, 0x02B0
    361c:	0c 94 9b 1c 	jmp	0x3936	; 0x3936 <partition_close>

00003620 <fs_open_dir>:
}


uint8_t  fs_open_dir(char *dir_name){
    3620:	cf 93       	push	r28
    3622:	df 93       	push	r29
    3624:	cd b7       	in	r28, 0x3d	; 61
    3626:	de b7       	in	r29, 0x3e	; 62
    3628:	ab 97       	sbiw	r28, 0x2b	; 43
    362a:	0f b6       	in	r0, 0x3f	; 63
    362c:	f8 94       	cli
    362e:	de bf       	out	0x3e, r29	; 62
    3630:	0f be       	out	0x3f, r0	; 63
    3632:	cd bf       	out	0x3d, r28	; 61
        /* ouvre le rpertoire dir_name */
        struct fat_dir_entry_struct directory;
        fat_get_dir_entry_of_path(fs, dir_name, &directory);
    3634:	ae 01       	movw	r20, r28
    3636:	4f 5f       	subi	r20, 0xFF	; 255
    3638:	5f 4f       	sbci	r21, 0xFF	; 255
    363a:	bc 01       	movw	r22, r24
    363c:	80 91 b5 02 	lds	r24, 0x02B5
    3640:	90 91 b6 02 	lds	r25, 0x02B6
    3644:	0e 94 1a 1a 	call	0x3434	; 0x3434 <fat_get_dir_entry_of_path>
        dd = fat_open_dir(fs, &directory);
    3648:	be 01       	movw	r22, r28
    364a:	6f 5f       	subi	r22, 0xFF	; 255
    364c:	7f 4f       	sbci	r23, 0xFF	; 255
    364e:	80 91 b5 02 	lds	r24, 0x02B5
    3652:	90 91 b6 02 	lds	r25, 0x02B6
    3656:	0e 94 fc 18 	call	0x31f8	; 0x31f8 <fat_open_dir>
    365a:	90 93 b4 02 	sts	0x02B4, r25
    365e:	80 93 b3 02 	sts	0x02B3, r24
        if(!dd)
    3662:	89 2b       	or	r24, r25
    3664:	41 f4       	brne	.+16     	; 0x3676 <fs_open_dir+0x56>
        {
	        bad_sdcard(PSTR("Echec acces repert.\n"));
    3666:	8d e5       	ldi	r24, 0x5D	; 93
    3668:	90 e1       	ldi	r25, 0x10	; 16
    366a:	0e 94 a4 1a 	call	0x3548	; 0x3548 <bad_sdcard>
			fs_umount();
    366e:	0e 94 f8 1a 	call	0x35f0	; 0x35f0 <fs_umount>
	        return 0;
    3672:	80 e0       	ldi	r24, 0x00	; 0
    3674:	01 c0       	rjmp	.+2      	; 0x3678 <fs_open_dir+0x58>
        }
        return 1;
    3676:	81 e0       	ldi	r24, 0x01	; 1
}
    3678:	ab 96       	adiw	r28, 0x2b	; 43
    367a:	0f b6       	in	r0, 0x3f	; 63
    367c:	f8 94       	cli
    367e:	de bf       	out	0x3e, r29	; 62
    3680:	0f be       	out	0x3f, r0	; 63
    3682:	cd bf       	out	0x3d, r28	; 61
    3684:	df 91       	pop	r29
    3686:	cf 91       	pop	r28
    3688:	08 95       	ret

0000368a <fs_open_file>:

void fs_close_dir(){
	fat_close_dir(dd);
}

uint8_t fs_open_file(char *file_name){
    368a:	0f 93       	push	r16
    368c:	1f 93       	push	r17
    368e:	cf 93       	push	r28
    3690:	df 93       	push	r29
    3692:	cd b7       	in	r28, 0x3d	; 61
    3694:	de b7       	in	r29, 0x3e	; 62
    3696:	ab 97       	sbiw	r28, 0x2b	; 43
    3698:	0f b6       	in	r0, 0x3f	; 63
    369a:	f8 94       	cli
    369c:	de bf       	out	0x3e, r29	; 62
    369e:	0f be       	out	0x3f, r0	; 63
    36a0:	cd bf       	out	0x3d, r28	; 61
    36a2:	8c 01       	movw	r16, r24
	uint8_t found=0;
	struct fat_dir_entry_struct dir_entry;
	while(fat_read_dir(dd, &dir_entry))
    36a4:	be 01       	movw	r22, r28
    36a6:	6f 5f       	subi	r22, 0xFF	; 255
    36a8:	7f 4f       	sbci	r23, 0xFF	; 255
    36aa:	80 91 b3 02 	lds	r24, 0x02B3
    36ae:	90 91 b4 02 	lds	r25, 0x02B4
    36b2:	0e 94 3d 19 	call	0x327a	; 0x327a <fat_read_dir>
    36b6:	88 23       	and	r24, r24
    36b8:	19 f1       	breq	.+70     	; 0x3700 <fs_open_file+0x76>
	{
		if(strcmp(dir_entry.long_name, file_name) == 0)
    36ba:	b8 01       	movw	r22, r16
    36bc:	ce 01       	movw	r24, r28
    36be:	01 96       	adiw	r24, 0x01	; 1
    36c0:	0e 94 86 25 	call	0x4b0c	; 0x4b0c <strcmp>
    36c4:	89 2b       	or	r24, r25
    36c6:	71 f7       	brne	.-36     	; 0x36a4 <fs_open_file+0x1a>
		{
			fat_reset_dir(dd);
    36c8:	80 91 b3 02 	lds	r24, 0x02B3
    36cc:	90 91 b4 02 	lds	r25, 0x02B4
    36d0:	0e 94 30 19 	call	0x3260	; 0x3260 <fat_reset_dir>
			break;
		}
	}

	if (!found) return 0;
    fd=fat_open_file(fs, &dir_entry);
    36d4:	be 01       	movw	r22, r28
    36d6:	6f 5f       	subi	r22, 0xFF	; 255
    36d8:	7f 4f       	sbci	r23, 0xFF	; 255
    36da:	80 91 b5 02 	lds	r24, 0x02B5
    36de:	90 91 b6 02 	lds	r25, 0x02B6
    36e2:	0e 94 a1 17 	call	0x2f42	; 0x2f42 <fat_open_file>
    36e6:	90 93 b2 02 	sts	0x02B2, r25
    36ea:	80 93 b1 02 	sts	0x02B1, r24
	if(!fd){	
    36ee:	89 2b       	or	r24, r25
    36f0:	11 f0       	breq	.+4      	; 0x36f6 <fs_open_file+0x6c>
		bad_sdcard(PSTR("Echec ouvert. fich.\n"));
		return 0;
	}
	//print(fd->dir_entry.long_name);
	return 1;
    36f2:	81 e0       	ldi	r24, 0x01	; 1
    36f4:	05 c0       	rjmp	.+10     	; 0x3700 <fs_open_file+0x76>
	}

	if (!found) return 0;
    fd=fat_open_file(fs, &dir_entry);
	if(!fd){	
		bad_sdcard(PSTR("Echec ouvert. fich.\n"));
    36f6:	88 e4       	ldi	r24, 0x48	; 72
    36f8:	90 e1       	ldi	r25, 0x10	; 16
    36fa:	0e 94 a4 1a 	call	0x3548	; 0x3548 <bad_sdcard>
		return 0;
    36fe:	80 e0       	ldi	r24, 0x00	; 0
	}
	//print(fd->dir_entry.long_name);
	return 1;
}
    3700:	ab 96       	adiw	r28, 0x2b	; 43
    3702:	0f b6       	in	r0, 0x3f	; 63
    3704:	f8 94       	cli
    3706:	de bf       	out	0x3e, r29	; 62
    3708:	0f be       	out	0x3f, r0	; 63
    370a:	cd bf       	out	0x3d, r28	; 61
    370c:	df 91       	pop	r29
    370e:	cf 91       	pop	r28
    3710:	1f 91       	pop	r17
    3712:	0f 91       	pop	r16
    3714:	08 95       	ret

00003716 <fs_close_file>:


void fs_close_file(){
	fat_close_file(fd);
    3716:	80 91 b1 02 	lds	r24, 0x02B1
    371a:	90 91 b2 02 	lds	r25, 0x02B2
    371e:	0c 94 d7 17 	jmp	0x2fae	; 0x2fae <fat_close_file>

00003722 <fs_load_file>:
}

#define BUFF_SIZE (256)
// charge le fichier CHIP-8 dans la SRAM
// retourne nombres d'octets
uint8_t fs_load_file(uint16_t file_no){
    3722:	ef 92       	push	r14
    3724:	ff 92       	push	r15
    3726:	0f 93       	push	r16
    3728:	1f 93       	push	r17
    372a:	cf 93       	push	r28
    372c:	df 93       	push	r29
    372e:	cd b7       	in	r28, 0x3d	; 61
    3730:	de b7       	in	r29, 0x3e	; 62
    3732:	da 95       	dec	r29
    3734:	0f b6       	in	r0, 0x3f	; 63
    3736:	f8 94       	cli
    3738:	de bf       	out	0x3e, r29	; 62
    373a:	0f be       	out	0x3f, r0	; 63
    373c:	cd bf       	out	0x3d, r28	; 61
	uint16_t byte_count=0;
	intptr_t count;
	uint8_t buffer[256];
	sram_load_block(ENTRY_SIZE*file_no,ENTRY_SIZE,buffer);
    373e:	ae 01       	movw	r20, r28
    3740:	4f 5f       	subi	r20, 0xFF	; 255
    3742:	5f 4f       	sbci	r21, 0xFF	; 255
    3744:	60 e2       	ldi	r22, 0x20	; 32
    3746:	70 e0       	ldi	r23, 0x00	; 0
    3748:	25 e0       	ldi	r18, 0x05	; 5
    374a:	88 0f       	add	r24, r24
    374c:	99 1f       	adc	r25, r25
    374e:	2a 95       	dec	r18
    3750:	e1 f7       	brne	.-8      	; 0x374a <fs_load_file+0x28>
    3752:	0e 94 32 1f 	call	0x3e64	; 0x3e64 <sram_load_block>
	if (fs_open_file((char*)buffer)){
    3756:	ce 01       	movw	r24, r28
    3758:	01 96       	adiw	r24, 0x01	; 1
    375a:	0e 94 45 1b 	call	0x368a	; 0x368a <fs_open_file>
    375e:	00 e0       	ldi	r16, 0x00	; 0
    3760:	10 e0       	ldi	r17, 0x00	; 0
    3762:	88 23       	and	r24, r24
    3764:	d9 f0       	breq	.+54     	; 0x379c <fs_load_file+0x7a>
		//print(fd->dir_entry.long_name);new_line();
		while((byte_count<SRAM_SIZE) && ((count = fat_read_file(fd, buffer, 256)) > 0)){
    3766:	40 e0       	ldi	r20, 0x00	; 0
    3768:	51 e0       	ldi	r21, 0x01	; 1
    376a:	be 01       	movw	r22, r28
    376c:	6f 5f       	subi	r22, 0xFF	; 255
    376e:	7f 4f       	sbci	r23, 0xFF	; 255
    3770:	80 91 b1 02 	lds	r24, 0x02B1
    3774:	90 91 b2 02 	lds	r25, 0x02B2
    3778:	0e 94 dd 17 	call	0x2fba	; 0x2fba <fat_read_file>
    377c:	7c 01       	movw	r14, r24
    377e:	18 16       	cp	r1, r24
    3780:	19 06       	cpc	r1, r25
    3782:	54 f4       	brge	.+20     	; 0x3798 <fs_load_file+0x76>
			sram_store_block(CODE_BASE_ADDR+byte_count,(uint16_t)count,buffer);
    3784:	ae 01       	movw	r20, r28
    3786:	4f 5f       	subi	r20, 0xFF	; 255
    3788:	5f 4f       	sbci	r21, 0xFF	; 255
    378a:	b7 01       	movw	r22, r14
    378c:	c8 01       	movw	r24, r16
    378e:	0e 94 5b 1f 	call	0x3eb6	; 0x3eb6 <sram_store_block>
			byte_count+=(uint16_t)count;
    3792:	0e 0d       	add	r16, r14
    3794:	1f 1d       	adc	r17, r15
    3796:	e7 cf       	rjmp	.-50     	; 0x3766 <fs_load_file+0x44>
		}
		fs_close_file();
    3798:	0e 94 8b 1b 	call	0x3716	; 0x3716 <fs_close_file>
	}
	return byte_count;
}
    379c:	80 2f       	mov	r24, r16
    379e:	d3 95       	inc	r29
    37a0:	0f b6       	in	r0, 0x3f	; 63
    37a2:	f8 94       	cli
    37a4:	de bf       	out	0x3e, r29	; 62
    37a6:	0f be       	out	0x3f, r0	; 63
    37a8:	cd bf       	out	0x3d, r28	; 61
    37aa:	df 91       	pop	r29
    37ac:	cf 91       	pop	r28
    37ae:	1f 91       	pop	r17
    37b0:	0f 91       	pop	r16
    37b2:	ff 90       	pop	r15
    37b4:	ef 90       	pop	r14
    37b6:	08 95       	ret

000037b8 <fs_read_dir>:

inline uint8_t fs_read_dir(struct fat_dir_entry_struct *dir_entry){
	return fat_read_dir(dd, dir_entry);	
    37b8:	bc 01       	movw	r22, r24
    37ba:	80 91 b3 02 	lds	r24, 0x02B3
    37be:	90 91 b4 02 	lds	r25, 0x02B4
    37c2:	0c 94 3d 19 	jmp	0x327a	; 0x327a <fat_read_dir>

000037c6 <joystick_btn_down>:
#include "text.h"
#include "tone.h"

//retourne l'tat du bouton
inline uint8_t joystick_btn_down(uint8_t btn){
	return (JSTK_PIN & btn)==0;
    37c6:	96 b1       	in	r25, 0x06	; 6
    37c8:	98 23       	and	r25, r24
    37ca:	81 e0       	ldi	r24, 0x01	; 1
    37cc:	09 f0       	breq	.+2      	; 0x37d0 <joystick_btn_down+0xa>
    37ce:	80 e0       	ldi	r24, 0x00	; 0
}//f()
    37d0:	08 95       	ret

000037d2 <joystick_wait_any>:

//attend qu'un bouton sois enfonc.
uint8_t joystick_wait_any(){
	while ((JSTK_PIN & JSTK_IMASK)==JSTK_IMASK);
    37d2:	86 b1       	in	r24, 0x06	; 6
    37d4:	8e 73       	andi	r24, 0x3E	; 62
    37d6:	8e 33       	cpi	r24, 0x3E	; 62
    37d8:	e1 f3       	breq	.-8      	; 0x37d2 <joystick_wait_any>
	return (~(JSTK_PIN & JSTK_IMASK))&JSTK_IMASK;
    37da:	86 b1       	in	r24, 0x06	; 6
    37dc:	80 95       	com	r24
}//f()
    37de:	8e 73       	andi	r24, 0x3E	; 62
    37e0:	08 95       	ret

000037e2 <joystick_wait_release>:

inline void joystick_wait_release(){
	while ((JSTK_PIN&JSTK_IMASK)!=JSTK_IMASK)tone(500,2);
    37e2:	86 b1       	in	r24, 0x06	; 6
    37e4:	8e 73       	andi	r24, 0x3E	; 62
    37e6:	8e 33       	cpi	r24, 0x3E	; 62
    37e8:	31 f0       	breq	.+12     	; 0x37f6 <joystick_wait_release+0x14>
    37ea:	62 e0       	ldi	r22, 0x02	; 2
    37ec:	84 ef       	ldi	r24, 0xF4	; 244
    37ee:	91 e0       	ldi	r25, 0x01	; 1
    37f0:	0e 94 df 20 	call	0x41be	; 0x41be <tone>
    37f4:	f6 cf       	rjmp	.-20     	; 0x37e2 <joystick_wait_release>
}//f()
    37f6:	08 95       	ret

000037f8 <prompt_btn>:

void prompt_btn(){
	prt_pstr(PSTR("bouton..."));
    37f8:	8f e9       	ldi	r24, 0x9F	; 159
    37fa:	90 e1       	ldi	r25, 0x10	; 16
    37fc:	0e 94 1e 20 	call	0x403c	; 0x403c <prt_pstr>
	while (JSTK_PIN&BTN_FIRE);
    3800:	35 99       	sbic	0x06, 5	; 6
    3802:	fe cf       	rjmp	.-4      	; 0x3800 <prompt_btn+0x8>
    joystick_wait_release();
    3804:	0c 94 f1 1b 	jmp	0x37e2	; 0x37e2 <joystick_wait_release>

00003808 <joystick_break>:
}//f()

uint8_t joystick_break(){
	if (!(JSTK_PIN & (BTN_UP|BTN_DOWN))||(!(JSTK_PIN&(BTN_LEFT|BTN_RIGHT)))){
    3808:	86 b1       	in	r24, 0x06	; 6
    380a:	86 70       	andi	r24, 0x06	; 6
    380c:	19 f0       	breq	.+6      	; 0x3814 <joystick_break+0xc>
    380e:	86 b1       	in	r24, 0x06	; 6
    3810:	88 71       	andi	r24, 0x18	; 24
    3812:	21 f4       	brne	.+8      	; 0x381c <joystick_break+0x14>
		joystick_wait_release();
    3814:	0e 94 f1 1b 	call	0x37e2	; 0x37e2 <joystick_wait_release>
		return 1;
    3818:	81 e0       	ldi	r24, 0x01	; 1
    381a:	08 95       	ret
	}
	return 0;
    381c:	80 e0       	ldi	r24, 0x00	; 0
}//f()
    381e:	08 95       	ret

00003820 <partition_open>:
 *                  as a single partition (e.g. for "super floppy" use).
 * \returns 0 on failure, a partition descriptor on success.
 * \see partition_close
 */
struct partition_struct* partition_open(device_read_t device_read, device_read_interval_t device_read_interval, device_write_t device_write, device_write_interval_t device_write_interval, int8_t index)
{
    3820:	8f 92       	push	r8
    3822:	9f 92       	push	r9
    3824:	af 92       	push	r10
    3826:	bf 92       	push	r11
    3828:	cf 92       	push	r12
    382a:	df 92       	push	r13
    382c:	ef 92       	push	r14
    382e:	ff 92       	push	r15
    3830:	0f 93       	push	r16
    3832:	cf 93       	push	r28
    3834:	df 93       	push	r29
    3836:	cd b7       	in	r28, 0x3d	; 61
    3838:	de b7       	in	r29, 0x3e	; 62
    383a:	60 97       	sbiw	r28, 0x10	; 16
    383c:	0f b6       	in	r0, 0x3f	; 63
    383e:	f8 94       	cli
    3840:	de bf       	out	0x3e, r29	; 62
    3842:	0f be       	out	0x3f, r0	; 63
    3844:	cd bf       	out	0x3d, r28	; 61
    3846:	7c 01       	movw	r14, r24
    3848:	6b 01       	movw	r12, r22
    384a:	4a 01       	movw	r8, r20
    384c:	59 01       	movw	r10, r18
    struct partition_struct* new_partition = 0;
    uint8_t buffer[0x10];

    if(!device_read || !device_read_interval || index >= 4)
    384e:	00 97       	sbiw	r24, 0x00	; 0
    3850:	19 f4       	brne	.+6      	; 0x3858 <partition_open+0x38>
        return 0;
    3852:	80 e0       	ldi	r24, 0x00	; 0
    3854:	90 e0       	ldi	r25, 0x00	; 0
    3856:	5d c0       	rjmp	.+186    	; 0x3912 <partition_open+0xf2>
struct partition_struct* partition_open(device_read_t device_read, device_read_interval_t device_read_interval, device_write_t device_write, device_write_interval_t device_write_interval, int8_t index)
{
    struct partition_struct* new_partition = 0;
    uint8_t buffer[0x10];

    if(!device_read || !device_read_interval || index >= 4)
    3858:	61 15       	cp	r22, r1
    385a:	71 05       	cpc	r23, r1
    385c:	d1 f3       	breq	.-12     	; 0x3852 <partition_open+0x32>
    385e:	04 30       	cpi	r16, 0x04	; 4
    3860:	c4 f7       	brge	.-16     	; 0x3852 <partition_open+0x32>
        return 0;

    if(index >= 0)
    3862:	07 ff       	sbrs	r16, 7
    3864:	05 c0       	rjmp	.+10     	; 0x3870 <partition_open+0x50>
#else
    new_partition = partition_handles;
    uint8_t i;
    for(i = 0; i < PARTITION_COUNT; ++i)
    {
        if(new_partition->type == PARTITION_TYPE_FREE)
    3866:	80 91 bf 02 	lds	r24, 0x02BF
    386a:	81 11       	cpse	r24, r1
    386c:	f2 cf       	rjmp	.-28     	; 0x3852 <partition_open+0x32>
    386e:	17 c0       	rjmp	.+46     	; 0x389e <partition_open+0x7e>
        return 0;

    if(index >= 0)
    {
        /* read specified partition table index */
        if(!device_read(0x01be + index * 0x10, buffer, sizeof(buffer)))
    3870:	80 e1       	ldi	r24, 0x10	; 16
    3872:	08 02       	muls	r16, r24
    3874:	b0 01       	movw	r22, r0
    3876:	11 24       	eor	r1, r1
    3878:	62 54       	subi	r22, 0x42	; 66
    387a:	7e 4f       	sbci	r23, 0xFE	; 254
    387c:	88 27       	eor	r24, r24
    387e:	77 fd       	sbrc	r23, 7
    3880:	80 95       	com	r24
    3882:	98 2f       	mov	r25, r24
    3884:	20 e1       	ldi	r18, 0x10	; 16
    3886:	30 e0       	ldi	r19, 0x00	; 0
    3888:	ae 01       	movw	r20, r28
    388a:	4f 5f       	subi	r20, 0xFF	; 255
    388c:	5f 4f       	sbci	r21, 0xFF	; 255
    388e:	f7 01       	movw	r30, r14
    3890:	09 95       	icall
    3892:	88 23       	and	r24, r24
    3894:	f1 f2       	breq	.-68     	; 0x3852 <partition_open+0x32>
            return 0;

        /* abort on empty partition entry */
        if(buffer[4] == 0x00)
    3896:	8d 81       	ldd	r24, Y+5	; 0x05
    3898:	81 11       	cpse	r24, r1
    389a:	e5 cf       	rjmp	.-54     	; 0x3866 <partition_open+0x46>
    389c:	da cf       	rjmp	.-76     	; 0x3852 <partition_open+0x32>
    }
    if(i >= PARTITION_COUNT)
        return 0;
#endif

    memset(new_partition, 0, sizeof(*new_partition));
    389e:	81 e1       	ldi	r24, 0x11	; 17
    38a0:	e7 eb       	ldi	r30, 0xB7	; 183
    38a2:	f2 e0       	ldi	r31, 0x02	; 2
    38a4:	df 01       	movw	r26, r30
    38a6:	1d 92       	st	X+, r1
    38a8:	8a 95       	dec	r24
    38aa:	e9 f7       	brne	.-6      	; 0x38a6 <partition_open+0x86>

    /* fill partition descriptor */
    new_partition->device_read = device_read;
    38ac:	f0 92 b8 02 	sts	0x02B8, r15
    38b0:	e0 92 b7 02 	sts	0x02B7, r14
    new_partition->device_read_interval = device_read_interval;
    38b4:	d0 92 ba 02 	sts	0x02BA, r13
    38b8:	c0 92 b9 02 	sts	0x02B9, r12
    new_partition->device_write = device_write;
    38bc:	90 92 bc 02 	sts	0x02BC, r9
    38c0:	80 92 bb 02 	sts	0x02BB, r8
    new_partition->device_write_interval = device_write_interval;
    38c4:	b0 92 be 02 	sts	0x02BE, r11
    38c8:	a0 92 bd 02 	sts	0x02BD, r10

    if(index >= 0)
    38cc:	07 fd       	sbrc	r16, 7
    38ce:	1c c0       	rjmp	.+56     	; 0x3908 <partition_open+0xe8>
    {
        new_partition->type = buffer[4];
    38d0:	8d 81       	ldd	r24, Y+5	; 0x05
    38d2:	80 93 bf 02 	sts	0x02BF, r24
        new_partition->offset = read32(&buffer[8]);
    38d6:	ce 01       	movw	r24, r28
    38d8:	09 96       	adiw	r24, 0x09	; 9
    38da:	0e 94 fa 0e 	call	0x1df4	; 0x1df4 <read32>
    38de:	60 93 c0 02 	sts	0x02C0, r22
    38e2:	70 93 c1 02 	sts	0x02C1, r23
    38e6:	80 93 c2 02 	sts	0x02C2, r24
    38ea:	90 93 c3 02 	sts	0x02C3, r25
        new_partition->length = read32(&buffer[12]);
    38ee:	ce 01       	movw	r24, r28
    38f0:	0d 96       	adiw	r24, 0x0d	; 13
    38f2:	0e 94 fa 0e 	call	0x1df4	; 0x1df4 <read32>
    38f6:	60 93 c4 02 	sts	0x02C4, r22
    38fa:	70 93 c5 02 	sts	0x02C5, r23
    38fe:	80 93 c6 02 	sts	0x02C6, r24
    3902:	90 93 c7 02 	sts	0x02C7, r25
    3906:	03 c0       	rjmp	.+6      	; 0x390e <partition_open+0xee>
    }
    else
    {
        new_partition->type = 0xff;
    3908:	8f ef       	ldi	r24, 0xFF	; 255
    390a:	80 93 bf 02 	sts	0x02BF, r24
    390e:	87 eb       	ldi	r24, 0xB7	; 183
    3910:	92 e0       	ldi	r25, 0x02	; 2
    }

    return new_partition;
}
    3912:	60 96       	adiw	r28, 0x10	; 16
    3914:	0f b6       	in	r0, 0x3f	; 63
    3916:	f8 94       	cli
    3918:	de bf       	out	0x3e, r29	; 62
    391a:	0f be       	out	0x3f, r0	; 63
    391c:	cd bf       	out	0x3d, r28	; 61
    391e:	df 91       	pop	r29
    3920:	cf 91       	pop	r28
    3922:	0f 91       	pop	r16
    3924:	ff 90       	pop	r15
    3926:	ef 90       	pop	r14
    3928:	df 90       	pop	r13
    392a:	cf 90       	pop	r12
    392c:	bf 90       	pop	r11
    392e:	af 90       	pop	r10
    3930:	9f 90       	pop	r9
    3932:	8f 90       	pop	r8
    3934:	08 95       	ret

00003936 <partition_close>:
 * \returns 0 on failure, 1 on success.
 * \see partition_open
 */
uint8_t partition_close(struct partition_struct* partition)
{
    if(!partition)
    3936:	00 97       	sbiw	r24, 0x00	; 0
    3938:	21 f0       	breq	.+8      	; 0x3942 <partition_close+0xc>

    /* destroy partition descriptor */
#if USE_DYNAMIC_MEMORY
    free(partition);
#else
    partition->type = PARTITION_TYPE_FREE;
    393a:	fc 01       	movw	r30, r24
    393c:	10 86       	std	Z+8, r1	; 0x08
#endif

    return 1;
    393e:	81 e0       	ldi	r24, 0x01	; 1
    3940:	08 95       	ret
 * \see partition_open
 */
uint8_t partition_close(struct partition_struct* partition)
{
    if(!partition)
        return 0;
    3942:	80 e0       	ldi	r24, 0x00	; 0
#else
    partition->type = PARTITION_TYPE_FREE;
#endif

    return 1;
}
    3944:	08 95       	ret

00003946 <sd_raw_send_byte>:
 * \param[in] b The byte to sent.
 * \see sd_raw_rec_byte
 */
void sd_raw_send_byte(uint8_t b)
{
    SPDR = b;
    3946:	8e bd       	out	0x2e, r24	; 46
    /* wait for byte to be shifted out */
    while(!(SPSR & (1 << SPIF)));
    3948:	0d b4       	in	r0, 0x2d	; 45
    394a:	07 fe       	sbrs	r0, 7
    394c:	fd cf       	rjmp	.-6      	; 0x3948 <sd_raw_send_byte+0x2>
    SPSR &= ~(1 << SPIF);
    394e:	8d b5       	in	r24, 0x2d	; 45
    3950:	8f 77       	andi	r24, 0x7F	; 127
    3952:	8d bd       	out	0x2d, r24	; 45
    3954:	08 95       	ret

00003956 <sd_raw_rec_byte>:
 * \see sd_raw_send_byte
 */
uint8_t sd_raw_rec_byte()
{
    /* send dummy data for receiving some */
    SPDR = 0xff;
    3956:	8f ef       	ldi	r24, 0xFF	; 255
    3958:	8e bd       	out	0x2e, r24	; 46
    while(!(SPSR & (1 << SPIF)));
    395a:	0d b4       	in	r0, 0x2d	; 45
    395c:	07 fe       	sbrs	r0, 7
    395e:	fd cf       	rjmp	.-6      	; 0x395a <sd_raw_rec_byte+0x4>
    SPSR &= ~(1 << SPIF);
    3960:	8d b5       	in	r24, 0x2d	; 45
    3962:	8f 77       	andi	r24, 0x7F	; 127
    3964:	8d bd       	out	0x2d, r24	; 45

    return SPDR;
    3966:	8e b5       	in	r24, 0x2e	; 46
}
    3968:	08 95       	ret

0000396a <sd_raw_send_command>:
 * \param[in] command The command to send.
 * \param[in] arg The argument for command.
 * \returns The command answer.
 */
uint8_t sd_raw_send_command(uint8_t command, uint32_t arg)
{
    396a:	1f 93       	push	r17
    396c:	cf 93       	push	r28
    396e:	df 93       	push	r29
    3970:	00 d0       	rcall	.+0      	; 0x3972 <sd_raw_send_command+0x8>
    3972:	00 d0       	rcall	.+0      	; 0x3974 <sd_raw_send_command+0xa>
    3974:	cd b7       	in	r28, 0x3d	; 61
    3976:	de b7       	in	r29, 0x3e	; 62
    3978:	18 2f       	mov	r17, r24
    uint8_t response;

    /* wait some clock cycles */
    sd_raw_rec_byte();
    397a:	4c 83       	std	Y+4, r20	; 0x04
    397c:	5b 83       	std	Y+3, r21	; 0x03
    397e:	6a 83       	std	Y+2, r22	; 0x02
    3980:	79 83       	std	Y+1, r23	; 0x01
    3982:	0e 94 ab 1c 	call	0x3956	; 0x3956 <sd_raw_rec_byte>

    /* send command via SPI */
    sd_raw_send_byte(0x40 | command);
    3986:	81 2f       	mov	r24, r17
    3988:	80 64       	ori	r24, 0x40	; 64
    398a:	0e 94 a3 1c 	call	0x3946	; 0x3946 <sd_raw_send_byte>
    sd_raw_send_byte((arg >> 24) & 0xff);
    398e:	79 81       	ldd	r23, Y+1	; 0x01
    3990:	87 2f       	mov	r24, r23
    3992:	0e 94 a3 1c 	call	0x3946	; 0x3946 <sd_raw_send_byte>
    sd_raw_send_byte((arg >> 16) & 0xff);
    3996:	6a 81       	ldd	r22, Y+2	; 0x02
    3998:	86 2f       	mov	r24, r22
    399a:	0e 94 a3 1c 	call	0x3946	; 0x3946 <sd_raw_send_byte>
    sd_raw_send_byte((arg >> 8) & 0xff);
    399e:	5b 81       	ldd	r21, Y+3	; 0x03
    39a0:	85 2f       	mov	r24, r21
    39a2:	0e 94 a3 1c 	call	0x3946	; 0x3946 <sd_raw_send_byte>
    sd_raw_send_byte((arg >> 0) & 0xff);
    39a6:	4c 81       	ldd	r20, Y+4	; 0x04
    39a8:	84 2f       	mov	r24, r20
    39aa:	0e 94 a3 1c 	call	0x3946	; 0x3946 <sd_raw_send_byte>
    switch(command)
    39ae:	11 23       	and	r17, r17
    39b0:	21 f0       	breq	.+8      	; 0x39ba <sd_raw_send_command+0x50>
    39b2:	18 30       	cpi	r17, 0x08	; 8
    39b4:	39 f4       	brne	.+14     	; 0x39c4 <sd_raw_send_command+0x5a>
    {
        case CMD_GO_IDLE_STATE:
           sd_raw_send_byte(0x95);
           break;
        case CMD_SEND_IF_COND:
           sd_raw_send_byte(0x87);
    39b6:	87 e8       	ldi	r24, 0x87	; 135
    39b8:	01 c0       	rjmp	.+2      	; 0x39bc <sd_raw_send_command+0x52>
    sd_raw_send_byte((arg >> 8) & 0xff);
    sd_raw_send_byte((arg >> 0) & 0xff);
    switch(command)
    {
        case CMD_GO_IDLE_STATE:
           sd_raw_send_byte(0x95);
    39ba:	85 e9       	ldi	r24, 0x95	; 149
    39bc:	0e 94 a3 1c 	call	0x3946	; 0x3946 <sd_raw_send_byte>
 * \param[in] command The command to send.
 * \param[in] arg The argument for command.
 * \returns The command answer.
 */
uint8_t sd_raw_send_command(uint8_t command, uint32_t arg)
{
    39c0:	1a e0       	ldi	r17, 0x0A	; 10
    39c2:	04 c0       	rjmp	.+8      	; 0x39cc <sd_raw_send_command+0x62>
           break;
        case CMD_SEND_IF_COND:
           sd_raw_send_byte(0x87);
           break;
        default:
           sd_raw_send_byte(0xff);
    39c4:	8f ef       	ldi	r24, 0xFF	; 255
    39c6:	fa cf       	rjmp	.-12     	; 0x39bc <sd_raw_send_command+0x52>
    39c8:	11 50       	subi	r17, 0x01	; 1
           break;
    }
    
    /* receive response */
    for(uint8_t i = 0; i < 10; ++i)
    39ca:	21 f0       	breq	.+8      	; 0x39d4 <sd_raw_send_command+0x6a>
    {
        response = sd_raw_rec_byte();
    39cc:	0e 94 ab 1c 	call	0x3956	; 0x3956 <sd_raw_rec_byte>
        if(response != 0xff)
    39d0:	8f 3f       	cpi	r24, 0xFF	; 255
    39d2:	d1 f3       	breq	.-12     	; 0x39c8 <sd_raw_send_command+0x5e>
            break;
    }

    return response;
}
    39d4:	0f 90       	pop	r0
    39d6:	0f 90       	pop	r0
    39d8:	0f 90       	pop	r0
    39da:	0f 90       	pop	r0
    39dc:	df 91       	pop	r29
    39de:	cf 91       	pop	r28
    39e0:	1f 91       	pop	r17
    39e2:	08 95       	ret

000039e4 <sd_raw_available>:
 *
 * \returns 1 if the card is available, 0 if it is not.
 */
uint8_t sd_raw_available()
{
    return get_pin_available() == 0x00;
    39e4:	83 b1       	in	r24, 0x03	; 3
    39e6:	80 95       	com	r24
}
    39e8:	81 70       	andi	r24, 0x01	; 1
    39ea:	08 95       	ret

000039ec <sd_raw_init>:
 * Initializes memory card communication.
 *
 * \returns 0 on failure, 1 on success.
 */
uint8_t sd_raw_init()
{
    39ec:	1f 93       	push	r17
    39ee:	cf 93       	push	r28
    39f0:	df 93       	push	r29
    /* enable inputs for reading card status */
    configure_pin_available();
    39f2:	20 98       	cbi	0x04, 0	; 4
    39f4:	28 9a       	sbi	0x05, 0	; 5
#if !defined(__CHIP_COMP__)    
	configure_pin_locked();
#endif
    /* enable outputs for MOSI, SCK, SS, input for MISO */
    configure_pin_mosi();
    39f6:	23 9a       	sbi	0x04, 3	; 4
    configure_pin_sck();
    39f8:	25 9a       	sbi	0x04, 5	; 4
    configure_pin_ss();
    39fa:	21 9a       	sbi	0x04, 1	; 4
    configure_pin_miso();
    39fc:	24 98       	cbi	0x04, 4	; 4

    unselect_card();
    39fe:	29 9a       	sbi	0x05, 1	; 5

    /* initialize SPI with lowest frequency; max. 400kHz during identification mode of card */
    SPCR = (0 << SPIE) | /* SPI Interrupt Enable */
    3a00:	83 e5       	ldi	r24, 0x53	; 83
    3a02:	8c bd       	out	0x2c, r24	; 44
           (1 << MSTR) | /* Master mode */
           (0 << CPOL) | /* Clock Polarity: SCK low when idle */
           (0 << CPHA) | /* Clock Phase: sample on rising SCK edge */
           (1 << SPR1) | /* Clock Frequency: f_OSC / 128 */
           (1 << SPR0);
    SPSR &= ~(1 << SPI2X); /* No doubled clock frequency */
    3a04:	8d b5       	in	r24, 0x2d	; 45
    3a06:	8e 7f       	andi	r24, 0xFE	; 254
    3a08:	8d bd       	out	0x2d, r24	; 45

    /* initialization procedure */
    sd_raw_card_type = 0;
    3a0a:	10 92 c8 02 	sts	0x02C8, r1
    
    if(!sd_raw_available())
    3a0e:	0e 94 f2 1c 	call	0x39e4	; 0x39e4 <sd_raw_available>
    3a12:	88 23       	and	r24, r24
    3a14:	09 f4       	brne	.+2      	; 0x3a18 <sd_raw_init+0x2c>
    3a16:	54 c0       	rjmp	.+168    	; 0x3ac0 <sd_raw_init+0xd4>
    3a18:	1a e0       	ldi	r17, 0x0A	; 10

    /* card needs 74 cycles minimum to start up */
    for(uint8_t i = 0; i < 10; ++i)
    {
        /* wait 8 clock cycles */
        sd_raw_rec_byte();
    3a1a:	0e 94 ab 1c 	call	0x3956	; 0x3956 <sd_raw_rec_byte>
    3a1e:	11 50       	subi	r17, 0x01	; 1
    
    if(!sd_raw_available())
        return 0;

    /* card needs 74 cycles minimum to start up */
    for(uint8_t i = 0; i < 10; ++i)
    3a20:	e1 f7       	brne	.-8      	; 0x3a1a <sd_raw_init+0x2e>
        /* wait 8 clock cycles */
        sd_raw_rec_byte();
    }

    /* address card */
    select_card();
    3a22:	29 98       	cbi	0x05, 1	; 5
    3a24:	c0 e0       	ldi	r28, 0x00	; 0
    3a26:	d2 e0       	ldi	r29, 0x02	; 2

    /* reset card */
    uint8_t response;
    for(uint16_t i = 0; ; ++i)
    {
        response = sd_raw_send_command(CMD_GO_IDLE_STATE, 0);
    3a28:	40 e0       	ldi	r20, 0x00	; 0
    3a2a:	50 e0       	ldi	r21, 0x00	; 0
    3a2c:	ba 01       	movw	r22, r20
    3a2e:	80 e0       	ldi	r24, 0x00	; 0
    3a30:	0e 94 b5 1c 	call	0x396a	; 0x396a <sd_raw_send_command>
        if(response == (1 << R1_IDLE_STATE))
    3a34:	81 30       	cpi	r24, 0x01	; 1
    3a36:	21 f0       	breq	.+8      	; 0x3a40 <sd_raw_init+0x54>
    3a38:	21 97       	sbiw	r28, 0x01	; 1
            break;

        if(i == 0x1ff)
    3a3a:	20 97       	sbiw	r28, 0x00	; 0
    3a3c:	a9 f7       	brne	.-22     	; 0x3a28 <sd_raw_init+0x3c>
    3a3e:	2c c0       	rjmp	.+88     	; 0x3a98 <sd_raw_init+0xac>
    }
    else
#endif
    {
        /* determine SD/MMC card type */
        sd_raw_send_command(CMD_APP, 0);
    3a40:	40 e0       	ldi	r20, 0x00	; 0
    3a42:	50 e0       	ldi	r21, 0x00	; 0
    3a44:	ba 01       	movw	r22, r20
    3a46:	87 e3       	ldi	r24, 0x37	; 55
    3a48:	0e 94 b5 1c 	call	0x396a	; 0x396a <sd_raw_send_command>
        response = sd_raw_send_command(CMD_SD_SEND_OP_COND, 0);
    3a4c:	40 e0       	ldi	r20, 0x00	; 0
    3a4e:	50 e0       	ldi	r21, 0x00	; 0
    3a50:	ba 01       	movw	r22, r20
    3a52:	89 e2       	ldi	r24, 0x29	; 41
    3a54:	0e 94 b5 1c 	call	0x396a	; 0x396a <sd_raw_send_command>
        if((response & (1 << R1_ILL_COMMAND)) == 0)
    3a58:	82 fd       	sbrc	r24, 2
    3a5a:	05 c0       	rjmp	.+10     	; 0x3a66 <sd_raw_init+0x7a>
        {
            /* card conforms to SD 1 card specification */
            sd_raw_card_type |= (1 << SD_RAW_SPEC_1);
    3a5c:	80 91 c8 02 	lds	r24, 0x02C8
    3a60:	81 60       	ori	r24, 0x01	; 1
    3a62:	80 93 c8 02 	sts	0x02C8, r24
        /* wait 8 clock cycles */
        sd_raw_rec_byte();
    }

    /* address card */
    select_card();
    3a66:	c0 e0       	ldi	r28, 0x00	; 0
    3a68:	d0 e8       	ldi	r29, 0x80	; 128
    }

    /* wait for card to get ready */
    for(uint16_t i = 0; ; ++i)
    {
        if(sd_raw_card_type & ((1 << SD_RAW_SPEC_1) | (1 << SD_RAW_SPEC_2)))
    3a6a:	80 91 c8 02 	lds	r24, 0x02C8
    3a6e:	83 70       	andi	r24, 0x03	; 3
            uint32_t arg = 0;
#if SD_RAW_SDHC
            if(sd_raw_card_type & (1 << SD_RAW_SPEC_2))
                arg = 0x40000000;
#endif
            sd_raw_send_command(CMD_APP, 0);
    3a70:	40 e0       	ldi	r20, 0x00	; 0
    3a72:	50 e0       	ldi	r21, 0x00	; 0
    3a74:	ba 01       	movw	r22, r20
    }

    /* wait for card to get ready */
    for(uint16_t i = 0; ; ++i)
    {
        if(sd_raw_card_type & ((1 << SD_RAW_SPEC_1) | (1 << SD_RAW_SPEC_2)))
    3a76:	41 f0       	breq	.+16     	; 0x3a88 <sd_raw_init+0x9c>
            uint32_t arg = 0;
#if SD_RAW_SDHC
            if(sd_raw_card_type & (1 << SD_RAW_SPEC_2))
                arg = 0x40000000;
#endif
            sd_raw_send_command(CMD_APP, 0);
    3a78:	87 e3       	ldi	r24, 0x37	; 55
    3a7a:	0e 94 b5 1c 	call	0x396a	; 0x396a <sd_raw_send_command>
            response = sd_raw_send_command(CMD_SD_SEND_OP_COND, arg);
    3a7e:	40 e0       	ldi	r20, 0x00	; 0
    3a80:	50 e0       	ldi	r21, 0x00	; 0
    3a82:	ba 01       	movw	r22, r20
    3a84:	89 e2       	ldi	r24, 0x29	; 41
    3a86:	01 c0       	rjmp	.+2      	; 0x3a8a <sd_raw_init+0x9e>
        }
        else
        {
            response = sd_raw_send_command(CMD_SEND_OP_COND, 0);
    3a88:	81 e0       	ldi	r24, 0x01	; 1
    3a8a:	0e 94 b5 1c 	call	0x396a	; 0x396a <sd_raw_send_command>
        }

        if((response & (1 << R1_IDLE_STATE)) == 0)
    3a8e:	80 ff       	sbrs	r24, 0
    3a90:	05 c0       	rjmp	.+10     	; 0x3a9c <sd_raw_init+0xb0>
    3a92:	21 97       	sbiw	r28, 0x01	; 1
            break;

        if(i == 0x7fff)
    3a94:	20 97       	sbiw	r28, 0x00	; 0
    3a96:	49 f7       	brne	.-46     	; 0x3a6a <sd_raw_init+0x7e>
        {
            unselect_card();
    3a98:	29 9a       	sbi	0x05, 1	; 5
            return 0;
    3a9a:	13 c0       	rjmp	.+38     	; 0x3ac2 <sd_raw_init+0xd6>
        sd_raw_rec_byte();
    }
#endif

    /* set block size to 512 bytes */
    if(sd_raw_send_command(CMD_SET_BLOCKLEN, 512))
    3a9c:	40 e0       	ldi	r20, 0x00	; 0
    3a9e:	52 e0       	ldi	r21, 0x02	; 2
    3aa0:	60 e0       	ldi	r22, 0x00	; 0
    3aa2:	70 e0       	ldi	r23, 0x00	; 0
    3aa4:	80 e1       	ldi	r24, 0x10	; 16
    3aa6:	0e 94 b5 1c 	call	0x396a	; 0x396a <sd_raw_send_command>
    {
        unselect_card();
    3aaa:	29 9a       	sbi	0x05, 1	; 5
        sd_raw_rec_byte();
    }
#endif

    /* set block size to 512 bytes */
    if(sd_raw_send_command(CMD_SET_BLOCKLEN, 512))
    3aac:	81 11       	cpse	r24, r1
    3aae:	08 c0       	rjmp	.+16     	; 0x3ac0 <sd_raw_init+0xd4>

    /* deaddress card */
    unselect_card();

    /* switch to highest SPI frequency possible */
    SPCR &= ~((1 << SPR1) | (1 << SPR0)); /* Clock Frequency: f_OSC / 4 */
    3ab0:	8c b5       	in	r24, 0x2c	; 44
    3ab2:	8c 7f       	andi	r24, 0xFC	; 252
    3ab4:	8c bd       	out	0x2c, r24	; 44
    SPSR |= (1 << SPI2X); /* Doubled Clock Frequency: f_OSC / 2 */
    3ab6:	8d b5       	in	r24, 0x2d	; 45
    3ab8:	81 60       	ori	r24, 0x01	; 1
    3aba:	8d bd       	out	0x2d, r24	; 45
#endif
    if(!sd_raw_read(0, raw_block, sizeof(raw_block)))
        return 0;
#endif

    return 1;
    3abc:	11 e0       	ldi	r17, 0x01	; 1
    3abe:	01 c0       	rjmp	.+2      	; 0x3ac2 <sd_raw_init+0xd6>

    /* initialization procedure */
    sd_raw_card_type = 0;
    
    if(!sd_raw_available())
        return 0;
    3ac0:	10 e0       	ldi	r17, 0x00	; 0
    if(!sd_raw_read(0, raw_block, sizeof(raw_block)))
        return 0;
#endif

    return 1;
}
    3ac2:	81 2f       	mov	r24, r17
    3ac4:	df 91       	pop	r29
    3ac6:	cf 91       	pop	r28
    3ac8:	1f 91       	pop	r17
    3aca:	08 95       	ret

00003acc <sd_raw_read>:
 * \param[in] length The number of bytes to read.
 * \returns 0 on failure, 1 on success.
 * \see sd_raw_read_interval, sd_raw_write, sd_raw_write_interval
 */
uint8_t sd_raw_read(offset_t offset, uint8_t* buffer, uintptr_t length)
{
    3acc:	2f 92       	push	r2
    3ace:	3f 92       	push	r3
    3ad0:	4f 92       	push	r4
    3ad2:	5f 92       	push	r5
    3ad4:	6f 92       	push	r6
    3ad6:	7f 92       	push	r7
    3ad8:	8f 92       	push	r8
    3ada:	9f 92       	push	r9
    3adc:	af 92       	push	r10
    3ade:	bf 92       	push	r11
    3ae0:	cf 92       	push	r12
    3ae2:	df 92       	push	r13
    3ae4:	ef 92       	push	r14
    3ae6:	ff 92       	push	r15
    3ae8:	0f 93       	push	r16
    3aea:	1f 93       	push	r17
    3aec:	cf 93       	push	r28
    3aee:	df 93       	push	r29
    3af0:	2b 01       	movw	r4, r22
    3af2:	3c 01       	movw	r6, r24
    3af4:	6a 01       	movw	r12, r20
    3af6:	e9 01       	movw	r28, r18
    while(length > 0)
    {
        /* determine byte count to read at once */
        block_offset = offset & 0x01ff;
        block_address = offset - block_offset;
        read_length = 512 - block_offset; /* read up to block border */
    3af8:	21 2c       	mov	r2, r1
    3afa:	82 e0       	ldi	r24, 0x02	; 2
    3afc:	38 2e       	mov	r3, r24
uint8_t sd_raw_read(offset_t offset, uint8_t* buffer, uintptr_t length)
{
    offset_t block_address;
    uint16_t block_offset;
    uint16_t read_length;
    while(length > 0)
    3afe:	20 97       	sbiw	r28, 0x00	; 0
    3b00:	09 f4       	brne	.+2      	; 0x3b04 <sd_raw_read+0x38>
    3b02:	44 c0       	rjmp	.+136    	; 0x3b8c <sd_raw_read+0xc0>
    {
        /* determine byte count to read at once */
        block_offset = offset & 0x01ff;
    3b04:	72 01       	movw	r14, r4
    3b06:	81 e0       	ldi	r24, 0x01	; 1
    3b08:	f8 22       	and	r15, r24
    3b0a:	81 01       	movw	r16, r2
    3b0c:	0e 19       	sub	r16, r14
    3b0e:	1f 09       	sbc	r17, r15
    3b10:	c0 17       	cp	r28, r16
    3b12:	d1 07       	cpc	r29, r17
    3b14:	08 f4       	brcc	.+2      	; 0x3b18 <sd_raw_read+0x4c>
    3b16:	8e 01       	movw	r16, r28
            if(!sd_raw_sync())
                return 0;
#endif

            /* address card */
            select_card();
    3b18:	29 98       	cbi	0x05, 1	; 5
    uint16_t read_length;
    while(length > 0)
    {
        /* determine byte count to read at once */
        block_offset = offset & 0x01ff;
        block_address = offset - block_offset;
    3b1a:	b3 01       	movw	r22, r6
    3b1c:	a2 01       	movw	r20, r4
    3b1e:	4e 19       	sub	r20, r14
    3b20:	5f 09       	sbc	r21, r15
    3b22:	61 09       	sbc	r22, r1
    3b24:	71 09       	sbc	r23, r1

            /* send single block request */
#if SD_RAW_SDHC
            if(sd_raw_send_command(CMD_READ_SINGLE_BLOCK, (sd_raw_card_type & (1 << SD_RAW_SPEC_SDHC) ? block_address / 512 : block_address)))
#else
            if(sd_raw_send_command(CMD_READ_SINGLE_BLOCK, block_address))
    3b26:	81 e1       	ldi	r24, 0x11	; 17
    3b28:	0e 94 b5 1c 	call	0x396a	; 0x396a <sd_raw_send_command>
    3b2c:	88 23       	and	r24, r24
    3b2e:	19 f0       	breq	.+6      	; 0x3b36 <sd_raw_read+0x6a>
#endif
            {
                unselect_card();
    3b30:	29 9a       	sbi	0x05, 1	; 5
                return 0;
    3b32:	80 e0       	ldi	r24, 0x00	; 0
    3b34:	2c c0       	rjmp	.+88     	; 0x3b8e <sd_raw_read+0xc2>
            }

            /* wait for data block (start byte 0xfe) */
            while(sd_raw_rec_byte() != 0xfe);
    3b36:	0e 94 ab 1c 	call	0x3956	; 0x3956 <sd_raw_rec_byte>
    3b3a:	8e 3f       	cpi	r24, 0xFE	; 254
    3b3c:	e1 f7       	brne	.-8      	; 0x3b36 <sd_raw_read+0x6a>

#if SD_RAW_SAVE_RAM
            /* read byte block */
            uint16_t read_to = block_offset + read_length;
    3b3e:	58 01       	movw	r10, r16
    3b40:	ae 0c       	add	r10, r14
    3b42:	bf 1c       	adc	r11, r15
            for(uint16_t i = 0; i < 512; ++i)
    3b44:	81 2c       	mov	r8, r1
    3b46:	91 2c       	mov	r9, r1
            {
                uint8_t b = sd_raw_rec_byte();
    3b48:	0e 94 ab 1c 	call	0x3956	; 0x3956 <sd_raw_rec_byte>
                if(i >= block_offset && i < read_to)
    3b4c:	8e 14       	cp	r8, r14
    3b4e:	9f 04       	cpc	r9, r15
    3b50:	40 f0       	brcs	.+16     	; 0x3b62 <sd_raw_read+0x96>
    3b52:	8a 14       	cp	r8, r10
    3b54:	9b 04       	cpc	r9, r11
    3b56:	28 f4       	brcc	.+10     	; 0x3b62 <sd_raw_read+0x96>
                    *buffer++ = b;
    3b58:	f6 01       	movw	r30, r12
    3b5a:	80 83       	st	Z, r24
    3b5c:	c6 01       	movw	r24, r12
    3b5e:	01 96       	adiw	r24, 0x01	; 1
    3b60:	6c 01       	movw	r12, r24
            while(sd_raw_rec_byte() != 0xfe);

#if SD_RAW_SAVE_RAM
            /* read byte block */
            uint16_t read_to = block_offset + read_length;
            for(uint16_t i = 0; i < 512; ++i)
    3b62:	9f ef       	ldi	r25, 0xFF	; 255
    3b64:	89 1a       	sub	r8, r25
    3b66:	99 0a       	sbc	r9, r25
    3b68:	81 14       	cp	r8, r1
    3b6a:	e2 e0       	ldi	r30, 0x02	; 2
    3b6c:	9e 06       	cpc	r9, r30
    3b6e:	61 f7       	brne	.-40     	; 0x3b48 <sd_raw_read+0x7c>
            memcpy(buffer, raw_block + block_offset, read_length);
            buffer += read_length;
#endif
            
            /* read crc16 */
            sd_raw_rec_byte();
    3b70:	0e 94 ab 1c 	call	0x3956	; 0x3956 <sd_raw_rec_byte>
            sd_raw_rec_byte();
    3b74:	0e 94 ab 1c 	call	0x3956	; 0x3956 <sd_raw_rec_byte>
            
            /* deaddress card */
            unselect_card();
    3b78:	29 9a       	sbi	0x05, 1	; 5

            /* let card some time to finish */
            sd_raw_rec_byte();
    3b7a:	0e 94 ab 1c 	call	0x3956	; 0x3956 <sd_raw_rec_byte>
            memcpy(buffer, raw_block + block_offset, read_length);
            buffer += read_length;
        }
#endif

        length -= read_length;
    3b7e:	c0 1b       	sub	r28, r16
    3b80:	d1 0b       	sbc	r29, r17
        offset += read_length;
    3b82:	40 0e       	add	r4, r16
    3b84:	51 1e       	adc	r5, r17
    3b86:	61 1c       	adc	r6, r1
    3b88:	71 1c       	adc	r7, r1
    3b8a:	b9 cf       	rjmp	.-142    	; 0x3afe <sd_raw_read+0x32>
    }

    return 1;
    3b8c:	81 e0       	ldi	r24, 0x01	; 1
}
    3b8e:	df 91       	pop	r29
    3b90:	cf 91       	pop	r28
    3b92:	1f 91       	pop	r17
    3b94:	0f 91       	pop	r16
    3b96:	ff 90       	pop	r15
    3b98:	ef 90       	pop	r14
    3b9a:	df 90       	pop	r13
    3b9c:	cf 90       	pop	r12
    3b9e:	bf 90       	pop	r11
    3ba0:	af 90       	pop	r10
    3ba2:	9f 90       	pop	r9
    3ba4:	8f 90       	pop	r8
    3ba6:	7f 90       	pop	r7
    3ba8:	6f 90       	pop	r6
    3baa:	5f 90       	pop	r5
    3bac:	4f 90       	pop	r4
    3bae:	3f 90       	pop	r3
    3bb0:	2f 90       	pop	r2
    3bb2:	08 95       	ret

00003bb4 <sd_raw_read_interval>:
 * \param[in] p An opaque pointer directly passed to the callback function.
 * \returns 0 on failure, 1 on success
 * \see sd_raw_write_interval, sd_raw_read, sd_raw_write
 */
uint8_t sd_raw_read_interval(offset_t offset, uint8_t* buffer, uintptr_t interval, uintptr_t length, sd_raw_read_interval_handler_t callback, void* p)
{
    3bb4:	2f 92       	push	r2
    3bb6:	3f 92       	push	r3
    3bb8:	4f 92       	push	r4
    3bba:	5f 92       	push	r5
    3bbc:	6f 92       	push	r6
    3bbe:	7f 92       	push	r7
    3bc0:	8f 92       	push	r8
    3bc2:	9f 92       	push	r9
    3bc4:	af 92       	push	r10
    3bc6:	bf 92       	push	r11
    3bc8:	cf 92       	push	r12
    3bca:	df 92       	push	r13
    3bcc:	ef 92       	push	r14
    3bce:	ff 92       	push	r15
    3bd0:	0f 93       	push	r16
    3bd2:	1f 93       	push	r17
    3bd4:	cf 93       	push	r28
    3bd6:	df 93       	push	r29
    3bd8:	cd b7       	in	r28, 0x3d	; 61
    3bda:	de b7       	in	r29, 0x3e	; 62
    3bdc:	2a 97       	sbiw	r28, 0x0a	; 10
    3bde:	0f b6       	in	r0, 0x3f	; 63
    3be0:	f8 94       	cli
    3be2:	de bf       	out	0x3e, r29	; 62
    3be4:	0f be       	out	0x3f, r0	; 63
    3be6:	cd bf       	out	0x3d, r28	; 61
    3be8:	4b 01       	movw	r8, r22
    3bea:	5c 01       	movw	r10, r24
    3bec:	3a 01       	movw	r6, r20
    3bee:	3a 87       	std	Y+10, r19	; 0x0a
    3bf0:	29 87       	std	Y+9, r18	; 0x09
    3bf2:	17 01       	movw	r2, r14
    3bf4:	de 82       	std	Y+6, r13	; 0x06
    3bf6:	cd 82       	std	Y+5, r12	; 0x05
    if(!buffer || interval == 0 || length < interval || !callback)
    3bf8:	41 15       	cp	r20, r1
    3bfa:	51 05       	cpc	r21, r1
    3bfc:	09 f4       	brne	.+2      	; 0x3c00 <sd_raw_read_interval+0x4c>
    3bfe:	93 c0       	rjmp	.+294    	; 0x3d26 <sd_raw_read_interval+0x172>
    3c00:	21 15       	cp	r18, r1
    3c02:	31 05       	cpc	r19, r1
    3c04:	09 f4       	brne	.+2      	; 0x3c08 <sd_raw_read_interval+0x54>
    3c06:	8f c0       	rjmp	.+286    	; 0x3d26 <sd_raw_read_interval+0x172>
    3c08:	02 17       	cp	r16, r18
    3c0a:	13 07       	cpc	r17, r19
    3c0c:	08 f4       	brcc	.+2      	; 0x3c10 <sd_raw_read_interval+0x5c>
    3c0e:	8b c0       	rjmp	.+278    	; 0x3d26 <sd_raw_read_interval+0x172>
    3c10:	e1 14       	cp	r14, r1
    3c12:	f1 04       	cpc	r15, r1
    3c14:	09 f4       	brne	.+2      	; 0x3c18 <sd_raw_read_interval+0x64>
    3c16:	87 c0       	rjmp	.+270    	; 0x3d26 <sd_raw_read_interval+0x172>
    }

    return 1;
#else
    /* address card */
    select_card();
    3c18:	29 98       	cbi	0x05, 1	; 5
    3c1a:	89 85       	ldd	r24, Y+9	; 0x09
    3c1c:	9a 85       	ldd	r25, Y+10	; 0x0a
    3c1e:	84 0f       	add	r24, r20
    3c20:	95 1f       	adc	r25, r21
    3c22:	98 87       	std	Y+8, r25	; 0x08
    3c24:	8f 83       	std	Y+7, r24	; 0x07
    uint8_t* buffer_cur;
    uint8_t finished = 0;
    do
    {
        /* determine byte count to read at once */
        block_offset = offset & 0x01ff;
    3c26:	74 01       	movw	r14, r8
    3c28:	91 e0       	ldi	r25, 0x01	; 1
    3c2a:	f9 22       	and	r15, r25
        read_length = 512 - block_offset;
    3c2c:	c1 2c       	mov	r12, r1
    3c2e:	92 e0       	ldi	r25, 0x02	; 2
    3c30:	d9 2e       	mov	r13, r25
    3c32:	ce 18       	sub	r12, r14
    3c34:	df 08       	sbc	r13, r15
        
        /* send single block request */
#if SD_RAW_SDHC
        if(sd_raw_send_command(CMD_READ_SINGLE_BLOCK, (sd_raw_card_type & (1 << SD_RAW_SPEC_SDHC) ? offset / 512 : offset - block_offset)))
#else
        if(sd_raw_send_command(CMD_READ_SINGLE_BLOCK, offset - block_offset))
    3c36:	d5 01       	movw	r26, r10
    3c38:	c4 01       	movw	r24, r8
    3c3a:	8e 19       	sub	r24, r14
    3c3c:	9f 09       	sbc	r25, r15
    3c3e:	a1 09       	sbc	r26, r1
    3c40:	b1 09       	sbc	r27, r1
    3c42:	89 83       	std	Y+1, r24	; 0x01
    3c44:	9a 83       	std	Y+2, r25	; 0x02
    3c46:	ab 83       	std	Y+3, r26	; 0x03
    3c48:	bc 83       	std	Y+4, r27	; 0x04
    3c4a:	ac 01       	movw	r20, r24
    3c4c:	bd 01       	movw	r22, r26
    3c4e:	81 e1       	ldi	r24, 0x11	; 17
    3c50:	0e 94 b5 1c 	call	0x396a	; 0x396a <sd_raw_send_command>
    3c54:	88 23       	and	r24, r24
    3c56:	11 f0       	breq	.+4      	; 0x3c5c <sd_raw_read_interval+0xa8>
#endif
        {
            unselect_card();
    3c58:	29 9a       	sbi	0x05, 1	; 5
    3c5a:	65 c0       	rjmp	.+202    	; 0x3d26 <sd_raw_read_interval+0x172>
            return 0;
        }

        /* wait for data block (start byte 0xfe) */
        while(sd_raw_rec_byte() != 0xfe);
    3c5c:	0e 94 ab 1c 	call	0x3956	; 0x3956 <sd_raw_rec_byte>
    3c60:	8e 3f       	cpi	r24, 0xFE	; 254
    3c62:	e1 f7       	brne	.-8      	; 0x3c5c <sd_raw_read_interval+0xa8>
    3c64:	41 2c       	mov	r4, r1
    3c66:	51 2c       	mov	r5, r1

        /* read up to the data of interest */
        for(uint16_t i = 0; i < block_offset; ++i)
    3c68:	4e 14       	cp	r4, r14
    3c6a:	5f 04       	cpc	r5, r15
    3c6c:	a1 f0       	breq	.+40     	; 0x3c96 <sd_raw_read_interval+0xe2>
            sd_raw_rec_byte();
    3c6e:	0e 94 ab 1c 	call	0x3956	; 0x3956 <sd_raw_rec_byte>

        /* wait for data block (start byte 0xfe) */
        while(sd_raw_rec_byte() != 0xfe);

        /* read up to the data of interest */
        for(uint16_t i = 0; i < block_offset; ++i)
    3c72:	9f ef       	ldi	r25, 0xFF	; 255
    3c74:	49 1a       	sub	r4, r25
    3c76:	59 0a       	sbc	r5, r25
    3c78:	f7 cf       	rjmp	.-18     	; 0x3c68 <sd_raw_read_interval+0xb4>
            {
                finished = 1;
                break;
            }

            read_length -= interval;
    3c7a:	89 85       	ldd	r24, Y+9	; 0x09
    3c7c:	9a 85       	ldd	r25, Y+10	; 0x0a
    3c7e:	c8 1a       	sub	r12, r24
    3c80:	d9 0a       	sbc	r13, r25
            length -= interval;
    3c82:	08 1b       	sub	r16, r24
    3c84:	19 0b       	sbc	r17, r25

        } while(read_length > 0 && length > 0);
    3c86:	c1 14       	cp	r12, r1
    3c88:	d1 04       	cpc	r13, r1
    3c8a:	79 f0       	breq	.+30     	; 0x3caa <sd_raw_read_interval+0xf6>
    3c8c:	48 0e       	add	r4, r24
    3c8e:	59 1e       	adc	r5, r25
    3c90:	01 15       	cp	r16, r1
    3c92:	11 05       	cpc	r17, r1
    3c94:	51 f0       	breq	.+20     	; 0x3caa <sd_raw_read_interval+0xf6>
            sd_raw_rec_byte();

        /* read interval bytes of data and execute the callback */
        do
        {
            if(read_length < interval || length < interval)
    3c96:	a9 85       	ldd	r26, Y+9	; 0x09
    3c98:	ba 85       	ldd	r27, Y+10	; 0x0a
    3c9a:	ca 16       	cp	r12, r26
    3c9c:	db 06       	cpc	r13, r27
    3c9e:	28 f0       	brcs	.+10     	; 0x3caa <sd_raw_read_interval+0xf6>
    3ca0:	0a 17       	cp	r16, r26
    3ca2:	1b 07       	cpc	r17, r27
    3ca4:	10 f0       	brcs	.+4      	; 0x3caa <sd_raw_read_interval+0xf6>
    3ca6:	73 01       	movw	r14, r6
    3ca8:	02 c0       	rjmp	.+4      	; 0x3cae <sd_raw_read_interval+0xfa>
    3caa:	f1 2c       	mov	r15, r1
    3cac:	1a c0       	rjmp	.+52     	; 0x3ce2 <sd_raw_read_interval+0x12e>
                break;

            buffer_cur = buffer;
            for(uint16_t i = 0; i < interval; ++i)
    3cae:	8f 81       	ldd	r24, Y+7	; 0x07
    3cb0:	98 85       	ldd	r25, Y+8	; 0x08
    3cb2:	e8 16       	cp	r14, r24
    3cb4:	f9 06       	cpc	r15, r25
    3cb6:	31 f0       	breq	.+12     	; 0x3cc4 <sd_raw_read_interval+0x110>
                *buffer_cur++ = sd_raw_rec_byte();
    3cb8:	0e 94 ab 1c 	call	0x3956	; 0x3956 <sd_raw_rec_byte>
    3cbc:	f7 01       	movw	r30, r14
    3cbe:	81 93       	st	Z+, r24
    3cc0:	7f 01       	movw	r14, r30
    3cc2:	f5 cf       	rjmp	.-22     	; 0x3cae <sd_raw_read_interval+0xfa>

            if(!callback(buffer, offset + (512 - read_length), p))
    3cc4:	2d 81       	ldd	r18, Y+5	; 0x05
    3cc6:	3e 81       	ldd	r19, Y+6	; 0x06
    3cc8:	b5 01       	movw	r22, r10
    3cca:	a4 01       	movw	r20, r8
    3ccc:	44 0d       	add	r20, r4
    3cce:	55 1d       	adc	r21, r5
    3cd0:	61 1d       	adc	r22, r1
    3cd2:	71 1d       	adc	r23, r1
    3cd4:	c3 01       	movw	r24, r6
    3cd6:	f1 01       	movw	r30, r2
    3cd8:	09 95       	icall
    3cda:	81 11       	cpse	r24, r1
    3cdc:	ce cf       	rjmp	.-100    	; 0x3c7a <sd_raw_read_interval+0xc6>
            {
                finished = 1;
    3cde:	ff 24       	eor	r15, r15
    3ce0:	f3 94       	inc	r15
            length -= interval;

        } while(read_length > 0 && length > 0);
        
        /* read rest of data block */
        while(read_length-- > 0)
    3ce2:	c1 14       	cp	r12, r1
    3ce4:	d1 04       	cpc	r13, r1
    3ce6:	31 f0       	breq	.+12     	; 0x3cf4 <sd_raw_read_interval+0x140>
            sd_raw_rec_byte();
    3ce8:	0e 94 ab 1c 	call	0x3956	; 0x3956 <sd_raw_rec_byte>
    3cec:	91 e0       	ldi	r25, 0x01	; 1
    3cee:	c9 1a       	sub	r12, r25
    3cf0:	d1 08       	sbc	r13, r1
    3cf2:	f7 cf       	rjmp	.-18     	; 0x3ce2 <sd_raw_read_interval+0x12e>
        
        /* read crc16 */
        sd_raw_rec_byte();
    3cf4:	0e 94 ab 1c 	call	0x3956	; 0x3956 <sd_raw_rec_byte>
        sd_raw_rec_byte();
    3cf8:	0e 94 ab 1c 	call	0x3956	; 0x3956 <sd_raw_rec_byte>

        if(length < interval)
    3cfc:	a9 85       	ldd	r26, Y+9	; 0x09
    3cfe:	ba 85       	ldd	r27, Y+10	; 0x0a
    3d00:	0a 17       	cp	r16, r26
    3d02:	1b 07       	cpc	r17, r27
    3d04:	58 f0       	brcs	.+22     	; 0x3d1c <sd_raw_read_interval+0x168>
            break;

        offset = offset - block_offset + 512;
    3d06:	89 80       	ldd	r8, Y+1	; 0x01
    3d08:	9a 80       	ldd	r9, Y+2	; 0x02
    3d0a:	ab 80       	ldd	r10, Y+3	; 0x03
    3d0c:	bc 80       	ldd	r11, Y+4	; 0x04
    3d0e:	b2 e0       	ldi	r27, 0x02	; 2
    3d10:	9b 0e       	add	r9, r27
    3d12:	a1 1c       	adc	r10, r1
    3d14:	b1 1c       	adc	r11, r1

    } while(!finished);
    3d16:	ff 20       	and	r15, r15
    3d18:	09 f4       	brne	.+2      	; 0x3d1c <sd_raw_read_interval+0x168>
    3d1a:	85 cf       	rjmp	.-246    	; 0x3c26 <sd_raw_read_interval+0x72>
    
    /* deaddress card */
    unselect_card();
    3d1c:	29 9a       	sbi	0x05, 1	; 5

    /* let card some time to finish */
    sd_raw_rec_byte();
    3d1e:	0e 94 ab 1c 	call	0x3956	; 0x3956 <sd_raw_rec_byte>

    return 1;
    3d22:	81 e0       	ldi	r24, 0x01	; 1
    3d24:	01 c0       	rjmp	.+2      	; 0x3d28 <sd_raw_read_interval+0x174>
 * \see sd_raw_write_interval, sd_raw_read, sd_raw_write
 */
uint8_t sd_raw_read_interval(offset_t offset, uint8_t* buffer, uintptr_t interval, uintptr_t length, sd_raw_read_interval_handler_t callback, void* p)
{
    if(!buffer || interval == 0 || length < interval || !callback)
        return 0;
    3d26:	80 e0       	ldi	r24, 0x00	; 0
    /* let card some time to finish */
    sd_raw_rec_byte();

    return 1;
#endif
}
    3d28:	2a 96       	adiw	r28, 0x0a	; 10
    3d2a:	0f b6       	in	r0, 0x3f	; 63
    3d2c:	f8 94       	cli
    3d2e:	de bf       	out	0x3e, r29	; 62
    3d30:	0f be       	out	0x3f, r0	; 63
    3d32:	cd bf       	out	0x3d, r28	; 61
    3d34:	df 91       	pop	r29
    3d36:	cf 91       	pop	r28
    3d38:	1f 91       	pop	r17
    3d3a:	0f 91       	pop	r16
    3d3c:	ff 90       	pop	r15
    3d3e:	ef 90       	pop	r14
    3d40:	df 90       	pop	r13
    3d42:	cf 90       	pop	r12
    3d44:	bf 90       	pop	r11
    3d46:	af 90       	pop	r10
    3d48:	9f 90       	pop	r9
    3d4a:	8f 90       	pop	r8
    3d4c:	7f 90       	pop	r7
    3d4e:	6f 90       	pop	r6
    3d50:	5f 90       	pop	r5
    3d52:	4f 90       	pop	r4
    3d54:	3f 90       	pop	r3
    3d56:	2f 90       	pop	r2
    3d58:	08 95       	ret

00003d5a <sram_wrmode>:
		--size;
	}
}

void sram_wrmode(unsigned char mode){
	sram_enable();
    3d5a:	40 98       	cbi	0x08, 0	; 8
#define sram_enable()  {SRAM_PORT &= ~SRAM_SEL;}
#define sram_disable() {SRAM_PORT |= SRAM_SEL;}


inline void sram_send_byte(unsigned char b){
	SPI_SR|=(1<<SPI2X);
    3d5c:	9d b5       	in	r25, 0x2d	; 45
    3d5e:	91 60       	ori	r25, 0x01	; 1
    3d60:	9d bd       	out	0x2d, r25	; 45
	SPI_DR = b;
    3d62:	91 e0       	ldi	r25, 0x01	; 1
    3d64:	9e bd       	out	0x2e, r25	; 46
	while (!(SPI_SR&(1<<SPIF)));
    3d66:	0d b4       	in	r0, 0x2d	; 45
    3d68:	07 fe       	sbrs	r0, 7
    3d6a:	fd cf       	rjmp	.-6      	; 0x3d66 <sram_wrmode+0xc>
#define sram_enable()  {SRAM_PORT &= ~SRAM_SEL;}
#define sram_disable() {SRAM_PORT |= SRAM_SEL;}


inline void sram_send_byte(unsigned char b){
	SPI_SR|=(1<<SPI2X);
    3d6c:	9d b5       	in	r25, 0x2d	; 45
    3d6e:	91 60       	ori	r25, 0x01	; 1
    3d70:	9d bd       	out	0x2d, r25	; 45
	SPI_DR = b;
    3d72:	8e bd       	out	0x2e, r24	; 46
	while (!(SPI_SR&(1<<SPIF)));
    3d74:	0d b4       	in	r0, 0x2d	; 45
    3d76:	07 fe       	sbrs	r0, 7
    3d78:	fd cf       	rjmp	.-6      	; 0x3d74 <sram_wrmode+0x1a>

void sram_wrmode(unsigned char mode){
	sram_enable();
	sram_send_byte(SRAM_WRMR);
	sram_send_byte(mode);
	sram_disable();
    3d7a:	40 9a       	sbi	0x08, 0	; 8
    3d7c:	08 95       	ret

00003d7e <sram_clear>:
}

void sram_clear(){
	uint32_t i;

	sram_enable();
    3d7e:	40 98       	cbi	0x08, 0	; 8
#define sram_enable()  {SRAM_PORT &= ~SRAM_SEL;}
#define sram_disable() {SRAM_PORT |= SRAM_SEL;}


inline void sram_send_byte(unsigned char b){
	SPI_SR|=(1<<SPI2X);
    3d80:	8d b5       	in	r24, 0x2d	; 45
    3d82:	81 60       	ori	r24, 0x01	; 1
    3d84:	8d bd       	out	0x2d, r24	; 45
	SPI_DR = b;
    3d86:	82 e0       	ldi	r24, 0x02	; 2
    3d88:	8e bd       	out	0x2e, r24	; 46
	while (!(SPI_SR&(1<<SPIF)));
    3d8a:	0d b4       	in	r0, 0x2d	; 45
    3d8c:	07 fe       	sbrs	r0, 7
    3d8e:	fd cf       	rjmp	.-6      	; 0x3d8a <sram_clear+0xc>
#define sram_enable()  {SRAM_PORT &= ~SRAM_SEL;}
#define sram_disable() {SRAM_PORT |= SRAM_SEL;}


inline void sram_send_byte(unsigned char b){
	SPI_SR|=(1<<SPI2X);
    3d90:	8d b5       	in	r24, 0x2d	; 45
    3d92:	81 60       	ori	r24, 0x01	; 1
    3d94:	8d bd       	out	0x2d, r24	; 45
	SPI_DR = b;
    3d96:	1e bc       	out	0x2e, r1	; 46
	while (!(SPI_SR&(1<<SPIF)));
    3d98:	0d b4       	in	r0, 0x2d	; 45
    3d9a:	07 fe       	sbrs	r0, 7
    3d9c:	fd cf       	rjmp	.-6      	; 0x3d98 <sram_clear+0x1a>
#define sram_enable()  {SRAM_PORT &= ~SRAM_SEL;}
#define sram_disable() {SRAM_PORT |= SRAM_SEL;}


inline void sram_send_byte(unsigned char b){
	SPI_SR|=(1<<SPI2X);
    3d9e:	8d b5       	in	r24, 0x2d	; 45
    3da0:	81 60       	ori	r24, 0x01	; 1
    3da2:	8d bd       	out	0x2d, r24	; 45
	SPI_DR = b;
    3da4:	1e bc       	out	0x2e, r1	; 46
	while (!(SPI_SR&(1<<SPIF)));
    3da6:	0d b4       	in	r0, 0x2d	; 45
    3da8:	07 fe       	sbrs	r0, 7
    3daa:	fd cf       	rjmp	.-6      	; 0x3da6 <sram_clear+0x28>
    3dac:	80 e0       	ldi	r24, 0x00	; 0
    3dae:	90 e0       	ldi	r25, 0x00	; 0
    3db0:	a1 e0       	ldi	r26, 0x01	; 1
    3db2:	b0 e0       	ldi	r27, 0x00	; 0
#define sram_enable()  {SRAM_PORT &= ~SRAM_SEL;}
#define sram_disable() {SRAM_PORT |= SRAM_SEL;}


inline void sram_send_byte(unsigned char b){
	SPI_SR|=(1<<SPI2X);
    3db4:	2d b5       	in	r18, 0x2d	; 45
    3db6:	21 60       	ori	r18, 0x01	; 1
    3db8:	2d bd       	out	0x2d, r18	; 45
	SPI_DR = b;
    3dba:	1e bc       	out	0x2e, r1	; 46
	while (!(SPI_SR&(1<<SPIF)));
    3dbc:	0d b4       	in	r0, 0x2d	; 45
    3dbe:	07 fe       	sbrs	r0, 7
    3dc0:	fd cf       	rjmp	.-6      	; 0x3dbc <sram_clear+0x3e>
    3dc2:	01 97       	sbiw	r24, 0x01	; 1
    3dc4:	a1 09       	sbc	r26, r1
    3dc6:	b1 09       	sbc	r27, r1
void sram_clear(){
	uint32_t i;

	sram_enable();
	sram_cmd(SRAM_WRITE,0);
	for (i=0;i<SRAM_SIZE;i++){
    3dc8:	00 97       	sbiw	r24, 0x00	; 0
    3dca:	a1 05       	cpc	r26, r1
    3dcc:	b1 05       	cpc	r27, r1
    3dce:	91 f7       	brne	.-28     	; 0x3db4 <sram_clear+0x36>
		sram_send_byte(0);
	}
	sram_disable();
    3dd0:	40 9a       	sbi	0x08, 0	; 8
    3dd2:	08 95       	ret

00003dd4 <sram_init>:

}

// initialisation de la SRAM
void sram_init(){
	SRAM_DDR |= SRAM_SEL;
    3dd4:	38 9a       	sbi	0x07, 0	; 7
	sram_disable(); 
    3dd6:	40 9a       	sbi	0x08, 0	; 8
	//met la SRAM en mode squentiel
	sram_wrmode(SRAM_SQMD);
    3dd8:	80 e4       	ldi	r24, 0x40	; 64
    3dda:	0e 94 ad 1e 	call	0x3d5a	; 0x3d5a <sram_wrmode>
	//efface la SRAM
	sram_clear();
    3dde:	0c 94 bf 1e 	jmp	0x3d7e	; 0x3d7e <sram_clear>

00003de2 <sram_write_byte>:
}


// criture d'un octet dans la SRAM
void sram_write_byte(uint16_t addr, uint8_t data){
	sram_enable();
    3de2:	40 98       	cbi	0x08, 0	; 8
#define sram_enable()  {SRAM_PORT &= ~SRAM_SEL;}
#define sram_disable() {SRAM_PORT |= SRAM_SEL;}


inline void sram_send_byte(unsigned char b){
	SPI_SR|=(1<<SPI2X);
    3de4:	2d b5       	in	r18, 0x2d	; 45
    3de6:	21 60       	ori	r18, 0x01	; 1
    3de8:	2d bd       	out	0x2d, r18	; 45
	SPI_DR = b;
    3dea:	22 e0       	ldi	r18, 0x02	; 2
    3dec:	2e bd       	out	0x2e, r18	; 46
	while (!(SPI_SR&(1<<SPIF)));
    3dee:	0d b4       	in	r0, 0x2d	; 45
    3df0:	07 fe       	sbrs	r0, 7
    3df2:	fd cf       	rjmp	.-6      	; 0x3dee <sram_write_byte+0xc>
#define sram_enable()  {SRAM_PORT &= ~SRAM_SEL;}
#define sram_disable() {SRAM_PORT |= SRAM_SEL;}


inline void sram_send_byte(unsigned char b){
	SPI_SR|=(1<<SPI2X);
    3df4:	2d b5       	in	r18, 0x2d	; 45
    3df6:	21 60       	ori	r18, 0x01	; 1
    3df8:	2d bd       	out	0x2d, r18	; 45
	SPI_DR = b;
    3dfa:	9e bd       	out	0x2e, r25	; 46
	while (!(SPI_SR&(1<<SPIF)));
    3dfc:	0d b4       	in	r0, 0x2d	; 45
    3dfe:	07 fe       	sbrs	r0, 7
    3e00:	fd cf       	rjmp	.-6      	; 0x3dfc <sram_write_byte+0x1a>
#define sram_enable()  {SRAM_PORT &= ~SRAM_SEL;}
#define sram_disable() {SRAM_PORT |= SRAM_SEL;}


inline void sram_send_byte(unsigned char b){
	SPI_SR|=(1<<SPI2X);
    3e02:	9d b5       	in	r25, 0x2d	; 45
    3e04:	91 60       	ori	r25, 0x01	; 1
    3e06:	9d bd       	out	0x2d, r25	; 45
	SPI_DR = b;
    3e08:	8e bd       	out	0x2e, r24	; 46
	while (!(SPI_SR&(1<<SPIF)));
    3e0a:	0d b4       	in	r0, 0x2d	; 45
    3e0c:	07 fe       	sbrs	r0, 7
    3e0e:	fd cf       	rjmp	.-6      	; 0x3e0a <sram_write_byte+0x28>
#define sram_enable()  {SRAM_PORT &= ~SRAM_SEL;}
#define sram_disable() {SRAM_PORT |= SRAM_SEL;}


inline void sram_send_byte(unsigned char b){
	SPI_SR|=(1<<SPI2X);
    3e10:	8d b5       	in	r24, 0x2d	; 45
    3e12:	81 60       	ori	r24, 0x01	; 1
    3e14:	8d bd       	out	0x2d, r24	; 45
	SPI_DR = b;
    3e16:	6e bd       	out	0x2e, r22	; 46
	while (!(SPI_SR&(1<<SPIF)));
    3e18:	0d b4       	in	r0, 0x2d	; 45
    3e1a:	07 fe       	sbrs	r0, 7
    3e1c:	fd cf       	rjmp	.-6      	; 0x3e18 <sram_write_byte+0x36>
// criture d'un octet dans la SRAM
void sram_write_byte(uint16_t addr, uint8_t data){
	sram_enable();
	sram_cmd(SRAM_WRITE,addr);
	sram_send_byte(data);
	sram_disable();
    3e1e:	40 9a       	sbi	0x08, 0	; 8
    3e20:	08 95       	ret

00003e22 <sram_read_byte>:
}
*/

// lecture d'un octet de la SRAM
uint8_t sram_read_byte(uint16_t addr){
	sram_enable();
    3e22:	40 98       	cbi	0x08, 0	; 8
#define sram_enable()  {SRAM_PORT &= ~SRAM_SEL;}
#define sram_disable() {SRAM_PORT |= SRAM_SEL;}


inline void sram_send_byte(unsigned char b){
	SPI_SR|=(1<<SPI2X);
    3e24:	2d b5       	in	r18, 0x2d	; 45
    3e26:	21 60       	ori	r18, 0x01	; 1
    3e28:	2d bd       	out	0x2d, r18	; 45
	SPI_DR = b;
    3e2a:	23 e0       	ldi	r18, 0x03	; 3
    3e2c:	2e bd       	out	0x2e, r18	; 46
	while (!(SPI_SR&(1<<SPIF)));
    3e2e:	0d b4       	in	r0, 0x2d	; 45
    3e30:	07 fe       	sbrs	r0, 7
    3e32:	fd cf       	rjmp	.-6      	; 0x3e2e <sram_read_byte+0xc>
#define sram_enable()  {SRAM_PORT &= ~SRAM_SEL;}
#define sram_disable() {SRAM_PORT |= SRAM_SEL;}


inline void sram_send_byte(unsigned char b){
	SPI_SR|=(1<<SPI2X);
    3e34:	2d b5       	in	r18, 0x2d	; 45
    3e36:	21 60       	ori	r18, 0x01	; 1
    3e38:	2d bd       	out	0x2d, r18	; 45
	SPI_DR = b;
    3e3a:	9e bd       	out	0x2e, r25	; 46
	while (!(SPI_SR&(1<<SPIF)));
    3e3c:	0d b4       	in	r0, 0x2d	; 45
    3e3e:	07 fe       	sbrs	r0, 7
    3e40:	fd cf       	rjmp	.-6      	; 0x3e3c <sram_read_byte+0x1a>
#define sram_enable()  {SRAM_PORT &= ~SRAM_SEL;}
#define sram_disable() {SRAM_PORT |= SRAM_SEL;}


inline void sram_send_byte(unsigned char b){
	SPI_SR|=(1<<SPI2X);
    3e42:	9d b5       	in	r25, 0x2d	; 45
    3e44:	91 60       	ori	r25, 0x01	; 1
    3e46:	9d bd       	out	0x2d, r25	; 45
	SPI_DR = b;
    3e48:	8e bd       	out	0x2e, r24	; 46
	while (!(SPI_SR&(1<<SPIF)));
    3e4a:	0d b4       	in	r0, 0x2d	; 45
    3e4c:	07 fe       	sbrs	r0, 7
    3e4e:	fd cf       	rjmp	.-6      	; 0x3e4a <sram_read_byte+0x28>
#define sram_enable()  {SRAM_PORT &= ~SRAM_SEL;}
#define sram_disable() {SRAM_PORT |= SRAM_SEL;}


inline void sram_send_byte(unsigned char b){
	SPI_SR|=(1<<SPI2X);
    3e50:	8d b5       	in	r24, 0x2d	; 45
    3e52:	81 60       	ori	r24, 0x01	; 1
    3e54:	8d bd       	out	0x2d, r24	; 45
	SPI_DR = b;
    3e56:	1e bc       	out	0x2e, r1	; 46
	while (!(SPI_SR&(1<<SPIF)));
    3e58:	0d b4       	in	r0, 0x2d	; 45
    3e5a:	07 fe       	sbrs	r0, 7
    3e5c:	fd cf       	rjmp	.-6      	; 0x3e58 <sram_read_byte+0x36>
// lecture d'un octet de la SRAM
uint8_t sram_read_byte(uint16_t addr){
	sram_enable();
	sram_cmd(SRAM_READ,addr);
	sram_send_byte(0);
	sram_disable();
    3e5e:	40 9a       	sbi	0x08, 0	; 8
	return SPI_DR;
    3e60:	8e b5       	in	r24, 0x2e	; 46
}
    3e62:	08 95       	ret

00003e64 <sram_load_block>:
	return w;
}

// charge un bloc de mmoire SRAM dans un variable tableau.
void sram_load_block(uint16_t addr,uint16_t size, uint8_t *b){
	sram_enable();
    3e64:	40 98       	cbi	0x08, 0	; 8
#define sram_enable()  {SRAM_PORT &= ~SRAM_SEL;}
#define sram_disable() {SRAM_PORT |= SRAM_SEL;}


inline void sram_send_byte(unsigned char b){
	SPI_SR|=(1<<SPI2X);
    3e66:	2d b5       	in	r18, 0x2d	; 45
    3e68:	21 60       	ori	r18, 0x01	; 1
    3e6a:	2d bd       	out	0x2d, r18	; 45
	SPI_DR = b;
    3e6c:	23 e0       	ldi	r18, 0x03	; 3
    3e6e:	2e bd       	out	0x2e, r18	; 46
	while (!(SPI_SR&(1<<SPIF)));
    3e70:	0d b4       	in	r0, 0x2d	; 45
    3e72:	07 fe       	sbrs	r0, 7
    3e74:	fd cf       	rjmp	.-6      	; 0x3e70 <sram_load_block+0xc>
#define sram_enable()  {SRAM_PORT &= ~SRAM_SEL;}
#define sram_disable() {SRAM_PORT |= SRAM_SEL;}


inline void sram_send_byte(unsigned char b){
	SPI_SR|=(1<<SPI2X);
    3e76:	2d b5       	in	r18, 0x2d	; 45
    3e78:	21 60       	ori	r18, 0x01	; 1
    3e7a:	2d bd       	out	0x2d, r18	; 45
	SPI_DR = b;
    3e7c:	9e bd       	out	0x2e, r25	; 46
	while (!(SPI_SR&(1<<SPIF)));
    3e7e:	0d b4       	in	r0, 0x2d	; 45
    3e80:	07 fe       	sbrs	r0, 7
    3e82:	fd cf       	rjmp	.-6      	; 0x3e7e <sram_load_block+0x1a>
#define sram_enable()  {SRAM_PORT &= ~SRAM_SEL;}
#define sram_disable() {SRAM_PORT |= SRAM_SEL;}


inline void sram_send_byte(unsigned char b){
	SPI_SR|=(1<<SPI2X);
    3e84:	9d b5       	in	r25, 0x2d	; 45
    3e86:	91 60       	ori	r25, 0x01	; 1
    3e88:	9d bd       	out	0x2d, r25	; 45
	SPI_DR = b;
    3e8a:	8e bd       	out	0x2e, r24	; 46
	while (!(SPI_SR&(1<<SPIF)));
    3e8c:	0d b4       	in	r0, 0x2d	; 45
    3e8e:	07 fe       	sbrs	r0, 7
    3e90:	fd cf       	rjmp	.-6      	; 0x3e8c <sram_load_block+0x28>
    3e92:	fa 01       	movw	r30, r20
    3e94:	64 0f       	add	r22, r20
    3e96:	75 1f       	adc	r23, r21
	uint16_t i;
	for (i=0;i<size;i++) sram_send_byte(*block++);
}

inline void sram_read_block(uint8_t *block, uint16_t size){
	while (size){
    3e98:	e6 17       	cp	r30, r22
    3e9a:	f7 07       	cpc	r31, r23
    3e9c:	51 f0       	breq	.+20     	; 0x3eb2 <sram_load_block+0x4e>
#define sram_enable()  {SRAM_PORT &= ~SRAM_SEL;}
#define sram_disable() {SRAM_PORT |= SRAM_SEL;}


inline void sram_send_byte(unsigned char b){
	SPI_SR|=(1<<SPI2X);
    3e9e:	8d b5       	in	r24, 0x2d	; 45
    3ea0:	81 60       	ori	r24, 0x01	; 1
    3ea2:	8d bd       	out	0x2d, r24	; 45
	SPI_DR = b;
    3ea4:	1e bc       	out	0x2e, r1	; 46
	while (!(SPI_SR&(1<<SPIF)));
    3ea6:	0d b4       	in	r0, 0x2d	; 45
    3ea8:	07 fe       	sbrs	r0, 7
    3eaa:	fd cf       	rjmp	.-6      	; 0x3ea6 <sram_load_block+0x42>
}

inline void sram_read_block(uint8_t *block, uint16_t size){
	while (size){
		sram_send_byte(0);
		*block++=SPI_DR;
    3eac:	8e b5       	in	r24, 0x2e	; 46
    3eae:	81 93       	st	Z+, r24
    3eb0:	f3 cf       	rjmp	.-26     	; 0x3e98 <sram_load_block+0x34>
// charge un bloc de mmoire SRAM dans un variable tableau.
void sram_load_block(uint16_t addr,uint16_t size, uint8_t *b){
	sram_enable();
	sram_cmd(SRAM_READ,addr);
	sram_read_block(b,size);
	sram_disable();
    3eb2:	40 9a       	sbi	0x08, 0	; 8
    3eb4:	08 95       	ret

00003eb6 <sram_store_block>:
}

// transfert le contenu d'une variable tableau dans 
// la mmoire SRAM
void sram_store_block(uint16_t addr, uint16_t size, uint8_t *b){
	sram_enable();
    3eb6:	40 98       	cbi	0x08, 0	; 8
#define sram_enable()  {SRAM_PORT &= ~SRAM_SEL;}
#define sram_disable() {SRAM_PORT |= SRAM_SEL;}


inline void sram_send_byte(unsigned char b){
	SPI_SR|=(1<<SPI2X);
    3eb8:	2d b5       	in	r18, 0x2d	; 45
    3eba:	21 60       	ori	r18, 0x01	; 1
    3ebc:	2d bd       	out	0x2d, r18	; 45
	SPI_DR = b;
    3ebe:	22 e0       	ldi	r18, 0x02	; 2
    3ec0:	2e bd       	out	0x2e, r18	; 46
	while (!(SPI_SR&(1<<SPIF)));
    3ec2:	0d b4       	in	r0, 0x2d	; 45
    3ec4:	07 fe       	sbrs	r0, 7
    3ec6:	fd cf       	rjmp	.-6      	; 0x3ec2 <sram_store_block+0xc>
#define sram_enable()  {SRAM_PORT &= ~SRAM_SEL;}
#define sram_disable() {SRAM_PORT |= SRAM_SEL;}


inline void sram_send_byte(unsigned char b){
	SPI_SR|=(1<<SPI2X);
    3ec8:	2d b5       	in	r18, 0x2d	; 45
    3eca:	21 60       	ori	r18, 0x01	; 1
    3ecc:	2d bd       	out	0x2d, r18	; 45
	SPI_DR = b;
    3ece:	9e bd       	out	0x2e, r25	; 46
	while (!(SPI_SR&(1<<SPIF)));
    3ed0:	0d b4       	in	r0, 0x2d	; 45
    3ed2:	07 fe       	sbrs	r0, 7
    3ed4:	fd cf       	rjmp	.-6      	; 0x3ed0 <sram_store_block+0x1a>
#define sram_enable()  {SRAM_PORT &= ~SRAM_SEL;}
#define sram_disable() {SRAM_PORT |= SRAM_SEL;}


inline void sram_send_byte(unsigned char b){
	SPI_SR|=(1<<SPI2X);
    3ed6:	9d b5       	in	r25, 0x2d	; 45
    3ed8:	91 60       	ori	r25, 0x01	; 1
    3eda:	9d bd       	out	0x2d, r25	; 45
	SPI_DR = b;
    3edc:	8e bd       	out	0x2e, r24	; 46
	while (!(SPI_SR&(1<<SPIF)));
    3ede:	0d b4       	in	r0, 0x2d	; 45
    3ee0:	07 fe       	sbrs	r0, 7
    3ee2:	fd cf       	rjmp	.-6      	; 0x3ede <sram_store_block+0x28>
    3ee4:	fa 01       	movw	r30, r20
    3ee6:	64 0f       	add	r22, r20
    3ee8:	75 1f       	adc	r23, r21
							sram_send_byte(addr&0xff)
							
							
inline void sram_write_block(uint8_t *block,uint16_t size){
	uint16_t i;
	for (i=0;i<size;i++) sram_send_byte(*block++);
    3eea:	e6 17       	cp	r30, r22
    3eec:	f7 07       	cpc	r31, r23
    3eee:	49 f0       	breq	.+18     	; 0x3f02 <sram_store_block+0x4c>
    3ef0:	91 91       	ld	r25, Z+
#define sram_enable()  {SRAM_PORT &= ~SRAM_SEL;}
#define sram_disable() {SRAM_PORT |= SRAM_SEL;}


inline void sram_send_byte(unsigned char b){
	SPI_SR|=(1<<SPI2X);
    3ef2:	8d b5       	in	r24, 0x2d	; 45
    3ef4:	81 60       	ori	r24, 0x01	; 1
    3ef6:	8d bd       	out	0x2d, r24	; 45
	SPI_DR = b;
    3ef8:	9e bd       	out	0x2e, r25	; 46
	while (!(SPI_SR&(1<<SPIF)));
    3efa:	0d b4       	in	r0, 0x2d	; 45
    3efc:	07 fe       	sbrs	r0, 7
    3efe:	fd cf       	rjmp	.-6      	; 0x3efa <sram_store_block+0x44>
    3f00:	f4 cf       	rjmp	.-24     	; 0x3eea <sram_store_block+0x34>
// la mmoire SRAM
void sram_store_block(uint16_t addr, uint16_t size, uint8_t *b){
	sram_enable();
	sram_cmd(SRAM_WRITE,addr);
	sram_write_block(b,size);
	sram_disable();
    3f02:	40 9a       	sbi	0x08, 0	; 8
    3f04:	08 95       	ret

00003f06 <select_font>:

uint8_t font=FONT_ASCII;
uint8_t xpos=0, ypos=0;
	
void select_font(uint8_t font_id){
	font=font_id;
    3f06:	80 93 04 01 	sts	0x0104, r24
    3f0a:	08 95       	ret

00003f0c <new_line>:
}

void new_line(){
	xpos=0;
    3f0c:	10 92 ca 02 	sts	0x02CA, r1
	switch (font){
    3f10:	80 91 04 01 	lds	r24, 0x0104
    3f14:	81 30       	cpi	r24, 0x01	; 1
    3f16:	79 f0       	breq	.+30     	; 0x3f36 <new_line+0x2a>
    3f18:	18 f0       	brcs	.+6      	; 0x3f20 <new_line+0x14>
    3f1a:	82 30       	cpi	r24, 0x02	; 2
    3f1c:	b9 f0       	breq	.+46     	; 0x3f4c <new_line+0x40>
    3f1e:	08 95       	ret
	case FONT_SHEX:
		if ((ypos+SHEX_HEIGHT)<=(VRES-SHEX_HEIGHT+1)){
    3f20:	20 91 c9 02 	lds	r18, 0x02C9
    3f24:	82 2f       	mov	r24, r18
    3f26:	90 e0       	ldi	r25, 0x00	; 0
    3f28:	8e 34       	cpi	r24, 0x4E	; 78
    3f2a:	91 05       	cpc	r25, r1
    3f2c:	14 f4       	brge	.+4      	; 0x3f32 <new_line+0x26>
			ypos+=SHEX_HEIGHT;
    3f2e:	2a 5f       	subi	r18, 0xFA	; 250
    3f30:	15 c0       	rjmp	.+42     	; 0x3f5c <new_line+0x50>
		}else{
			scroll_up(SHEX_HEIGHT);
    3f32:	86 e0       	ldi	r24, 0x06	; 6
    3f34:	17 c0       	rjmp	.+46     	; 0x3f64 <new_line+0x58>
		}
		break;
	case FONT_LHEX:
		if ((ypos+LHEX_HEIGHT)<=(VRES-LHEX_HEIGHT+1)){
    3f36:	20 91 c9 02 	lds	r18, 0x02C9
    3f3a:	82 2f       	mov	r24, r18
    3f3c:	90 e0       	ldi	r25, 0x00	; 0
    3f3e:	86 34       	cpi	r24, 0x46	; 70
    3f40:	91 05       	cpc	r25, r1
    3f42:	14 f4       	brge	.+4      	; 0x3f48 <new_line+0x3c>
			ypos+=LHEX_HEIGHT;
    3f44:	26 5f       	subi	r18, 0xF6	; 246
    3f46:	0a c0       	rjmp	.+20     	; 0x3f5c <new_line+0x50>
		}else{
			scroll_up(LHEX_HEIGHT);
    3f48:	8a e0       	ldi	r24, 0x0A	; 10
    3f4a:	0c c0       	rjmp	.+24     	; 0x3f64 <new_line+0x58>
		}
		break;
	case FONT_ASCII:
		if ((ypos+CHAR_HEIGHT)<=(VRES-CHAR_HEIGHT+1)){
    3f4c:	20 91 c9 02 	lds	r18, 0x02C9
    3f50:	82 2f       	mov	r24, r18
    3f52:	90 e0       	ldi	r25, 0x00	; 0
    3f54:	8a 34       	cpi	r24, 0x4A	; 74
    3f56:	91 05       	cpc	r25, r1
    3f58:	24 f4       	brge	.+8      	; 0x3f62 <new_line+0x56>
			ypos+=CHAR_HEIGHT;
    3f5a:	28 5f       	subi	r18, 0xF8	; 248
    3f5c:	20 93 c9 02 	sts	0x02C9, r18
    3f60:	08 95       	ret
		}else{
			scroll_up(CHAR_HEIGHT);
    3f62:	88 e0       	ldi	r24, 0x08	; 8
    3f64:	0c 94 59 23 	jmp	0x46b2	; 0x46b2 <scroll_up>

00003f68 <put_char>:
		break;	
	}//swtich

}

void put_char(uint8_t c){
    3f68:	0f 93       	push	r16
	switch(font){
    3f6a:	90 91 04 01 	lds	r25, 0x0104
    3f6e:	91 30       	cpi	r25, 0x01	; 1
    3f70:	f9 f0       	breq	.+62     	; 0x3fb0 <put_char+0x48>
    3f72:	18 f0       	brcs	.+6      	; 0x3f7a <put_char+0x12>
    3f74:	92 30       	cpi	r25, 0x02	; 2
    3f76:	a1 f1       	breq	.+104    	; 0x3fe0 <put_char+0x78>
    3f78:	4e c0       	rjmp	.+156    	; 0x4016 <put_char+0xae>
	case FONT_SHEX:	
		if (c<16){
    3f7a:	80 31       	cpi	r24, 0x10	; 16
    3f7c:	08 f0       	brcs	.+2      	; 0x3f80 <put_char+0x18>
    3f7e:	4b c0       	rjmp	.+150    	; 0x4016 <put_char+0xae>
			put_sprite(xpos,ypos,SHEX_HEIGHT,&font_hex_4x6[c*SHEX_HEIGHT],FLASH_MEM);
    3f80:	96 e0       	ldi	r25, 0x06	; 6
    3f82:	89 9f       	mul	r24, r25
    3f84:	90 01       	movw	r18, r0
    3f86:	11 24       	eor	r1, r1
    3f88:	23 57       	subi	r18, 0x73	; 115
    3f8a:	35 4e       	sbci	r19, 0xE5	; 229
    3f8c:	00 e0       	ldi	r16, 0x00	; 0
    3f8e:	46 e0       	ldi	r20, 0x06	; 6
    3f90:	60 91 c9 02 	lds	r22, 0x02C9
    3f94:	80 91 ca 02 	lds	r24, 0x02CA
    3f98:	0e 94 8a 21 	call	0x4314	; 0x4314 <put_sprite>
			xpos+=SHEX_WIDTH;
    3f9c:	80 91 ca 02 	lds	r24, 0x02CA
    3fa0:	8c 5f       	subi	r24, 0xFC	; 252
    3fa2:	80 93 ca 02 	sts	0x02CA, r24
			if (xpos>(HRES-SHEX_WIDTH+1)){
    3fa6:	8e 37       	cpi	r24, 0x7E	; 126
    3fa8:	b0 f1       	brcs	.+108    	; 0x4016 <put_char+0xae>
				new_line();
			}
		}
		break;		
	}
}
    3faa:	0f 91       	pop	r16
	case FONT_SHEX:	
		if (c<16){
			put_sprite(xpos,ypos,SHEX_HEIGHT,&font_hex_4x6[c*SHEX_HEIGHT],FLASH_MEM);
			xpos+=SHEX_WIDTH;
			if (xpos>(HRES-SHEX_WIDTH+1)){
				new_line();
    3fac:	0c 94 86 1f 	jmp	0x3f0c	; 0x3f0c <new_line>
			}
		}
		break;
	case FONT_LHEX:
		if (c<16){
    3fb0:	80 31       	cpi	r24, 0x10	; 16
    3fb2:	88 f5       	brcc	.+98     	; 0x4016 <put_char+0xae>
			put_sprite(xpos,ypos,LHEX_HEIGHT,&font_hex_8x10[c*LHEX_HEIGHT],FLASH_MEM);
    3fb4:	9a e0       	ldi	r25, 0x0A	; 10
    3fb6:	89 9f       	mul	r24, r25
    3fb8:	90 01       	movw	r18, r0
    3fba:	11 24       	eor	r1, r1
    3fbc:	23 51       	subi	r18, 0x13	; 19
    3fbe:	36 4e       	sbci	r19, 0xE6	; 230
    3fc0:	00 e0       	ldi	r16, 0x00	; 0
    3fc2:	4a e0       	ldi	r20, 0x0A	; 10
    3fc4:	60 91 c9 02 	lds	r22, 0x02C9
    3fc8:	80 91 ca 02 	lds	r24, 0x02CA
    3fcc:	0e 94 8a 21 	call	0x4314	; 0x4314 <put_sprite>
			xpos+=LHEX_WIDTH;
    3fd0:	80 91 ca 02 	lds	r24, 0x02CA
    3fd4:	88 5f       	subi	r24, 0xF8	; 248
    3fd6:	80 93 ca 02 	sts	0x02CA, r24
			if (xpos>(HRES-LHEX_WIDTH+1)){
    3fda:	8a 37       	cpi	r24, 0x7A	; 122
    3fdc:	e0 f0       	brcs	.+56     	; 0x4016 <put_char+0xae>
    3fde:	e5 cf       	rjmp	.-54     	; 0x3faa <put_char+0x42>
				new_line();
			}
		}
		break;
	case FONT_ASCII:
		if (c=='\n'){
    3fe0:	8a 30       	cpi	r24, 0x0A	; 10
    3fe2:	19 f3       	breq	.-58     	; 0x3faa <put_char+0x42>
			new_line();
		}else if ((c>31) && (c<(FONT_SIZE+32))){
    3fe4:	90 ee       	ldi	r25, 0xE0	; 224
    3fe6:	98 0f       	add	r25, r24
    3fe8:	95 36       	cpi	r25, 0x65	; 101
    3fea:	a8 f4       	brcc	.+42     	; 0x4016 <put_char+0xae>
			put_sprite(xpos,ypos,CHAR_HEIGHT,&font_6x8[(c-32)*CHAR_HEIGHT],FLASH_MEM);
    3fec:	98 e0       	ldi	r25, 0x08	; 8
    3fee:	89 9f       	mul	r24, r25
    3ff0:	90 01       	movw	r18, r0
    3ff2:	11 24       	eor	r1, r1
    3ff4:	2b 53       	subi	r18, 0x3B	; 59
    3ff6:	3a 4e       	sbci	r19, 0xEA	; 234
    3ff8:	00 e0       	ldi	r16, 0x00	; 0
    3ffa:	48 e0       	ldi	r20, 0x08	; 8
    3ffc:	60 91 c9 02 	lds	r22, 0x02C9
    4000:	80 91 ca 02 	lds	r24, 0x02CA
    4004:	0e 94 8a 21 	call	0x4314	; 0x4314 <put_sprite>
			xpos+=CHAR_WIDTH;
    4008:	80 91 ca 02 	lds	r24, 0x02CA
    400c:	8a 5f       	subi	r24, 0xFA	; 250
    400e:	80 93 ca 02 	sts	0x02CA, r24
			if (xpos>(HRES-CHAR_WIDTH+1)){
    4012:	8c 37       	cpi	r24, 0x7C	; 124
    4014:	50 f6       	brcc	.-108    	; 0x3faa <put_char+0x42>
				new_line();
			}
		}
		break;		
	}
}
    4016:	0f 91       	pop	r16
    4018:	08 95       	ret

0000401a <set_cursor>:

void set_cursor(uint8_t x, uint8_t y){
	xpos=x;
    401a:	80 93 ca 02 	sts	0x02CA, r24
	ypos=y;
    401e:	60 93 c9 02 	sts	0x02C9, r22
    4022:	08 95       	ret

00004024 <print>:

uint16_t get_cursor(){
	return (xpos<<8)+ypos;
}

void print(const unsigned char* str){
    4024:	cf 93       	push	r28
    4026:	df 93       	push	r29
    4028:	ec 01       	movw	r28, r24
	while (*str) put_char(*str++);
    402a:	89 91       	ld	r24, Y+
    402c:	88 23       	and	r24, r24
    402e:	19 f0       	breq	.+6      	; 0x4036 <print+0x12>
    4030:	0e 94 b4 1f 	call	0x3f68	; 0x3f68 <put_char>
    4034:	fa cf       	rjmp	.-12     	; 0x402a <print+0x6>
}
    4036:	df 91       	pop	r29
    4038:	cf 91       	pop	r28
    403a:	08 95       	ret

0000403c <prt_pstr>:

void prt_pstr(const char *str){
    403c:	cf 93       	push	r28
    403e:	df 93       	push	r29
    4040:	fc 01       	movw	r30, r24
	uint8_t c;
	while ((c=pgm_read_byte(str++))) put_char(c);	
    4042:	84 91       	lpm	r24, Z
    4044:	ef 01       	movw	r28, r30
    4046:	21 96       	adiw	r28, 0x01	; 1
    4048:	88 23       	and	r24, r24
    404a:	21 f0       	breq	.+8      	; 0x4054 <prt_pstr+0x18>
    404c:	0e 94 b4 1f 	call	0x3f68	; 0x3f68 <put_char>
    4050:	fe 01       	movw	r30, r28
    4052:	f7 cf       	rjmp	.-18     	; 0x4042 <prt_pstr+0x6>
}
    4054:	df 91       	pop	r29
    4056:	cf 91       	pop	r28
    4058:	08 95       	ret

0000405a <print_hex>:
	put_char(' ');
	i++;
	while (i<12) put_char(nstr[i++]);
}

void print_hex(uint16_t n,uint8_t width){
    405a:	0f 93       	push	r16
    405c:	1f 93       	push	r17
    405e:	cf 93       	push	r28
    4060:	df 93       	push	r29
    4062:	00 d0       	rcall	.+0      	; 0x4064 <print_hex+0xa>
    4064:	00 d0       	rcall	.+0      	; 0x4066 <print_hex+0xc>
    4066:	1f 92       	push	r1
    4068:	cd b7       	in	r28, 0x3d	; 61
    406a:	de b7       	in	r29, 0x3e	; 62
	uint8_t hex[4];
	uint8_t i=3,h;
    406c:	13 e0       	ldi	r17, 0x03	; 3
	
	do{
		h=n&0xf;
    406e:	48 2f       	mov	r20, r24
    4070:	4f 70       	andi	r20, 0x0F	; 15
    4072:	21 2f       	mov	r18, r17
    4074:	30 e0       	ldi	r19, 0x00	; 0
		if (h<10) hex[i]=h+'0'; else hex[i]=h+'A'-10;
    4076:	e1 e0       	ldi	r30, 0x01	; 1
    4078:	f0 e0       	ldi	r31, 0x00	; 0
    407a:	ec 0f       	add	r30, r28
    407c:	fd 1f       	adc	r31, r29
    407e:	e2 0f       	add	r30, r18
    4080:	f3 1f       	adc	r31, r19
    4082:	4a 30       	cpi	r20, 0x0A	; 10
    4084:	10 f4       	brcc	.+4      	; 0x408a <print_hex+0x30>
    4086:	40 5d       	subi	r20, 0xD0	; 208
    4088:	01 c0       	rjmp	.+2      	; 0x408c <print_hex+0x32>
    408a:	49 5c       	subi	r20, 0xC9	; 201
    408c:	40 83       	st	Z, r20
		n>>=4;
    408e:	34 e0       	ldi	r19, 0x04	; 4
    4090:	96 95       	lsr	r25
    4092:	87 95       	ror	r24
    4094:	3a 95       	dec	r19
    4096:	e1 f7       	brne	.-8      	; 0x4090 <print_hex+0x36>
		i--;
    4098:	11 50       	subi	r17, 0x01	; 1
		width--;
    409a:	61 50       	subi	r22, 0x01	; 1
	}while (n);
    409c:	00 97       	sbiw	r24, 0x00	; 0
    409e:	39 f7       	brne	.-50     	; 0x406e <print_hex+0x14>
	do{
		h=n&0xf;
		if (h<10) hex[i]=h+'0'; else hex[i]=h+'A'-10;
		n>>=4;
		i--;
		width--;
    40a0:	06 2f       	mov	r16, r22
	}while (n);
	put_char(' ');
    40a2:	80 e2       	ldi	r24, 0x20	; 32
    40a4:	6d 83       	std	Y+5, r22	; 0x05
    40a6:	0e 94 b4 1f 	call	0x3f68	; 0x3f68 <put_char>
    40aa:	6d 81       	ldd	r22, Y+5	; 0x05
    40ac:	91 2f       	mov	r25, r17
    40ae:	96 1b       	sub	r25, r22
	while (width){hex[i--]='0'; width--;}
    40b0:	20 e3       	ldi	r18, 0x30	; 48
    40b2:	89 2f       	mov	r24, r25
    40b4:	86 0f       	add	r24, r22
    40b6:	66 23       	and	r22, r22
    40b8:	49 f0       	breq	.+18     	; 0x40cc <print_hex+0x72>
    40ba:	e1 e0       	ldi	r30, 0x01	; 1
    40bc:	f0 e0       	ldi	r31, 0x00	; 0
    40be:	ec 0f       	add	r30, r28
    40c0:	fd 1f       	adc	r31, r29
    40c2:	e8 0f       	add	r30, r24
    40c4:	f1 1d       	adc	r31, r1
    40c6:	20 83       	st	Z, r18
    40c8:	61 50       	subi	r22, 0x01	; 1
    40ca:	f3 cf       	rjmp	.-26     	; 0x40b2 <print_hex+0x58>
    40cc:	81 e0       	ldi	r24, 0x01	; 1
    40ce:	81 0f       	add	r24, r17
	i++;
    40d0:	80 1b       	sub	r24, r16
	while (i<4) put_char(hex[i++]);
    40d2:	84 30       	cpi	r24, 0x04	; 4
    40d4:	68 f4       	brcc	.+26     	; 0x40f0 <print_hex+0x96>
    40d6:	11 e0       	ldi	r17, 0x01	; 1
    40d8:	18 0f       	add	r17, r24
    40da:	e1 e0       	ldi	r30, 0x01	; 1
    40dc:	f0 e0       	ldi	r31, 0x00	; 0
    40de:	ec 0f       	add	r30, r28
    40e0:	fd 1f       	adc	r31, r29
    40e2:	e8 0f       	add	r30, r24
    40e4:	f1 1d       	adc	r31, r1
    40e6:	80 81       	ld	r24, Z
    40e8:	0e 94 b4 1f 	call	0x3f68	; 0x3f68 <put_char>
    40ec:	81 2f       	mov	r24, r17
    40ee:	f1 cf       	rjmp	.-30     	; 0x40d2 <print_hex+0x78>
}
    40f0:	0f 90       	pop	r0
    40f2:	0f 90       	pop	r0
    40f4:	0f 90       	pop	r0
    40f6:	0f 90       	pop	r0
    40f8:	0f 90       	pop	r0
    40fa:	df 91       	pop	r29
    40fc:	cf 91       	pop	r28
    40fe:	1f 91       	pop	r17
    4100:	0f 91       	pop	r16
    4102:	08 95       	ret

00004104 <text_scroller>:
		if (xpos-CHAR_WIDTH>=0) xpos-=CHAR_WIDTH;
		break;	
	}
}

void text_scroller(const uint8_t *text, uint8_t speed){
    4104:	ff 92       	push	r15
    4106:	0f 93       	push	r16
    4108:	1f 93       	push	r17
    410a:	cf 93       	push	r28
    410c:	df 93       	push	r29
    410e:	ec 01       	movw	r28, r24
    4110:	06 2f       	mov	r16, r22
	uint8_t c,j;

	cls();
    4112:	0e 94 23 23 	call	0x4646	; 0x4646 <cls>

uint8_t font=FONT_ASCII;
uint8_t xpos=0, ypos=0;
	
void select_font(uint8_t font_id){
	font=font_id;
    4116:	82 e0       	ldi	r24, 0x02	; 2
    4118:	80 93 04 01 	sts	0x0104, r24
void text_scroller(const uint8_t *text, uint8_t speed){
	uint8_t c,j;

	cls();
	select_font(FONT_ASCII);
	c=pgm_read_byte(text++);
    411c:	9e 01       	movw	r18, r28
    411e:	2f 5f       	subi	r18, 0xFF	; 255
    4120:	3f 4f       	sbci	r19, 0xFF	; 255
    4122:	fe 01       	movw	r30, r28
    4124:	14 91       	lpm	r17, Z
	}
}

void set_cursor(uint8_t x, uint8_t y){
	xpos=x;
	ypos=y;
    4126:	40 e2       	ldi	r20, 0x20	; 32
    4128:	f4 2e       	mov	r15, r20
	uint8_t c,j;

	cls();
	select_font(FONT_ASCII);
	c=pgm_read_byte(text++);
	while (c){
    412a:	11 23       	and	r17, r17
    412c:	89 f1       	breq	.+98     	; 0x4190 <text_scroller+0x8c>
		break;		
	}
}

void set_cursor(uint8_t x, uint8_t y){
	xpos=x;
    412e:	10 92 ca 02 	sts	0x02CA, r1
	ypos=y;
    4132:	f0 92 c9 02 	sts	0x02C9, r15
    4136:	e9 01       	movw	r28, r18
	cls();
	select_font(FONT_ASCII);
	c=pgm_read_byte(text++);
	while (c){
		set_cursor(0,4*CHAR_HEIGHT);
		while (c && c!='\n'){
    4138:	1a 30       	cpi	r17, 0x0A	; 10
    413a:	a1 f0       	breq	.+40     	; 0x4164 <text_scroller+0x60>
			put_char(c);
    413c:	81 2f       	mov	r24, r17
    413e:	0e 94 b4 1f 	call	0x3f68	; 0x3f68 <put_char>
			c=pgm_read_byte(text++);
    4142:	21 96       	adiw	r28, 0x01	; 1
    4144:	fe 01       	movw	r30, r28
    4146:	31 97       	sbiw	r30, 0x01	; 1
    4148:	14 91       	lpm	r17, Z
			if (joystick_break()) {goto break_out;}
    414a:	0e 94 04 1c 	call	0x3808	; 0x3808 <joystick_break>
    414e:	88 23       	and	r24, r24
    4150:	39 f0       	breq	.+14     	; 0x4160 <text_scroller+0x5c>
		scroll_up(1);
		if (joystick_break()) { break;}
	}//for
break_out:	
	cls();
}
    4152:	df 91       	pop	r29
    4154:	cf 91       	pop	r28
    4156:	1f 91       	pop	r17
    4158:	0f 91       	pop	r16
    415a:	ff 90       	pop	r15
		while(frame_delay);
		scroll_up(1);
		if (joystick_break()) { break;}
	}//for
break_out:	
	cls();
    415c:	0c 94 23 23 	jmp	0x4646	; 0x4646 <cls>
	cls();
	select_font(FONT_ASCII);
	c=pgm_read_byte(text++);
	while (c){
		set_cursor(0,4*CHAR_HEIGHT);
		while (c && c!='\n'){
    4160:	11 11       	cpse	r17, r1
    4162:	ea cf       	rjmp	.-44     	; 0x4138 <text_scroller+0x34>
	}
}

void set_cursor(uint8_t x, uint8_t y){
	xpos=x;
	ypos=y;
    4164:	18 e0       	ldi	r17, 0x08	; 8
			put_char(c);
			c=pgm_read_byte(text++);
			if (joystick_break()) {goto break_out;}
		}
		for (j=0;j<CHAR_HEIGHT;j++){
			frame_delay=speed;
    4166:	00 93 cf 02 	sts	0x02CF, r16
			while(frame_delay);
    416a:	80 91 cf 02 	lds	r24, 0x02CF
    416e:	81 11       	cpse	r24, r1
    4170:	fc cf       	rjmp	.-8      	; 0x416a <text_scroller+0x66>
			scroll_up(1);
    4172:	81 e0       	ldi	r24, 0x01	; 1
    4174:	0e 94 59 23 	call	0x46b2	; 0x46b2 <scroll_up>
			if (joystick_break()) {goto break_out;}
    4178:	0e 94 04 1c 	call	0x3808	; 0x3808 <joystick_break>
    417c:	81 11       	cpse	r24, r1
    417e:	e9 cf       	rjmp	.-46     	; 0x4152 <text_scroller+0x4e>
    4180:	11 50       	subi	r17, 0x01	; 1
		while (c && c!='\n'){
			put_char(c);
			c=pgm_read_byte(text++);
			if (joystick_break()) {goto break_out;}
		}
		for (j=0;j<CHAR_HEIGHT;j++){
    4182:	89 f7       	brne	.-30     	; 0x4166 <text_scroller+0x62>
			frame_delay=speed;
			while(frame_delay);
			scroll_up(1);
			if (joystick_break()) {goto break_out;}
		}
		c=pgm_read_byte(text++);
    4184:	9e 01       	movw	r18, r28
    4186:	2f 5f       	subi	r18, 0xFF	; 255
    4188:	3f 4f       	sbci	r19, 0xFF	; 255
    418a:	fe 01       	movw	r30, r28
    418c:	14 91       	lpm	r17, Z
    418e:	cd cf       	rjmp	.-102    	; 0x412a <text_scroller+0x26>
	uint8_t c,j;

	cls();
	select_font(FONT_ASCII);
	c=pgm_read_byte(text++);
	while (c){
    4190:	c0 e2       	ldi	r28, 0x20	; 32
			if (joystick_break()) {goto break_out;}
		}
		c=pgm_read_byte(text++);
	}//while
	for (c=0;c<4*CHAR_HEIGHT;c++){
		frame_delay=speed;
    4192:	00 93 cf 02 	sts	0x02CF, r16
		while(frame_delay);
    4196:	80 91 cf 02 	lds	r24, 0x02CF
    419a:	81 11       	cpse	r24, r1
    419c:	fc cf       	rjmp	.-8      	; 0x4196 <text_scroller+0x92>
		scroll_up(1);
    419e:	81 e0       	ldi	r24, 0x01	; 1
    41a0:	0e 94 59 23 	call	0x46b2	; 0x46b2 <scroll_up>
		if (joystick_break()) { break;}
    41a4:	0e 94 04 1c 	call	0x3808	; 0x3808 <joystick_break>
    41a8:	81 11       	cpse	r24, r1
    41aa:	d3 cf       	rjmp	.-90     	; 0x4152 <text_scroller+0x4e>
    41ac:	c1 50       	subi	r28, 0x01	; 1
			scroll_up(1);
			if (joystick_break()) {goto break_out;}
		}
		c=pgm_read_byte(text++);
	}//while
	for (c=0;c<4*CHAR_HEIGHT;c++){
    41ae:	89 f7       	brne	.-30     	; 0x4192 <text_scroller+0x8e>
    41b0:	d0 cf       	rjmp	.-96     	; 0x4152 <text_scroller+0x4e>

000041b2 <tone_init>:




void tone_init(){
	TONE_DDR |= TONE_OUT;
    41b2:	56 9a       	sbi	0x0a, 6	; 10
	TONE_TCCRB = 3; // CLKt0=CLKio/64
    41b4:	83 e0       	ldi	r24, 0x03	; 3
    41b6:	85 bd       	out	0x25, r24	; 37
	TONE_TCCRA = (1<<6)| 2; // OC0A toggle, mode 2 CTC
    41b8:	82 e4       	ldi	r24, 0x42	; 66
    41ba:	84 bd       	out	0x24, r24	; 36
    41bc:	08 95       	ret

000041be <tone>:
}


// frquence en hertz
// dure = 16.6msec * length
void tone(uint16_t freq, uint8_t length){
    41be:	cf 93       	push	r28
    41c0:	c6 2f       	mov	r28, r22
	TONE_OCRA = (F_CPU/128)/freq-1;
    41c2:	9c 01       	movw	r18, r24
    41c4:	40 e0       	ldi	r20, 0x00	; 0
    41c6:	50 e0       	ldi	r21, 0x00	; 0
    41c8:	68 e4       	ldi	r22, 0x48	; 72
    41ca:	78 ee       	ldi	r23, 0xE8	; 232
    41cc:	81 e0       	ldi	r24, 0x01	; 1
    41ce:	90 e0       	ldi	r25, 0x00	; 0
    41d0:	0e 94 c5 24 	call	0x498a	; 0x498a <__divmodsi4>
    41d4:	21 50       	subi	r18, 0x01	; 1
    41d6:	27 bd       	out	0x27, r18	; 39
	tone_on();
    41d8:	56 9a       	sbi	0x0a, 6	; 10
	tone_length = length;
    41da:	c0 93 ce 02 	sts	0x02CE, r28
}
    41de:	cf 91       	pop	r28
    41e0:	08 95       	ret

000041e2 <key_tone>:

PROGMEM const uint16_t SCALE[16]={523,554,587,622,659,698,740,784,831,880,932,988,1047,1109,1175,1245};
	
inline void key_tone(uint8_t key, uint8_t length,bool wait_end){
    41e2:	cf 93       	push	r28
    41e4:	df 93       	push	r29
    41e6:	1f 92       	push	r1
    41e8:	cd b7       	in	r28, 0x3d	; 61
    41ea:	de b7       	in	r29, 0x3e	; 62
	tone(pgm_read_word(&SCALE[key&15]),length);	
    41ec:	8f 70       	andi	r24, 0x0F	; 15
    41ee:	e8 2f       	mov	r30, r24
    41f0:	f0 e0       	ldi	r31, 0x00	; 0
    41f2:	ee 0f       	add	r30, r30
    41f4:	ff 1f       	adc	r31, r31
    41f6:	e3 51       	subi	r30, 0x13	; 19
    41f8:	f5 4e       	sbci	r31, 0xE5	; 229
    41fa:	85 91       	lpm	r24, Z+
    41fc:	94 91       	lpm	r25, Z
    41fe:	49 83       	std	Y+1, r20	; 0x01
    4200:	0e 94 df 20 	call	0x41be	; 0x41be <tone>
	if (wait_end) wait_tone_end();
    4204:	49 81       	ldd	r20, Y+1	; 0x01
    4206:	44 23       	and	r20, r20
    4208:	21 f0       	breq	.+8      	; 0x4212 <key_tone+0x30>
    420a:	80 91 ce 02 	lds	r24, 0x02CE
    420e:	81 11       	cpse	r24, r1
    4210:	fc cf       	rjmp	.-8      	; 0x420a <key_tone+0x28>
}
    4212:	0f 90       	pop	r0
    4214:	df 91       	pop	r29
    4216:	cf 91       	pop	r28
    4218:	08 95       	ret

0000421a <noise>:

void noise(uint8_t length){
	TONE_TCCRA=0; // dsactivation PWM
    421a:	14 bc       	out	0x24, r1	; 36
	TONE_DDR |= TONE_OUT;
    421c:	56 9a       	sbi	0x0a, 6	; 10
	tone_length=length;
    421e:	80 93 ce 02 	sts	0x02CE, r24
	while (tone_length){
    4222:	80 91 ce 02 	lds	r24, 0x02CE
    4226:	88 23       	and	r24, r24
    4228:	41 f0       	breq	.+16     	; 0x423a <noise+0x20>
		if (rand()&1)
    422a:	0e 94 52 25 	call	0x4aa4	; 0x4aa4 <rand>
    422e:	80 ff       	sbrs	r24, 0
    4230:	02 c0       	rjmp	.+4      	; 0x4236 <noise+0x1c>
		   TONE_PORT|=TONE_OUT;
    4232:	5e 9a       	sbi	0x0b, 6	; 11
    4234:	f6 cf       	rjmp	.-20     	; 0x4222 <noise+0x8>
		else
		   TONE_PORT&=~TONE_OUT;   
    4236:	5e 98       	cbi	0x0b, 6	; 11
    4238:	f4 cf       	rjmp	.-24     	; 0x4222 <noise+0x8>
	}
	TONE_DDR &= ~TONE_OUT;
    423a:	56 98       	cbi	0x0a, 6	; 10
	TONE_TCCRA=(1<<6)| 2; // ractivation PWM
    423c:	82 e4       	ldi	r24, 0x42	; 66
    423e:	84 bd       	out	0x24, r24	; 36
    4240:	08 95       	ret

00004242 <tvout_init>:
#include "tone.h"
#include "sram.h"

void tvout_init(){
	// met broche sync en mode sortie
	NTSC_SYNC_DDR |= NTSC_SYNC_OUT;
    4242:	22 9a       	sbi	0x04, 2	; 4
	//configuration USART0 pour mode SPI
	NSTC_VIDEO_CONFIG();
    4244:	82 ec       	ldi	r24, 0xC2	; 194
    4246:	80 93 c2 00 	sts	0x00C2, r24
	//configuration PWM 16 bits pour sync video
	NTSC_SYNC_OCRA=HTIME;
    424a:	87 ef       	ldi	r24, 0xF7	; 247
    424c:	93 e0       	ldi	r25, 0x03	; 3
    424e:	90 93 89 00 	sts	0x0089, r25
    4252:	80 93 88 00 	sts	0x0088, r24
	NTSC_SYNC_OCRB=VPULSE;
    4256:	83 e6       	ldi	r24, 0x63	; 99
    4258:	93 e0       	ldi	r25, 0x03	; 3
    425a:	90 93 8b 00 	sts	0x008B, r25
    425e:	80 93 8a 00 	sts	0x008A, r24
	//configuration mode PWM
	NTSC_SYNC_CONFIG();
    4262:	83 e3       	ldi	r24, 0x33	; 51
    4264:	80 93 80 00 	sts	0x0080, r24
    4268:	89 e1       	ldi	r24, 0x19	; 25
    426a:	80 93 81 00 	sts	0x0081, r24
	//activation interruption
	NTSC_SYNC_INT_ENABLE();
    426e:	ef e6       	ldi	r30, 0x6F	; 111
    4270:	f0 e0       	ldi	r31, 0x00	; 0
    4272:	80 81       	ld	r24, Z
    4274:	84 60       	ori	r24, 0x04	; 4
    4276:	80 83       	st	Z, r24
    4278:	08 95       	ret

0000427a <plot>:

// dessine un point  l'cran
void plot(int8_t x, int8_t y, optype op){
	int8_t xbyte,xbit;
	
	if ((x<0)||(x>=HRES)||(y<0)||(y>=VRES)) return;
    427a:	87 fd       	sbrc	r24, 7
    427c:	4a c0       	rjmp	.+148    	; 0x4312 <plot+0x98>
    427e:	68 35       	cpi	r22, 0x58	; 88
    4280:	08 f0       	brcs	.+2      	; 0x4284 <plot+0xa>
    4282:	47 c0       	rjmp	.+142    	; 0x4312 <plot+0x98>
	xbyte= x/8;
    4284:	e8 2f       	mov	r30, r24
    4286:	e5 95       	asr	r30
    4288:	e5 95       	asr	r30
    428a:	e5 95       	asr	r30
	xbit = 7-x%8;
    428c:	80 95       	com	r24
    428e:	87 70       	andi	r24, 0x07	; 7
	switch (op){
    4290:	41 30       	cpi	r20, 0x01	; 1
    4292:	b9 f0       	breq	.+46     	; 0x42c2 <plot+0x48>
    4294:	18 f0       	brcs	.+6      	; 0x429c <plot+0x22>
    4296:	42 30       	cpi	r20, 0x02	; 2
    4298:	49 f1       	breq	.+82     	; 0x42ec <plot+0x72>
    429a:	08 95       	ret
		case WHITE:
		video_buffer[y*HBYTES+xbyte] |= (1<<xbit);
    429c:	ff 27       	eor	r31, r31
    429e:	e7 fd       	sbrc	r30, 7
    42a0:	f0 95       	com	r31
    42a2:	90 e1       	ldi	r25, 0x10	; 16
    42a4:	69 02       	muls	r22, r25
    42a6:	e0 0d       	add	r30, r0
    42a8:	f1 1d       	adc	r31, r1
    42aa:	11 24       	eor	r1, r1
    42ac:	e0 53       	subi	r30, 0x30	; 48
    42ae:	fd 4f       	sbci	r31, 0xFD	; 253
    42b0:	21 e0       	ldi	r18, 0x01	; 1
    42b2:	30 e0       	ldi	r19, 0x00	; 0
    42b4:	01 c0       	rjmp	.+2      	; 0x42b8 <plot+0x3e>
    42b6:	22 0f       	add	r18, r18
    42b8:	8a 95       	dec	r24
    42ba:	ea f7       	brpl	.-6      	; 0x42b6 <plot+0x3c>
    42bc:	80 81       	ld	r24, Z
    42be:	82 2b       	or	r24, r18
    42c0:	27 c0       	rjmp	.+78     	; 0x4310 <plot+0x96>
		break;
		case BLACK:
		video_buffer[y*HBYTES+xbyte] &= ~(1<<xbit);
    42c2:	ff 27       	eor	r31, r31
    42c4:	e7 fd       	sbrc	r30, 7
    42c6:	f0 95       	com	r31
    42c8:	90 e1       	ldi	r25, 0x10	; 16
    42ca:	69 02       	muls	r22, r25
    42cc:	e0 0d       	add	r30, r0
    42ce:	f1 1d       	adc	r31, r1
    42d0:	11 24       	eor	r1, r1
    42d2:	e0 53       	subi	r30, 0x30	; 48
    42d4:	fd 4f       	sbci	r31, 0xFD	; 253
    42d6:	21 e0       	ldi	r18, 0x01	; 1
    42d8:	30 e0       	ldi	r19, 0x00	; 0
    42da:	01 c0       	rjmp	.+2      	; 0x42de <plot+0x64>
    42dc:	22 0f       	add	r18, r18
    42de:	8a 95       	dec	r24
    42e0:	ea f7       	brpl	.-6      	; 0x42dc <plot+0x62>
    42e2:	20 95       	com	r18
    42e4:	80 81       	ld	r24, Z
    42e6:	28 23       	and	r18, r24
    42e8:	20 83       	st	Z, r18
		break;
    42ea:	08 95       	ret
		case INVERT:
		video_buffer[y*HBYTES+xbyte] ^= (1<<xbit);
    42ec:	ff 27       	eor	r31, r31
    42ee:	e7 fd       	sbrc	r30, 7
    42f0:	f0 95       	com	r31
    42f2:	90 e1       	ldi	r25, 0x10	; 16
    42f4:	69 02       	muls	r22, r25
    42f6:	e0 0d       	add	r30, r0
    42f8:	f1 1d       	adc	r31, r1
    42fa:	11 24       	eor	r1, r1
    42fc:	e0 53       	subi	r30, 0x30	; 48
    42fe:	fd 4f       	sbci	r31, 0xFD	; 253
    4300:	21 e0       	ldi	r18, 0x01	; 1
    4302:	30 e0       	ldi	r19, 0x00	; 0
    4304:	01 c0       	rjmp	.+2      	; 0x4308 <plot+0x8e>
    4306:	22 0f       	add	r18, r18
    4308:	8a 95       	dec	r24
    430a:	ea f7       	brpl	.-6      	; 0x4306 <plot+0x8c>
    430c:	80 81       	ld	r24, Z
    430e:	82 27       	eor	r24, r18
    4310:	80 83       	st	Z, r24
    4312:	08 95       	ret

00004314 <put_sprite>:


// dessine un sprite 8 pixels par n pixels
// s'il y a collision retourne une valeur 1
// autrement 0.
int8_t put_sprite(int8_t x, int8_t y, uint8_t n, const uint8_t *sprite, int8_t memory){
    4314:	af 92       	push	r10
    4316:	bf 92       	push	r11
    4318:	cf 92       	push	r12
    431a:	df 92       	push	r13
    431c:	ef 92       	push	r14
    431e:	ff 92       	push	r15
    4320:	0f 93       	push	r16
    4322:	1f 93       	push	r17
    4324:	cf 93       	push	r28
    4326:	df 93       	push	r29
	int8_t xbyte, shl, shr, row, collision;
	uint8_t sprite_row;

	
	// contrle des limites
	if ((x<-7)||(x>=HRES)||(y<-14)||y>=VRES){return 0;} 
    4328:	89 3f       	cpi	r24, 0xF9	; 249
    432a:	0c f4       	brge	.+2      	; 0x432e <put_sprite+0x1a>
    432c:	84 c0       	rjmp	.+264    	; 0x4436 <put_sprite+0x122>
    432e:	9e e0       	ldi	r25, 0x0E	; 14
    4330:	96 0f       	add	r25, r22
    4332:	96 36       	cpi	r25, 0x66	; 102
    4334:	08 f0       	brcs	.+2      	; 0x4338 <put_sprite+0x24>
    4336:	7f c0       	rjmp	.+254    	; 0x4436 <put_sprite+0x122>
    4338:	50 e0       	ldi	r21, 0x00	; 0
	collision=0;
	if (x<0){
    433a:	87 ff       	sbrs	r24, 7
    433c:	2a c0       	rjmp	.+84     	; 0x4392 <put_sprite+0x7e>
		shl=-x;
    433e:	81 95       	neg	r24
	uint8_t sprite_row;

	
	// contrle des limites
	if ((x<-7)||(x>=HRES)||(y<-14)||y>=VRES){return 0;} 
	collision=0;
    4340:	90 e0       	ldi	r25, 0x00	; 0
	if (x<0){
		shl=-x;
		for (row=0;row<n;row++){
    4342:	70 e0       	ldi	r23, 0x00	; 0
    4344:	e7 2f       	mov	r30, r23
    4346:	ff 27       	eor	r31, r31
    4348:	e7 fd       	sbrc	r30, 7
    434a:	f0 95       	com	r31
    434c:	e4 17       	cp	r30, r20
    434e:	f5 07       	cpc	r31, r21
    4350:	0c f0       	brlt	.+2      	; 0x4354 <put_sprite+0x40>
    4352:	6e c0       	rjmp	.+220    	; 0x4430 <put_sprite+0x11c>
    4354:	c1 e0       	ldi	r28, 0x01	; 1
    4356:	c6 0f       	add	r28, r22
			if (y<0 || y>=VRES){y++;continue;}
    4358:	68 35       	cpi	r22, 0x58	; 88
    435a:	c0 f4       	brcc	.+48     	; 0x438c <put_sprite+0x78>
    435c:	e2 0f       	add	r30, r18
    435e:	f3 1f       	adc	r31, r19
			if (memory==RAM_MEM){
    4360:	01 30       	cpi	r16, 0x01	; 1
    4362:	11 f4       	brne	.+4      	; 0x4368 <put_sprite+0x54>
				sprite_row=sprite[row];
    4364:	e0 81       	ld	r30, Z
    4366:	01 c0       	rjmp	.+2      	; 0x436a <put_sprite+0x56>
			}else{
				sprite_row= pgm_read_byte(sprite+row);
    4368:	e4 91       	lpm	r30, Z
			}
			collision |= video_buffer[y*HBYTES] & (sprite_row<<shl);
    436a:	f0 e1       	ldi	r31, 0x10	; 16
    436c:	6f 02       	muls	r22, r31
    436e:	d0 01       	movw	r26, r0
    4370:	11 24       	eor	r1, r1
    4372:	a0 53       	subi	r26, 0x30	; 48
    4374:	bd 4f       	sbci	r27, 0xFD	; 253
    4376:	6c 91       	ld	r22, X
    4378:	08 2e       	mov	r0, r24
    437a:	01 c0       	rjmp	.+2      	; 0x437e <put_sprite+0x6a>
    437c:	ee 0f       	add	r30, r30
    437e:	0a 94       	dec	r0
    4380:	ea f7       	brpl	.-6      	; 0x437c <put_sprite+0x68>
    4382:	f6 2f       	mov	r31, r22
    4384:	fe 23       	and	r31, r30
    4386:	9f 2b       	or	r25, r31
			video_buffer[y*HBYTES] ^= sprite_row<<shl;
    4388:	e6 27       	eor	r30, r22
    438a:	ec 93       	st	X, r30
			y++;
    438c:	6c 2f       	mov	r22, r28
    438e:	7f 5f       	subi	r23, 0xFF	; 255
    4390:	d9 cf       	rjmp	.-78     	; 0x4344 <put_sprite+0x30>
		}//for
	}else{
		shr= x&7;
    4392:	78 2f       	mov	r23, r24
    4394:	77 70       	andi	r23, 0x07	; 7
    4396:	c7 2e       	mov	r12, r23
		shl=(8-shr)&7;
    4398:	17 2f       	mov	r17, r23
    439a:	11 95       	neg	r17
    439c:	17 70       	andi	r17, 0x07	; 7
		xbyte=x>>3;
    439e:	85 95       	asr	r24
    43a0:	85 95       	asr	r24
    43a2:	85 95       	asr	r24
	uint8_t sprite_row;

	
	// contrle des limites
	if ((x<-7)||(x>=HRES)||(y<-14)||y>=VRES){return 0;} 
	collision=0;
    43a4:	90 e0       	ldi	r25, 0x00	; 0
		}//for
	}else{
		shr= x&7;
		shl=(8-shr)&7;
		xbyte=x>>3;
		for (row=0;row<n;row++){
    43a6:	d1 2c       	mov	r13, r1
			if (memory==RAM_MEM){
				sprite_row=sprite[row];
				}else{
				sprite_row= pgm_read_byte(sprite+row);
			}
			collision |= video_buffer[y*HBYTES+xbyte] & (sprite_row>>shr);
    43a8:	e8 2e       	mov	r14, r24
    43aa:	ff 24       	eor	r15, r15
    43ac:	e7 fc       	sbrc	r14, 7
    43ae:	f0 94       	com	r15
		}//for
	}else{
		shr= x&7;
		shl=(8-shr)&7;
		xbyte=x>>3;
		for (row=0;row<n;row++){
    43b0:	ed 2d       	mov	r30, r13
    43b2:	ff 27       	eor	r31, r31
    43b4:	e7 fd       	sbrc	r30, 7
    43b6:	f0 95       	com	r31
    43b8:	e4 17       	cp	r30, r20
    43ba:	f5 07       	cpc	r31, r21
    43bc:	cc f5       	brge	.+114    	; 0x4430 <put_sprite+0x11c>
    43be:	bb 24       	eor	r11, r11
    43c0:	b3 94       	inc	r11
    43c2:	b6 0e       	add	r11, r22
			if (y<0 || y>=VRES){y++;continue;}
    43c4:	68 35       	cpi	r22, 0x58	; 88
    43c6:	88 f5       	brcc	.+98     	; 0x442a <put_sprite+0x116>
    43c8:	e2 0f       	add	r30, r18
    43ca:	f3 1f       	adc	r31, r19
			if (memory==RAM_MEM){
    43cc:	01 30       	cpi	r16, 0x01	; 1
    43ce:	11 f4       	brne	.+4      	; 0x43d4 <put_sprite+0xc0>
				sprite_row=sprite[row];
    43d0:	e0 81       	ld	r30, Z
    43d2:	01 c0       	rjmp	.+2      	; 0x43d6 <put_sprite+0xc2>
				}else{
				sprite_row= pgm_read_byte(sprite+row);
    43d4:	e4 91       	lpm	r30, Z
			}
			collision |= video_buffer[y*HBYTES+xbyte] & (sprite_row>>shr);
    43d6:	d7 01       	movw	r26, r14
    43d8:	f0 e1       	ldi	r31, 0x10	; 16
    43da:	6f 02       	muls	r22, r31
    43dc:	a0 0d       	add	r26, r0
    43de:	b1 1d       	adc	r27, r1
    43e0:	11 24       	eor	r1, r1
    43e2:	ed 01       	movw	r28, r26
    43e4:	c0 53       	subi	r28, 0x30	; 48
    43e6:	dd 4f       	sbci	r29, 0xFD	; 253
    43e8:	a8 80       	ld	r10, Y
    43ea:	6e 2f       	mov	r22, r30
    43ec:	70 e0       	ldi	r23, 0x00	; 0
    43ee:	fb 01       	movw	r30, r22
    43f0:	0c 2c       	mov	r0, r12
    43f2:	02 c0       	rjmp	.+4      	; 0x43f8 <put_sprite+0xe4>
    43f4:	f5 95       	asr	r31
    43f6:	e7 95       	ror	r30
    43f8:	0a 94       	dec	r0
    43fa:	e2 f7       	brpl	.-8      	; 0x43f4 <put_sprite+0xe0>
    43fc:	fa 2d       	mov	r31, r10
    43fe:	fe 23       	and	r31, r30
    4400:	9f 2b       	or	r25, r31
			video_buffer[y*HBYTES+xbyte] ^= sprite_row>>shr;
    4402:	ea 25       	eor	r30, r10
    4404:	e8 83       	st	Y, r30
			if (shl && (xbyte+1<HBYTES)){
    4406:	11 23       	and	r17, r17
    4408:	81 f0       	breq	.+32     	; 0x442a <put_sprite+0x116>
    440a:	8f 30       	cpi	r24, 0x0F	; 15
    440c:	71 f0       	breq	.+28     	; 0x442a <put_sprite+0x116>
				collision |= video_buffer[y*HBYTES+xbyte+1] & (sprite_row<<shl);
    440e:	af 52       	subi	r26, 0x2F	; 47
    4410:	bd 4f       	sbci	r27, 0xFD	; 253
    4412:	cc 91       	ld	r28, X
    4414:	fb 01       	movw	r30, r22
    4416:	01 2e       	mov	r0, r17
    4418:	01 c0       	rjmp	.+2      	; 0x441c <put_sprite+0x108>
    441a:	ee 0f       	add	r30, r30
    441c:	0a 94       	dec	r0
    441e:	ea f7       	brpl	.-6      	; 0x441a <put_sprite+0x106>
    4420:	6c 2f       	mov	r22, r28
    4422:	6e 23       	and	r22, r30
    4424:	96 2b       	or	r25, r22
				video_buffer[y*HBYTES+xbyte+1] ^= sprite_row<<shl;
    4426:	ec 27       	eor	r30, r28
    4428:	ec 93       	st	X, r30
			}
			y++;
    442a:	6b 2d       	mov	r22, r11
    442c:	d3 94       	inc	r13
    442e:	c0 cf       	rjmp	.-128    	; 0x43b0 <put_sprite+0x9c>
		}
	}
	if (collision) collision=1;
    4430:	81 e0       	ldi	r24, 0x01	; 1
    4432:	91 11       	cpse	r25, r1
    4434:	01 c0       	rjmp	.+2      	; 0x4438 <put_sprite+0x124>
	int8_t xbyte, shl, shr, row, collision;
	uint8_t sprite_row;

	
	// contrle des limites
	if ((x<-7)||(x>=HRES)||(y<-14)||y>=VRES){return 0;} 
    4436:	80 e0       	ldi	r24, 0x00	; 0
			y++;
		}
	}
	if (collision) collision=1;
	return collision;
}
    4438:	df 91       	pop	r29
    443a:	cf 91       	pop	r28
    443c:	1f 91       	pop	r17
    443e:	0f 91       	pop	r16
    4440:	ff 90       	pop	r15
    4442:	ef 90       	pop	r14
    4444:	df 90       	pop	r13
    4446:	cf 90       	pop	r12
    4448:	bf 90       	pop	r11
    444a:	af 90       	pop	r10
    444c:	08 95       	ret

0000444e <put_big_sprite>:

//dessine un sprite 16x16pixels
// le sprite est en mmoire RAM
// s'il y a collision retourne 1,
// autrement 0.
int8_t put_big_sprite(int8_t x, int8_t y,const uint8_t *sprite){
    444e:	8f 92       	push	r8
    4450:	9f 92       	push	r9
    4452:	bf 92       	push	r11
    4454:	cf 92       	push	r12
    4456:	df 92       	push	r13
    4458:	ef 92       	push	r14
    445a:	ff 92       	push	r15
    445c:	0f 93       	push	r16
    445e:	1f 93       	push	r17
    4460:	cf 93       	push	r28
    4462:	df 93       	push	r29
	int8_t xbyte, shl, shr, row, collision;
	uint8_t sprite_row;

	// contrle des limites
	if ((x<-15)||(x>=HRES)||(y<-15)||(y>=VRES)) return 0;
    4464:	81 3f       	cpi	r24, 0xF1	; 241
    4466:	0c f4       	brge	.+2      	; 0x446a <put_big_sprite+0x1c>
    4468:	e1 c0       	rjmp	.+450    	; 0x462c <put_big_sprite+0x1de>
    446a:	9f e0       	ldi	r25, 0x0F	; 15
    446c:	96 0f       	add	r25, r22
    446e:	97 36       	cpi	r25, 0x67	; 103
    4470:	08 f0       	brcs	.+2      	; 0x4474 <put_big_sprite+0x26>
    4472:	dc c0       	rjmp	.+440    	; 0x462c <put_big_sprite+0x1de>
    4474:	fa 01       	movw	r30, r20
    4476:	31 96       	adiw	r30, 0x01	; 1
	collision=0;
	if (x<-7){ // x {-7..-15}
    4478:	89 3f       	cpi	r24, 0xF9	; 249
    447a:	04 f5       	brge	.+64     	; 0x44bc <put_big_sprite+0x6e>
		shl=-x-8;
    447c:	38 ef       	ldi	r19, 0xF8	; 248
    447e:	38 1b       	sub	r19, r24
    4480:	20 e1       	ldi	r18, 0x10	; 16
	int8_t xbyte, shl, shr, row, collision;
	uint8_t sprite_row;

	// contrle des limites
	if ((x<-15)||(x>=HRES)||(y<-15)||(y>=VRES)) return 0;
	collision=0;
    4482:	10 e0       	ldi	r17, 0x00	; 0
    4484:	41 e0       	ldi	r20, 0x01	; 1
    4486:	46 0f       	add	r20, r22
	if (x<-7){ // x {-7..-15}
		shl=-x-8;
		for (row=0;row<32;row+=2){
			if ((y<0) || (y>= VRES)){y++; continue;}
    4488:	68 35       	cpi	r22, 0x58	; 88
    448a:	90 f4       	brcc	.+36     	; 0x44b0 <put_big_sprite+0x62>
			sprite_row=sprite[row+1];
			collision |= video_buffer[y*HBYTES] & (sprite_row<<shl);
    448c:	80 e1       	ldi	r24, 0x10	; 16
    448e:	68 02       	muls	r22, r24
    4490:	d0 01       	movw	r26, r0
    4492:	11 24       	eor	r1, r1
    4494:	a0 53       	subi	r26, 0x30	; 48
    4496:	bd 4f       	sbci	r27, 0xFD	; 253
    4498:	5c 91       	ld	r21, X
    449a:	80 81       	ld	r24, Z
    449c:	03 2e       	mov	r0, r19
    449e:	01 c0       	rjmp	.+2      	; 0x44a2 <put_big_sprite+0x54>
    44a0:	88 0f       	add	r24, r24
    44a2:	0a 94       	dec	r0
    44a4:	ea f7       	brpl	.-6      	; 0x44a0 <put_big_sprite+0x52>
    44a6:	95 2f       	mov	r25, r21
    44a8:	98 23       	and	r25, r24
    44aa:	19 2b       	or	r17, r25
			video_buffer[y*HBYTES] ^= sprite_row<<shl;
    44ac:	85 27       	eor	r24, r21
    44ae:	8c 93       	st	X, r24
			y++;
    44b0:	64 2f       	mov	r22, r20
    44b2:	21 50       	subi	r18, 0x01	; 1
    44b4:	32 96       	adiw	r30, 0x02	; 2
	// contrle des limites
	if ((x<-15)||(x>=HRES)||(y<-15)||(y>=VRES)) return 0;
	collision=0;
	if (x<-7){ // x {-7..-15}
		shl=-x-8;
		for (row=0;row<32;row+=2){
    44b6:	21 11       	cpse	r18, r1
    44b8:	e5 cf       	rjmp	.-54     	; 0x4484 <put_big_sprite+0x36>
    44ba:	b5 c0       	rjmp	.+362    	; 0x4626 <put_big_sprite+0x1d8>
			sprite_row=sprite[row+1];
			collision |= video_buffer[y*HBYTES] & (sprite_row<<shl);
			video_buffer[y*HBYTES] ^= sprite_row<<shl;
			y++;
		}
	}else if (x<0){ // x {-1..-7}
    44bc:	87 ff       	sbrs	r24, 7
    44be:	43 c0       	rjmp	.+134    	; 0x4546 <put_big_sprite+0xf8>
		shl=-x;
    44c0:	78 2f       	mov	r23, r24
    44c2:	71 95       	neg	r23
		shr=8-shl;
    44c4:	88 5f       	subi	r24, 0xF8	; 248
    44c6:	90 e1       	ldi	r25, 0x10	; 16
	int8_t xbyte, shl, shr, row, collision;
	uint8_t sprite_row;

	// contrle des limites
	if ((x<-15)||(x>=HRES)||(y<-15)||(y>=VRES)) return 0;
	collision=0;
    44c8:	10 e0       	ldi	r17, 0x00	; 0
    44ca:	01 e0       	ldi	r16, 0x01	; 1
    44cc:	06 0f       	add	r16, r22
		}
	}else if (x<0){ // x {-1..-7}
		shl=-x;
		shr=8-shl;
		for (row=0;row<32;row+=2){
			if ((y<0) || (y>= VRES)){y++; continue;}
    44ce:	68 35       	cpi	r22, 0x58	; 88
    44d0:	a0 f5       	brcc	.+104    	; 0x453a <put_big_sprite+0xec>
			sprite_row=sprite[row];
			collision|=video_buffer[y*HBYTES] & (sprite_row<<shl);
    44d2:	a0 e1       	ldi	r26, 0x10	; 16
    44d4:	6a 02       	muls	r22, r26
    44d6:	40 01       	movw	r8, r0
    44d8:	11 24       	eor	r1, r1
    44da:	e4 01       	movw	r28, r8
    44dc:	c0 53       	subi	r28, 0x30	; 48
    44de:	dd 4f       	sbci	r29, 0xFD	; 253
    44e0:	b8 80       	ld	r11, Y
    44e2:	af 01       	movw	r20, r30
    44e4:	41 50       	subi	r20, 0x01	; 1
    44e6:	51 09       	sbc	r21, r1
    44e8:	da 01       	movw	r26, r20
    44ea:	2c 91       	ld	r18, X
    44ec:	07 2e       	mov	r0, r23
    44ee:	01 c0       	rjmp	.+2      	; 0x44f2 <put_big_sprite+0xa4>
    44f0:	22 0f       	add	r18, r18
    44f2:	0a 94       	dec	r0
    44f4:	ea f7       	brpl	.-6      	; 0x44f0 <put_big_sprite+0xa2>
			video_buffer[y*HBYTES] ^= sprite_row<<shl;
    44f6:	3b 2d       	mov	r19, r11
    44f8:	32 27       	eor	r19, r18
    44fa:	38 83       	st	Y, r19
			sprite_row=sprite[row+1];
			collision|=video_buffer[y*HBYTES] & (sprite_row>>shr);
    44fc:	c0 80       	ld	r12, Z
    44fe:	d1 2c       	mov	r13, r1
    4500:	76 01       	movw	r14, r12
    4502:	08 2e       	mov	r0, r24
    4504:	02 c0       	rjmp	.+4      	; 0x450a <put_big_sprite+0xbc>
    4506:	f5 94       	asr	r15
    4508:	e7 94       	ror	r14
    450a:	0a 94       	dec	r0
    450c:	e2 f7       	brpl	.-8      	; 0x4506 <put_big_sprite+0xb8>
			video_buffer[y*HBYTES] ^= sprite_row>>shr;
    450e:	43 2f       	mov	r20, r19
    4510:	4e 25       	eor	r20, r14
    4512:	48 83       	st	Y, r20
			collision|=video_buffer[y*HBYTES+1] & (sprite_row<<shl);
    4514:	d4 01       	movw	r26, r8
    4516:	af 52       	subi	r26, 0x2F	; 47
    4518:	bd 4f       	sbci	r27, 0xFD	; 253
    451a:	6c 91       	ld	r22, X
    451c:	a6 01       	movw	r20, r12
    451e:	07 2e       	mov	r0, r23
    4520:	01 c0       	rjmp	.+2      	; 0x4524 <put_big_sprite+0xd6>
    4522:	44 0f       	add	r20, r20
    4524:	0a 94       	dec	r0
    4526:	ea f7       	brpl	.-6      	; 0x4522 <put_big_sprite+0xd4>
    4528:	56 2f       	mov	r21, r22
    452a:	54 23       	and	r21, r20
		shl=-x;
		shr=8-shl;
		for (row=0;row<32;row+=2){
			if ((y<0) || (y>= VRES)){y++; continue;}
			sprite_row=sprite[row];
			collision|=video_buffer[y*HBYTES] & (sprite_row<<shl);
    452c:	15 2b       	or	r17, r21
    452e:	2b 21       	and	r18, r11
			video_buffer[y*HBYTES] ^= sprite_row<<shl;
			sprite_row=sprite[row+1];
			collision|=video_buffer[y*HBYTES] & (sprite_row>>shr);
    4530:	12 2b       	or	r17, r18
    4532:	e3 22       	and	r14, r19
			video_buffer[y*HBYTES] ^= sprite_row>>shr;
			collision|=video_buffer[y*HBYTES+1] & (sprite_row<<shl);
    4534:	1e 29       	or	r17, r14
			video_buffer[y*HBYTES+1] ^= sprite_row<<shl;
    4536:	46 27       	eor	r20, r22
    4538:	4c 93       	st	X, r20
			y++;
    453a:	60 2f       	mov	r22, r16
    453c:	91 50       	subi	r25, 0x01	; 1
    453e:	32 96       	adiw	r30, 0x02	; 2
			y++;
		}
	}else if (x<0){ // x {-1..-7}
		shl=-x;
		shr=8-shl;
		for (row=0;row<32;row+=2){
    4540:	91 11       	cpse	r25, r1
    4542:	c3 cf       	rjmp	.-122    	; 0x44ca <put_big_sprite+0x7c>
    4544:	70 c0       	rjmp	.+224    	; 0x4626 <put_big_sprite+0x1d8>
			collision|=video_buffer[y*HBYTES+1] & (sprite_row<<shl);
			video_buffer[y*HBYTES+1] ^= sprite_row<<shl;
			y++;
		}
	}else{ // x {0..HRES-1}
		shr= x&7;
    4546:	08 2f       	mov	r16, r24
    4548:	07 70       	andi	r16, 0x07	; 7
		shl=(8-shr)&7;
    454a:	90 2f       	mov	r25, r16
    454c:	91 95       	neg	r25
    454e:	97 70       	andi	r25, 0x07	; 7
		xbyte=x>>3;
    4550:	85 95       	asr	r24
    4552:	85 95       	asr	r24
    4554:	85 95       	asr	r24
    4556:	20 e1       	ldi	r18, 0x10	; 16
    4558:	d2 2e       	mov	r13, r18
	int8_t xbyte, shl, shr, row, collision;
	uint8_t sprite_row;

	// contrle des limites
	if ((x<-15)||(x>=HRES)||(y<-15)||(y>=VRES)) return 0;
	collision=0;
    455a:	10 e0       	ldi	r17, 0x00	; 0
		shl=(8-shr)&7;
		xbyte=x>>3;
		for (row=0;row<32;row+=2){
			if ((y<0) || (y>=VRES)){y++; continue;}
			sprite_row=sprite[row];
			collision |= video_buffer[y*HBYTES+xbyte] & (sprite_row>>shr);
    455c:	88 2e       	mov	r8, r24
    455e:	99 24       	eor	r9, r9
    4560:	87 fc       	sbrc	r8, 7
    4562:	90 94       	com	r9
    4564:	cc 24       	eor	r12, r12
    4566:	c3 94       	inc	r12
    4568:	c6 0e       	add	r12, r22
	}else{ // x {0..HRES-1}
		shr= x&7;
		shl=(8-shr)&7;
		xbyte=x>>3;
		for (row=0;row<32;row+=2){
			if ((y<0) || (y>=VRES)){y++; continue;}
    456a:	68 35       	cpi	r22, 0x58	; 88
    456c:	08 f0       	brcs	.+2      	; 0x4570 <put_big_sprite+0x122>
    456e:	56 c0       	rjmp	.+172    	; 0x461c <put_big_sprite+0x1ce>
			sprite_row=sprite[row];
			collision |= video_buffer[y*HBYTES+xbyte] & (sprite_row>>shr);
    4570:	94 01       	movw	r18, r8
    4572:	b0 e1       	ldi	r27, 0x10	; 16
    4574:	6b 02       	muls	r22, r27
    4576:	20 0d       	add	r18, r0
    4578:	31 1d       	adc	r19, r1
    457a:	11 24       	eor	r1, r1
    457c:	d9 01       	movw	r26, r18
    457e:	a0 53       	subi	r26, 0x30	; 48
    4580:	bd 4f       	sbci	r27, 0xFD	; 253
    4582:	bc 90       	ld	r11, X
    4584:	bf 01       	movw	r22, r30
    4586:	61 50       	subi	r22, 0x01	; 1
    4588:	71 09       	sbc	r23, r1
    458a:	eb 01       	movw	r28, r22
    458c:	e8 80       	ld	r14, Y
    458e:	f1 2c       	mov	r15, r1
    4590:	a7 01       	movw	r20, r14
    4592:	00 2e       	mov	r0, r16
    4594:	02 c0       	rjmp	.+4      	; 0x459a <put_big_sprite+0x14c>
    4596:	55 95       	asr	r21
    4598:	47 95       	ror	r20
    459a:	0a 94       	dec	r0
    459c:	e2 f7       	brpl	.-8      	; 0x4596 <put_big_sprite+0x148>
    459e:	5b 2d       	mov	r21, r11
    45a0:	54 23       	and	r21, r20
    45a2:	15 2b       	or	r17, r21
			video_buffer[y*HBYTES+xbyte] ^= sprite_row>>shr;
    45a4:	4b 25       	eor	r20, r11
    45a6:	4c 93       	st	X, r20
			if ((xbyte+1)<HBYTES){
    45a8:	8f 30       	cpi	r24, 0x0F	; 15
    45aa:	c1 f1       	breq	.+112    	; 0x461c <put_big_sprite+0x1ce>
    45ac:	d9 01       	movw	r26, r18
    45ae:	11 96       	adiw	r26, 0x01	; 1
				if (shl){
    45b0:	99 23       	and	r25, r25
    45b2:	81 f0       	breq	.+32     	; 0x45d4 <put_big_sprite+0x186>
					collision |= video_buffer[y*HBYTES+xbyte+1] & (sprite_row<<shl);
    45b4:	ad 01       	movw	r20, r26
    45b6:	40 53       	subi	r20, 0x30	; 48
    45b8:	5d 4f       	sbci	r21, 0xFD	; 253
    45ba:	ea 01       	movw	r28, r20
    45bc:	b8 80       	ld	r11, Y
    45be:	b7 01       	movw	r22, r14
    45c0:	09 2e       	mov	r0, r25
    45c2:	01 c0       	rjmp	.+2      	; 0x45c6 <put_big_sprite+0x178>
    45c4:	66 0f       	add	r22, r22
    45c6:	0a 94       	dec	r0
    45c8:	ea f7       	brpl	.-6      	; 0x45c4 <put_big_sprite+0x176>
    45ca:	7b 2d       	mov	r23, r11
    45cc:	76 23       	and	r23, r22
    45ce:	17 2b       	or	r17, r23
					video_buffer[y*HBYTES+xbyte+1] ^= sprite_row<<shl;
    45d0:	6b 25       	eor	r22, r11
    45d2:	68 83       	st	Y, r22
				}
				sprite_row=sprite[row+1];
				collision |= video_buffer[y*HBYTES+xbyte+1] & (sprite_row>>shr);
    45d4:	a0 53       	subi	r26, 0x30	; 48
    45d6:	bd 4f       	sbci	r27, 0xFD	; 253
    45d8:	fc 90       	ld	r15, X
    45da:	40 81       	ld	r20, Z
    45dc:	50 e0       	ldi	r21, 0x00	; 0
    45de:	ba 01       	movw	r22, r20
    45e0:	00 2e       	mov	r0, r16
    45e2:	02 c0       	rjmp	.+4      	; 0x45e8 <put_big_sprite+0x19a>
    45e4:	75 95       	asr	r23
    45e6:	67 95       	ror	r22
    45e8:	0a 94       	dec	r0
    45ea:	e2 f7       	brpl	.-8      	; 0x45e4 <put_big_sprite+0x196>
    45ec:	7f 2d       	mov	r23, r15
    45ee:	76 23       	and	r23, r22
    45f0:	17 2b       	or	r17, r23
				video_buffer[y*HBYTES+xbyte+1] ^= (sprite_row>>shr);
    45f2:	6f 25       	eor	r22, r15
    45f4:	6c 93       	st	X, r22
				if (shl && ((xbyte+2)<HBYTES)){
    45f6:	99 23       	and	r25, r25
    45f8:	89 f0       	breq	.+34     	; 0x461c <put_big_sprite+0x1ce>
    45fa:	8e 30       	cpi	r24, 0x0E	; 14
    45fc:	79 f0       	breq	.+30     	; 0x461c <put_big_sprite+0x1ce>
					collision |= video_buffer[y*HBYTES+xbyte+2] & (sprite_row<<shl);
    45fe:	d9 01       	movw	r26, r18
    4600:	ae 52       	subi	r26, 0x2E	; 46
    4602:	bd 4f       	sbci	r27, 0xFD	; 253
    4604:	6c 91       	ld	r22, X
    4606:	9a 01       	movw	r18, r20
    4608:	09 2e       	mov	r0, r25
    460a:	01 c0       	rjmp	.+2      	; 0x460e <put_big_sprite+0x1c0>
    460c:	22 0f       	add	r18, r18
    460e:	0a 94       	dec	r0
    4610:	ea f7       	brpl	.-6      	; 0x460c <put_big_sprite+0x1be>
    4612:	36 2f       	mov	r19, r22
    4614:	32 23       	and	r19, r18
    4616:	13 2b       	or	r17, r19
					video_buffer[y*HBYTES+xbyte+2] ^=(sprite_row<<shl);
    4618:	26 27       	eor	r18, r22
    461a:	2c 93       	st	X, r18
				}
			}
			y++;
    461c:	6c 2d       	mov	r22, r12
    461e:	da 94       	dec	r13
    4620:	32 96       	adiw	r30, 0x02	; 2
		}
	}else{ // x {0..HRES-1}
		shr= x&7;
		shl=(8-shr)&7;
		xbyte=x>>3;
		for (row=0;row<32;row+=2){
    4622:	d1 10       	cpse	r13, r1
    4624:	9f cf       	rjmp	.-194    	; 0x4564 <put_big_sprite+0x116>
				}
			}
			y++;
		}
	}
	if (collision) collision=1;
    4626:	81 e0       	ldi	r24, 0x01	; 1
    4628:	11 11       	cpse	r17, r1
    462a:	01 c0       	rjmp	.+2      	; 0x462e <put_big_sprite+0x1e0>
int8_t put_big_sprite(int8_t x, int8_t y,const uint8_t *sprite){
	int8_t xbyte, shl, shr, row, collision;
	uint8_t sprite_row;

	// contrle des limites
	if ((x<-15)||(x>=HRES)||(y<-15)||(y>=VRES)) return 0;
    462c:	80 e0       	ldi	r24, 0x00	; 0
			y++;
		}
	}
	if (collision) collision=1;
	return collision;
}
    462e:	df 91       	pop	r29
    4630:	cf 91       	pop	r28
    4632:	1f 91       	pop	r17
    4634:	0f 91       	pop	r16
    4636:	ff 90       	pop	r15
    4638:	ef 90       	pop	r14
    463a:	df 90       	pop	r13
    463c:	cf 90       	pop	r12
    463e:	bf 90       	pop	r11
    4640:	9f 90       	pop	r9
    4642:	8f 90       	pop	r8
    4644:	08 95       	ret

00004646 <cls>:


void cls(){
	memset(video_buffer,0,VRES*HBYTES);	
    4646:	80 e8       	ldi	r24, 0x80	; 128
    4648:	95 e0       	ldi	r25, 0x05	; 5
    464a:	e0 ed       	ldi	r30, 0xD0	; 208
    464c:	f2 e0       	ldi	r31, 0x02	; 2
    464e:	df 01       	movw	r26, r30
    4650:	9c 01       	movw	r18, r24
    4652:	1d 92       	st	X+, r1
    4654:	21 50       	subi	r18, 0x01	; 1
    4656:	30 40       	sbci	r19, 0x00	; 0
    4658:	e1 f7       	brne	.-8      	; 0x4652 <cls+0xc>
	set_cursor(0,0);
    465a:	60 e0       	ldi	r22, 0x00	; 0
    465c:	80 e0       	ldi	r24, 0x00	; 0
    465e:	0c 94 0d 20 	jmp	0x401a	; 0x401a <set_cursor>

00004662 <scroll_down>:
}


// lines {1..31}
void scroll_down(uint8_t lines){
    4662:	cf 93       	push	r28
    4664:	df 93       	push	r29
	if (!lines) return;
    4666:	88 23       	and	r24, r24
    4668:	09 f1       	breq	.+66     	; 0x46ac <scroll_down+0x4a>
	lines &=0x1f;
    466a:	8f 71       	andi	r24, 0x1F	; 31
	memmove(video_buffer+HBYTES*lines,video_buffer,HBYTES*VRES-HBYTES*lines);
    466c:	90 e0       	ldi	r25, 0x00	; 0
    466e:	ec 01       	movw	r28, r24
    4670:	34 e0       	ldi	r19, 0x04	; 4
    4672:	cc 0f       	add	r28, r28
    4674:	dd 1f       	adc	r29, r29
    4676:	3a 95       	dec	r19
    4678:	e1 f7       	brne	.-8      	; 0x4672 <scroll_down+0x10>
    467a:	48 e5       	ldi	r20, 0x58	; 88
    467c:	50 e0       	ldi	r21, 0x00	; 0
    467e:	48 1b       	sub	r20, r24
    4680:	59 0b       	sbc	r21, r25
    4682:	64 e0       	ldi	r22, 0x04	; 4
    4684:	44 0f       	add	r20, r20
    4686:	55 1f       	adc	r21, r21
    4688:	6a 95       	dec	r22
    468a:	e1 f7       	brne	.-8      	; 0x4684 <scroll_down+0x22>
    468c:	60 ed       	ldi	r22, 0xD0	; 208
    468e:	72 e0       	ldi	r23, 0x02	; 2
    4690:	ce 01       	movw	r24, r28
    4692:	80 53       	subi	r24, 0x30	; 48
    4694:	9d 4f       	sbci	r25, 0xFD	; 253
    4696:	0e 94 62 25 	call	0x4ac4	; 0x4ac4 <memmove>
	memset(video_buffer,0,HBYTES*lines);	
    469a:	ae 01       	movw	r20, r28
    469c:	60 e0       	ldi	r22, 0x00	; 0
    469e:	70 e0       	ldi	r23, 0x00	; 0
    46a0:	80 ed       	ldi	r24, 0xD0	; 208
    46a2:	92 e0       	ldi	r25, 0x02	; 2
}
    46a4:	df 91       	pop	r29
    46a6:	cf 91       	pop	r28
// lines {1..31}
void scroll_down(uint8_t lines){
	if (!lines) return;
	lines &=0x1f;
	memmove(video_buffer+HBYTES*lines,video_buffer,HBYTES*VRES-HBYTES*lines);
	memset(video_buffer,0,HBYTES*lines);	
    46a8:	0c 94 74 25 	jmp	0x4ae8	; 0x4ae8 <memset>
}
    46ac:	df 91       	pop	r29
    46ae:	cf 91       	pop	r28
    46b0:	08 95       	ret

000046b2 <scroll_up>:


// lines {1..31}
void scroll_up(uint8_t lines){
    46b2:	0f 93       	push	r16
    46b4:	1f 93       	push	r17
    46b6:	cf 93       	push	r28
    46b8:	df 93       	push	r29
	if (!lines) return;
    46ba:	88 23       	and	r24, r24
    46bc:	51 f1       	breq	.+84     	; 0x4712 <scroll_up+0x60>
	lines &=0x1f;
    46be:	8f 71       	andi	r24, 0x1F	; 31
	memmove(video_buffer,video_buffer+HBYTES*lines,HBYTES*VRES-HBYTES*lines);	
    46c0:	08 2f       	mov	r16, r24
    46c2:	10 e0       	ldi	r17, 0x00	; 0
    46c4:	e8 01       	movw	r28, r16
    46c6:	74 e0       	ldi	r23, 0x04	; 4
    46c8:	cc 0f       	add	r28, r28
    46ca:	dd 1f       	adc	r29, r29
    46cc:	7a 95       	dec	r23
    46ce:	e1 f7       	brne	.-8      	; 0x46c8 <scroll_up+0x16>
    46d0:	48 e5       	ldi	r20, 0x58	; 88
    46d2:	50 e0       	ldi	r21, 0x00	; 0
    46d4:	40 1b       	sub	r20, r16
    46d6:	51 0b       	sbc	r21, r17
    46d8:	e4 e0       	ldi	r30, 0x04	; 4
    46da:	44 0f       	add	r20, r20
    46dc:	55 1f       	adc	r21, r21
    46de:	ea 95       	dec	r30
    46e0:	e1 f7       	brne	.-8      	; 0x46da <scroll_up+0x28>
    46e2:	be 01       	movw	r22, r28
    46e4:	60 53       	subi	r22, 0x30	; 48
    46e6:	7d 4f       	sbci	r23, 0xFD	; 253
    46e8:	80 ed       	ldi	r24, 0xD0	; 208
    46ea:	92 e0       	ldi	r25, 0x02	; 2
    46ec:	0e 94 62 25 	call	0x4ac4	; 0x4ac4 <memmove>
	memset(video_buffer+HBYTES*VRES-HBYTES*lines,0,HBYTES*lines);
    46f0:	20 ef       	ldi	r18, 0xF0	; 240
    46f2:	20 03       	mulsu	r18, r16
    46f4:	c0 01       	movw	r24, r0
    46f6:	21 9f       	mul	r18, r17
    46f8:	90 0d       	add	r25, r0
    46fa:	11 24       	eor	r1, r1
    46fc:	ae 01       	movw	r20, r28
    46fe:	60 e0       	ldi	r22, 0x00	; 0
    4700:	70 e0       	ldi	r23, 0x00	; 0
    4702:	80 5b       	subi	r24, 0xB0	; 176
    4704:	97 4f       	sbci	r25, 0xF7	; 247
}
    4706:	df 91       	pop	r29
    4708:	cf 91       	pop	r28
    470a:	1f 91       	pop	r17
    470c:	0f 91       	pop	r16
// lines {1..31}
void scroll_up(uint8_t lines){
	if (!lines) return;
	lines &=0x1f;
	memmove(video_buffer,video_buffer+HBYTES*lines,HBYTES*VRES-HBYTES*lines);	
	memset(video_buffer+HBYTES*VRES-HBYTES*lines,0,HBYTES*lines);
    470e:	0c 94 74 25 	jmp	0x4ae8	; 0x4ae8 <memset>
}
    4712:	df 91       	pop	r29
    4714:	cf 91       	pop	r28
    4716:	1f 91       	pop	r17
    4718:	0f 91       	pop	r16
    471a:	08 95       	ret

0000471c <chip_scroll_right>:
	}
}

// optimis pour la VM chip8()
// dcale de 4 pixels
void chip_scroll_right(){
    471c:	cf 93       	push	r28
    471e:	df 93       	push	r29
    4720:	a0 ed       	ldi	r26, 0xD0	; 208
    4722:	b2 e0       	ldi	r27, 0x02	; 2
    4724:	cd 01       	movw	r24, r26
    4726:	40 96       	adiw	r24, 0x10	; 16
    4728:	9d 01       	movw	r18, r26
    472a:	2f 5f       	subi	r18, 0xFF	; 255
    472c:	3f 4f       	sbci	r19, 0xFF	; 255
    472e:	fc 01       	movw	r30, r24
    4730:	31 97       	sbiw	r30, 0x01	; 1
    4732:	ef 01       	movw	r28, r30
    4734:	21 97       	sbiw	r28, 0x01	; 1
	uint8_t *line_buffer;

	for (line=1;line<=VRES;line++){
		line_buffer=video_buffer+HBYTES*line-1;
		for (column=HBYTES-1;column;column--){
			*line_buffer=(*line_buffer>>4)|((*(line_buffer-1))<<4);
    4736:	48 81       	ld	r20, Y
    4738:	60 e1       	ldi	r22, 0x10	; 16
    473a:	46 9f       	mul	r20, r22
    473c:	a0 01       	movw	r20, r0
    473e:	11 24       	eor	r1, r1
    4740:	50 81       	ld	r21, Z
    4742:	52 95       	swap	r21
    4744:	5f 70       	andi	r21, 0x0F	; 15
    4746:	54 2b       	or	r21, r20
    4748:	50 83       	st	Z, r21
	uint8_t line, column;
	uint8_t *line_buffer;

	for (line=1;line<=VRES;line++){
		line_buffer=video_buffer+HBYTES*line-1;
		for (column=HBYTES-1;column;column--){
    474a:	e2 17       	cp	r30, r18
    474c:	f3 07       	cpc	r31, r19
    474e:	81 f7       	brne	.-32     	; 0x4730 <chip_scroll_right+0x14>
			*line_buffer=(*line_buffer>>4)|((*(line_buffer-1))<<4);
			--line_buffer;
		}
		*line_buffer>>=4;
    4750:	2c 91       	ld	r18, X
    4752:	22 95       	swap	r18
    4754:	2f 70       	andi	r18, 0x0F	; 15
    4756:	2c 93       	st	X, r18
// dcale de 4 pixels
void chip_scroll_right(){
	uint8_t line, column;
	uint8_t *line_buffer;

	for (line=1;line<=VRES;line++){
    4758:	28 e0       	ldi	r18, 0x08	; 8
    475a:	80 35       	cpi	r24, 0x50	; 80
    475c:	92 07       	cpc	r25, r18
    475e:	11 f0       	breq	.+4      	; 0x4764 <chip_scroll_right+0x48>
    4760:	dc 01       	movw	r26, r24
    4762:	e0 cf       	rjmp	.-64     	; 0x4724 <chip_scroll_right+0x8>
			*line_buffer=(*line_buffer>>4)|((*(line_buffer-1))<<4);
			--line_buffer;
		}
		*line_buffer>>=4;
	}
}
    4764:	df 91       	pop	r29
    4766:	cf 91       	pop	r28
    4768:	08 95       	ret

0000476a <chip_scroll_left>:
	}
}

// optimis pour la VM chip8()
// dcale de 4 pixels
void chip_scroll_left(){
    476a:	8f ed       	ldi	r24, 0xDF	; 223
    476c:	92 e0       	ldi	r25, 0x02	; 2
    476e:	fc 01       	movw	r30, r24
    4770:	3f 97       	sbiw	r30, 0x0f	; 15
	uint8_t line, column;
	uint8_t  *line_buffer;
	for (line=0;line<VRES;line++){
		line_buffer=video_buffer+HBYTES*line;
		for (column=0;column<(HBYTES-1);column++){
			*line_buffer=(*line_buffer<<4)|((*(line_buffer+1))>>4);
    4772:	20 81       	ld	r18, Z
    4774:	40 e1       	ldi	r20, 0x10	; 16
    4776:	24 9f       	mul	r18, r20
    4778:	90 01       	movw	r18, r0
    477a:	11 24       	eor	r1, r1
    477c:	31 81       	ldd	r19, Z+1	; 0x01
    477e:	32 95       	swap	r19
    4780:	3f 70       	andi	r19, 0x0F	; 15
    4782:	32 2b       	or	r19, r18
    4784:	31 93       	st	Z+, r19
void chip_scroll_left(){
	uint8_t line, column;
	uint8_t  *line_buffer;
	for (line=0;line<VRES;line++){
		line_buffer=video_buffer+HBYTES*line;
		for (column=0;column<(HBYTES-1);column++){
    4786:	e8 17       	cp	r30, r24
    4788:	f9 07       	cpc	r31, r25
    478a:	99 f7       	brne	.-26     	; 0x4772 <chip_scroll_left+0x8>
			*line_buffer=(*line_buffer<<4)|((*(line_buffer+1))>>4);
			++line_buffer;
		}
		*line_buffer<<=4;
    478c:	80 81       	ld	r24, Z
    478e:	82 95       	swap	r24
    4790:	80 7f       	andi	r24, 0xF0	; 240
    4792:	80 83       	st	Z, r24
    4794:	cf 01       	movw	r24, r30
    4796:	40 96       	adiw	r24, 0x10	; 16
// optimis pour la VM chip8()
// dcale de 4 pixels
void chip_scroll_left(){
	uint8_t line, column;
	uint8_t  *line_buffer;
	for (line=0;line<VRES;line++){
    4798:	28 e0       	ldi	r18, 0x08	; 8
    479a:	8f 35       	cpi	r24, 0x5F	; 95
    479c:	92 07       	cpc	r25, r18
    479e:	39 f7       	brne	.-50     	; 0x476e <chip_scroll_left+0x4>
			*line_buffer=(*line_buffer<<4)|((*(line_buffer+1))>>4);
			++line_buffer;
		}
		*line_buffer<<=4;
	}
}
    47a0:	08 95       	ret

000047a2 <screen_restore>:
void screen_save(){
	sram_store_block(SAVE_SCREEN_ADDR,HBYTES*VRES,video_buffer);
}

void screen_restore(){
	sram_load_block(SAVE_SCREEN_ADDR,HBYTES*VRES,video_buffer);
    47a2:	40 ed       	ldi	r20, 0xD0	; 208
    47a4:	52 e0       	ldi	r21, 0x02	; 2
    47a6:	60 e8       	ldi	r22, 0x80	; 128
    47a8:	75 e0       	ldi	r23, 0x05	; 5
    47aa:	80 e0       	ldi	r24, 0x00	; 0
    47ac:	90 e8       	ldi	r25, 0x80	; 128
    47ae:	0c 94 32 1f 	jmp	0x3e64	; 0x3e64 <sram_load_block>

000047b2 <__vector_12>:
static volatile uint16_t line_count=0;
static volatile uint8_t video=0;

// interruption  la fin de
// chaque pulse de synchronisation
ISR(TIMER1_COMPB_vect){
    47b2:	1f 92       	push	r1
    47b4:	0f 92       	push	r0
    47b6:	0f b6       	in	r0, 0x3f	; 63
    47b8:	0f 92       	push	r0
    47ba:	11 24       	eor	r1, r1
    47bc:	2f 93       	push	r18
    47be:	8f 93       	push	r24
    47c0:	9f 93       	push	r25
    47c2:	ef 93       	push	r30
    47c4:	ff 93       	push	r31
	register unsigned i;
	register unsigned char *buff;

	line_count++;
    47c6:	80 91 cc 02 	lds	r24, 0x02CC
    47ca:	90 91 cd 02 	lds	r25, 0x02CD
    47ce:	01 96       	adiw	r24, 0x01	; 1
    47d0:	90 93 cd 02 	sts	0x02CD, r25
    47d4:	80 93 cc 02 	sts	0x02CC, r24
	switch(line_count){
    47d8:	80 91 cc 02 	lds	r24, 0x02CC
    47dc:	90 91 cd 02 	lds	r25, 0x02CD
    47e0:	83 30       	cpi	r24, 0x03	; 3
    47e2:	91 05       	cpc	r25, r1
    47e4:	79 f1       	breq	.+94     	; 0x4844 <__vector_12+0x92>
    47e6:	30 f4       	brcc	.+12     	; 0x47f4 <__vector_12+0x42>
    47e8:	81 30       	cpi	r24, 0x01	; 1
    47ea:	91 05       	cpc	r25, r1
    47ec:	81 f0       	breq	.+32     	; 0x480e <__vector_12+0x5c>
    47ee:	02 97       	sbiw	r24, 0x02	; 2
    47f0:	c9 f0       	breq	.+50     	; 0x4824 <__vector_12+0x72>
    47f2:	39 c0       	rjmp	.+114    	; 0x4866 <__vector_12+0xb4>
    47f4:	89 3d       	cpi	r24, 0xD9	; 217
    47f6:	91 05       	cpc	r25, r1
    47f8:	41 f1       	breq	.+80     	; 0x484a <__vector_12+0x98>
    47fa:	86 30       	cpi	r24, 0x06	; 6
    47fc:	21 e0       	ldi	r18, 0x01	; 1
    47fe:	92 07       	cpc	r25, r18
    4800:	39 f1       	breq	.+78     	; 0x4850 <__vector_12+0x9e>
    4802:	8a 97       	sbiw	r24, 0x2a	; 42
    4804:	81 f5       	brne	.+96     	; 0x4866 <__vector_12+0xb4>
		break;
		case 3:
			NTSC_SYNC_OCRB=HPULSE;
			break;
		case FIRST_VISIBLE:
			video=1;
    4806:	81 e0       	ldi	r24, 0x01	; 1
    4808:	80 93 cb 02 	sts	0x02CB, r24
			break;
    480c:	62 c0       	rjmp	.+196    	; 0x48d2 <__vector_12+0x120>
	register unsigned char *buff;

	line_count++;
	switch(line_count){
		case 1:
			if (frame_delay) frame_delay--;
    480e:	80 91 cf 02 	lds	r24, 0x02CF
    4812:	88 23       	and	r24, r24
    4814:	09 f4       	brne	.+2      	; 0x4818 <__vector_12+0x66>
    4816:	5d c0       	rjmp	.+186    	; 0x48d2 <__vector_12+0x120>
    4818:	80 91 cf 02 	lds	r24, 0x02CF
    481c:	81 50       	subi	r24, 0x01	; 1
    481e:	80 93 cf 02 	sts	0x02CF, r24
    4822:	57 c0       	rjmp	.+174    	; 0x48d2 <__vector_12+0x120>
			break;
		case 2:
		if (tone_length){
    4824:	80 91 ce 02 	lds	r24, 0x02CE
    4828:	88 23       	and	r24, r24
    482a:	09 f4       	brne	.+2      	; 0x482e <__vector_12+0x7c>
    482c:	52 c0       	rjmp	.+164    	; 0x48d2 <__vector_12+0x120>
			tone_length--;
    482e:	80 91 ce 02 	lds	r24, 0x02CE
    4832:	81 50       	subi	r24, 0x01	; 1
    4834:	80 93 ce 02 	sts	0x02CE, r24
			if (!tone_length) tone_off();
    4838:	80 91 ce 02 	lds	r24, 0x02CE
    483c:	81 11       	cpse	r24, r1
    483e:	49 c0       	rjmp	.+146    	; 0x48d2 <__vector_12+0x120>
    4840:	56 98       	cbi	0x0a, 6	; 10
    4842:	47 c0       	rjmp	.+142    	; 0x48d2 <__vector_12+0x120>
		}
		break;
		case 3:
			NTSC_SYNC_OCRB=HPULSE;
    4844:	8a e4       	ldi	r24, 0x4A	; 74
    4846:	90 e0       	ldi	r25, 0x00	; 0
    4848:	09 c0       	rjmp	.+18     	; 0x485c <__vector_12+0xaa>
			break;
		case FIRST_VISIBLE:
			video=1;
			break;
		case LAST_VISIBLE:
			video=0;
    484a:	10 92 cb 02 	sts	0x02CB, r1
			break;
    484e:	41 c0       	rjmp	.+130    	; 0x48d2 <__vector_12+0x120>
		case 262:
			line_count=0;
    4850:	10 92 cd 02 	sts	0x02CD, r1
    4854:	10 92 cc 02 	sts	0x02CC, r1
			NTSC_SYNC_OCRB=VPULSE;
    4858:	83 e6       	ldi	r24, 0x63	; 99
    485a:	93 e0       	ldi	r25, 0x03	; 3
    485c:	90 93 8b 00 	sts	0x008B, r25
    4860:	80 93 8a 00 	sts	0x008A, r24
			break;
    4864:	36 c0       	rjmp	.+108    	; 0x48d2 <__vector_12+0x120>
		default:
			if (video){
    4866:	80 91 cb 02 	lds	r24, 0x02CB
    486a:	88 23       	and	r24, r24
    486c:	91 f1       	breq	.+100    	; 0x48d2 <__vector_12+0x120>
				buff=video_buffer+(((line_count-FIRST_VISIBLE)>>1)*HBYTES);
    486e:	e0 91 cc 02 	lds	r30, 0x02CC
    4872:	f0 91 cd 02 	lds	r31, 0x02CD
				NTSC_VIDEO_UBRR=0;
    4876:	10 92 c5 00 	sts	0x00C5, r1
    487a:	10 92 c4 00 	sts	0x00C4, r1
				NTSC_VIDEO_UCSRB=(1<<TXEN0);
    487e:	88 e0       	ldi	r24, 0x08	; 8
    4880:	80 93 c1 00 	sts	0x00C1, r24
				NTSC_VIDEO_UBRR=2;
    4884:	82 e0       	ldi	r24, 0x02	; 2
    4886:	90 e0       	ldi	r25, 0x00	; 0
    4888:	90 93 c5 00 	sts	0x00C5, r25
    488c:	80 93 c4 00 	sts	0x00C4, r24
				NTSC_VIDEO_UDR=0x0;
    4890:	10 92 c6 00 	sts	0x00C6, r1
			line_count=0;
			NTSC_SYNC_OCRB=VPULSE;
			break;
		default:
			if (video){
				buff=video_buffer+(((line_count-FIRST_VISIBLE)>>1)*HBYTES);
    4894:	ba 97       	sbiw	r30, 0x2a	; 42
    4896:	f6 95       	lsr	r31
    4898:	e7 95       	ror	r30
    489a:	94 e0       	ldi	r25, 0x04	; 4
    489c:	ee 0f       	add	r30, r30
    489e:	ff 1f       	adc	r31, r31
    48a0:	9a 95       	dec	r25
    48a2:	e1 f7       	brne	.-8      	; 0x489c <__vector_12+0xea>
    48a4:	e0 53       	subi	r30, 0x30	; 48
    48a6:	fd 4f       	sbci	r31, 0xFD	; 253
    48a8:	cf 01       	movw	r24, r30
    48aa:	40 96       	adiw	r24, 0x10	; 16
				NTSC_VIDEO_UBRR=0;
				NTSC_VIDEO_UCSRB=(1<<TXEN0);
				NTSC_VIDEO_UBRR=2;
				NTSC_VIDEO_UDR=0x0;
				for (i=HBYTES;i;i--){
					while ( !( UCSR0A & (1<<UDRE0)) );
    48ac:	20 91 c0 00 	lds	r18, 0x00C0
    48b0:	25 ff       	sbrs	r18, 5
    48b2:	fc cf       	rjmp	.-8      	; 0x48ac <__vector_12+0xfa>
					NTSC_VIDEO_UDR=*buff++;
    48b4:	21 91       	ld	r18, Z+
    48b6:	20 93 c6 00 	sts	0x00C6, r18
				buff=video_buffer+(((line_count-FIRST_VISIBLE)>>1)*HBYTES);
				NTSC_VIDEO_UBRR=0;
				NTSC_VIDEO_UCSRB=(1<<TXEN0);
				NTSC_VIDEO_UBRR=2;
				NTSC_VIDEO_UDR=0x0;
				for (i=HBYTES;i;i--){
    48ba:	e8 17       	cp	r30, r24
    48bc:	f9 07       	cpc	r31, r25
    48be:	b1 f7       	brne	.-20     	; 0x48ac <__vector_12+0xfa>
					while ( !( UCSR0A & (1<<UDRE0)) );
					NTSC_VIDEO_UDR=*buff++;
				}
				while (!(NTSC_VIDEO_UCSRA & (1<<TXC0)));
    48c0:	80 91 c0 00 	lds	r24, 0x00C0
    48c4:	86 ff       	sbrs	r24, 6
    48c6:	fc cf       	rjmp	.-8      	; 0x48c0 <__vector_12+0x10e>
				NTSC_VIDEO_UCSRB &= ~(1<<TXEN0);
    48c8:	80 91 c1 00 	lds	r24, 0x00C1
    48cc:	87 7f       	andi	r24, 0xF7	; 247
    48ce:	80 93 c1 00 	sts	0x00C1, r24
			}
			break;
	}//switch
}
    48d2:	ff 91       	pop	r31
    48d4:	ef 91       	pop	r30
    48d6:	9f 91       	pop	r25
    48d8:	8f 91       	pop	r24
    48da:	2f 91       	pop	r18
    48dc:	0f 90       	pop	r0
    48de:	0f be       	out	0x3f, r0	; 63
    48e0:	0f 90       	pop	r0
    48e2:	1f 90       	pop	r1
    48e4:	18 95       	reti

000048e6 <__mulsi3>:
    48e6:	db 01       	movw	r26, r22
    48e8:	8f 93       	push	r24
    48ea:	9f 93       	push	r25
    48ec:	0e 94 f9 24 	call	0x49f2	; 0x49f2 <__muluhisi3>
    48f0:	bf 91       	pop	r27
    48f2:	af 91       	pop	r26
    48f4:	a2 9f       	mul	r26, r18
    48f6:	80 0d       	add	r24, r0
    48f8:	91 1d       	adc	r25, r1
    48fa:	a3 9f       	mul	r26, r19
    48fc:	90 0d       	add	r25, r0
    48fe:	b2 9f       	mul	r27, r18
    4900:	90 0d       	add	r25, r0
    4902:	11 24       	eor	r1, r1
    4904:	08 95       	ret

00004906 <__udivmodqi4>:
    4906:	99 1b       	sub	r25, r25
    4908:	79 e0       	ldi	r23, 0x09	; 9
    490a:	04 c0       	rjmp	.+8      	; 0x4914 <__udivmodqi4_ep>

0000490c <__udivmodqi4_loop>:
    490c:	99 1f       	adc	r25, r25
    490e:	96 17       	cp	r25, r22
    4910:	08 f0       	brcs	.+2      	; 0x4914 <__udivmodqi4_ep>
    4912:	96 1b       	sub	r25, r22

00004914 <__udivmodqi4_ep>:
    4914:	88 1f       	adc	r24, r24
    4916:	7a 95       	dec	r23
    4918:	c9 f7       	brne	.-14     	; 0x490c <__udivmodqi4_loop>
    491a:	80 95       	com	r24
    491c:	08 95       	ret

0000491e <__udivmodhi4>:
    491e:	aa 1b       	sub	r26, r26
    4920:	bb 1b       	sub	r27, r27
    4922:	51 e1       	ldi	r21, 0x11	; 17
    4924:	07 c0       	rjmp	.+14     	; 0x4934 <__udivmodhi4_ep>

00004926 <__udivmodhi4_loop>:
    4926:	aa 1f       	adc	r26, r26
    4928:	bb 1f       	adc	r27, r27
    492a:	a6 17       	cp	r26, r22
    492c:	b7 07       	cpc	r27, r23
    492e:	10 f0       	brcs	.+4      	; 0x4934 <__udivmodhi4_ep>
    4930:	a6 1b       	sub	r26, r22
    4932:	b7 0b       	sbc	r27, r23

00004934 <__udivmodhi4_ep>:
    4934:	88 1f       	adc	r24, r24
    4936:	99 1f       	adc	r25, r25
    4938:	5a 95       	dec	r21
    493a:	a9 f7       	brne	.-22     	; 0x4926 <__udivmodhi4_loop>
    493c:	80 95       	com	r24
    493e:	90 95       	com	r25
    4940:	bc 01       	movw	r22, r24
    4942:	cd 01       	movw	r24, r26
    4944:	08 95       	ret

00004946 <__udivmodsi4>:
    4946:	a1 e2       	ldi	r26, 0x21	; 33
    4948:	1a 2e       	mov	r1, r26
    494a:	aa 1b       	sub	r26, r26
    494c:	bb 1b       	sub	r27, r27
    494e:	fd 01       	movw	r30, r26
    4950:	0d c0       	rjmp	.+26     	; 0x496c <__udivmodsi4_ep>

00004952 <__udivmodsi4_loop>:
    4952:	aa 1f       	adc	r26, r26
    4954:	bb 1f       	adc	r27, r27
    4956:	ee 1f       	adc	r30, r30
    4958:	ff 1f       	adc	r31, r31
    495a:	a2 17       	cp	r26, r18
    495c:	b3 07       	cpc	r27, r19
    495e:	e4 07       	cpc	r30, r20
    4960:	f5 07       	cpc	r31, r21
    4962:	20 f0       	brcs	.+8      	; 0x496c <__udivmodsi4_ep>
    4964:	a2 1b       	sub	r26, r18
    4966:	b3 0b       	sbc	r27, r19
    4968:	e4 0b       	sbc	r30, r20
    496a:	f5 0b       	sbc	r31, r21

0000496c <__udivmodsi4_ep>:
    496c:	66 1f       	adc	r22, r22
    496e:	77 1f       	adc	r23, r23
    4970:	88 1f       	adc	r24, r24
    4972:	99 1f       	adc	r25, r25
    4974:	1a 94       	dec	r1
    4976:	69 f7       	brne	.-38     	; 0x4952 <__udivmodsi4_loop>
    4978:	60 95       	com	r22
    497a:	70 95       	com	r23
    497c:	80 95       	com	r24
    497e:	90 95       	com	r25
    4980:	9b 01       	movw	r18, r22
    4982:	ac 01       	movw	r20, r24
    4984:	bd 01       	movw	r22, r26
    4986:	cf 01       	movw	r24, r30
    4988:	08 95       	ret

0000498a <__divmodsi4>:
    498a:	05 2e       	mov	r0, r21
    498c:	97 fb       	bst	r25, 7
    498e:	1e f4       	brtc	.+6      	; 0x4996 <__divmodsi4+0xc>
    4990:	00 94       	com	r0
    4992:	0e 94 dc 24 	call	0x49b8	; 0x49b8 <__negsi2>
    4996:	57 fd       	sbrc	r21, 7
    4998:	07 d0       	rcall	.+14     	; 0x49a8 <__divmodsi4_neg2>
    499a:	0e 94 a3 24 	call	0x4946	; 0x4946 <__udivmodsi4>
    499e:	07 fc       	sbrc	r0, 7
    49a0:	03 d0       	rcall	.+6      	; 0x49a8 <__divmodsi4_neg2>
    49a2:	4e f4       	brtc	.+18     	; 0x49b6 <__divmodsi4_exit>
    49a4:	0c 94 dc 24 	jmp	0x49b8	; 0x49b8 <__negsi2>

000049a8 <__divmodsi4_neg2>:
    49a8:	50 95       	com	r21
    49aa:	40 95       	com	r20
    49ac:	30 95       	com	r19
    49ae:	21 95       	neg	r18
    49b0:	3f 4f       	sbci	r19, 0xFF	; 255
    49b2:	4f 4f       	sbci	r20, 0xFF	; 255
    49b4:	5f 4f       	sbci	r21, 0xFF	; 255

000049b6 <__divmodsi4_exit>:
    49b6:	08 95       	ret

000049b8 <__negsi2>:
    49b8:	90 95       	com	r25
    49ba:	80 95       	com	r24
    49bc:	70 95       	com	r23
    49be:	61 95       	neg	r22
    49c0:	7f 4f       	sbci	r23, 0xFF	; 255
    49c2:	8f 4f       	sbci	r24, 0xFF	; 255
    49c4:	9f 4f       	sbci	r25, 0xFF	; 255
    49c6:	08 95       	ret

000049c8 <__tablejump2__>:
    49c8:	ee 0f       	add	r30, r30
    49ca:	ff 1f       	adc	r31, r31

000049cc <__tablejump__>:
    49cc:	05 90       	lpm	r0, Z+
    49ce:	f4 91       	lpm	r31, Z
    49d0:	e0 2d       	mov	r30, r0
    49d2:	09 94       	ijmp

000049d4 <__umulhisi3>:
    49d4:	a2 9f       	mul	r26, r18
    49d6:	b0 01       	movw	r22, r0
    49d8:	b3 9f       	mul	r27, r19
    49da:	c0 01       	movw	r24, r0
    49dc:	a3 9f       	mul	r26, r19
    49de:	70 0d       	add	r23, r0
    49e0:	81 1d       	adc	r24, r1
    49e2:	11 24       	eor	r1, r1
    49e4:	91 1d       	adc	r25, r1
    49e6:	b2 9f       	mul	r27, r18
    49e8:	70 0d       	add	r23, r0
    49ea:	81 1d       	adc	r24, r1
    49ec:	11 24       	eor	r1, r1
    49ee:	91 1d       	adc	r25, r1
    49f0:	08 95       	ret

000049f2 <__muluhisi3>:
    49f2:	0e 94 ea 24 	call	0x49d4	; 0x49d4 <__umulhisi3>
    49f6:	a5 9f       	mul	r26, r21
    49f8:	90 0d       	add	r25, r0
    49fa:	b4 9f       	mul	r27, r20
    49fc:	90 0d       	add	r25, r0
    49fe:	a4 9f       	mul	r26, r20
    4a00:	80 0d       	add	r24, r0
    4a02:	91 1d       	adc	r25, r1
    4a04:	11 24       	eor	r1, r1
    4a06:	08 95       	ret

00004a08 <do_rand>:
    4a08:	8f 92       	push	r8
    4a0a:	9f 92       	push	r9
    4a0c:	af 92       	push	r10
    4a0e:	bf 92       	push	r11
    4a10:	cf 92       	push	r12
    4a12:	df 92       	push	r13
    4a14:	ef 92       	push	r14
    4a16:	ff 92       	push	r15
    4a18:	cf 93       	push	r28
    4a1a:	df 93       	push	r29
    4a1c:	ec 01       	movw	r28, r24
    4a1e:	68 81       	ld	r22, Y
    4a20:	79 81       	ldd	r23, Y+1	; 0x01
    4a22:	8a 81       	ldd	r24, Y+2	; 0x02
    4a24:	9b 81       	ldd	r25, Y+3	; 0x03
    4a26:	61 15       	cp	r22, r1
    4a28:	71 05       	cpc	r23, r1
    4a2a:	81 05       	cpc	r24, r1
    4a2c:	91 05       	cpc	r25, r1
    4a2e:	21 f4       	brne	.+8      	; 0x4a38 <do_rand+0x30>
    4a30:	64 e2       	ldi	r22, 0x24	; 36
    4a32:	79 ed       	ldi	r23, 0xD9	; 217
    4a34:	8b e5       	ldi	r24, 0x5B	; 91
    4a36:	97 e0       	ldi	r25, 0x07	; 7
    4a38:	2d e1       	ldi	r18, 0x1D	; 29
    4a3a:	33 ef       	ldi	r19, 0xF3	; 243
    4a3c:	41 e0       	ldi	r20, 0x01	; 1
    4a3e:	50 e0       	ldi	r21, 0x00	; 0
    4a40:	0e 94 c5 24 	call	0x498a	; 0x498a <__divmodsi4>
    4a44:	49 01       	movw	r8, r18
    4a46:	5a 01       	movw	r10, r20
    4a48:	9b 01       	movw	r18, r22
    4a4a:	ac 01       	movw	r20, r24
    4a4c:	a7 ea       	ldi	r26, 0xA7	; 167
    4a4e:	b1 e4       	ldi	r27, 0x41	; 65
    4a50:	0e 94 f9 24 	call	0x49f2	; 0x49f2 <__muluhisi3>
    4a54:	6b 01       	movw	r12, r22
    4a56:	7c 01       	movw	r14, r24
    4a58:	ac ee       	ldi	r26, 0xEC	; 236
    4a5a:	b4 ef       	ldi	r27, 0xF4	; 244
    4a5c:	a5 01       	movw	r20, r10
    4a5e:	94 01       	movw	r18, r8
    4a60:	0e 94 b0 25 	call	0x4b60	; 0x4b60 <__mulohisi3>
    4a64:	c6 0e       	add	r12, r22
    4a66:	d7 1e       	adc	r13, r23
    4a68:	e8 1e       	adc	r14, r24
    4a6a:	f9 1e       	adc	r15, r25
    4a6c:	f7 fe       	sbrs	r15, 7
    4a6e:	06 c0       	rjmp	.+12     	; 0x4a7c <do_rand+0x74>
    4a70:	81 e0       	ldi	r24, 0x01	; 1
    4a72:	c8 1a       	sub	r12, r24
    4a74:	d1 08       	sbc	r13, r1
    4a76:	e1 08       	sbc	r14, r1
    4a78:	80 e8       	ldi	r24, 0x80	; 128
    4a7a:	f8 0a       	sbc	r15, r24
    4a7c:	c8 82       	st	Y, r12
    4a7e:	d9 82       	std	Y+1, r13	; 0x01
    4a80:	ea 82       	std	Y+2, r14	; 0x02
    4a82:	fb 82       	std	Y+3, r15	; 0x03
    4a84:	c6 01       	movw	r24, r12
    4a86:	9f 77       	andi	r25, 0x7F	; 127
    4a88:	df 91       	pop	r29
    4a8a:	cf 91       	pop	r28
    4a8c:	ff 90       	pop	r15
    4a8e:	ef 90       	pop	r14
    4a90:	df 90       	pop	r13
    4a92:	cf 90       	pop	r12
    4a94:	bf 90       	pop	r11
    4a96:	af 90       	pop	r10
    4a98:	9f 90       	pop	r9
    4a9a:	8f 90       	pop	r8
    4a9c:	08 95       	ret

00004a9e <rand_r>:
    4a9e:	0e 94 04 25 	call	0x4a08	; 0x4a08 <do_rand>
    4aa2:	08 95       	ret

00004aa4 <rand>:
    4aa4:	80 e0       	ldi	r24, 0x00	; 0
    4aa6:	91 e0       	ldi	r25, 0x01	; 1
    4aa8:	0e 94 04 25 	call	0x4a08	; 0x4a08 <do_rand>
    4aac:	08 95       	ret

00004aae <srand>:
    4aae:	a0 e0       	ldi	r26, 0x00	; 0
    4ab0:	b0 e0       	ldi	r27, 0x00	; 0
    4ab2:	80 93 00 01 	sts	0x0100, r24
    4ab6:	90 93 01 01 	sts	0x0101, r25
    4aba:	a0 93 02 01 	sts	0x0102, r26
    4abe:	b0 93 03 01 	sts	0x0103, r27
    4ac2:	08 95       	ret

00004ac4 <memmove>:
    4ac4:	68 17       	cp	r22, r24
    4ac6:	79 07       	cpc	r23, r25
    4ac8:	68 f4       	brcc	.+26     	; 0x4ae4 <memmove+0x20>
    4aca:	fb 01       	movw	r30, r22
    4acc:	dc 01       	movw	r26, r24
    4ace:	e4 0f       	add	r30, r20
    4ad0:	f5 1f       	adc	r31, r21
    4ad2:	a4 0f       	add	r26, r20
    4ad4:	b5 1f       	adc	r27, r21
    4ad6:	02 c0       	rjmp	.+4      	; 0x4adc <memmove+0x18>
    4ad8:	02 90       	ld	r0, -Z
    4ada:	0e 92       	st	-X, r0
    4adc:	41 50       	subi	r20, 0x01	; 1
    4ade:	50 40       	sbci	r21, 0x00	; 0
    4ae0:	d8 f7       	brcc	.-10     	; 0x4ad8 <memmove+0x14>
    4ae2:	08 95       	ret
    4ae4:	0c 94 a4 25 	jmp	0x4b48	; 0x4b48 <memcpy>

00004ae8 <memset>:
    4ae8:	dc 01       	movw	r26, r24
    4aea:	01 c0       	rjmp	.+2      	; 0x4aee <memset+0x6>
    4aec:	6d 93       	st	X+, r22
    4aee:	41 50       	subi	r20, 0x01	; 1
    4af0:	50 40       	sbci	r21, 0x00	; 0
    4af2:	e0 f7       	brcc	.-8      	; 0x4aec <memset+0x4>
    4af4:	08 95       	ret

00004af6 <strchr>:
    4af6:	fc 01       	movw	r30, r24
    4af8:	81 91       	ld	r24, Z+
    4afa:	86 17       	cp	r24, r22
    4afc:	21 f0       	breq	.+8      	; 0x4b06 <strchr+0x10>
    4afe:	88 23       	and	r24, r24
    4b00:	d9 f7       	brne	.-10     	; 0x4af8 <strchr+0x2>
    4b02:	99 27       	eor	r25, r25
    4b04:	08 95       	ret
    4b06:	31 97       	sbiw	r30, 0x01	; 1
    4b08:	cf 01       	movw	r24, r30
    4b0a:	08 95       	ret

00004b0c <strcmp>:
    4b0c:	fb 01       	movw	r30, r22
    4b0e:	dc 01       	movw	r26, r24
    4b10:	8d 91       	ld	r24, X+
    4b12:	01 90       	ld	r0, Z+
    4b14:	80 19       	sub	r24, r0
    4b16:	01 10       	cpse	r0, r1
    4b18:	d9 f3       	breq	.-10     	; 0x4b10 <strcmp+0x4>
    4b1a:	99 0b       	sbc	r25, r25
    4b1c:	08 95       	ret

00004b1e <strcpy>:
    4b1e:	fb 01       	movw	r30, r22
    4b20:	dc 01       	movw	r26, r24
    4b22:	01 90       	ld	r0, Z+
    4b24:	0d 92       	st	X+, r0
    4b26:	00 20       	and	r0, r0
    4b28:	e1 f7       	brne	.-8      	; 0x4b22 <strcpy+0x4>
    4b2a:	08 95       	ret

00004b2c <strncmp>:
    4b2c:	fb 01       	movw	r30, r22
    4b2e:	dc 01       	movw	r26, r24
    4b30:	41 50       	subi	r20, 0x01	; 1
    4b32:	50 40       	sbci	r21, 0x00	; 0
    4b34:	30 f0       	brcs	.+12     	; 0x4b42 <strncmp+0x16>
    4b36:	8d 91       	ld	r24, X+
    4b38:	01 90       	ld	r0, Z+
    4b3a:	80 19       	sub	r24, r0
    4b3c:	19 f4       	brne	.+6      	; 0x4b44 <strncmp+0x18>
    4b3e:	00 20       	and	r0, r0
    4b40:	b9 f7       	brne	.-18     	; 0x4b30 <strncmp+0x4>
    4b42:	88 1b       	sub	r24, r24
    4b44:	99 0b       	sbc	r25, r25
    4b46:	08 95       	ret

00004b48 <memcpy>:
    4b48:	fb 01       	movw	r30, r22
    4b4a:	dc 01       	movw	r26, r24
    4b4c:	02 c0       	rjmp	.+4      	; 0x4b52 <memcpy+0xa>
    4b4e:	01 90       	ld	r0, Z+
    4b50:	0d 92       	st	X+, r0
    4b52:	41 50       	subi	r20, 0x01	; 1
    4b54:	50 40       	sbci	r21, 0x00	; 0
    4b56:	d8 f7       	brcc	.-10     	; 0x4b4e <memcpy+0x6>
    4b58:	08 95       	ret

00004b5a <__mulshisi3>:
    4b5a:	b7 ff       	sbrs	r27, 7
    4b5c:	0c 94 f9 24 	jmp	0x49f2	; 0x49f2 <__muluhisi3>

00004b60 <__mulohisi3>:
    4b60:	0e 94 f9 24 	call	0x49f2	; 0x49f2 <__muluhisi3>
    4b64:	82 1b       	sub	r24, r18
    4b66:	93 0b       	sbc	r25, r19
    4b68:	08 95       	ret

00004b6a <_exit>:
    4b6a:	f8 94       	cli

00004b6c <__stop_program>:
    4b6c:	ff cf       	rjmp	.-2      	; 0x4b6c <__stop_program>
