
chipcon_v2.elf:     file format elf32-avr

Sections:
Idx Name          Size      VMA       LMA       File off  Algn
  0 .data         00000008  00800100  000049ec  00004a80  2**0
                  CONTENTS, ALLOC, LOAD, DATA
  1 .text         000049ec  00000000  00000000  00000094  2**1
                  CONTENTS, ALLOC, LOAD, READONLY, CODE
  2 .bss          000006be  00800108  00800108  00004a88  2**0
                  ALLOC
  3 .comment      00000030  00000000  00000000  00004a88  2**0
                  CONTENTS, READONLY
  4 .debug_aranges 00000490  00000000  00000000  00004ab8  2**0
                  CONTENTS, READONLY, DEBUGGING
  5 .debug_info   00005b67  00000000  00000000  00004f48  2**0
                  CONTENTS, READONLY, DEBUGGING
  6 .debug_abbrev 000019ef  00000000  00000000  0000aaaf  2**0
                  CONTENTS, READONLY, DEBUGGING
  7 .debug_line   00001e3f  00000000  00000000  0000c49e  2**0
                  CONTENTS, READONLY, DEBUGGING
  8 .debug_frame  00000e30  00000000  00000000  0000e2e0  2**2
                  CONTENTS, READONLY, DEBUGGING
  9 .debug_str    00000e83  00000000  00000000  0000f110  2**0
                  CONTENTS, READONLY, DEBUGGING
 10 .debug_loc    0000572a  00000000  00000000  0000ff93  2**0
                  CONTENTS, READONLY, DEBUGGING
 11 .debug_ranges 00000478  00000000  00000000  000156bd  2**0
                  CONTENTS, READONLY, DEBUGGING

Disassembly of section .text:

00000000 <__vectors>:
       0:	0c 94 b4 09 	jmp	0x1368	; 0x1368 <__ctors_end>
       4:	0c 94 d1 09 	jmp	0x13a2	; 0x13a2 <__bad_interrupt>
       8:	0c 94 d1 09 	jmp	0x13a2	; 0x13a2 <__bad_interrupt>
       c:	0c 94 d1 09 	jmp	0x13a2	; 0x13a2 <__bad_interrupt>
      10:	0c 94 d1 09 	jmp	0x13a2	; 0x13a2 <__bad_interrupt>
      14:	0c 94 d1 09 	jmp	0x13a2	; 0x13a2 <__bad_interrupt>
      18:	0c 94 d1 09 	jmp	0x13a2	; 0x13a2 <__bad_interrupt>
      1c:	0c 94 d1 09 	jmp	0x13a2	; 0x13a2 <__bad_interrupt>
      20:	0c 94 d1 09 	jmp	0x13a2	; 0x13a2 <__bad_interrupt>
      24:	0c 94 d1 09 	jmp	0x13a2	; 0x13a2 <__bad_interrupt>
      28:	0c 94 d1 09 	jmp	0x13a2	; 0x13a2 <__bad_interrupt>
      2c:	0c 94 d1 09 	jmp	0x13a2	; 0x13a2 <__bad_interrupt>
      30:	0c 94 1b 23 	jmp	0x4636	; 0x4636 <__vector_12>
      34:	0c 94 d1 09 	jmp	0x13a2	; 0x13a2 <__bad_interrupt>
      38:	0c 94 d1 09 	jmp	0x13a2	; 0x13a2 <__bad_interrupt>
      3c:	0c 94 d1 09 	jmp	0x13a2	; 0x13a2 <__bad_interrupt>
      40:	0c 94 d1 09 	jmp	0x13a2	; 0x13a2 <__bad_interrupt>
      44:	0c 94 d1 09 	jmp	0x13a2	; 0x13a2 <__bad_interrupt>
      48:	0c 94 d1 09 	jmp	0x13a2	; 0x13a2 <__bad_interrupt>
      4c:	0c 94 d1 09 	jmp	0x13a2	; 0x13a2 <__bad_interrupt>
      50:	0c 94 d1 09 	jmp	0x13a2	; 0x13a2 <__bad_interrupt>
      54:	0c 94 d1 09 	jmp	0x13a2	; 0x13a2 <__bad_interrupt>
      58:	0c 94 d1 09 	jmp	0x13a2	; 0x13a2 <__bad_interrupt>
      5c:	0c 94 d1 09 	jmp	0x13a2	; 0x13a2 <__bad_interrupt>
      60:	0c 94 d1 09 	jmp	0x13a2	; 0x13a2 <__bad_interrupt>
      64:	0c 94 d1 09 	jmp	0x13a2	; 0x13a2 <__bad_interrupt>

00000068 <__trampolines_end>:
      68:	10 12       	cpse	r1, r16
      6a:	4a 6f       	ori	r20, 0xFA	; 250
      6c:	6e 61       	ori	r22, 0x1E	; 30
      6e:	73 20       	and	r7, r3
      70:	4c 69       	ori	r20, 0x9C	; 156
      72:	6e 64       	ori	r22, 0x4E	; 78
      74:	73 74       	andi	r23, 0x43	; 67
      76:	65 64       	ori	r22, 0x45	; 69
      78:	74 00       	.word	0x0074	; ????
      7a:	00 ff       	sbrs	r16, 0
      7c:	10 8a       	std	Z+16, r1	; 0x10
      7e:	64 01       	movw	r12, r8
      80:	a3 24       	eor	r10, r3
      82:	6b 00       	.word	0x006b	; ????
      84:	6c 3b       	cpi	r22, 0xBC	; 188
      86:	db c4       	rjmp	.+2486   	; 0xa3e <__stack+0x13f>
      88:	7b 08       	sbc	r7, r11
      8a:	3b 80       	ldd	r3, Y+3	; 0x03
      8c:	10 1e       	adc	r1, r16
      8e:	68 3c       	cpi	r22, 0xC8	; 200
      90:	a3 1c       	adc	r10, r3
      92:	69 35       	cpi	r22, 0x59	; 89
      94:	d8 96       	adiw	r26, 0x38	; 56
      96:	63 00       	.word	0x0063	; ????
      98:	43 00       	.word	0x0043	; ????
      9a:	10 3a       	cpi	r17, 0xA0	; 160
      9c:	a3 22       	and	r10, r19
      9e:	d2 32       	cpi	r29, 0x22	; 34
      a0:	63 00       	.word	0x0063	; ????
      a2:	8c 40       	sbci	r24, 0x0C	; 12
      a4:	7c ff       	.word	0xff7c	; ????
      a6:	6b 03       	fmul	r22, r19
      a8:	8c b2       	in	r8, 0x1c	; 28
      aa:	6b 00       	.word	0x006b	; ????
      ac:	4c 00       	.word	0x004c	; ????
      ae:	10 4e       	sbci	r17, 0xE0	; 224
      b0:	7b 05       	cpc	r23, r11
      b2:	7c ff       	.word	0xff7c	; ????
      b4:	10 44       	sbci	r17, 0x40	; 64
      b6:	61 00       	.word	0x0061	; ????
      b8:	a3 02       	muls	r26, r19
      ba:	fb 1e       	adc	r15, r27
      bc:	f0 65       	ori	r31, 0x50	; 80
      be:	a3 2a       	or	r10, r19
      c0:	f1 1e       	adc	r15, r17
      c2:	f0 55       	subi	r31, 0x50	; 80
      c4:	71 01       	movw	r14, r2
      c6:	7b 01       	movw	r14, r22
      c8:	31 06       	cpc	r3, r17
      ca:	10 50       	subi	r17, 0x00	; 0
      cc:	6d 08       	sbc	r6, r13
      ce:	6e 05       	cpc	r22, r14
      d0:	66 00       	.word	0x0066	; ????
      d2:	6a 01       	movw	r12, r20
      d4:	a3 2a       	or	r10, r19
      d6:	80 d0       	rcall	.+256    	; 0x1d8 <__trampolines_end+0x170>
      d8:	d0 e5       	ldi	r29, 0x50	; 80
      da:	70 14       	cp	r7, r0
      dc:	30 6c       	ori	r19, 0xC0	; 192
      de:	10 70       	andi	r17, 0x00	; 0
      e0:	21 48       	sbci	r18, 0x81	; 129
      e2:	22 12       	cpse	r2, r18
      e4:	20 fa       	bst	r2, 0
      e6:	21 88       	ldd	r2, Z+17	; 0x11
      e8:	4f 42       	sbci	r20, 0x2F	; 47
      ea:	10 30       	cpi	r17, 0x00	; 0
      ec:	22 50       	subi	r18, 0x02	; 2
      ee:	34 63       	ori	r19, 0x34	; 52
      f0:	10 7a       	andi	r17, 0xA0	; 160
      f2:	00 e0       	ldi	r16, 0x00	; 0
      f4:	a2 a8       	ldd	r10, Z+50	; 0x32
      f6:	6d 28       	or	r6, r13
      f8:	6e 0a       	sbc	r6, r30
      fa:	6c 0a       	sbc	r6, r28
      fc:	dd ea       	ldi	r29, 0xAD	; 173
      fe:	7d 08       	sbc	r7, r13
     100:	fc 1e       	adc	r15, r28
     102:	3d 58       	subi	r19, 0x8D	; 141
     104:	10 94       	com	r1
     106:	a2 e4       	ldi	r26, 0x42	; 66
     108:	6d 34       	cpi	r22, 0x4D	; 77
     10a:	6e 19       	sub	r22, r14
     10c:	6c 05       	cpc	r22, r12
     10e:	dd e5       	ldi	r29, 0x5D	; 93
     110:	7d 08       	sbc	r7, r13
     112:	fc 1e       	adc	r15, r28
     114:	3d 4c       	sbci	r19, 0xCD	; 205
     116:	10 a6       	std	Z+40, r1	; 0x28
     118:	6d 2d       	mov	r22, r13
     11a:	6e 28       	or	r6, r14
     11c:	6c 05       	cpc	r22, r12
     11e:	dd e5       	ldi	r29, 0x5D	; 93
     120:	7d 08       	sbc	r7, r13
     122:	fc 1e       	adc	r15, r28
     124:	3d 45       	sbci	r19, 0x5D	; 93
     126:	10 b6       	in	r1, 0x30	; 48
     128:	a3 29       	or	r26, r3
     12a:	f0 65       	ori	r31, 0x50	; 80
     12c:	a3 36       	cpi	r26, 0x63	; 99
     12e:	f0 33       	cpi	r31, 0x30	; 48
     130:	6c 00       	.word	0x006c	; ????
     132:	a3 36       	cpi	r26, 0x63	; 99
     134:	fc 1e       	adc	r15, r28
     136:	f0 65       	ori	r31, 0x50	; 80
     138:	f0 29       	or	r31, r0
     13a:	dd e5       	ldi	r29, 0x5D	; 93
     13c:	7d 05       	cpc	r23, r13
     13e:	7c 01       	movw	r14, r24
     140:	3c 03       	fmul	r19, r20
     142:	10 ca       	rjmp	.-3040   	; 0xfffff564 <__eeprom_end+0xff7ef564>
     144:	6c 20       	and	r6, r12
     146:	ec 9e       	mul	r14, r28
     148:	10 de       	rcall	.-992    	; 0xfffffd6a <__eeprom_end+0xff7efd6a>
     14a:	a3 28       	or	r10, r3
     14c:	60 00       	.word	0x0060	; ????
     14e:	61 00       	.word	0x0061	; ????
     150:	f1 55       	subi	r31, 0x51	; 81
     152:	6c 36       	cpi	r22, 0x6C	; 108
     154:	6f 0a       	sbc	r6, r31
     156:	22 9e       	mul	r2, r18
     158:	00 c1       	rjmp	.+512    	; 0x35a <__trampolines_end+0x2f2>
     15a:	7c ff       	.word	0xff7c	; ????
     15c:	3c 00       	.word	0x003c	; ????
     15e:	10 ec       	ldi	r17, 0xC0	; 192
     160:	10 16       	cp	r1, r16
     162:	33 00       	.word	0x0033	; ????
     164:	11 2e       	mov	r1, r17
     166:	cc 0f       	add	r28, r28
     168:	3c 00       	.word	0x003c	; ????
     16a:	11 2c       	mov	r1, r1
     16c:	cc 07       	cpc	r28, r28
     16e:	7c 01       	movw	r14, r24
     170:	8c 06       	cpc	r8, r28
     172:	a3 30       	cpi	r26, 0x03	; 3
     174:	fc 1e       	adc	r15, r28
     176:	f0 65       	ori	r31, 0x50	; 80
     178:	40 00       	.word	0x0040	; ????
     17a:	11 2c       	mov	r1, r1
     17c:	82 d0       	rcall	.+260    	; 0x282 <__trampolines_end+0x21a>
     17e:	83 e0       	ldi	r24, 0x03	; 3
     180:	73 05       	cpc	r23, r3
     182:	4c 00       	.word	0x004c	; ????
     184:	11 24       	eor	r1, r1
     186:	72 14       	cp	r7, r2
     188:	7c ff       	.word	0xff7c	; ????
     18a:	11 1a       	sub	r1, r17
     18c:	a3 22       	and	r10, r19
     18e:	d2 32       	cpi	r29, 0x22	; 34
     190:	3f 00       	.word	0x003f	; ????
     192:	11 3c       	cpi	r17, 0xC1	; 193
     194:	00 ee       	ldi	r16, 0xE0	; 224
     196:	a3 22       	and	r10, r19
     198:	d2 32       	cpi	r29, 0x22	; 34
     19a:	73 01       	movw	r14, r6
     19c:	33 3a       	cpi	r19, 0xA3	; 163
     19e:	11 24       	eor	r1, r1
     1a0:	63 00       	.word	0x0063	; ????
     1a2:	00 ee       	ldi	r16, 0xE0	; 224
     1a4:	6c 35       	cpi	r22, 0x5C	; 92
     1a6:	8b 30       	cpi	r24, 0x0B	; 11
     1a8:	8b c5       	rjmp	.+2838   	; 0xcc0 <font_6x8+0x33>
     1aa:	3f 00       	.word	0x003f	; ????
     1ac:	64 63       	ori	r22, 0x34	; 52
     1ae:	00 ee       	ldi	r16, 0xE0	; 224
     1b0:	80 40       	sbci	r24, 0x00	; 0
     1b2:	70 01       	movw	r14, r0
     1b4:	80 06       	cpc	r8, r16
     1b6:	6c 00       	.word	0x006c	; ????
     1b8:	a3 30       	cpi	r26, 0x03	; 3
     1ba:	fc 1e       	adc	r15, r28
     1bc:	f0 55       	subi	r31, 0x50	; 80
     1be:	7c 01       	movw	r14, r24
     1c0:	3c 05       	cpc	r19, r12
     1c2:	11 50       	subi	r17, 0x01	; 1
     1c4:	a3 36       	cpi	r26, 0x63	; 99
     1c6:	f4 33       	cpi	r31, 0x34	; 52
     1c8:	21 70       	andi	r18, 0x01	; 1
     1ca:	6c 78       	andi	r22, 0x8C	; 140
     1cc:	fc 15       	cp	r31, r12
     1ce:	fc 07       	cpc	r31, r28
     1d0:	3c 00       	.word	0x003c	; ????
     1d2:	11 66       	ori	r17, 0x61	; 97
     1d4:	21 70       	andi	r18, 0x01	; 1
     1d6:	00 ee       	ldi	r16, 0xE0	; 224
     1d8:	a3 37       	cpi	r26, 0x73	; 115
     1da:	f0 65       	ori	r31, 0x50	; 80
     1dc:	f0 30       	cpi	r31, 0x00	; 0
     1de:	6c 37       	cpi	r22, 0x7C	; 124
     1e0:	6b 1b       	sub	r22, r27
     1e2:	dc ba       	out	0x1c, r13	; 28
     1e4:	a3 38       	cpi	r26, 0x83	; 131
     1e6:	f0 65       	ori	r31, 0x50	; 80
     1e8:	f0 30       	cpi	r31, 0x00	; 0
     1ea:	6c 41       	sbci	r22, 0x1C	; 28
     1ec:	dc ba       	out	0x1c, r13	; 28
     1ee:	00 ee       	ldi	r16, 0xE0	; 224
     1f0:	46 00       	.word	0x0046	; ????
     1f2:	12 04       	cpc	r1, r2
     1f4:	a3 22       	and	r10, r19
     1f6:	d5 62       	ori	r29, 0x25	; 37
     1f8:	76 ff       	sbrs	r23, 6
     1fa:	46 00       	.word	0x0046	; ????
     1fc:	12 04       	cpc	r1, r2
     1fe:	d5 62       	ori	r29, 0x25	; 37
     200:	4f 00       	.word	0x004f	; ????
     202:	12 04       	cpc	r1, r2
     204:	8c e0       	ldi	r24, 0x0C	; 12
     206:	7c 05       	cpc	r23, r12
     208:	8c 65       	ori	r24, 0x5C	; 92
     20a:	4f 00       	.word	0x004f	; ????
     20c:	12 06       	cpc	r1, r18
     20e:	d5 62       	ori	r29, 0x25	; 37
     210:	75 fb       	bst	r23, 5
     212:	66 00       	.word	0x0066	; ????
     214:	8c d0       	rcall	.+280    	; 0x32e <__trampolines_end+0x2c6>
     216:	60 00       	.word	0x0060	; ????
     218:	8b c0       	rjmp	.+278    	; 0x330 <__trampolines_end+0x2c8>
     21a:	8b 55       	subi	r24, 0x5B	; 91
     21c:	3f 00       	.word	0x003f	; ????
     21e:	11 be       	out	0x31, r1	; 49
     220:	7c 14       	cp	r7, r12
     222:	70 01       	movw	r14, r0
     224:	11 b0       	in	r1, 0x01	; 1
     226:	a3 30       	cpi	r26, 0x03	; 3
     228:	f0 1e       	adc	r15, r16
     22a:	f0 65       	ori	r31, 0x50	; 80
     22c:	70 ff       	sbrs	r23, 0
     22e:	f0 55       	subi	r31, 0x50	; 80
     230:	a3 2a       	or	r10, r19
     232:	40 00       	.word	0x0040	; ????
     234:	dc e5       	ldi	r29, 0x5C	; 92
     236:	6c 0a       	sbc	r6, r28
     238:	fc 18       	sub	r15, r12
     23a:	a3 28       	or	r10, r3
     23c:	f0 65       	ori	r31, 0x50	; 80
     23e:	6c ff       	.word	0xff6c	; ????
     240:	80 c3       	rjmp	.+1792   	; 0x942 <__stack+0x43>
     242:	f0 55       	subi	r31, 0x50	; 80
     244:	30 00       	.word	0x0030	; ????
     246:	11 e8       	ldi	r17, 0x81	; 129
     248:	a3 29       	or	r26, r3
     24a:	f0 65       	ori	r31, 0x50	; 80
     24c:	70 01       	movw	r14, r0
     24e:	f0 55       	subi	r31, 0x50	; 80
     250:	6c 00       	.word	0x006c	; ????
     252:	6b 00       	.word	0x006b	; ????
     254:	a3 30       	cpi	r26, 0x03	; 3
     256:	fc 1e       	adc	r15, r28
     258:	f0 65       	ori	r31, 0x50	; 80
     25a:	30 00       	.word	0x0030	; ????
     25c:	7b 01       	movw	r14, r22
     25e:	7c 01       	movw	r14, r24
     260:	3c 05       	cpc	r19, r12
     262:	11 ec       	ldi	r17, 0xC1	; 193
     264:	3b 00       	.word	0x003b	; ????
     266:	12 04       	cpc	r1, r2
     268:	74 01       	movw	r14, r8
     26a:	6f 42       	sbci	r22, 0x2F	; 47
     26c:	00 ee       	ldi	r16, 0xE0	; 224
     26e:	a3 22       	and	r10, r19
     270:	d2 32       	cpi	r29, 0x22	; 34
     272:	d5 62       	ori	r29, 0x25	; 37
     274:	63 00       	.word	0x0063	; ????
     276:	66 00       	.word	0x0066	; ????
     278:	00 ee       	ldi	r16, 0xE0	; 224
     27a:	6b 00       	.word	0x006b	; ????
     27c:	6c 08       	sbc	r6, r12
     27e:	ec a1       	ldd	r30, Y+36	; 0x24
     280:	6b ff       	.word	0xff6b	; ????
     282:	6c 10       	cpse	r6, r12
     284:	ec a1       	ldd	r30, Y+36	; 0x24
     286:	6b 01       	movw	r12, r22
     288:	4b 00       	.word	0x004b	; ????
     28a:	12 38       	cpi	r17, 0x82	; 130
     28c:	48 01       	movw	r8, r16
     28e:	6b 01       	movw	r12, r22
     290:	48 78       	andi	r20, 0x88	; 136
     292:	6b ff       	.word	0xff6b	; ????
     294:	a3 1c       	adc	r10, r3
     296:	69 35       	cpi	r22, 0x59	; 89
     298:	d8 96       	adiw	r26, 0x38	; 56
     29a:	88 b4       	in	r8, 0x28	; 40
     29c:	d8 96       	adiw	r26, 0x38	; 56
     29e:	12 4a       	sbci	r17, 0xA2	; 162
     2a0:	6c 20       	and	r6, r12
     2a2:	ec 9e       	mul	r14, r28
     2a4:	12 4a       	sbci	r17, 0xA2	; 162
     2a6:	36 00       	.word	0x0036	; ????
     2a8:	12 4a       	sbci	r17, 0xA2	; 162
     2aa:	85 80       	ldd	r8, Z+5	; 0x05
     2ac:	66 35       	cpi	r22, 0x56	; 86
     2ae:	a3 22       	and	r10, r19
     2b0:	d5 62       	ori	r29, 0x25	; 37
     2b2:	6f 06       	cpc	r6, r31
     2b4:	22 9e       	mul	r2, r18
     2b6:	00 ee       	ldi	r16, 0xE0	; 224
     2b8:	f0 07       	cpc	r31, r16
     2ba:	30 00       	.word	0x0030	; ????
     2bc:	12 6e       	ori	r17, 0xE2	; 226
     2be:	60 1e       	adc	r6, r16
     2c0:	f0 15       	cp	r31, r0
     2c2:	67 00       	.word	0x0067	; ????
     2c4:	3d 21       	and	r19, r13
     2c6:	12 64       	ori	r17, 0x42	; 66
     2c8:	6a ff       	.word	0xff6a	; ????
     2ca:	12 6a       	ori	r17, 0xA2	; 162
     2cc:	3d 07       	cpc	r19, r29
     2ce:	12 6c       	ori	r17, 0xC2	; 194
     2d0:	6a 01       	movw	r12, r20
     2d2:	67 01       	movw	r12, r14
     2d4:	22 70       	andi	r18, 0x02	; 2
     2d6:	00 ee       	ldi	r16, 0xE0	; 224
     2d8:	8b d0       	rcall	.+278    	; 0x3f0 <car+0x4e>
     2da:	6c 00       	.word	0x006c	; ????
     2dc:	89 b0       	in	r8, 0x09	; 9
     2de:	81 e0       	ldi	r24, 0x01	; 1
     2e0:	a3 30       	cpi	r26, 0x03	; 3
     2e2:	fc 1e       	adc	r15, r28
     2e4:	f0 65       	ori	r31, 0x50	; 80
     2e6:	40 00       	.word	0x0040	; ????
     2e8:	12 8c       	ldd	r1, Z+26	; 0x1a
     2ea:	a3 2a       	or	r10, r19
     2ec:	d9 15       	cp	r29, r9
     2ee:	89 a4       	ldd	r8, Y+41	; 0x29
     2f0:	81 74       	andi	r24, 0x41	; 65
     2f2:	d9 15       	cp	r29, r9
     2f4:	7c 01       	movw	r14, r24
     2f6:	7b 14       	cp	r7, r11
     2f8:	3c 05       	cpc	r19, r12
     2fa:	12 74       	andi	r17, 0x42	; 66
     2fc:	8d a4       	ldd	r8, Y+45	; 0x2d
     2fe:	8e 74       	andi	r24, 0x4E	; 78
     300:	4e 30       	cpi	r20, 0x0E	; 14
     302:	64 63       	ori	r22, 0x34	; 52
     304:	00 ee       	ldi	r16, 0xE0	; 224
     306:	ff 15       	cp	r31, r15
     308:	ff 07       	cpc	r31, r31
     30a:	3f 00       	.word	0x003f	; ????
     30c:	12 a0       	ldd	r1, Z+34	; 0x22
     30e:	00 ee       	ldi	r16, 0xE0	; 224
     310:	3c 0c       	add	r3, r12
     312:	1e 1e       	adc	r1, r30
     314:	33 33       	cpi	r19, 0x33	; 51
     316:	3f 61       	ori	r19, 0x1F	; 31
     318:	61 f3       	breq	.-40     	; 0x2f2 <__trampolines_end+0x28a>
     31a:	1f 0c       	add	r1, r15
     31c:	0c 0c       	add	r0, r12
     31e:	0c 0c       	add	r0, r12
     320:	0c 8c       	ldd	r0, Y+28	; 0x1c
     322:	8c df       	rcall	.-232    	; 0x23c <__trampolines_end+0x1d4>
     324:	07 01       	movw	r0, r14
     326:	01 01       	movw	r0, r2
     328:	01 01       	movw	r0, r2
     32a:	01 01       	movw	r0, r2
     32c:	61 e7       	ldi	r22, 0x71	; 113
     32e:	e7 83       	std	Z+7, r30	; 0x07
     330:	83 83       	std	Z+3, r24	; 0x03
     332:	83 83       	std	Z+3, r24	; 0x03
     334:	83 83       	std	Z+3, r24	; 0x03
     336:	83 e7       	ldi	r24, 0x73	; 115
     338:	fb 19       	sub	r31, r11
     33a:	01 61       	ori	r16, 0x11	; 17
     33c:	e1 61       	ori	r30, 0x11	; 17
     33e:	01 01       	movw	r0, r2
     340:	19 fb       	.word	0xfb19	; ????
     342:	9f 86       	std	Y+15, r9	; 0x0f
     344:	c6 e6       	ldi	r28, 0x66	; 102
     346:	e6 b6       	in	r14, 0x36	; 54
     348:	9e 9e       	mul	r9, r30
     34a:	8e e6       	ldi	r24, 0x6E	; 110
     34c:	e4 94       	.word	0x94e4	; ????
     34e:	e7 90       	elpm	r14, Z+
     350:	f7 87       	std	Z+15, r31	; 0x0f
     352:	80 80       	ld	r8, Z
     354:	80 87       	std	Z+8, r24	; 0x08
     356:	88 88       	ldd	r8, Y+16	; 0x10
     358:	88 88       	ldd	r8, Y+16	; 0x10
     35a:	af 66       	ori	r26, 0x6F	; 111
     35c:	88 48       	sbci	r24, 0x88	; 136
     35e:	28 c6       	rjmp	.+3152   	; 0xfb0 <font_6x8+0x323>
     360:	4c aa       	std	Y+52, r4	; 0x34
     362:	ac aa       	std	Y+52, r10	; 0x34
     364:	4a e0       	ldi	r20, 0x0A	; 10
     366:	88 c0       	rjmp	.+272    	; 0x478 <car+0xd6>
     368:	88 e0       	ldi	r24, 0x08	; 8
     36a:	00 00       	nop
     36c:	18 ff       	.word	0xff18	; ????
     36e:	3c 00       	.word	0x003c	; ????
     370:	18 3c       	cpi	r17, 0xC8	; 200
     372:	ff 81       	ldd	r31, Y+7	; 0x07
     374:	42 3c       	cpi	r20, 0xC2	; 194
     376:	3c 3c       	cpi	r19, 0xCC	; 204
     378:	42 3c       	cpi	r20, 0xC2	; 194
     37a:	5a 5a       	subi	r21, 0xAA	; 170
     37c:	7e 7e       	andi	r23, 0xEE	; 238
     37e:	00 00       	nop
     380:	24 3c       	cpi	r18, 0xC4	; 196
     382:	24 00       	.word	0x0024	; ????
     384:	00 18       	sub	r0, r0
     386:	18 3c       	cpi	r17, 0xC8	; 200
     388:	7e ff       	.word	0xff7e	; ????
     38a:	18 18       	sub	r1, r8
     38c:	ff 22       	and	r15, r31
     38e:	55 88       	ldd	r5, Z+21	; 0x15
	...

000003a2 <car>:
     3a2:	10 1e 31 2e 30 30 20 4b 2e 76 2e 53 65 6e 67 62     ..1.00 K.v.Sengb
     3b2:	75 73 63 68 20 32 34 2f 34 2d 27 39 34 00 00 ff     usch 24/4-'94...
     3c2:	6c 04 21 48 65 32 66 32 67 28 83 50 84 60 62 64     l.!He2f2g(.P.`bd
     3d2:	69 00 6a 01 6b 00 00 c1 20 cc 60 01 82 05 60 28     i.j.k... .`...`(
     3e2:	52 00 10 36 a1 90 d3 48 a1 90 d3 48 00 c1 d5 68     R..6...H...H...h
     3f2:	3f 00 10 80 20 cc 60 01 32 00 82 05 21 08 83 50     ?... .`.2...!..P
     402:	84 60 60 08 e0 a1 20 b0 60 10 e0 a1 20 a8 c0 03     .``... .`... ...
     412:	40 00 20 ba c0 03 40 00 20 c2 80 c0 21 7a 10 48     @. ...@. ...!z.H
     422:	80 b0 70 03 80 06 80 06 f0 30 80 70 70 11 61 1b     ..p......0.pp.a.
     432:	d0 1a 60 64 21 7a 00 c8 60 00 61 00 a1 98 90 12     ..`d!z..`.a.....
     442:	f0 0a 40 ff 10 a0 10 22 75 01 45 6e 65 6d 00 ee     ..@...."u.Enem..
     452:	60 01 85 05 4f 00 65 00 00 ee 77 01 47 46 67 45     `...O.e...w.GFgE
     462:	00 ee 60 01 87 05 47 14 67 15 00 ee 80 90 61 2d     ..`...G.g.....a-
     472:	81 05 88 10 61 00 80 70 a1 84 d0 11 80 84 61 00     ....a..p......a.
     482:	d0 11 7a 01 4a 04 6a 01 4a 01 a1 86 4a 02 a1 88     ..z.J.j.J...J...
     492:	4a 03 a1 8a 61 00 60 00 d0 11 60 08 d0 11 60 70     J...a.`...`...`p
     4a2:	d0 11 60 78 d0 11 00 ee 32 00 00 ee c0 0f 80 74     ..`x....2......t
     4b2:	70 08 61 00 a1 90 62 2d 4b 1e 21 2c 3b 21 d0 18     p.a...b-K.!,;!..
     4c2:	7b 01 80 90 82 05 39 0b 79 01 00 ee 7b 03 a1 8c     {.....9.y...{...
     4d2:	80 70 70 05 d0 11 70 08 d0 11 70 08 d0 11 70 08     .pp...p...p...p.
     4e2:	a1 8e d0 11 62 64 00 ee 00 e0 60 00 61 00 a1 a3     ....bd....`.a...
     4f2:	90 12 62 08 82 c5 f2 29 60 2a d0 15 f0 0a 40 02     ..b....)`*....@.
     502:	21 74 40 04 21 6e 30 20 11 48 00 e0 00 ee 3c 07     !t@.!n0 .H....<.
     512:	7c 01 11 78 3c 01 7c ff 60 0f f0 15 f0 07 30 00     |..x<.|.`.....0.
     522:	11 7c 00 ee 88 00 88 00 55 00 22 00 ff 00 f8 00     .|......U.".....
     532:	db ff db 18 24 e7 e7 db 61 6e 79 20 6b 65 79 2e     ....$...any key.
     542:	2e 2e 00 73 70 65 65 64 3a 20 00                    ...speed: .

0000054d <__c.2477>:
     54d:	63 61 72 74 65 20 53 44 20 61 62 73 65 6e 74 65     carte SD absente
     55d:	21 00                                               !.

0000055f <__c.2458>:
     55f:	43 52 41 53 48 21 20 62 61 64 20 6f 70 63 6f 64     CRASH! bad opcod
     56f:	65 0a 00                                            e..

00000572 <__c.2429>:
     572:	43 52 41 53 48 21 20 62 61 64 20 6f 70 63 6f 64     CRASH! bad opcod
     582:	65 0a 00                                            e..

00000585 <credits>:
     585:	46 41 54 20 64 72 69 76 65 72 0a 43 6f 70 79 72     FAT driver.Copyr
     595:	69 67 68 74 20 32 30 30 36 2d 32 30 31 32 0a 52     ight 2006-2012.R
     5a5:	6f 6c 61 6e 64 20 52 69 65 67 65 6c 0a 00           oland Riegel..

000005b3 <flash_games>:
     5b3:	4c 45 4d 0a 43 41 52 0a 57 4f 52 4d 0a 41 4c 49     LEM.CAR.WORM.ALI
     5c3:	45 4e 0a 00                                         EN..

000005c7 <__c.2035>:
     5c7:	27 46 27 69 72 65 20 74 72 61 63 65 20 6f 72 20     'F'ire trace or 
     5d7:	61 6e 79 00                                         any.

000005db <__c.2029>:
     5db:	76 61 72 5b 5d 3a 00                                var[]:.

000005e2 <__c.2027>:
     5e2:	20 53 50 3a 00                                       SP:.

000005e7 <__c.2025>:
     5e7:	49 3a 00                                            I:.

000005ea <__c.2023>:
     5ea:	50 43 3a 00                                         PC:.

000005ee <__c.2077>:
     5ee:	45 63 68 65 63 20 6f 75 76 65 72 74 2e 20 66 69     Echec ouvert. fi
     5fe:	63 68 2e 0a 00                                      ch...

00000603 <__c.2065>:
     603:	45 63 68 65 63 20 61 63 63 65 73 20 72 65 70 65     Echec acces repe
     613:	72 74 2e 0a 00                                      rt...

00000618 <__c.2057>:
     618:	45 63 68 65 63 20 61 63 63 65 73 20 66 69 63 68     Echec acces fich
     628:	69 65 72 73 0a 00                                   iers..

0000062e <__c.2055>:
     62e:	45 63 68 65 63 20 61 63 63 65 73 20 70 61 72 74     Echec acces part
     63e:	69 74 69 6f 6e 0a 00                                ition..

00000645 <__c.1679>:
     645:	62 6f 75 74 6f 6e 2e 2e 2e 00                       bouton....

0000064f <lem>:
     64f:	00 e0 20 c9 69 00 68 00 78 01 9e 08 60 10 8e 05     .. .i.h.x...`...
     65f:	8e 06 6d 00 6c 00 6b 00 6a 64 20 8e 20 74 20 ba     ..m.l.k.jd . t .
     66f:	4a 00 10 2b 60 08 e0 a1 10 1c 60 10 e0 a1 10 20     J..+`.....`.... 
     67f:	60 20 e0 a1 10 24 10 2b 20 ba 7c ff 7a ff 10 29     ` ...$.+ .|.z..)
     68f:	20 ba 7c 01 7a ff 10 29 20 ba 7b fe 3a 01 7a ff      .|.z..) .{.:.z.
     69f:	7a ff 90 44 20 ba 20 ba 20 74 8e c4 60 7f 8e 02     z..D . . t..`...
     6af:	8d b4 7b 01 20 74 4f 01 10 4b 20 ba 4a 00 10 3b     ..{. tO..K .J..;
     6bf:	60 14 20 46 10 10 20 ba 60 0a 61 04 90 11 60 04     `. F.. .`.a...`.
     6cf:	20 46 20 ba 60 04 90 11 20 46 10 10 f0 15 f0 07      F .`... F......
     6df:	30 00 10 47 00 ee 20 ba 60 02 80 b5 3f 01 10 63     0..G.. .`...?..c
     6ef:	60 02 80 c5 3f 01 10 63 80 e0 80 75 3f 01 10 63     `...?..c...u?..c
     6ff:	80 70 70 10 80 e7 3f 00 10 63 79 01 a0 f1 61 00     .pp...?..cy...a.
     70f:	62 10 91 22 10 67 a0 eb 61 00 62 10 91 22 20 77     b..".g..a.b.." w
     71f:	60 3c 20 46 60 20 e0 9e 10 6b 61 01 62 0a 91 21     `< F` ...ka.b..!
     72f:	e0 a1 10 70 00 e0 10 04 a0 d6 de d0 00 ee 61 00     ...p..........a.
     73f:	62 0a a1 15 f9 33 20 83 a0 e6 d1 25 71 04 a1 15     b....3 ....%q...
     74f:	f8 33 20 83 00 ee 63 00 a1 15 f3 1e f0 65 f0 29     .3 ...c......e.)
     75f:	d1 25 71 04 73 01 33 03 10 84 00 ee 65 00 c7 ff     .%q.s.3.....e...
     76f:	90 08 63 10 80 35 90 06 80 75 90 07 3f 01 87 00     ..c..5...u..?...
     77f:	84 70 74 10 c1 0f 90 09 81 07 83 50 83 75 3f 01     .pt........P.u?.
     78f:	10 a5 83 50 83 45 3f 01 10 b4 90 09 80 06 80 15     ...P.E?.........
     79f:	3f 00 71 01 90 09 70 ff 80 17 3f 00 71 ff c3 03     ?.q...p...?.q...
     7af:	83 06 33 00 71 fe 71 01 95 13 75 01 90 08 55 00     ..3.q.q...u...U.
     7bf:	10 9d 00 ee 61 00 62 00 63 00 a1 15 fa 33 a1 15     ....a.b.c....3..
     7cf:	f3 1e f0 65 f0 30 d1 2a 71 08 73 01 33 03 10 bf     ...e.0.*q.s.3...
     7df:	00 ee a0 f9 61 00 92 09 82 06 91 22 91 09 00 d1     ....a......"....
     7ef:	60 03 20 46 71 ff 31 00 10 cf 00 ee 03 c0 06 60     `. Fq.1........`
     7ff:	1f f8 3f fc 20 04 af f5 6c 36 2c 34 6f f6 a0 05     ..?. ...l6,4o...
     80f:	3f fc 3f fc 12 90 24 48 60 0c c0 06 20 00 40 00     ?.?...$H`... .@.
     81f:	40 00 80 00 80 00 79 6f 75 20 63 72 61 73 68 65     @.....you crashe
     82f:	64 00 63 6f 6e 67 72 61 74 75 6c 61 74 69 6f 6e     d.congratulation
     83f:	21 00 4c 45 4d 0a 4a 61 63 71 75 65 73 20 44 65     !.LEM.Jacques De
     84f:	73 63 68 65 6e 65 73 0a 43 6f 70 79 72 69 67 68     schenes.Copyrigh
     85f:	74 20 32 30 31 34 2c 32 30 31 35 0a 6c 69 63 65     t 2014,2015.lice
     86f:	6e 63 65 20 47 50 4c 76 33 00 00 00 00 00 00 00     nce GPLv3.......
	...

0000088d <splash>:
     88d:	ff ff ff ff ff ff ff ff ff ff ff ff ff ff ff ff     ................
     89d:	ff ff ff ff ff ff ff ff ff ff ff ff ff ff ff ff     ................
     8ad:	ff ff ff ff ff ff ff ff ff ff ff ff ff ff ff ff     ................
     8bd:	ff ff ff ff ff ff ff ff ff ff ff ff ff ff ff ff     ................
     8cd:	ff ff ff ff ff ff ff ff ff ff ff ff ff ff ff ff     ................
     8dd:	ff ff ff ff ff ff ff ff ff ff ff ff ff ff ff ff     ................
     8ed:	ff ff ff ff ff ff ff ff ff ff ff ff ff ff ff ff     ................
     8fd:	ff ff ff ff ff ff ff ff ff ff ff ff ff ff ff ff     ................
     90d:	ff ff ff ff ff ff ff ff ff ff ff ff ff ff ff ff     ................
     91d:	ff ff ff ff ff ff ff ff ff ff ff ff ff ff ff ff     ................
     92d:	ff ff ff ff ff ff ff ff ff ff ff ff ff ff ff ff     ................
     93d:	ff ff ff ff ff ff ff ff ff ff ff ff ff ff ff ff     ................
     94d:	ff ff ff ff ff ff ff ff ff ff ff ff ff ff ff ff     ................
     95d:	ff ff c1 cf 99 81 ff ff ff ff ff ff ff ff ff ff     ................
     96d:	ff ff 80 cf 99 80 ff ff ff ff ff ff ff ff ff ff     ................
     97d:	ff ff 1c 4f 99 9c 7f ff ff ff ff ff ff ff ff ff     ...O............
     98d:	ff ff 3e cf 99 9e 7f ff ff ff ff fb fe 7f ff ff     ..>.............
     99d:	ff fe 7f cf 99 9e 78 7c 3c 87 ff fb fd bf ff ff     ......x|<.......
     9ad:	ff fe 7f cf 99 9e 70 38 1c 03 ff f3 fb df ff ff     ......p8........
     9bd:	ff fe 7f c0 19 9c 63 11 8c 73 ef ab fb df ff ff     ......c..s......
     9cd:	ff fe 7f c0 19 80 e7 93 cc f3 f7 7b fb df ff ff     ...........{....
     9dd:	ff fe 7f cf 99 81 e7 f3 cc f3 f7 7b fb df ff ff     ...........{....
     9ed:	ff fe 7e cf 99 9f e7 f3 cc f3 f7 7b fb df ff ff     ..~........{....
     9fd:	ff ff 3c 4f 99 9f e7 93 cc f3 fa fb fb df ff ff     ..<O............
     a0d:	ff ff 1c cf 99 9f e3 11 8c f3 fa fb fb df ff ff     ................
     a1d:	ff ff 80 cf 99 9f f0 38 1c f3 fa fb fd bf ff ff     .......8........
     a2d:	ff ff c1 cf 99 9f f8 7c 3c f3 fd fb de 7f ff ff     .......|<.......
     a3d:	ff ff ff ff ff ff ff ff ff ff ff ff ff ff ff ff     ................
     a4d:	ff ff ff ff ff ff ff ff ff ff ff ff ff ff ff ff     ................
     a5d:	ff ff ff ff ff ff ff ff ff ff ff ff ff ff ff ff     ................
     a6d:	ff ff ff ff ff ff ff ff ff ff ff ff ff ff ff ff     ................
     a7d:	ff ff ff ff ff ff ff ff ff ff ff ff ff ff ff ff     ................
     a8d:	ff ff ff ff ff ff ff ff ff ff ff ff ff ff ff ff     ................
     a9d:	ff ff ff ff ff ff ff ff ff ff ff ff ff ff ff ff     ................
     aad:	ff ff ff ff ff ff ff ff ff ff ff ff ff ff ff ff     ................
     abd:	ff ff 8f ff ff f7 f7 df 3e fb f7 fb fc 3f ff ff     ........>....?..
     acd:	ff ff 77 ff ff ff f7 de dd 73 e7 fb fd df ff ff     ..w......s......
     add:	ff fe f6 34 dd 56 54 8e eb ab e7 fb 1d ec 7f ff     ...4.VT.........
     aed:	ff fe fd d3 5d 35 93 5f eb bb d7 fa ed eb bf ff     ....]5._........
     afd:	ff fe fd d7 6b 75 d7 5f db bb d7 fb ed eb bf ff     ....ku._........
     b0d:	ff fe fd d7 6b 75 d7 5f bb bb b7 fb 0d e8 3f ff     ....ku._......?.
     b1d:	ff fe f5 d7 6b 75 d7 5f 7b bb 83 da ed eb ff ff     ....ku._{.......
     b2d:	ff ff 75 d3 77 75 97 5e fd 7b f7 da ed db bf ff     ..u.wu.^.{......
     b3d:	ff ff 8e 34 f7 76 57 4e 0e fb f7 e7 0c 3c 7f ff     ...4.vWN.....<..
     b4d:	ff ff ff f7 f7 ff df ff ff ff ff ff ff ff ff ff     ................
     b5d:	ff ff ff f7 f7 fd df ff ff ff ff ff ff ff ff ff     ................
     b6d:	ff ff ff f7 cf fe 3f ff ff ff ff ff ff ff ff ff     ......?.........
     b7d:	ff ff ff ff ff ff ff ff ff ff ff ff ff ff ff ff     ................
     b8d:	ff ff ff ff ff ff ff ff ff ff ff ff ff ff ff ff     ................
     b9d:	ff ff ff ff ff ff ff ff ff ff ff ff ff ff ff ff     ................
     bad:	ff ff ff ff ff ff ff ff ff ff ff ff ff ff ff ff     ................
     bbd:	ff ff ff ff ff ff ff ff ff ff ff ff ff ff ff ff     ................
     bcd:	ff ff ff ff ff ff ff ff ff ff ff ff ff ff ff ff     ................
     bdd:	ff ff ff ff ff ff ff ff ff ff ff ff ff ff ff ff     ................
     bed:	ff ff ff ff ff ff ff ff ff ff ff ff ff ff ff ff     ................
     bfd:	ff ff ff ff ff ff ff ff ff ff ff ff ff ff ff ff     ................
     c0d:	ff ff ff ff ff ff ff ff ff ff ff ff ff ff ff ff     ................
     c1d:	ff ff ff ff ff ff ff ff ff ff ff ff ff ff ff ff     ................
     c2d:	ff ff ff ff ff ff ff ff ff ff ff ff ff ff ff ff     ................
     c3d:	ff ff ff ff ff ff ff ff ff ff ff ff ff ff ff ff     ................
     c4d:	ff ff ff ff ff ff ff ff ff ff ff ff ff ff ff ff     ................
     c5d:	ff ff ff ff ff ff ff ff ff ff ff ff ff ff ff ff     ................
     c6d:	ff ff ff ff ff ff ff ff ff ff ff ff ff ff ff ff     ................
     c7d:	ff ff ff ff ff ff ff ff ff ff ff ff ff ff ff ff     ................

00000c8d <font_6x8>:
	...
     c95:	20 20 20 20 20 00 20 00 50 50 50 00 00 00 00 00          . .PPP.....
     ca5:	50 50 f8 50 f8 50 50 00 20 78 a0 70 28 f0 20 00     PP.P.PP. x.p(. .
     cb5:	c0 c8 10 20 40 98 18 00 60 90 a0 40 a8 90 68 00     ... @...`..@..h.
     cc5:	60 20 40 00 00 00 00 00 10 20 40 40 40 20 10 00     ` @...... @@@ ..
     cd5:	40 20 10 10 10 20 40 00 00 20 a8 70 a8 20 00 00     @ ... @.. .p. ..
     ce5:	00 20 20 f8 20 20 00 00 00 00 00 00 60 20 40 00     .  .  ......` @.
     cf5:	00 00 00 f0 00 00 00 00 00 00 00 00 00 60 60 00     .............``.
     d05:	00 08 10 20 40 80 00 00 70 88 98 a8 c8 88 70 00     ... @...p.....p.
     d15:	20 60 20 20 20 20 f8 00 70 88 10 20 40 80 f8 00      `    ..p.. @...
     d25:	f0 08 08 f0 08 08 f0 00 10 30 50 90 f8 10 10 00     .........0P.....
     d35:	f8 80 80 f0 08 08 f0 00 30 40 80 f0 88 88 70 00     ........0@....p.
     d45:	f8 08 10 20 40 40 40 00 70 88 88 70 88 88 70 00     ... @@@.p..p..p.
     d55:	70 88 88 70 08 08 70 00 00 60 60 00 60 60 00 00     p..p..p..``.``..
     d65:	00 60 60 00 60 20 40 00 10 20 40 80 40 20 10 00     .``.` @.. @.@ ..
     d75:	00 00 f8 00 f8 00 00 00 40 20 10 08 10 20 40 00     ........@ ... @.
     d85:	70 88 08 10 20 00 20 00 70 88 08 68 a8 a8 70 00     p... . .p..h..p.
     d95:	70 88 88 f8 88 88 88 00 f0 88 88 f0 88 88 f0 00     p...............
     da5:	78 80 80 80 80 80 78 00 f0 88 88 88 88 88 f0 00     x.....x.........
     db5:	f8 80 80 f8 80 80 f8 00 f8 80 80 f8 80 80 80 00     ................
     dc5:	78 80 80 b0 88 88 70 00 88 88 88 f8 88 88 88 00     x.....p.........
     dd5:	70 20 20 20 20 20 70 00 78 08 08 08 08 90 60 00     p     p.x.....`.
     de5:	88 90 a0 c0 a0 90 88 00 80 80 80 80 80 80 f8 00     ................
     df5:	88 d8 a8 88 88 88 88 00 88 88 c8 a8 98 88 88 00     ................
     e05:	70 88 88 88 88 88 70 00 f0 88 88 f0 80 80 80 00     p.....p.........
     e15:	70 88 88 88 a8 98 78 00 f0 88 88 f0 a0 90 88 00     p.....x.........
     e25:	78 80 80 70 08 08 f0 00 f8 20 20 20 20 20 20 00     x..p.....      .
     e35:	88 88 88 88 88 88 70 00 88 88 88 88 88 50 20 00     ......p......P .
     e45:	88 88 88 a8 a8 d8 88 00 88 88 50 20 50 88 88 00     ..........P P...
     e55:	88 88 88 50 20 20 20 00 f8 10 20 40 80 80 f8 00     ...P   ... @....
     e65:	60 40 40 40 40 40 60 00 00 80 40 20 10 08 00 00     `@@@@@`...@ ....
     e75:	18 08 08 08 08 08 18 00 20 50 88 00 00 00 00 00     ........ P......
     e85:	00 00 00 00 00 00 f8 00 40 20 10 00 00 00 00 00     ........@ ......
     e95:	00 00 70 08 78 88 78 00 80 80 80 b0 c8 88 f0 00     ..p.x.x.........
     ea5:	00 00 70 80 80 88 70 00 08 08 08 68 98 88 78 00     ..p...p....h..x.
     eb5:	00 00 70 88 f8 80 70 00 30 48 40 e0 40 40 40 00     ..p...p.0H@.@@@.
     ec5:	00 00 78 88 88 78 08 70 80 80 b0 c8 88 88 88 00     ..x..x.p........
     ed5:	00 20 00 20 20 20 20 00 10 00 30 10 10 90 60 00     . .    ...0...`.
     ee5:	80 80 90 a0 c0 a0 90 00 60 20 20 20 20 20 70 00     ........`     p.
     ef5:	00 00 d0 a8 a8 88 88 00 00 00 b0 c8 88 88 88 00     ................
     f05:	00 00 70 88 88 88 70 00 00 00 f0 88 88 f0 80 80     ..p...p.........
     f15:	00 00 68 90 90 b0 50 18 00 00 b0 c8 80 80 80 00     ..h...P.........
     f25:	00 00 70 80 70 08 f0 00 40 40 e0 40 40 48 30 00     ..p.p...@@.@@H0.
     f35:	00 00 88 88 88 98 68 00 00 00 88 88 88 50 20 00     ......h......P .
     f45:	00 00 88 88 a8 a8 50 00 00 00 88 50 20 50 88 00     ......P....P P..
     f55:	00 00 88 88 88 78 08 70 00 00 f8 10 20 40 f8 00     .....x.p.... @..
     f65:	20 40 40 80 40 40 20 00 20 20 20 20 20 20 20 00      @@.@@ .       .
     f75:	40 20 20 10 20 20 40 00 00 00 40 a8 10 00 00 00     @  .  @...@.....
     f85:	fc fc fc fc fc fc fc fc 40 20 10 f8 10 20 40 00     ........@ ... @.
     f95:	10 20 40 f8 40 20 10 00 20 70 a8 20 20 20 00 00     . @.@ .. p.   ..
     fa5:	00 20 20 20 a8 70 20 00 00 70 f8 f8 f8 70 00 00     .   .p ..p...p..

00000fb5 <font_hex_8x10>:
     fb5:	7c 82 86 8a 92 a2 c2 82 7c 00 08 18 28 08 08 08     |.......|...(...
     fc5:	08 08 3e 00 38 44 82 04 08 10 20 40 fe 00 38 44     ..>.8D.... @..8D
     fd5:	82 02 3c 02 82 44 38 00 84 84 84 84 7e 04 04 04     ..<..D8.....~...
     fe5:	04 00 7e 80 80 80 7c 02 02 02 fe 00 78 84 80 80     ..~...|.....x...
     ff5:	fc 82 82 82 7c 00 7e 82 04 08 08 08 08 08 08 00     ....|.~.........
    1005:	38 44 82 82 7c 82 82 44 38 00 38 44 82 82 46 3a     8D..|..D8.8D..F:
    1015:	02 04 38 00 38 44 82 82 fe 82 82 82 82 00 fc 82     ..8.8D..........
    1025:	82 82 fc 82 82 82 fc 00 3e 40 80 80 80 80 80 40     ........>@.....@
    1035:	3e 00 f8 84 82 82 82 82 82 84 f8 00 fe 80 80 80     >...............
    1045:	fe 80 80 80 fe 00 fe 80 80 80 fe 80 80 80 80 00     ................

00001055 <font_hex_4x6>:
    1055:	e0 a0 a0 a0 e0 00 c0 40 40 40 e0 00 e0 20 e0 80     .......@@@... ..
    1065:	e0 00 e0 20 e0 20 e0 00 a0 a0 e0 20 20 00 e0 80     ... . .....  ...
    1075:	e0 20 e0 00 80 80 e0 a0 e0 00 e0 20 20 20 20 00     . .........    .
    1085:	e0 a0 e0 a0 e0 00 e0 a0 e0 20 20 00 e0 a0 e0 a0     .........  .....
    1095:	a0 00 c0 a0 c0 a0 c0 00 e0 80 80 80 e0 00 c0 a0     ................
    10a5:	a0 a0 c0 00 e0 80 e0 80 e0 00 e0 80 e0 80 80 00     ................

000010b5 <SCALE>:
    10b5:	0b 02 2a 02 4b 02 6e 02 93 02 ba 02 e4 02 10 03     ..*.K.n.........
    10c5:	3f 03 70 03 a4 03 dc 03 17 04 55 04 97 04 dd 04     ?.p.......U.....

000010d5 <worm>:
    10d5:	10 1a 57 6f 72 6d 00 52 42 39 32 00 00 00 3e 05     ..Worm.RB92...>.
    10e5:	00 2b 7c 00 00 06 1e 01 00 04 00 ff 00 e0 a0 0b     .+|.............
    10f5:	fe 65 a1 92 f0 55 fc 1e 71 01 31 00 10 24 a1 68     .e...U..q.1..$.h
    1105:	da b3 d4 21 d4 31 74 03 34 7a 10 32 a1 77 63 04     ...!.1t.4z.2.wc.
    1115:	d3 29 d4 29 72 09 32 3f 10 40 a0 06 f0 65 a0 02     .).)r.2?.@...e..
    1125:	f0 33 63 2e 20 e4 a0 02 f5 33 20 e2 21 4a a1 76     .3c. ....3 .!J.v
    1135:	d7 61 76 fe 36 11 10 5e 63 0a f3 15 a1 92 f8 1e     .av.6..^c.......
    1145:	f0 65 84 00 80 a0 f0 55 a2 92 f8 1e f0 65 81 00     .e.....U.....e..
    1155:	80 b0 f0 55 a1 6a 34 00 d4 13 a1 60 f9 1e f1 65     ...U.j4....`...e
    1165:	a1 6d da b2 8a 04 8b 14 a1 68 da b3 3f 00 10 fc     .m.......h..?...
    1175:	c0 0f 40 00 21 46 78 01 98 e0 68 00 61 08 e1 9e     ..@.!Fx...h.a...
    1185:	66 00 e1 9e 10 c0 36 00 10 c0 79 02 66 06 89 62     f.....6...y.f..b
    1195:	61 10 e1 9e 67 00 e1 9e 10 d4 37 00 10 d4 79 fe     a...g.....7...y.
    11a5:	67 06 89 72 f3 07 33 00 10 ac 10 68 20 e2 a0 02     g..r..3....h ...
    11b5:	f5 33 63 00 64 7c a0 02 f2 65 f0 29 d4 35 73 06     .3c.d|...e.).5s.
    11c5:	f1 29 d4 35 73 06 f2 29 d4 35 00 ee 21 5a a1 68     .).5s..).5..!Z.h
    11d5:	da b3 da b3 3f 00 11 12 64 02 f4 18 75 01 20 dc     ....?...d...u. .
    11e5:	10 a6 64 0a f4 18 da b3 8a 05 8b 15 a1 6d da b2     ..d..........m..
    11f5:	a0 06 f0 65 80 55 80 50 4f 00 f0 55 60 64 f0 15     ...e.U.PO..U`d..
    1205:	f0 07 30 00 11 30 00 c8 81 00 a1 80 90 12 f0 0a     ..0..0..........
    1215:	30 20 11 3e 10 1a 7e 01 00 ee a1 6f cc 7c 7c 02     0 .>..~....o.||.
    1225:	cd 3c 7d 02 dc d7 4f 00 00 ee a1 6f dc d7 11 4c     .<}...O....o...L
    1235:	04 00 00 fc fc 00 00 04 e0 e0 e0 a0 e0 00 40 38     ..............@8
    1245:	7c de fe fe 7c 38 f0 80 80 80 80 80 80 80 80 80     |...|8..........
    1255:	73 65 6c 65 63 74 20 72 65 73 74 61 72 74 2e 2e     select restart..
    1265:	2e 00 00 00 00 00 00 00 00 00 00 00 00 00 00 00     ................
	...

00001368 <__ctors_end>:
    1368:	11 24       	eor	r1, r1
    136a:	1f be       	out	0x3f, r1	; 63
    136c:	cf ef       	ldi	r28, 0xFF	; 255
    136e:	d8 e0       	ldi	r29, 0x08	; 8
    1370:	de bf       	out	0x3e, r29	; 62
    1372:	cd bf       	out	0x3d, r28	; 61

00001374 <__do_copy_data>:
    1374:	11 e0       	ldi	r17, 0x01	; 1
    1376:	a0 e0       	ldi	r26, 0x00	; 0
    1378:	b1 e0       	ldi	r27, 0x01	; 1
    137a:	ec ee       	ldi	r30, 0xEC	; 236
    137c:	f9 e4       	ldi	r31, 0x49	; 73
    137e:	02 c0       	rjmp	.+4      	; 0x1384 <__do_copy_data+0x10>
    1380:	05 90       	lpm	r0, Z+
    1382:	0d 92       	st	X+, r0
    1384:	a8 30       	cpi	r26, 0x08	; 8
    1386:	b1 07       	cpc	r27, r17
    1388:	d9 f7       	brne	.-10     	; 0x1380 <__do_copy_data+0xc>

0000138a <__do_clear_bss>:
    138a:	27 e0       	ldi	r18, 0x07	; 7
    138c:	a8 e0       	ldi	r26, 0x08	; 8
    138e:	b1 e0       	ldi	r27, 0x01	; 1
    1390:	01 c0       	rjmp	.+2      	; 0x1394 <.do_clear_bss_start>

00001392 <.do_clear_bss_loop>:
    1392:	1d 92       	st	X+, r1

00001394 <.do_clear_bss_start>:
    1394:	a6 3c       	cpi	r26, 0xC6	; 198
    1396:	b2 07       	cpc	r27, r18
    1398:	e1 f7       	brne	.-8      	; 0x1392 <.do_clear_bss_loop>
    139a:	0e 94 94 0c 	call	0x1928	; 0x1928 <main>
    139e:	0c 94 f4 24 	jmp	0x49e8	; 0x49e8 <_exit>

000013a2 <__bad_interrupt>:
    13a2:	0c 94 00 00 	jmp	0	; 0x0 <__vectors>

000013a6 <read16>:
 *
 * \param[in] p Pointer from where to read the integer.
 * \returns The 16-bit integer read from memory.
 */
uint16_t read16(const uint8_t* p)
{
    13a6:	fc 01       	movw	r30, r24
    return (((uint16_t) p[1]) << 8) |
    13a8:	81 81       	ldd	r24, Z+1	; 0x01
    13aa:	90 e0       	ldi	r25, 0x00	; 0
    13ac:	98 2f       	mov	r25, r24
    13ae:	88 27       	eor	r24, r24
           (((uint16_t) p[0]) << 0);
    13b0:	20 81       	ld	r18, Z
}
    13b2:	82 2b       	or	r24, r18
    13b4:	08 95       	ret

000013b6 <read32>:
 *
 * \param[in] p Pointer from where to read the integer.
 * \returns The 32-bit integer read from memory.
 */
uint32_t read32(const uint8_t* p)
{
    13b6:	fc 01       	movw	r30, r24
    return (((uint32_t) p[3]) << 24) |
    13b8:	23 81       	ldd	r18, Z+3	; 0x03
           (((uint32_t) p[2]) << 16) |
    13ba:	62 81       	ldd	r22, Z+2	; 0x02
    13bc:	86 2f       	mov	r24, r22
    13be:	90 e0       	ldi	r25, 0x00	; 0
    13c0:	a0 e0       	ldi	r26, 0x00	; 0
    13c2:	b0 e0       	ldi	r27, 0x00	; 0
    13c4:	dc 01       	movw	r26, r24
    13c6:	99 27       	eor	r25, r25
    13c8:	88 27       	eor	r24, r24
 * \param[in] p Pointer from where to read the integer.
 * \returns The 32-bit integer read from memory.
 */
uint32_t read32(const uint8_t* p)
{
    return (((uint32_t) p[3]) << 24) |
    13ca:	b2 2b       	or	r27, r18
           (((uint32_t) p[2]) << 16) |
           (((uint32_t) p[1]) <<  8) |
           (((uint32_t) p[0]) <<  0);
    13cc:	20 81       	ld	r18, Z
 * \returns The 32-bit integer read from memory.
 */
uint32_t read32(const uint8_t* p)
{
    return (((uint32_t) p[3]) << 24) |
           (((uint32_t) p[2]) << 16) |
    13ce:	82 2b       	or	r24, r18
           (((uint32_t) p[1]) <<  8) |
    13d0:	21 81       	ldd	r18, Z+1	; 0x01
 * \param[in] p Pointer from where to read the integer.
 * \returns The 32-bit integer read from memory.
 */
uint32_t read32(const uint8_t* p)
{
    return (((uint32_t) p[3]) << 24) |
    13d2:	bc 01       	movw	r22, r24
    13d4:	cd 01       	movw	r24, r26
    13d6:	72 2b       	or	r23, r18
           (((uint32_t) p[2]) << 16) |
           (((uint32_t) p[1]) <<  8) |
           (((uint32_t) p[0]) <<  0);
}
    13d8:	08 95       	ret

000013da <load_flash_game>:
#include "alien.h"

extern vm_state_t vms;


void load_flash_game(const uint8_t *addr,uint16_t size){
    13da:	ef 92       	push	r14
    13dc:	ff 92       	push	r15
    13de:	0f 93       	push	r16
    13e0:	1f 93       	push	r17
    13e2:	cf 93       	push	r28
    13e4:	df 93       	push	r29
    13e6:	7c 01       	movw	r14, r24
    13e8:	8b 01       	movw	r16, r22
	uint16_t i;
	
	for (i=0;i<size;i++){
    13ea:	61 15       	cp	r22, r1
    13ec:	71 05       	cpc	r23, r1
    13ee:	69 f0       	breq	.+26     	; 0x140a <load_flash_game+0x30>
    13f0:	c0 e0       	ldi	r28, 0x00	; 0
    13f2:	d0 e0       	ldi	r29, 0x00	; 0
    13f4:	f7 01       	movw	r30, r14
    13f6:	ec 0f       	add	r30, r28
    13f8:	fd 1f       	adc	r31, r29
		sram_write_byte(CODE_BASE_ADDR+i,pgm_read_byte(&addr[i]));
    13fa:	64 91       	lpm	r22, Z
    13fc:	ce 01       	movw	r24, r28
    13fe:	0e 94 4d 1d 	call	0x3a9a	; 0x3a9a <sram_write_byte>


void load_flash_game(const uint8_t *addr,uint16_t size){
	uint16_t i;
	
	for (i=0;i<size;i++){
    1402:	21 96       	adiw	r28, 0x01	; 1
    1404:	c0 17       	cp	r28, r16
    1406:	d1 07       	cpc	r29, r17
    1408:	a9 f7       	brne	.-22     	; 0x13f4 <load_flash_game+0x1a>
		sram_write_byte(CODE_BASE_ADDR+i,pgm_read_byte(&addr[i]));
	}
}
    140a:	df 91       	pop	r29
    140c:	cf 91       	pop	r28
    140e:	1f 91       	pop	r17
    1410:	0f 91       	pop	r16
    1412:	ff 90       	pop	r15
    1414:	ef 90       	pop	r14
    1416:	08 95       	ret

00001418 <display_page>:
#define MAX_ENTRIES (2048)
#define DISPLAY_LINES (8)



uint8_t display_page(int16_t page){
    1418:	ff 92       	push	r15
    141a:	0f 93       	push	r16
    141c:	1f 93       	push	r17
    141e:	cf 93       	push	r28
    1420:	df 93       	push	r29
    1422:	cd b7       	in	r28, 0x3d	; 61
    1424:	de b7       	in	r29, 0x3e	; 62
    1426:	a0 97       	sbiw	r28, 0x20	; 32
    1428:	0f b6       	in	r0, 0x3f	; 63
    142a:	f8 94       	cli
    142c:	de bf       	out	0x3e, r29	; 62
    142e:	0f be       	out	0x3f, r0	; 63
    1430:	cd bf       	out	0x3d, r28	; 61
    1432:	18 2f       	mov	r17, r24
    1434:	00 27       	eor	r16, r16
	uint8_t fname[ENTRY_SIZE];
	uint8_t i;
	for (i=0;i<DISPLAY_LINES;i++){
    1436:	f1 2c       	mov	r15, r1
		sram_load_block(page*DISPLAY_LINES*ENTRY_SIZE+(i*ENTRY_SIZE),ENTRY_SIZE,fname);
    1438:	ae 01       	movw	r20, r28
    143a:	4f 5f       	subi	r20, 0xFF	; 255
    143c:	5f 4f       	sbci	r21, 0xFF	; 255
    143e:	60 e2       	ldi	r22, 0x20	; 32
    1440:	70 e0       	ldi	r23, 0x00	; 0
    1442:	c8 01       	movw	r24, r16
    1444:	0e 94 b9 1d 	call	0x3b72	; 0x3b72 <sram_load_block>
		if (strlen((char *)fname)){
    1448:	89 81       	ldd	r24, Y+1	; 0x01
    144a:	88 23       	and	r24, r24
    144c:	91 f0       	breq	.+36     	; 0x1472 <display_page+0x5a>
			put_char(' ');
    144e:	80 e2       	ldi	r24, 0x20	; 32
    1450:	0e 94 4b 1e 	call	0x3c96	; 0x3c96 <put_char>
			print(fname);
    1454:	ce 01       	movw	r24, r28
    1456:	01 96       	adiw	r24, 0x01	; 1
    1458:	0e 94 c4 1e 	call	0x3d88	; 0x3d88 <print>
			if (i<7) new_line();
    145c:	86 e0       	ldi	r24, 0x06	; 6
    145e:	8f 15       	cp	r24, r15
    1460:	10 f0       	brcs	.+4      	; 0x1466 <display_page+0x4e>
    1462:	0e 94 11 1e 	call	0x3c22	; 0x3c22 <new_line>


uint8_t display_page(int16_t page){
	uint8_t fname[ENTRY_SIZE];
	uint8_t i;
	for (i=0;i<DISPLAY_LINES;i++){
    1466:	f3 94       	inc	r15
    1468:	00 5e       	subi	r16, 0xE0	; 224
    146a:	1f 4f       	sbci	r17, 0xFF	; 255
    146c:	88 e0       	ldi	r24, 0x08	; 8
    146e:	f8 12       	cpse	r15, r24
    1470:	e3 cf       	rjmp	.-58     	; 0x1438 <display_page+0x20>
		}else{
			break;
		}
	}
	return i;
}
    1472:	8f 2d       	mov	r24, r15
    1474:	a0 96       	adiw	r28, 0x20	; 32
    1476:	0f b6       	in	r0, 0x3f	; 63
    1478:	f8 94       	cli
    147a:	de bf       	out	0x3e, r29	; 62
    147c:	0f be       	out	0x3f, r0	; 63
    147e:	cd bf       	out	0x3d, r28	; 61
    1480:	df 91       	pop	r29
    1482:	cf 91       	pop	r28
    1484:	1f 91       	pop	r17
    1486:	0f 91       	pop	r16
    1488:	ff 90       	pop	r15
    148a:	08 95       	ret

0000148c <select_file>:
}

// sélectionne un fichier
// à partir de la liste
// affichée à l'écran
int16_t select_file(int16_t fcount){
    148c:	6f 92       	push	r6
    148e:	7f 92       	push	r7
    1490:	8f 92       	push	r8
    1492:	9f 92       	push	r9
    1494:	af 92       	push	r10
    1496:	bf 92       	push	r11
    1498:	cf 92       	push	r12
    149a:	df 92       	push	r13
    149c:	ef 92       	push	r14
    149e:	ff 92       	push	r15
    14a0:	0f 93       	push	r16
    14a2:	1f 93       	push	r17
    14a4:	cf 93       	push	r28
    14a6:	df 93       	push	r29
    14a8:	6c 01       	movw	r12, r24
	int16_t page, selected;
	uint8_t key, pg_lines;
	
	cls();
    14aa:	0e 94 51 22 	call	0x44a2	; 0x44a2 <cls>
	page=0;
	selected=0;
	frame_delay=2;
    14ae:	82 e0       	ldi	r24, 0x02	; 2
    14b0:	80 93 c5 02 	sts	0x02C5, r24
	while (frame_delay);
    14b4:	80 91 c5 02 	lds	r24, 0x02C5
    14b8:	81 11       	cpse	r24, r1
    14ba:	fc cf       	rjmp	.-8      	; 0x14b4 <select_file+0x28>
	pg_lines=display_page(page);
    14bc:	80 e0       	ldi	r24, 0x00	; 0
    14be:	90 e0       	ldi	r25, 0x00	; 0
    14c0:	0e 94 0c 0a 	call	0x1418	; 0x1418 <display_page>
    14c4:	a8 2e       	mov	r10, r24
	int16_t page, selected;
	uint8_t key, pg_lines;
	
	cls();
	page=0;
	selected=0;
    14c6:	c0 e0       	ldi	r28, 0x00	; 0
    14c8:	d0 e0       	ldi	r29, 0x00	; 0
int16_t select_file(int16_t fcount){
	int16_t page, selected;
	uint8_t key, pg_lines;
	
	cls();
	page=0;
    14ca:	e1 2c       	mov	r14, r1
    14cc:	f1 2c       	mov	r15, r1
				page--;
				selected=7;
				cls();
				pg_lines=display_page(page);
			}else{
				selected=0;
    14ce:	81 2c       	mov	r8, r1
    14d0:	91 2c       	mov	r9, r1
			return page*DISPLAY_LINES+selected;
			break;
		case BTN_LEFT: // page précédente
			if (page){
				page--;
				selected=7;
    14d2:	0f 2e       	mov	r0, r31
    14d4:	f7 e0       	ldi	r31, 0x07	; 7
    14d6:	6f 2e       	mov	r6, r31
    14d8:	f0 2d       	mov	r31, r0
    14da:	71 2c       	mov	r7, r1
	}
	return i;
}

inline void display_cursor(uint8_t line){
	put_sprite(0,line*CHAR_HEIGHT,8,&font_6x8[(RIGHT_ARROW-32)*CHAR_HEIGHT],FLASH_MEM);
    14dc:	00 e0       	ldi	r16, 0x00	; 0
    14de:	2d e8       	ldi	r18, 0x8D	; 141
    14e0:	3f e0       	ldi	r19, 0x0F	; 15
    14e2:	48 e0       	ldi	r20, 0x08	; 8
    14e4:	1c 2f       	mov	r17, r28
    14e6:	11 0f       	add	r17, r17
    14e8:	11 0f       	add	r17, r17
    14ea:	11 0f       	add	r17, r17
    14ec:	61 2f       	mov	r22, r17
    14ee:	80 e0       	ldi	r24, 0x00	; 0
    14f0:	0e 94 63 20 	call	0x40c6	; 0x40c6 <put_sprite>
	frame_delay=2;
	while (frame_delay);
	pg_lines=display_page(page);
	while (1){
		display_cursor(selected);
		key=joystick_wait_any();
    14f4:	0e 94 d5 19 	call	0x33aa	; 0x33aa <joystick_wait_any>
    14f8:	b8 2e       	mov	r11, r24
	}
	return i;
}

inline void display_cursor(uint8_t line){
	put_sprite(0,line*CHAR_HEIGHT,8,&font_6x8[(RIGHT_ARROW-32)*CHAR_HEIGHT],FLASH_MEM);
    14fa:	2d e8       	ldi	r18, 0x8D	; 141
    14fc:	3f e0       	ldi	r19, 0x0F	; 15
    14fe:	48 e0       	ldi	r20, 0x08	; 8
    1500:	61 2f       	mov	r22, r17
    1502:	80 e0       	ldi	r24, 0x00	; 0
    1504:	0e 94 63 20 	call	0x40c6	; 0x40c6 <put_sprite>
	while (1){
		display_cursor(selected);
		key=joystick_wait_any();
		//key_tone(key,6,false);
		display_cursor(selected);
		switch(key){
    1508:	88 e0       	ldi	r24, 0x08	; 8
    150a:	b8 16       	cp	r11, r24
    150c:	e9 f0       	breq	.+58     	; 0x1548 <select_file+0xbc>
    150e:	8b 15       	cp	r24, r11
    1510:	48 f0       	brcs	.+18     	; 0x1524 <select_file+0x98>
    1512:	82 e0       	ldi	r24, 0x02	; 2
    1514:	b8 16       	cp	r11, r24
    1516:	09 f4       	brne	.+2      	; 0x151a <select_file+0x8e>
    1518:	48 c0       	rjmp	.+144    	; 0x15aa <select_file+0x11e>
    151a:	84 e0       	ldi	r24, 0x04	; 4
    151c:	b8 16       	cp	r11, r24
    151e:	09 f4       	brne	.+2      	; 0x1522 <select_file+0x96>
    1520:	57 c0       	rjmp	.+174    	; 0x15d0 <select_file+0x144>
    1522:	23 c0       	rjmp	.+70     	; 0x156a <select_file+0xde>
    1524:	80 e1       	ldi	r24, 0x10	; 16
    1526:	b8 16       	cp	r11, r24
    1528:	31 f1       	breq	.+76     	; 0x1576 <select_file+0xea>
    152a:	80 e2       	ldi	r24, 0x20	; 32
    152c:	b8 12       	cpse	r11, r24
    152e:	1d c0       	rjmp	.+58     	; 0x156a <select_file+0xde>
		case BTN_FIRE: 
		    joystick_wait_release();
    1530:	0e 94 dd 19 	call	0x33ba	; 0x33ba <joystick_wait_release>
			return page*DISPLAY_LINES+selected;
    1534:	c7 01       	movw	r24, r14
    1536:	88 0f       	add	r24, r24
    1538:	99 1f       	adc	r25, r25
    153a:	88 0f       	add	r24, r24
    153c:	99 1f       	adc	r25, r25
    153e:	88 0f       	add	r24, r24
    1540:	99 1f       	adc	r25, r25
    1542:	8c 0f       	add	r24, r28
    1544:	9d 1f       	adc	r25, r29
    1546:	6e c0       	rjmp	.+220    	; 0x1624 <select_file+0x198>
			break;
		case BTN_LEFT: // page précédente
			if (page){
    1548:	e1 14       	cp	r14, r1
    154a:	f1 04       	cpc	r15, r1
    154c:	61 f0       	breq	.+24     	; 0x1566 <select_file+0xda>
				page--;
    154e:	81 e0       	ldi	r24, 0x01	; 1
    1550:	e8 1a       	sub	r14, r24
    1552:	f1 08       	sbc	r15, r1
				selected=7;
				cls();
    1554:	0e 94 51 22 	call	0x44a2	; 0x44a2 <cls>
				pg_lines=display_page(page);
    1558:	c7 01       	movw	r24, r14
    155a:	0e 94 0c 0a 	call	0x1418	; 0x1418 <display_page>
    155e:	a8 2e       	mov	r10, r24
			return page*DISPLAY_LINES+selected;
			break;
		case BTN_LEFT: // page précédente
			if (page){
				page--;
				selected=7;
    1560:	c6 2d       	mov	r28, r6
    1562:	d7 2d       	mov	r29, r7
    1564:	02 c0       	rjmp	.+4      	; 0x156a <select_file+0xde>
				cls();
				pg_lines=display_page(page);
			}else{
				selected=0;
    1566:	c8 2d       	mov	r28, r8
    1568:	d9 2d       	mov	r29, r9
			}
			break;
		default:
			break;
		}//switch
		while (_joystick_state()!=JSTK_IMASK)key_tone(key,2,false);
    156a:	86 b1       	in	r24, 0x06	; 6
    156c:	8e 73       	andi	r24, 0x3E	; 62
    156e:	8e 33       	cpi	r24, 0x3E	; 62
    1570:	09 f0       	breq	.+2      	; 0x1574 <select_file+0xe8>
    1572:	4e c0       	rjmp	.+156    	; 0x1610 <select_file+0x184>
    1574:	b3 cf       	rjmp	.-154    	; 0x14dc <select_file+0x50>
			}else{
				selected=0;
			}
			break;
		case BTN_RIGHT: // page suivante
			if ((page*DISPLAY_LINES+DISPLAY_LINES)<fcount){
    1576:	e7 01       	movw	r28, r14
    1578:	21 96       	adiw	r28, 0x01	; 1
    157a:	ce 01       	movw	r24, r28
    157c:	88 0f       	add	r24, r24
    157e:	99 1f       	adc	r25, r25
    1580:	88 0f       	add	r24, r24
    1582:	99 1f       	adc	r25, r25
    1584:	88 0f       	add	r24, r24
    1586:	99 1f       	adc	r25, r25
    1588:	8c 15       	cp	r24, r12
    158a:	9d 05       	cpc	r25, r13
    158c:	54 f4       	brge	.+20     	; 0x15a2 <select_file+0x116>
				page++;
				selected=0;
				cls();
    158e:	0e 94 51 22 	call	0x44a2	; 0x44a2 <cls>
				pg_lines=display_page(page);
    1592:	ce 01       	movw	r24, r28
    1594:	0e 94 0c 0a 	call	0x1418	; 0x1418 <display_page>
    1598:	a8 2e       	mov	r10, r24
				selected=0;
			}
			break;
		case BTN_RIGHT: // page suivante
			if ((page*DISPLAY_LINES+DISPLAY_LINES)<fcount){
				page++;
    159a:	7e 01       	movw	r14, r28
				selected=0;
    159c:	c8 2d       	mov	r28, r8
    159e:	d9 2d       	mov	r29, r9
    15a0:	e4 cf       	rjmp	.-56     	; 0x156a <select_file+0xde>
				cls();
				pg_lines=display_page(page);
			}else{
				selected=pg_lines-1;
    15a2:	ca 2d       	mov	r28, r10
    15a4:	d0 e0       	ldi	r29, 0x00	; 0
    15a6:	21 97       	sbiw	r28, 0x01	; 1
    15a8:	e0 cf       	rjmp	.-64     	; 0x156a <select_file+0xde>
			}
			break;	
		case BTN_UP: // item précédent
			if (selected){
    15aa:	20 97       	sbiw	r28, 0x00	; 0
    15ac:	11 f0       	breq	.+4      	; 0x15b2 <select_file+0x126>
				selected--;
    15ae:	21 97       	sbiw	r28, 0x01	; 1
    15b0:	dc cf       	rjmp	.-72     	; 0x156a <select_file+0xde>
			}else if (page){
    15b2:	e1 14       	cp	r14, r1
    15b4:	f1 04       	cpc	r15, r1
    15b6:	c9 f2       	breq	.-78     	; 0x156a <select_file+0xde>
				page--;
    15b8:	81 e0       	ldi	r24, 0x01	; 1
    15ba:	e8 1a       	sub	r14, r24
    15bc:	f1 08       	sbc	r15, r1
				selected=7;
				cls();
    15be:	0e 94 51 22 	call	0x44a2	; 0x44a2 <cls>
				pg_lines=display_page(page);
    15c2:	c7 01       	movw	r24, r14
    15c4:	0e 94 0c 0a 	call	0x1418	; 0x1418 <display_page>
    15c8:	a8 2e       	mov	r10, r24
		case BTN_UP: // item précédent
			if (selected){
				selected--;
			}else if (page){
				page--;
				selected=7;
    15ca:	c6 2d       	mov	r28, r6
    15cc:	d7 2d       	mov	r29, r7
    15ce:	cd cf       	rjmp	.-102    	; 0x156a <select_file+0xde>
				cls();
				pg_lines=display_page(page);
			}
			break;
		case BTN_DOWN: // item suivant
			if (selected<(pg_lines-1)){
    15d0:	8a 2d       	mov	r24, r10
    15d2:	90 e0       	ldi	r25, 0x00	; 0
    15d4:	01 97       	sbiw	r24, 0x01	; 1
    15d6:	c8 17       	cp	r28, r24
    15d8:	d9 07       	cpc	r29, r25
    15da:	14 f4       	brge	.+4      	; 0x15e0 <select_file+0x154>
				selected++;
    15dc:	21 96       	adiw	r28, 0x01	; 1
    15de:	c5 cf       	rjmp	.-118    	; 0x156a <select_file+0xde>
			}else if ((page*DISPLAY_LINES+DISPLAY_LINES)<fcount){
    15e0:	87 01       	movw	r16, r14
    15e2:	0f 5f       	subi	r16, 0xFF	; 255
    15e4:	1f 4f       	sbci	r17, 0xFF	; 255
    15e6:	c8 01       	movw	r24, r16
    15e8:	88 0f       	add	r24, r24
    15ea:	99 1f       	adc	r25, r25
    15ec:	88 0f       	add	r24, r24
    15ee:	99 1f       	adc	r25, r25
    15f0:	88 0f       	add	r24, r24
    15f2:	99 1f       	adc	r25, r25
    15f4:	8c 15       	cp	r24, r12
    15f6:	9d 05       	cpc	r25, r13
    15f8:	0c f0       	brlt	.+2      	; 0x15fc <select_file+0x170>
    15fa:	b7 cf       	rjmp	.-146    	; 0x156a <select_file+0xde>
				page++;
				selected=0;
				cls();
    15fc:	0e 94 51 22 	call	0x44a2	; 0x44a2 <cls>
				pg_lines=display_page(page);
    1600:	c8 01       	movw	r24, r16
    1602:	0e 94 0c 0a 	call	0x1418	; 0x1418 <display_page>
    1606:	a8 2e       	mov	r10, r24
			break;
		case BTN_DOWN: // item suivant
			if (selected<(pg_lines-1)){
				selected++;
			}else if ((page*DISPLAY_LINES+DISPLAY_LINES)<fcount){
				page++;
    1608:	78 01       	movw	r14, r16
				selected=0;
    160a:	c8 2d       	mov	r28, r8
    160c:	d9 2d       	mov	r29, r9
    160e:	ad cf       	rjmp	.-166    	; 0x156a <select_file+0xde>
			}
			break;
		default:
			break;
		}//switch
		while (_joystick_state()!=JSTK_IMASK)key_tone(key,2,false);
    1610:	40 e0       	ldi	r20, 0x00	; 0
    1612:	62 e0       	ldi	r22, 0x02	; 2
    1614:	8b 2d       	mov	r24, r11
    1616:	0e 94 c2 1f 	call	0x3f84	; 0x3f84 <key_tone>
    161a:	86 b1       	in	r24, 0x06	; 6
    161c:	8e 73       	andi	r24, 0x3E	; 62
    161e:	8e 33       	cpi	r24, 0x3E	; 62
    1620:	b9 f7       	brne	.-18     	; 0x1610 <select_file+0x184>
    1622:	5c cf       	rjmp	.-328    	; 0x14dc <select_file+0x50>
	}//while	
}
    1624:	df 91       	pop	r29
    1626:	cf 91       	pop	r28
    1628:	1f 91       	pop	r17
    162a:	0f 91       	pop	r16
    162c:	ff 90       	pop	r15
    162e:	ef 90       	pop	r14
    1630:	df 90       	pop	r13
    1632:	cf 90       	pop	r12
    1634:	bf 90       	pop	r11
    1636:	af 90       	pop	r10
    1638:	9f 90       	pop	r9
    163a:	8f 90       	pop	r8
    163c:	7f 90       	pop	r7
    163e:	6f 90       	pop	r6
    1640:	08 95       	ret

00001642 <sdc_files>:

#if SDC_SUPPORT
// copie la liste des fichiers
// du répertoire racine
// dans la SRAM
int16_t sdc_files(){
    1642:	0f 93       	push	r16
    1644:	1f 93       	push	r17
    1646:	cf 93       	push	r28
    1648:	df 93       	push	r29
    164a:	cd b7       	in	r28, 0x3d	; 61
    164c:	de b7       	in	r29, 0x3e	; 62
    164e:	cb 54       	subi	r28, 0x4B	; 75
    1650:	d1 09       	sbc	r29, r1
    1652:	0f b6       	in	r0, 0x3f	; 63
    1654:	f8 94       	cli
    1656:	de bf       	out	0x3e, r29	; 62
    1658:	0f be       	out	0x3f, r0	; 63
    165a:	cd bf       	out	0x3d, r28	; 61
		int16_t entry_nbr;
        struct fat_dir_entry_struct dir_entry;
		
        /* charge les fichiers dans la SRAM */
		entry_nbr=0;
		fname[ENTRY_SIZE-1]=0;
    165c:	18 a2       	std	Y+32, r1	; 0x20
		uint8_t fname[ENTRY_SIZE];
		int16_t entry_nbr;
        struct fat_dir_entry_struct dir_entry;
		
        /* charge les fichiers dans la SRAM */
		entry_nbr=0;
    165e:	00 e0       	ldi	r16, 0x00	; 0
    1660:	10 e0       	ldi	r17, 0x00	; 0
    1662:	27 c0       	rjmp	.+78     	; 0x16b2 <sdc_files+0x70>
		fname[ENTRY_SIZE-1]=0;
        while((entry_nbr<MAX_ENTRIES) && fs_read_dir(&dir_entry))
        {
	        if (!(dir_entry.attributes & FAT_ATTRIB_DIR)){
    1664:	22 96       	adiw	r28, 0x02	; 2
    1666:	8f ad       	ldd	r24, Y+63	; 0x3f
    1668:	22 97       	sbiw	r28, 0x02	; 2
    166a:	84 fd       	sbrc	r24, 4
    166c:	1e c0       	rjmp	.+60     	; 0x16aa <sdc_files+0x68>
				strcpy((char*)fname,dir_entry.long_name);
    166e:	be 01       	movw	r22, r28
    1670:	6f 5d       	subi	r22, 0xDF	; 223
    1672:	7f 4f       	sbci	r23, 0xFF	; 255
    1674:	ce 01       	movw	r24, r28
    1676:	01 96       	adiw	r24, 0x01	; 1
    1678:	0e 94 ce 24 	call	0x499c	; 0x499c <strcpy>
				sram_store_block(entry_nbr*ENTRY_SIZE,ENTRY_SIZE,fname);
    167c:	ae 01       	movw	r20, r28
    167e:	4f 5f       	subi	r20, 0xFF	; 255
    1680:	5f 4f       	sbci	r21, 0xFF	; 255
    1682:	60 e2       	ldi	r22, 0x20	; 32
    1684:	70 e0       	ldi	r23, 0x00	; 0
    1686:	c8 01       	movw	r24, r16
    1688:	88 0f       	add	r24, r24
    168a:	99 1f       	adc	r25, r25
    168c:	82 95       	swap	r24
    168e:	92 95       	swap	r25
    1690:	90 7f       	andi	r25, 0xF0	; 240
    1692:	98 27       	eor	r25, r24
    1694:	80 7f       	andi	r24, 0xF0	; 240
    1696:	98 27       	eor	r25, r24
    1698:	0e 94 e4 1d 	call	0x3bc8	; 0x3bc8 <sram_store_block>
				entry_nbr++;
    169c:	0f 5f       	subi	r16, 0xFF	; 255
    169e:	1f 4f       	sbci	r17, 0xFF	; 255
        struct fat_dir_entry_struct dir_entry;
		
        /* charge les fichiers dans la SRAM */
		entry_nbr=0;
		fname[ENTRY_SIZE-1]=0;
        while((entry_nbr<MAX_ENTRIES) && fs_read_dir(&dir_entry))
    16a0:	01 15       	cp	r16, r1
    16a2:	88 e0       	ldi	r24, 0x08	; 8
    16a4:	18 07       	cpc	r17, r24
    16a6:	2c f0       	brlt	.+10     	; 0x16b2 <sdc_files+0x70>
    16a8:	0a c0       	rjmp	.+20     	; 0x16be <sdc_files+0x7c>
    16aa:	01 15       	cp	r16, r1
    16ac:	88 e0       	ldi	r24, 0x08	; 8
    16ae:	18 07       	cpc	r17, r24
    16b0:	34 f4       	brge	.+12     	; 0x16be <sdc_files+0x7c>
    16b2:	ce 01       	movw	r24, r28
    16b4:	81 96       	adiw	r24, 0x21	; 33
    16b6:	0e 94 c7 19 	call	0x338e	; 0x338e <fs_read_dir>
    16ba:	81 11       	cpse	r24, r1
    16bc:	d3 cf       	rjmp	.-90     	; 0x1664 <sdc_files+0x22>
				strcpy((char*)fname,dir_entry.long_name);
				sram_store_block(entry_nbr*ENTRY_SIZE,ENTRY_SIZE,fname);
				entry_nbr++;
			}
        }
		fname[0]=0;
    16be:	19 82       	std	Y+1, r1	; 0x01
		sram_store_block(entry_nbr*ENTRY_SIZE,ENTRY_SIZE,fname);
    16c0:	ae 01       	movw	r20, r28
    16c2:	4f 5f       	subi	r20, 0xFF	; 255
    16c4:	5f 4f       	sbci	r21, 0xFF	; 255
    16c6:	60 e2       	ldi	r22, 0x20	; 32
    16c8:	70 e0       	ldi	r23, 0x00	; 0
    16ca:	c8 01       	movw	r24, r16
    16cc:	88 0f       	add	r24, r24
    16ce:	99 1f       	adc	r25, r25
    16d0:	82 95       	swap	r24
    16d2:	92 95       	swap	r25
    16d4:	90 7f       	andi	r25, 0xF0	; 240
    16d6:	98 27       	eor	r25, r24
    16d8:	80 7f       	andi	r24, 0xF0	; 240
    16da:	98 27       	eor	r25, r24
    16dc:	0e 94 e4 1d 	call	0x3bc8	; 0x3bc8 <sram_store_block>
		return entry_nbr;
}
    16e0:	c8 01       	movw	r24, r16
    16e2:	c5 5b       	subi	r28, 0xB5	; 181
    16e4:	df 4f       	sbci	r29, 0xFF	; 255
    16e6:	0f b6       	in	r0, 0x3f	; 63
    16e8:	f8 94       	cli
    16ea:	de bf       	out	0x3e, r29	; 62
    16ec:	0f be       	out	0x3f, r0	; 63
    16ee:	cd bf       	out	0x3d, r28	; 61
    16f0:	df 91       	pop	r29
    16f2:	cf 91       	pop	r28
    16f4:	1f 91       	pop	r17
    16f6:	0f 91       	pop	r16
    16f8:	08 95       	ret

000016fa <games_on_sdcard>:

void games_on_sdcard(){
	int16_t fcount, selected;

	
	fcount=sdc_files();
    16fa:	0e 94 21 0b 	call	0x1642	; 0x1642 <sdc_files>
	if (fcount && ((selected=select_file(fcount))>-1)){
    16fe:	00 97       	sbiw	r24, 0x00	; 0
    1700:	99 f0       	breq	.+38     	; 0x1728 <games_on_sdcard+0x2e>
    1702:	0e 94 46 0a 	call	0x148c	; 0x148c <select_file>
    1706:	99 23       	and	r25, r25
    1708:	7c f0       	brlt	.+30     	; 0x1728 <games_on_sdcard+0x2e>
		if (fs_load_file(selected)){
    170a:	0e 94 76 19 	call	0x32ec	; 0x32ec <fs_load_file>
    170e:	88 23       	and	r24, r24
    1710:	59 f0       	breq	.+22     	; 0x1728 <games_on_sdcard+0x2e>
			cls();
    1712:	0e 94 51 22 	call	0x44a2	; 0x44a2 <cls>
			if (schip(F_RESET)==CHIP_BAD_OPCODE){
    1716:	82 e0       	ldi	r24, 0x02	; 2
    1718:	0e 94 47 0d 	call	0x1a8e	; 0x1a8e <schip>
    171c:	82 30       	cpi	r24, 0x02	; 2
    171e:	21 f4       	brne	.+8      	; 0x1728 <games_on_sdcard+0x2e>
				print_vms(PSTR("CRASH! bad opcode\n"));
    1720:	82 e7       	ldi	r24, 0x72	; 114
    1722:	95 e0       	ldi	r25, 0x05	; 5
    1724:	0e 94 dd 0c 	call	0x19ba	; 0x19ba <print_vms>
    1728:	08 95       	ret

0000172a <games_in_flash>:


// sélection et exécution
// d'un jeux qui est en
// mémoire flash
void games_in_flash(){
    172a:	9f 92       	push	r9
    172c:	af 92       	push	r10
    172e:	bf 92       	push	r11
    1730:	cf 92       	push	r12
    1732:	df 92       	push	r13
    1734:	ef 92       	push	r14
    1736:	ff 92       	push	r15
    1738:	0f 93       	push	r16
    173a:	1f 93       	push	r17
    173c:	cf 93       	push	r28
    173e:	df 93       	push	r29
    1740:	cd b7       	in	r28, 0x3d	; 61
    1742:	de b7       	in	r29, 0x3e	; 62
    1744:	a0 97       	sbiw	r28, 0x20	; 32
    1746:	0f b6       	in	r0, 0x3f	; 63
    1748:	f8 94       	cli
    174a:	de bf       	out	0x3e, r29	; 62
    174c:	0f be       	out	0x3f, r0	; 63
    174e:	cd bf       	out	0x3d, r28	; 61
	uint16_t i=0,j,entry=0,selected;
	uint8_t c, name[32];

	memset(name,0,ENTRY_SIZE);
    1750:	fe 01       	movw	r30, r28
    1752:	31 96       	adiw	r30, 0x01	; 1
    1754:	80 e2       	ldi	r24, 0x20	; 32
    1756:	df 01       	movw	r26, r30
    1758:	1d 92       	st	X+, r1
    175a:	8a 95       	dec	r24
    175c:	e9 f7       	brne	.-6      	; 0x1758 <games_in_flash+0x2e>
	while ((c=pgm_read_byte(&flash_games[i++]))){
    175e:	a1 2c       	mov	r10, r1
    1760:	b1 2c       	mov	r11, r1

// sélection et exécution
// d'un jeux qui est en
// mémoire flash
void games_in_flash(){
	uint16_t i=0,j,entry=0,selected;
    1762:	e1 2c       	mov	r14, r1
    1764:	f1 2c       	mov	r15, r1
    1766:	e0 e0       	ldi	r30, 0x00	; 0
    1768:	f0 e0       	ldi	r31, 0x00	; 0
    176a:	ce 01       	movw	r24, r28
    176c:	01 96       	adiw	r24, 0x01	; 1
    176e:	6c 01       	movw	r12, r24
			name[j++]=c;
			c=pgm_read_byte(&flash_games[i++]);
		}
		sram_store_block(entry*ENTRY_SIZE,ENTRY_SIZE,name);
		entry++;
		memset(name,0,ENTRY_SIZE);
    1770:	68 94       	set
    1772:	99 24       	eor	r9, r9
    1774:	95 f8       	bld	r9, 5
void games_in_flash(){
	uint16_t i=0,j,entry=0,selected;
	uint8_t c, name[32];

	memset(name,0,ENTRY_SIZE);
	while ((c=pgm_read_byte(&flash_games[i++]))){
    1776:	0d c0       	rjmp	.+26     	; 0x1792 <games_in_flash+0x68>
		j=0;
		while (c && (c!='\n')){
			name[j++]=c;
    1778:	ed 93       	st	X+, r30
			c=pgm_read_byte(&flash_games[i++]);
    177a:	0f 5f       	subi	r16, 0xFF	; 255
    177c:	1f 4f       	sbci	r17, 0xFF	; 255
    177e:	f8 01       	movw	r30, r16
    1780:	ee 54       	subi	r30, 0x4E	; 78
    1782:	fa 4f       	sbci	r31, 0xFA	; 250
    1784:	e4 91       	lpm	r30, Z
	uint8_t c, name[32];

	memset(name,0,ENTRY_SIZE);
	while ((c=pgm_read_byte(&flash_games[i++]))){
		j=0;
		while (c && (c!='\n')){
    1786:	ee 23       	and	r30, r30
    1788:	09 f4       	brne	.+2      	; 0x178c <games_in_flash+0x62>
    178a:	56 c0       	rjmp	.+172    	; 0x1838 <games_in_flash+0x10e>
    178c:	ea 30       	cpi	r30, 0x0A	; 10
    178e:	a1 f7       	brne	.-24     	; 0x1778 <games_in_flash+0x4e>
    1790:	6d c0       	rjmp	.+218    	; 0x186c <games_in_flash+0x142>
void games_in_flash(){
	uint16_t i=0,j,entry=0,selected;
	uint8_t c, name[32];

	memset(name,0,ENTRY_SIZE);
	while ((c=pgm_read_byte(&flash_games[i++]))){
    1792:	8f 01       	movw	r16, r30
    1794:	0f 5f       	subi	r16, 0xFF	; 255
    1796:	1f 4f       	sbci	r17, 0xFF	; 255
    1798:	ed 54       	subi	r30, 0x4D	; 77
    179a:	fa 4f       	sbci	r31, 0xFA	; 250
    179c:	e4 91       	lpm	r30, Z
    179e:	ee 23       	and	r30, r30
    17a0:	29 f0       	breq	.+10     	; 0x17ac <games_in_flash+0x82>
		j=0;
		while (c && (c!='\n')){
    17a2:	ea 30       	cpi	r30, 0x0A	; 10
    17a4:	09 f4       	brne	.+2      	; 0x17a8 <games_in_flash+0x7e>
    17a6:	62 c0       	rjmp	.+196    	; 0x186c <games_in_flash+0x142>
    17a8:	d6 01       	movw	r26, r12
    17aa:	e6 cf       	rjmp	.-52     	; 0x1778 <games_in_flash+0x4e>
		sram_store_block(entry*ENTRY_SIZE,ENTRY_SIZE,name);
		entry++;
		memset(name,0,ENTRY_SIZE);
		if (!c) break;
	}
    sram_store_block(entry*ENTRY_SIZE,ENTRY_SIZE,name);
    17ac:	ae 01       	movw	r20, r28
    17ae:	4f 5f       	subi	r20, 0xFF	; 255
    17b0:	5f 4f       	sbci	r21, 0xFF	; 255
    17b2:	60 e2       	ldi	r22, 0x20	; 32
    17b4:	70 e0       	ldi	r23, 0x00	; 0
    17b6:	c7 01       	movw	r24, r14
    17b8:	88 0f       	add	r24, r24
    17ba:	99 1f       	adc	r25, r25
    17bc:	82 95       	swap	r24
    17be:	92 95       	swap	r25
    17c0:	90 7f       	andi	r25, 0xF0	; 240
    17c2:	98 27       	eor	r25, r24
    17c4:	80 7f       	andi	r24, 0xF0	; 240
    17c6:	98 27       	eor	r25, r24
    17c8:	0e 94 e4 1d 	call	0x3bc8	; 0x3bc8 <sram_store_block>
	cls();
    17cc:	0e 94 51 22 	call	0x44a2	; 0x44a2 <cls>
	selected=select_file(entry);
    17d0:	c7 01       	movw	r24, r14
    17d2:	0e 94 46 0a 	call	0x148c	; 0x148c <select_file>
	switch(selected){
    17d6:	81 30       	cpi	r24, 0x01	; 1
    17d8:	91 05       	cpc	r25, r1
    17da:	71 f0       	breq	.+28     	; 0x17f8 <games_in_flash+0xce>
    17dc:	30 f0       	brcs	.+12     	; 0x17ea <games_in_flash+0xc0>
    17de:	82 30       	cpi	r24, 0x02	; 2
    17e0:	91 05       	cpc	r25, r1
    17e2:	89 f0       	breq	.+34     	; 0x1806 <games_in_flash+0xdc>
    17e4:	03 97       	sbiw	r24, 0x03	; 3
    17e6:	b1 f0       	breq	.+44     	; 0x1814 <games_in_flash+0xea>
    17e8:	54 c0       	rjmp	.+168    	; 0x1892 <games_in_flash+0x168>
	case 0:
		load_flash_game((const uint8_t*)lem,LEM_SIZE);
    17ea:	6e e3       	ldi	r22, 0x3E	; 62
    17ec:	72 e0       	ldi	r23, 0x02	; 2
    17ee:	8f e4       	ldi	r24, 0x4F	; 79
    17f0:	96 e0       	ldi	r25, 0x06	; 6
    17f2:	0e 94 ed 09 	call	0x13da	; 0x13da <load_flash_game>
//		text_scroller((const uint8_t*)lem_info,4);
		break;
    17f6:	14 c0       	rjmp	.+40     	; 0x1820 <games_in_flash+0xf6>
		
	case 1:
		load_flash_game((const uint8_t*)car,CAR_SIZE);
    17f8:	6b ea       	ldi	r22, 0xAB	; 171
    17fa:	71 e0       	ldi	r23, 0x01	; 1
    17fc:	82 ea       	ldi	r24, 0xA2	; 162
    17fe:	93 e0       	ldi	r25, 0x03	; 3
    1800:	0e 94 ed 09 	call	0x13da	; 0x13da <load_flash_game>
//		text_scroller((const uint8_t*)car_info,4);
		break;
    1804:	0d c0       	rjmp	.+26     	; 0x1820 <games_in_flash+0xf6>

	case 2:
		load_flash_game(worm,WORM_SIZE);
    1806:	62 e9       	ldi	r22, 0x92	; 146
    1808:	72 e0       	ldi	r23, 0x02	; 2
    180a:	85 ed       	ldi	r24, 0xD5	; 213
    180c:	90 e1       	ldi	r25, 0x10	; 16
    180e:	0e 94 ed 09 	call	0x13da	; 0x13da <load_flash_game>
//		text_scroller(worm_info,4);
		break;
    1812:	06 c0       	rjmp	.+12     	; 0x1820 <games_in_flash+0xf6>

	case 3:
		load_flash_game(alien,ALIEN_SIZE);
    1814:	6a e3       	ldi	r22, 0x3A	; 58
    1816:	73 e0       	ldi	r23, 0x03	; 3
    1818:	88 e6       	ldi	r24, 0x68	; 104
    181a:	90 e0       	ldi	r25, 0x00	; 0
    181c:	0e 94 ed 09 	call	0x13da	; 0x13da <load_flash_game>
		break;
*/
	default:
		return;	
	}
	cls();
    1820:	0e 94 51 22 	call	0x44a2	; 0x44a2 <cls>
#if FW_DEBUG	
	schip(F_DEBUG|F_RESET);
#else
	if (schip(F_RESET)==CHIP_BAD_OPCODE){
    1824:	82 e0       	ldi	r24, 0x02	; 2
    1826:	0e 94 47 0d 	call	0x1a8e	; 0x1a8e <schip>
    182a:	82 30       	cpi	r24, 0x02	; 2
    182c:	91 f5       	brne	.+100    	; 0x1892 <games_in_flash+0x168>
		print_vms(PSTR("CRASH! bad opcode\n"));	
    182e:	8f e5       	ldi	r24, 0x5F	; 95
    1830:	95 e0       	ldi	r25, 0x05	; 5
    1832:	0e 94 dd 0c 	call	0x19ba	; 0x19ba <print_vms>
    1836:	2d c0       	rjmp	.+90     	; 0x1892 <games_in_flash+0x168>
		j=0;
		while (c && (c!='\n')){
			name[j++]=c;
			c=pgm_read_byte(&flash_games[i++]);
		}
		sram_store_block(entry*ENTRY_SIZE,ENTRY_SIZE,name);
    1838:	8e 01       	movw	r16, r28
    183a:	0f 5f       	subi	r16, 0xFF	; 255
    183c:	1f 4f       	sbci	r17, 0xFF	; 255
    183e:	a8 01       	movw	r20, r16
    1840:	60 e2       	ldi	r22, 0x20	; 32
    1842:	70 e0       	ldi	r23, 0x00	; 0
    1844:	c7 01       	movw	r24, r14
    1846:	88 0f       	add	r24, r24
    1848:	99 1f       	adc	r25, r25
    184a:	82 95       	swap	r24
    184c:	92 95       	swap	r25
    184e:	90 7f       	andi	r25, 0xF0	; 240
    1850:	98 27       	eor	r25, r24
    1852:	80 7f       	andi	r24, 0xF0	; 240
    1854:	98 27       	eor	r25, r24
    1856:	0e 94 e4 1d 	call	0x3bc8	; 0x3bc8 <sram_store_block>
		entry++;
    185a:	9f ef       	ldi	r25, 0xFF	; 255
    185c:	e9 1a       	sub	r14, r25
    185e:	f9 0a       	sbc	r15, r25
		memset(name,0,ENTRY_SIZE);
    1860:	80 e2       	ldi	r24, 0x20	; 32
    1862:	d8 01       	movw	r26, r16
    1864:	1d 92       	st	X+, r1
    1866:	8a 95       	dec	r24
    1868:	e9 f7       	brne	.-6      	; 0x1864 <games_in_flash+0x13a>
    186a:	a0 cf       	rjmp	.-192    	; 0x17ac <games_in_flash+0x82>
		j=0;
		while (c && (c!='\n')){
			name[j++]=c;
			c=pgm_read_byte(&flash_games[i++]);
		}
		sram_store_block(entry*ENTRY_SIZE,ENTRY_SIZE,name);
    186c:	a6 01       	movw	r20, r12
    186e:	60 e2       	ldi	r22, 0x20	; 32
    1870:	70 e0       	ldi	r23, 0x00	; 0
    1872:	c5 01       	movw	r24, r10
    1874:	0e 94 e4 1d 	call	0x3bc8	; 0x3bc8 <sram_store_block>
		entry++;
    1878:	bf ef       	ldi	r27, 0xFF	; 255
    187a:	eb 1a       	sub	r14, r27
    187c:	fb 0a       	sbc	r15, r27
		memset(name,0,ENTRY_SIZE);
    187e:	f6 01       	movw	r30, r12
    1880:	89 2d       	mov	r24, r9
    1882:	11 92       	st	Z+, r1
    1884:	8a 95       	dec	r24
    1886:	e9 f7       	brne	.-6      	; 0x1882 <games_in_flash+0x158>
    1888:	90 e2       	ldi	r25, 0x20	; 32
    188a:	a9 0e       	add	r10, r25
    188c:	b1 1c       	adc	r11, r1
    188e:	f8 01       	movw	r30, r16
    1890:	80 cf       	rjmp	.-256    	; 0x1792 <games_in_flash+0x68>
#else
	if (schip(F_RESET)==CHIP_BAD_OPCODE){
		print_vms(PSTR("CRASH! bad opcode\n"));	
	};
#endif
}
    1892:	a0 96       	adiw	r28, 0x20	; 32
    1894:	0f b6       	in	r0, 0x3f	; 63
    1896:	f8 94       	cli
    1898:	de bf       	out	0x3e, r29	; 62
    189a:	0f be       	out	0x3f, r0	; 63
    189c:	cd bf       	out	0x3d, r28	; 61
    189e:	df 91       	pop	r29
    18a0:	cf 91       	pop	r28
    18a2:	1f 91       	pop	r17
    18a4:	0f 91       	pop	r16
    18a6:	ff 90       	pop	r15
    18a8:	ef 90       	pop	r14
    18aa:	df 90       	pop	r13
    18ac:	cf 90       	pop	r12
    18ae:	bf 90       	pop	r11
    18b0:	af 90       	pop	r10
    18b2:	9f 90       	pop	r9
    18b4:	08 95       	ret

000018b6 <splash_screen>:
	"FAT driver\n"
	"Copyright 2006-2012\n"
	"Roland Riegel\n";


void splash_screen(){
    18b6:	ef 92       	push	r14
    18b8:	ff 92       	push	r15
    18ba:	0f 93       	push	r16
    18bc:	1f 93       	push	r17
    18be:	cf 93       	push	r28
    18c0:	df 93       	push	r29
    18c2:	0d e8       	ldi	r16, 0x8D	; 141
    18c4:	1c e0       	ldi	r17, 0x0C	; 12
    18c6:	cd e8       	ldi	r28, 0x8D	; 141
    18c8:	d8 e0       	ldi	r29, 0x08	; 8
    18ca:	80 e0       	ldi	r24, 0x00	; 0
    18cc:	90 e8       	ldi	r25, 0x80	; 128
    18ce:	9c 01       	movw	r18, r24
    18d0:	2d 58       	subi	r18, 0x8D	; 141
    18d2:	38 40       	sbci	r19, 0x08	; 8
    18d4:	79 01       	movw	r14, r18
	uint16_t i;
	
	for (i=0;i<SPLASH_SIZE;i++) sram_write_byte(SAVE_SCREEN_ADDR+i,pgm_read_byte((splash+i)));
    18d6:	fe 01       	movw	r30, r28
    18d8:	64 91       	lpm	r22, Z
    18da:	c7 01       	movw	r24, r14
    18dc:	8c 0f       	add	r24, r28
    18de:	9d 1f       	adc	r25, r29
    18e0:	0e 94 4d 1d 	call	0x3a9a	; 0x3a9a <sram_write_byte>
    18e4:	21 96       	adiw	r28, 0x01	; 1
    18e6:	c0 17       	cp	r28, r16
    18e8:	d1 07       	cpc	r29, r17
    18ea:	a9 f7       	brne	.-22     	; 0x18d6 <splash_screen+0x20>
	screen_restore();
    18ec:	0e 94 12 23 	call	0x4624	; 0x4624 <screen_restore>
	frame_delay=120;
    18f0:	88 e7       	ldi	r24, 0x78	; 120
    18f2:	80 93 c5 02 	sts	0x02C5, r24
	while (frame_delay){
    18f6:	0b c0       	rjmp	.+22     	; 0x190e <splash_screen+0x58>
		if (_joystick_state()!=JSTK_IMASK){
    18f8:	86 b1       	in	r24, 0x06	; 6
    18fa:	8e 73       	andi	r24, 0x3E	; 62
    18fc:	8e 33       	cpi	r24, 0x3E	; 62
    18fe:	39 f0       	breq	.+14     	; 0x190e <splash_screen+0x58>
			 tone(1000,2);
    1900:	62 e0       	ldi	r22, 0x02	; 2
    1902:	88 ee       	ldi	r24, 0xE8	; 232
    1904:	93 e0       	ldi	r25, 0x03	; 3
    1906:	0e 94 b0 1f 	call	0x3f60	; 0x3f60 <tone>
			 frame_delay=0;
    190a:	10 92 c5 02 	sts	0x02C5, r1
	uint16_t i;
	
	for (i=0;i<SPLASH_SIZE;i++) sram_write_byte(SAVE_SCREEN_ADDR+i,pgm_read_byte((splash+i)));
	screen_restore();
	frame_delay=120;
	while (frame_delay){
    190e:	80 91 c5 02 	lds	r24, 0x02C5
    1912:	81 11       	cpse	r24, r1
    1914:	f1 cf       	rjmp	.-30     	; 0x18f8 <splash_screen+0x42>
		if (_joystick_state()!=JSTK_IMASK){
			 tone(1000,2);
			 frame_delay=0;
		}
	}
	joystick_wait_release(); 
    1916:	0e 94 dd 19 	call	0x33ba	; 0x33ba <joystick_wait_release>
}
    191a:	df 91       	pop	r29
    191c:	cf 91       	pop	r28
    191e:	1f 91       	pop	r17
    1920:	0f 91       	pop	r16
    1922:	ff 90       	pop	r15
    1924:	ef 90       	pop	r14
    1926:	08 95       	ret

00001928 <main>:

int main(void){
	uint8_t sdc_ok=0;
	
	CLKPR= (1<<7);
    1928:	e1 e6       	ldi	r30, 0x61	; 97
    192a:	f0 e0       	ldi	r31, 0x00	; 0
    192c:	80 e8       	ldi	r24, 0x80	; 128
    192e:	80 83       	st	Z, r24
	CLKPR = 0 ; // désactivation du diviseur
    1930:	10 82       	st	Z, r1
	tvout_init();
    1932:	0e 94 e6 1f 	call	0x3fcc	; 0x3fcc <tvout_init>
	//initialisation SPI
	SPI_DDR |= SPI_CLK+SPI_MOSI;
    1936:	84 b1       	in	r24, 0x04	; 4
    1938:	88 62       	ori	r24, 0x28	; 40
    193a:	84 b9       	out	0x04, r24	; 4
	SPI_CR = (1<<SPE)|(1<<MSTR);
    193c:	80 e5       	ldi	r24, 0x50	; 80
    193e:	8c bd       	out	0x2c, r24	; 44
	SPI_SR |= 1; // Fosc/2
    1940:	8d b5       	in	r24, 0x2d	; 45
    1942:	81 60       	ori	r24, 0x01	; 1
    1944:	8d bd       	out	0x2d, r24	; 45
	// initialisation du joystick Atari 2600
	_joystick_init();
    1946:	87 b1       	in	r24, 0x07	; 7
    1948:	81 7c       	andi	r24, 0xC1	; 193
    194a:	87 b9       	out	0x07, r24	; 7
    194c:	88 b1       	in	r24, 0x08	; 8
    194e:	8e 63       	ori	r24, 0x3E	; 62
    1950:	88 b9       	out	0x08, r24	; 8
	// initialisation sons
	tone_init();
    1952:	0e 94 aa 1f 	call	0x3f54	; 0x3f54 <tone_init>
	// initialisation mémoire SRAM
	sram_init();
    1956:	0e 94 45 1d 	call	0x3a8a	; 0x3a8a <sram_init>
	sei();// activation des interruptions
    195a:	78 94       	sei
	srand(TCNT1);
    195c:	80 91 84 00 	lds	r24, 0x0084
    1960:	90 91 85 00 	lds	r25, 0x0085
    1964:	0e 94 96 24 	call	0x492c	; 0x492c <srand>
#if SDC_SUPPORT
	//initialisation carte SD
	sd_raw_init();
    1968:	0e 94 11 1b 	call	0x3622	; 0x3622 <sd_raw_init>
	if (fs_mount()) sdc_ok=fs_open_dir("/");
    196c:	0e 94 91 18 	call	0x3122	; 0x3122 <fs_mount>
    1970:	88 23       	and	r24, r24
    1972:	31 f0       	breq	.+12     	; 0x1980 <main+0x58>
    1974:	85 e0       	ldi	r24, 0x05	; 5
    1976:	91 e0       	ldi	r25, 0x01	; 1
    1978:	0e 94 f2 18 	call	0x31e4	; 0x31e4 <fs_open_dir>
    197c:	c8 2f       	mov	r28, r24
    197e:	01 c0       	rjmp	.+2      	; 0x1982 <main+0x5a>
	}
	joystick_wait_release(); 
}

int main(void){
	uint8_t sdc_ok=0;
    1980:	c0 e0       	ldi	r28, 0x00	; 0
	//initialisation carte SD
	sd_raw_init();
	if (fs_mount()) sdc_ok=fs_open_dir("/");
#endif
#if !FW_DEBUG
	splash_screen();
    1982:	0e 94 5b 0c 	call	0x18b6	; 0x18b6 <splash_screen>
	text_scroller(credits,4);
    1986:	64 e0       	ldi	r22, 0x04	; 4
    1988:	85 e8       	ldi	r24, 0x85	; 133
    198a:	95 e0       	ldi	r25, 0x05	; 5
    198c:	0e 94 3f 1f 	call	0x3e7e	; 0x3e7e <text_scroller>
#endif	
	while (1){
		//sram_clear();
		cls();
    1990:	0e 94 51 22 	call	0x44a2	; 0x44a2 <cls>
		select_font(FONT_ASCII);
    1994:	82 e0       	ldi	r24, 0x02	; 2
    1996:	0e 94 0e 1e 	call	0x3c1c	; 0x3c1c <select_font>
prt_pstr((PSTR("first line")));
set_cursor(0,VRES-CHAR_HEIGHT);
prt_pstr(PSTR("last line"));
while(1);
*/
		if (!sdc_ok){
    199a:	c1 11       	cpse	r28, r1
    199c:	0b c0       	rjmp	.+22     	; 0x19b4 <main+0x8c>
			prt_pstr(PSTR("carte SD absente!"));
    199e:	8d e4       	ldi	r24, 0x4D	; 77
    19a0:	95 e0       	ldi	r25, 0x05	; 5
    19a2:	0e 94 d3 1e 	call	0x3da6	; 0x3da6 <prt_pstr>
			new_line();
    19a6:	0e 94 11 1e 	call	0x3c22	; 0x3c22 <new_line>
			prompt_btn();
    19aa:	0e 94 eb 19 	call	0x33d6	; 0x33d6 <prompt_btn>
#endif
			games_in_flash();
    19ae:	0e 94 95 0b 	call	0x172a	; 0x172a <games_in_flash>
    19b2:	ee cf       	rjmp	.-36     	; 0x1990 <main+0x68>
#if SDC_SUPPORT 
		}else{
			games_on_sdcard();
    19b4:	0e 94 7d 0b 	call	0x16fa	; 0x16fa <games_on_sdcard>
    19b8:	eb cf       	rjmp	.-42     	; 0x1990 <main+0x68>

000019ba <print_vms>:

// stockage temporaire sprite
static uint8_t block[32];


void print_vms(const char *msg){
    19ba:	0f 93       	push	r16
    19bc:	1f 93       	push	r17
    19be:	cf 93       	push	r28
    19c0:	df 93       	push	r29
    19c2:	ec 01       	movw	r28, r24
	screen_save();
    19c4:	0e 94 09 23 	call	0x4612	; 0x4612 <screen_save>
	cls();
    19c8:	0e 94 51 22 	call	0x44a2	; 0x44a2 <cls>
	select_font(FONT_ASCII);
    19cc:	82 e0       	ldi	r24, 0x02	; 2
    19ce:	0e 94 0e 1e 	call	0x3c1c	; 0x3c1c <select_font>
	prt_pstr(msg);
    19d2:	ce 01       	movw	r24, r28
    19d4:	0e 94 d3 1e 	call	0x3da6	; 0x3da6 <prt_pstr>
	prt_pstr(PSTR("PC:"));
    19d8:	8a ee       	ldi	r24, 0xEA	; 234
    19da:	95 e0       	ldi	r25, 0x05	; 5
    19dc:	0e 94 d3 1e 	call	0x3da6	; 0x3da6 <prt_pstr>
	print_hex(vms.pc-2,4);
    19e0:	80 91 28 01 	lds	r24, 0x0128
    19e4:	90 91 29 01 	lds	r25, 0x0129
    19e8:	64 e0       	ldi	r22, 0x04	; 4
    19ea:	02 97       	sbiw	r24, 0x02	; 2
    19ec:	0e 94 e5 1e 	call	0x3dca	; 0x3dca <print_hex>
	print_hex(vms.b1,2);
    19f0:	80 91 4d 01 	lds	r24, 0x014D
    19f4:	62 e0       	ldi	r22, 0x02	; 2
    19f6:	90 e0       	ldi	r25, 0x00	; 0
    19f8:	0e 94 e5 1e 	call	0x3dca	; 0x3dca <print_hex>
	print_hex(vms.b2,2);
    19fc:	80 91 4e 01 	lds	r24, 0x014E
    1a00:	62 e0       	ldi	r22, 0x02	; 2
    1a02:	90 e0       	ldi	r25, 0x00	; 0
    1a04:	0e 94 e5 1e 	call	0x3dca	; 0x3dca <print_hex>
	new_line();
    1a08:	0e 94 11 1e 	call	0x3c22	; 0x3c22 <new_line>
	prt_pstr(PSTR("I:"));
    1a0c:	87 ee       	ldi	r24, 0xE7	; 231
    1a0e:	95 e0       	ldi	r25, 0x05	; 5
    1a10:	0e 94 d3 1e 	call	0x3da6	; 0x3da6 <prt_pstr>
	print_hex(vms.ix,4);
    1a14:	64 e0       	ldi	r22, 0x04	; 4
    1a16:	80 91 2a 01 	lds	r24, 0x012A
    1a1a:	90 91 2b 01 	lds	r25, 0x012B
    1a1e:	0e 94 e5 1e 	call	0x3dca	; 0x3dca <print_hex>
	prt_pstr(PSTR(" SP:"));
    1a22:	82 ee       	ldi	r24, 0xE2	; 226
    1a24:	95 e0       	ldi	r25, 0x05	; 5
    1a26:	0e 94 d3 1e 	call	0x3da6	; 0x3da6 <prt_pstr>
	print_hex(vms.sp,2);
    1a2a:	80 91 2c 01 	lds	r24, 0x012C
    1a2e:	62 e0       	ldi	r22, 0x02	; 2
    1a30:	90 e0       	ldi	r25, 0x00	; 0
    1a32:	0e 94 e5 1e 	call	0x3dca	; 0x3dca <print_hex>
	new_line();
    1a36:	0e 94 11 1e 	call	0x3c22	; 0x3c22 <new_line>
	prt_pstr(PSTR("var[]:"));
    1a3a:	8b ed       	ldi	r24, 0xDB	; 219
    1a3c:	95 e0       	ldi	r25, 0x05	; 5
    1a3e:	0e 94 d3 1e 	call	0x3da6	; 0x3da6 <prt_pstr>
    1a42:	cd e2       	ldi	r28, 0x2D	; 45
    1a44:	d1 e0       	ldi	r29, 0x01	; 1
    1a46:	0d e3       	ldi	r16, 0x3D	; 61
    1a48:	11 e0       	ldi	r17, 0x01	; 1
	for (int i=0;i<16;i++){
		print_hex(vms.var[i],2);
    1a4a:	89 91       	ld	r24, Y+
    1a4c:	62 e0       	ldi	r22, 0x02	; 2
    1a4e:	90 e0       	ldi	r25, 0x00	; 0
    1a50:	0e 94 e5 1e 	call	0x3dca	; 0x3dca <print_hex>
	print_hex(vms.ix,4);
	prt_pstr(PSTR(" SP:"));
	print_hex(vms.sp,2);
	new_line();
	prt_pstr(PSTR("var[]:"));
	for (int i=0;i<16;i++){
    1a54:	c0 17       	cp	r28, r16
    1a56:	d1 07       	cpc	r29, r17
    1a58:	c1 f7       	brne	.-16     	; 0x1a4a <print_vms+0x90>
		print_hex(vms.var[i],2);
	}
	new_line();
    1a5a:	0e 94 11 1e 	call	0x3c22	; 0x3c22 <new_line>
	prt_pstr(PSTR("rpl[]:"));
	for (int i=0;i<16;i++){
		print_hex(vms.rpl[i++],2);
	}
*/	
	prt_pstr(PSTR("'F'ire trace or any"));
    1a5e:	87 ec       	ldi	r24, 0xC7	; 199
    1a60:	95 e0       	ldi	r25, 0x05	; 5
    1a62:	0e 94 d3 1e 	call	0x3da6	; 0x3da6 <prt_pstr>
	if (joystick_wait_any()!=BTN_FIRE) vms.trace=0;
    1a66:	0e 94 d5 19 	call	0x33aa	; 0x33aa <joystick_wait_any>
    1a6a:	80 32       	cpi	r24, 0x20	; 32
    1a6c:	29 f0       	breq	.+10     	; 0x1a78 <print_vms+0xbe>
    1a6e:	ef e8       	ldi	r30, 0x8F	; 143
    1a70:	f1 e0       	ldi	r31, 0x01	; 1
    1a72:	80 81       	ld	r24, Z
    1a74:	8b 7f       	andi	r24, 0xFB	; 251
    1a76:	80 83       	st	Z, r24
	while (_joystick_state()!=JSTK_IMASK);
    1a78:	86 b1       	in	r24, 0x06	; 6
    1a7a:	8e 73       	andi	r24, 0x3E	; 62
    1a7c:	8e 33       	cpi	r24, 0x3E	; 62
    1a7e:	e1 f7       	brne	.-8      	; 0x1a78 <print_vms+0xbe>
	screen_restore();
    1a80:	0e 94 12 23 	call	0x4624	; 0x4624 <screen_restore>
}
    1a84:	df 91       	pop	r29
    1a86:	cf 91       	pop	r28
    1a88:	1f 91       	pop	r17
    1a8a:	0f 91       	pop	r16
    1a8c:	08 95       	ret

00001a8e <schip>:
	return 0;	
}
#endif

// machine virtuelle CHIPcon v2
uint8_t schip(uint8_t flags){
    1a8e:	2f 92       	push	r2
    1a90:	3f 92       	push	r3
    1a92:	4f 92       	push	r4
    1a94:	5f 92       	push	r5
    1a96:	6f 92       	push	r6
    1a98:	7f 92       	push	r7
    1a9a:	8f 92       	push	r8
    1a9c:	9f 92       	push	r9
    1a9e:	af 92       	push	r10
    1aa0:	bf 92       	push	r11
    1aa2:	cf 92       	push	r12
    1aa4:	df 92       	push	r13
    1aa6:	ef 92       	push	r14
    1aa8:	ff 92       	push	r15
    1aaa:	0f 93       	push	r16
    1aac:	1f 93       	push	r17
    1aae:	cf 93       	push	r28
    1ab0:	df 93       	push	r29
    1ab2:	1f 92       	push	r1
    1ab4:	cd b7       	in	r28, 0x3d	; 61
    1ab6:	de b7       	in	r29, 0x3e	; 62
	uint8_t x,y,n;
	uint16_t code;
	
    if (flags&F_RESET){	
    1ab8:	81 ff       	sbrs	r24, 1
    1aba:	0a c0       	rjmp	.+20     	; 0x1ad0 <schip+0x42>
		vms.pc=CODE_BASE_ADDR;
    1abc:	10 92 29 01 	sts	0x0129, r1
    1ac0:	10 92 28 01 	sts	0x0128, r1
		vms.sp=0;
    1ac4:	10 92 2c 01 	sts	0x012C, r1
		vms.ix=0;
    1ac8:	10 92 2b 01 	sts	0x012B, r1
    1acc:	10 92 2a 01 	sts	0x012A, r1
			vms.trace^=1;
		}
#else		
		if (joystick_break()) return CHIP_EXIT_OK;
#endif		
		vms.opcode=sram_read_word(vms.pc);
    1ad0:	0f 2e       	mov	r0, r31
    1ad2:	fd e4       	ldi	r31, 0x4D	; 77
    1ad4:	ef 2e       	mov	r14, r31
    1ad6:	f1 e0       	ldi	r31, 0x01	; 1
    1ad8:	ff 2e       	mov	r15, r31
    1ada:	f0 2d       	mov	r31, r0
			vms.trace=1;
			print_vms(PSTR("Trace print\n"));
		}
#endif		
		x=rx(vms.b1);
		y=ry(vms.b2);
    1adc:	0f 2e       	mov	r0, r31
    1ade:	fe e4       	ldi	r31, 0x4E	; 78
    1ae0:	cf 2e       	mov	r12, r31
    1ae2:	f1 e0       	ldi	r31, 0x01	; 1
    1ae4:	df 2e       	mov	r13, r31
    1ae6:	f0 2d       	mov	r31, r0
				break;
			case 0xf1e: // FX1E     I := I + VX
				vms.ix += vms.var[x];
				break;
			case 0xf29: // FX29     fait pointé vms.ix vers le caractère VX dans la police FONT_SHEX
				vms.ix=(int16_t)font_hex_4x6+vms.var[x]*SHEX_HEIGHT;
    1ae8:	0f 2e       	mov	r0, r31
    1aea:	fa e2       	ldi	r31, 0x2A	; 42
    1aec:	af 2e       	mov	r10, r31
    1aee:	f1 e0       	ldi	r31, 0x01	; 1
    1af0:	bf 2e       	mov	r11, r31
    1af2:	f0 2d       	mov	r31, r0
				select_font(FONT_SHEX);
				vms.src_mem=FLASH_MEM;
    1af4:	0f 2e       	mov	r0, r31
    1af6:	ff e8       	ldi	r31, 0x8F	; 143
    1af8:	6f 2e       	mov	r6, r31
    1afa:	f1 e0       	ldi	r31, 0x01	; 1
    1afc:	7f 2e       	mov	r7, r31
    1afe:	f0 2d       	mov	r31, r0
			case 0xf33: // FX33     met la représentation BCD de VX dans M(vms.ix)..M(vms.ix+2)
				n=vms.var[x];
				block[2]=n%10;
				n /=10;
				block[1]=n%10;
				block[0]=n/10;
    1b00:	0f 2e       	mov	r0, r31
    1b02:	f8 e0       	ldi	r31, 0x08	; 8
    1b04:	2f 2e       	mov	r2, r31
    1b06:	f1 e0       	ldi	r31, 0x01	; 1
    1b08:	3f 2e       	mov	r3, r31
    1b0a:	f0 2d       	mov	r31, r0
				break;
			case 0x906: // 9X06, PUSH VX
			    vms.stack[++vms.sp]=vms.var[x];
				break;	
			case 0x907: // 9X07, POP VX
			    vms.var[x]=vms.stack[vms.sp--];
    1b0c:	0f 2e       	mov	r0, r31
    1b0e:	fc e2       	ldi	r31, 0x2C	; 44
    1b10:	8f 2e       	mov	r8, r31
    1b12:	f1 e0       	ldi	r31, 0x01	; 1
    1b14:	9f 2e       	mov	r9, r31
    1b16:	f0 2d       	mov	r31, r0
				}else{
					if (vms.src_mem==FLASH_MEM){
						vms.var[15]=put_sprite((int8_t)vms.var[x],(int8_t)vms.var[y],n,(const uint8_t *)vms.ix,FLASH_MEM);
					}else{
						sram_load_block(vms.ix,n,block);
						vms.var[15]=put_sprite((int8_t)vms.var[x],(int8_t)vms.var[y],n,(const uint8_t*)block,RAM_MEM);
    1b18:	0f 2e       	mov	r0, r31
    1b1a:	fc e3       	ldi	r31, 0x3C	; 60
    1b1c:	4f 2e       	mov	r4, r31
    1b1e:	f1 e0       	ldi	r31, 0x01	; 1
    1b20:	5f 2e       	mov	r5, r31
    1b22:	f0 2d       	mov	r31, r0
#if FW_DEBUG
		if (vms.debug && joystick_break()){
			vms.trace^=1;
		}
#else		
		if (joystick_break()) return CHIP_EXIT_OK;
    1b24:	0e 94 ff 19 	call	0x33fe	; 0x33fe <joystick_break>
    1b28:	81 11       	cpse	r24, r1
    1b2a:	94 c4       	rjmp	.+2344   	; 0x2454 <schip+0x9c6>
#endif		
		vms.opcode=sram_read_word(vms.pc);
    1b2c:	a8 e2       	ldi	r26, 0x28	; 40
    1b2e:	b1 e0       	ldi	r27, 0x01	; 1
    1b30:	8d 91       	ld	r24, X+
    1b32:	9c 91       	ld	r25, X
    1b34:	0e 94 8e 1d 	call	0x3b1c	; 0x3b1c <sram_read_word>
    1b38:	f7 01       	movw	r30, r14
    1b3a:	80 83       	st	Z, r24
    1b3c:	91 83       	std	Z+1, r25	; 0x01
		vms.pc+=2;
    1b3e:	a8 e2       	ldi	r26, 0x28	; 40
    1b40:	b1 e0       	ldi	r27, 0x01	; 1
    1b42:	ed 91       	ld	r30, X+
    1b44:	fc 91       	ld	r31, X
    1b46:	11 97       	sbiw	r26, 0x01	; 1
    1b48:	bf 01       	movw	r22, r30
    1b4a:	6e 5f       	subi	r22, 0xFE	; 254
    1b4c:	7f 4f       	sbci	r23, 0xFF	; 255
    1b4e:	6d 93       	st	X+, r22
    1b50:	7c 93       	st	X, r23
		if (vms.trace || (vms.debug && is_break_point(vms.pc-2))){ 
			vms.trace=1;
			print_vms(PSTR("Trace print\n"));
		}
#endif		
		x=rx(vms.b1);
    1b52:	08 2f       	mov	r16, r24
    1b54:	0f 70       	andi	r16, 0x0F	; 15
		y=ry(vms.b2);
    1b56:	d6 01       	movw	r26, r12
    1b58:	4c 91       	ld	r20, X
    1b5a:	14 2f       	mov	r17, r20
    1b5c:	12 95       	swap	r17
    1b5e:	1f 70       	andi	r17, 0x0F	; 15
		// décodeur d'instruction
		code=(vms.b1&0xf0)<<4;
    1b60:	80 7f       	andi	r24, 0xF0	; 240
    1b62:	b0 e1       	ldi	r27, 0x10	; 16
    1b64:	8b 9f       	mul	r24, r27
    1b66:	90 01       	movw	r18, r0
    1b68:	11 24       	eor	r1, r1
		switch (code){
    1b6a:	21 15       	cp	r18, r1
    1b6c:	89 e0       	ldi	r24, 0x09	; 9
    1b6e:	38 07       	cpc	r19, r24
    1b70:	f9 f0       	breq	.+62     	; 0x1bb0 <schip+0x122>
    1b72:	40 f4       	brcc	.+16     	; 0x1b84 <schip+0xf6>
    1b74:	21 15       	cp	r18, r1
    1b76:	31 05       	cpc	r19, r1
    1b78:	71 f0       	breq	.+28     	; 0x1b96 <schip+0x108>
    1b7a:	21 15       	cp	r18, r1
    1b7c:	a8 e0       	ldi	r26, 0x08	; 8
    1b7e:	3a 07       	cpc	r19, r26
    1b80:	b9 f0       	breq	.+46     	; 0x1bb0 <schip+0x122>
    1b82:	19 c0       	rjmp	.+50     	; 0x1bb6 <schip+0x128>
    1b84:	21 15       	cp	r18, r1
    1b86:	be e0       	ldi	r27, 0x0E	; 14
    1b88:	3b 07       	cpc	r19, r27
    1b8a:	81 f0       	breq	.+32     	; 0x1bac <schip+0x11e>
    1b8c:	21 15       	cp	r18, r1
    1b8e:	8f e0       	ldi	r24, 0x0F	; 15
    1b90:	38 07       	cpc	r19, r24
    1b92:	61 f0       	breq	.+24     	; 0x1bac <schip+0x11e>
    1b94:	10 c0       	rjmp	.+32     	; 0x1bb6 <schip+0x128>
			case 0x000:
				if ((vms.b2&0xf0)==0xc0){
    1b96:	84 2f       	mov	r24, r20
    1b98:	80 7f       	andi	r24, 0xF0	; 240
    1b9a:	80 3c       	cpi	r24, 0xC0	; 192
    1b9c:	09 f4       	brne	.+2      	; 0x1ba0 <schip+0x112>
    1b9e:	19 c1       	rjmp	.+562    	; 0x1dd2 <schip+0x344>
					 code=0xc0;
			    }else if ((vms.b2&0xf0)==0xd0){
    1ba0:	80 3d       	cpi	r24, 0xD0	; 208
    1ba2:	09 f4       	brne	.+2      	; 0x1ba6 <schip+0x118>
    1ba4:	1b c1       	rjmp	.+566    	; 0x1ddc <schip+0x34e>
					 code=0xd0;
			    } else code=vms.b2;
    1ba6:	24 2f       	mov	r18, r20
    1ba8:	30 e0       	ldi	r19, 0x00	; 0
    1baa:	05 c0       	rjmp	.+10     	; 0x1bb6 <schip+0x128>
				break;
			case 0xe00:
			case 0xf00:
				code |= vms.b2;
    1bac:	24 2b       	or	r18, r20
				break;
    1bae:	03 c0       	rjmp	.+6      	; 0x1bb6 <schip+0x128>
			case 0x800:
			case 0x900:
				code |= vms.b2&0xf;
    1bb0:	84 2f       	mov	r24, r20
    1bb2:	8f 70       	andi	r24, 0x0F	; 15
    1bb4:	28 2b       	or	r18, r24
				break;
		}
		// exécution de l'instruction
		switch(code){
    1bb6:	21 30       	cpi	r18, 0x01	; 1
    1bb8:	99 e0       	ldi	r25, 0x09	; 9
    1bba:	39 07       	cpc	r19, r25
    1bbc:	09 f4       	brne	.+2      	; 0x1bc0 <schip+0x132>
    1bbe:	43 c2       	rjmp	.+1158   	; 0x2046 <schip+0x5b8>
    1bc0:	08 f0       	brcs	.+2      	; 0x1bc4 <schip+0x136>
    1bc2:	7b c0       	rjmp	.+246    	; 0x1cba <schip+0x22c>
    1bc4:	21 15       	cp	r18, r1
    1bc6:	b4 e0       	ldi	r27, 0x04	; 4
    1bc8:	3b 07       	cpc	r19, r27
    1bca:	09 f4       	brne	.+2      	; 0x1bce <schip+0x140>
    1bcc:	5c c1       	rjmp	.+696    	; 0x1e86 <schip+0x3f8>
    1bce:	a0 f5       	brcc	.+104    	; 0x1c38 <schip+0x1aa>
    1bd0:	2c 3f       	cpi	r18, 0xFC	; 252
    1bd2:	31 05       	cpc	r19, r1
    1bd4:	09 f4       	brne	.+2      	; 0x1bd8 <schip+0x14a>
    1bd6:	1e c1       	rjmp	.+572    	; 0x1e14 <schip+0x386>
    1bd8:	b8 f4       	brcc	.+46     	; 0x1c08 <schip+0x17a>
    1bda:	20 3e       	cpi	r18, 0xE0	; 224
    1bdc:	31 05       	cpc	r19, r1
    1bde:	09 f4       	brne	.+2      	; 0x1be2 <schip+0x154>
    1be0:	02 c1       	rjmp	.+516    	; 0x1de6 <schip+0x358>
    1be2:	48 f4       	brcc	.+18     	; 0x1bf6 <schip+0x168>
    1be4:	20 3c       	cpi	r18, 0xC0	; 192
    1be6:	31 05       	cpc	r19, r1
    1be8:	09 f4       	brne	.+2      	; 0x1bec <schip+0x15e>
    1bea:	f3 c0       	rjmp	.+486    	; 0x1dd2 <schip+0x344>
    1bec:	20 3d       	cpi	r18, 0xD0	; 208
    1bee:	31 05       	cpc	r19, r1
    1bf0:	09 f0       	breq	.+2      	; 0x1bf4 <schip+0x166>
    1bf2:	32 c4       	rjmp	.+2148   	; 0x2458 <schip+0x9ca>
    1bf4:	f3 c0       	rjmp	.+486    	; 0x1ddc <schip+0x34e>
    1bf6:	2e 3e       	cpi	r18, 0xEE	; 238
    1bf8:	31 05       	cpc	r19, r1
    1bfa:	09 f4       	brne	.+2      	; 0x1bfe <schip+0x170>
    1bfc:	f7 c0       	rjmp	.+494    	; 0x1dec <schip+0x35e>
    1bfe:	2b 3f       	cpi	r18, 0xFB	; 251
    1c00:	31 05       	cpc	r19, r1
    1c02:	09 f4       	brne	.+2      	; 0x1c06 <schip+0x178>
    1c04:	04 c1       	rjmp	.+520    	; 0x1e0e <schip+0x380>
    1c06:	28 c4       	rjmp	.+2128   	; 0x2458 <schip+0x9ca>
    1c08:	2f 3f       	cpi	r18, 0xFF	; 255
    1c0a:	31 05       	cpc	r19, r1
    1c0c:	09 f0       	breq	.+2      	; 0x1c10 <schip+0x182>
    1c0e:	28 f4       	brcc	.+10     	; 0x1c1a <schip+0x18c>
    1c10:	2e 3f       	cpi	r18, 0xFE	; 254
    1c12:	31 05       	cpc	r19, r1
    1c14:	08 f4       	brcc	.+2      	; 0x1c18 <schip+0x18a>
    1c16:	db c0       	rjmp	.+438    	; 0x1dce <schip+0x340>
    1c18:	85 cf       	rjmp	.-246    	; 0x1b24 <schip+0x96>
    1c1a:	21 15       	cp	r18, r1
    1c1c:	92 e0       	ldi	r25, 0x02	; 2
    1c1e:	39 07       	cpc	r19, r25
    1c20:	09 f4       	brne	.+2      	; 0x1c24 <schip+0x196>
    1c22:	09 c1       	rjmp	.+530    	; 0x1e36 <schip+0x3a8>
    1c24:	21 15       	cp	r18, r1
    1c26:	a3 e0       	ldi	r26, 0x03	; 3
    1c28:	3a 07       	cpc	r19, r26
    1c2a:	09 f4       	brne	.+2      	; 0x1c2e <schip+0x1a0>
    1c2c:	1e c1       	rjmp	.+572    	; 0x1e6a <schip+0x3dc>
    1c2e:	21 15       	cp	r18, r1
    1c30:	31 40       	sbci	r19, 0x01	; 1
    1c32:	09 f0       	breq	.+2      	; 0x1c36 <schip+0x1a8>
    1c34:	11 c4       	rjmp	.+2082   	; 0x2458 <schip+0x9ca>
    1c36:	f1 c0       	rjmp	.+482    	; 0x1e1a <schip+0x38c>
    1c38:	23 30       	cpi	r18, 0x03	; 3
    1c3a:	88 e0       	ldi	r24, 0x08	; 8
    1c3c:	38 07       	cpc	r19, r24
    1c3e:	09 f4       	brne	.+2      	; 0x1c42 <schip+0x1b4>
    1c40:	7e c1       	rjmp	.+764    	; 0x1f3e <schip+0x4b0>
    1c42:	e0 f4       	brcc	.+56     	; 0x1c7c <schip+0x1ee>
    1c44:	21 15       	cp	r18, r1
    1c46:	a7 e0       	ldi	r26, 0x07	; 7
    1c48:	3a 07       	cpc	r19, r26
    1c4a:	09 f4       	brne	.+2      	; 0x1c4e <schip+0x1c0>
    1c4c:	48 c1       	rjmp	.+656    	; 0x1ede <schip+0x450>
    1c4e:	50 f4       	brcc	.+20     	; 0x1c64 <schip+0x1d6>
    1c50:	21 15       	cp	r18, r1
    1c52:	85 e0       	ldi	r24, 0x05	; 5
    1c54:	38 07       	cpc	r19, r24
    1c56:	09 f4       	brne	.+2      	; 0x1c5a <schip+0x1cc>
    1c58:	25 c1       	rjmp	.+586    	; 0x1ea4 <schip+0x416>
    1c5a:	21 15       	cp	r18, r1
    1c5c:	36 40       	sbci	r19, 0x06	; 6
    1c5e:	09 f4       	brne	.+2      	; 0x1c62 <schip+0x1d4>
    1c60:	38 c1       	rjmp	.+624    	; 0x1ed2 <schip+0x444>
    1c62:	fa c3       	rjmp	.+2036   	; 0x2458 <schip+0x9ca>
    1c64:	21 30       	cpi	r18, 0x01	; 1
    1c66:	a8 e0       	ldi	r26, 0x08	; 8
    1c68:	3a 07       	cpc	r19, r26
    1c6a:	09 f4       	brne	.+2      	; 0x1c6e <schip+0x1e0>
    1c6c:	4c c1       	rjmp	.+664    	; 0x1f06 <schip+0x478>
    1c6e:	08 f0       	brcs	.+2      	; 0x1c72 <schip+0x1e4>
    1c70:	58 c1       	rjmp	.+688    	; 0x1f22 <schip+0x494>
    1c72:	21 15       	cp	r18, r1
    1c74:	38 40       	sbci	r19, 0x08	; 8
    1c76:	09 f4       	brne	.+2      	; 0x1c7a <schip+0x1ec>
    1c78:	3a c1       	rjmp	.+628    	; 0x1eee <schip+0x460>
    1c7a:	ee c3       	rjmp	.+2012   	; 0x2458 <schip+0x9ca>
    1c7c:	26 30       	cpi	r18, 0x06	; 6
    1c7e:	88 e0       	ldi	r24, 0x08	; 8
    1c80:	38 07       	cpc	r19, r24
    1c82:	09 f4       	brne	.+2      	; 0x1c86 <schip+0x1f8>
    1c84:	99 c1       	rjmp	.+818    	; 0x1fb8 <schip+0x52a>
    1c86:	50 f4       	brcc	.+20     	; 0x1c9c <schip+0x20e>
    1c88:	24 30       	cpi	r18, 0x04	; 4
    1c8a:	a8 e0       	ldi	r26, 0x08	; 8
    1c8c:	3a 07       	cpc	r19, r26
    1c8e:	09 f4       	brne	.+2      	; 0x1c92 <schip+0x204>
    1c90:	64 c1       	rjmp	.+712    	; 0x1f5a <schip+0x4cc>
    1c92:	25 30       	cpi	r18, 0x05	; 5
    1c94:	38 40       	sbci	r19, 0x08	; 8
    1c96:	09 f4       	brne	.+2      	; 0x1c9a <schip+0x20c>
    1c98:	7a c1       	rjmp	.+756    	; 0x1f8e <schip+0x500>
    1c9a:	de c3       	rjmp	.+1980   	; 0x2458 <schip+0x9ca>
    1c9c:	2e 30       	cpi	r18, 0x0E	; 14
    1c9e:	88 e0       	ldi	r24, 0x08	; 8
    1ca0:	38 07       	cpc	r19, r24
    1ca2:	09 f4       	brne	.+2      	; 0x1ca6 <schip+0x218>
    1ca4:	aa c1       	rjmp	.+852    	; 0x1ffa <schip+0x56c>
    1ca6:	21 15       	cp	r18, r1
    1ca8:	99 e0       	ldi	r25, 0x09	; 9
    1caa:	39 07       	cpc	r19, r25
    1cac:	09 f4       	brne	.+2      	; 0x1cb0 <schip+0x222>
    1cae:	b3 c1       	rjmp	.+870    	; 0x2016 <schip+0x588>
    1cb0:	27 30       	cpi	r18, 0x07	; 7
    1cb2:	38 40       	sbci	r19, 0x08	; 8
    1cb4:	09 f0       	breq	.+2      	; 0x1cb8 <schip+0x22a>
    1cb6:	d0 c3       	rjmp	.+1952   	; 0x2458 <schip+0x9ca>
    1cb8:	8b c1       	rjmp	.+790    	; 0x1fd0 <schip+0x542>
    1cba:	2e 39       	cpi	r18, 0x9E	; 158
    1cbc:	be e0       	ldi	r27, 0x0E	; 14
    1cbe:	3b 07       	cpc	r19, r27
    1cc0:	09 f4       	brne	.+2      	; 0x1cc4 <schip+0x236>
    1cc2:	dd c2       	rjmp	.+1466   	; 0x227e <schip+0x7f0>
    1cc4:	08 f0       	brcs	.+2      	; 0x1cc8 <schip+0x23a>
    1cc6:	3f c0       	rjmp	.+126    	; 0x1d46 <schip+0x2b8>
    1cc8:	27 30       	cpi	r18, 0x07	; 7
    1cca:	f9 e0       	ldi	r31, 0x09	; 9
    1ccc:	3f 07       	cpc	r19, r31
    1cce:	09 f4       	brne	.+2      	; 0x1cd2 <schip+0x244>
    1cd0:	30 c2       	rjmp	.+1120   	; 0x2132 <schip+0x6a4>
    1cd2:	d0 f4       	brcc	.+52     	; 0x1d08 <schip+0x27a>
    1cd4:	24 30       	cpi	r18, 0x04	; 4
    1cd6:	99 e0       	ldi	r25, 0x09	; 9
    1cd8:	39 07       	cpc	r19, r25
    1cda:	09 f4       	brne	.+2      	; 0x1cde <schip+0x250>
    1cdc:	ff c1       	rjmp	.+1022   	; 0x20dc <schip+0x64e>
    1cde:	50 f4       	brcc	.+20     	; 0x1cf4 <schip+0x266>
    1ce0:	22 30       	cpi	r18, 0x02	; 2
    1ce2:	b9 e0       	ldi	r27, 0x09	; 9
    1ce4:	3b 07       	cpc	r19, r27
    1ce6:	09 f4       	brne	.+2      	; 0x1cea <schip+0x25c>
    1ce8:	bd c1       	rjmp	.+890    	; 0x2064 <schip+0x5d6>
    1cea:	23 30       	cpi	r18, 0x03	; 3
    1cec:	39 40       	sbci	r19, 0x09	; 9
    1cee:	09 f4       	brne	.+2      	; 0x1cf2 <schip+0x264>
    1cf0:	e6 c1       	rjmp	.+972    	; 0x20be <schip+0x630>
    1cf2:	b2 c3       	rjmp	.+1892   	; 0x2458 <schip+0x9ca>
    1cf4:	25 30       	cpi	r18, 0x05	; 5
    1cf6:	f9 e0       	ldi	r31, 0x09	; 9
    1cf8:	3f 07       	cpc	r19, r31
    1cfa:	09 f4       	brne	.+2      	; 0x1cfe <schip+0x270>
    1cfc:	f7 c1       	rjmp	.+1006   	; 0x20ec <schip+0x65e>
    1cfe:	26 30       	cpi	r18, 0x06	; 6
    1d00:	39 40       	sbci	r19, 0x09	; 9
    1d02:	09 f4       	brne	.+2      	; 0x1d06 <schip+0x278>
    1d04:	02 c2       	rjmp	.+1028   	; 0x210a <schip+0x67c>
    1d06:	a8 c3       	rjmp	.+1872   	; 0x2458 <schip+0x9ca>
    1d08:	21 15       	cp	r18, r1
    1d0a:	9a e0       	ldi	r25, 0x0A	; 10
    1d0c:	39 07       	cpc	r19, r25
    1d0e:	09 f4       	brne	.+2      	; 0x1d12 <schip+0x284>
    1d10:	30 c2       	rjmp	.+1120   	; 0x2172 <schip+0x6e4>
    1d12:	50 f4       	brcc	.+20     	; 0x1d28 <schip+0x29a>
    1d14:	28 30       	cpi	r18, 0x08	; 8
    1d16:	b9 e0       	ldi	r27, 0x09	; 9
    1d18:	3b 07       	cpc	r19, r27
    1d1a:	09 f4       	brne	.+2      	; 0x1d1e <schip+0x290>
    1d1c:	1c c2       	rjmp	.+1080   	; 0x2156 <schip+0x6c8>
    1d1e:	29 30       	cpi	r18, 0x09	; 9
    1d20:	39 40       	sbci	r19, 0x09	; 9
    1d22:	09 f4       	brne	.+2      	; 0x1d26 <schip+0x298>
    1d24:	1f c2       	rjmp	.+1086   	; 0x2164 <schip+0x6d6>
    1d26:	98 c3       	rjmp	.+1840   	; 0x2458 <schip+0x9ca>
    1d28:	21 15       	cp	r18, r1
    1d2a:	fc e0       	ldi	r31, 0x0C	; 12
    1d2c:	3f 07       	cpc	r19, r31
    1d2e:	09 f4       	brne	.+2      	; 0x1d32 <schip+0x2a4>
    1d30:	43 c2       	rjmp	.+1158   	; 0x21b8 <schip+0x72a>
    1d32:	21 15       	cp	r18, r1
    1d34:	8d e0       	ldi	r24, 0x0D	; 13
    1d36:	38 07       	cpc	r19, r24
    1d38:	09 f4       	brne	.+2      	; 0x1d3c <schip+0x2ae>
    1d3a:	49 c2       	rjmp	.+1170   	; 0x21ce <schip+0x740>
    1d3c:	21 15       	cp	r18, r1
    1d3e:	3b 40       	sbci	r19, 0x0B	; 11
    1d40:	09 f0       	breq	.+2      	; 0x1d44 <schip+0x2b6>
    1d42:	8a c3       	rjmp	.+1812   	; 0x2458 <schip+0x9ca>
    1d44:	27 c2       	rjmp	.+1102   	; 0x2194 <schip+0x706>
    1d46:	29 32       	cpi	r18, 0x29	; 41
    1d48:	af e0       	ldi	r26, 0x0F	; 15
    1d4a:	3a 07       	cpc	r19, r26
    1d4c:	09 f4       	brne	.+2      	; 0x1d50 <schip+0x2c2>
    1d4e:	eb c2       	rjmp	.+1494   	; 0x2326 <schip+0x898>
    1d50:	f8 f4       	brcc	.+62     	; 0x1d90 <schip+0x302>
    1d52:	2a 30       	cpi	r18, 0x0A	; 10
    1d54:	ef e0       	ldi	r30, 0x0F	; 15
    1d56:	3e 07       	cpc	r19, r30
    1d58:	09 f4       	brne	.+2      	; 0x1d5c <schip+0x2ce>
    1d5a:	bd c2       	rjmp	.+1402   	; 0x22d6 <schip+0x848>
    1d5c:	50 f4       	brcc	.+20     	; 0x1d72 <schip+0x2e4>
    1d5e:	21 3a       	cpi	r18, 0xA1	; 161
    1d60:	8e e0       	ldi	r24, 0x0E	; 14
    1d62:	38 07       	cpc	r19, r24
    1d64:	09 f4       	brne	.+2      	; 0x1d68 <schip+0x2da>
    1d66:	9e c2       	rjmp	.+1340   	; 0x22a4 <schip+0x816>
    1d68:	27 30       	cpi	r18, 0x07	; 7
    1d6a:	3f 40       	sbci	r19, 0x0F	; 15
    1d6c:	09 f4       	brne	.+2      	; 0x1d70 <schip+0x2e2>
    1d6e:	ab c2       	rjmp	.+1366   	; 0x22c6 <schip+0x838>
    1d70:	73 c3       	rjmp	.+1766   	; 0x2458 <schip+0x9ca>
    1d72:	28 31       	cpi	r18, 0x18	; 24
    1d74:	af e0       	ldi	r26, 0x0F	; 15
    1d76:	3a 07       	cpc	r19, r26
    1d78:	09 f4       	brne	.+2      	; 0x1d7c <schip+0x2ee>
    1d7a:	bd c2       	rjmp	.+1402   	; 0x22f6 <schip+0x868>
    1d7c:	2e 31       	cpi	r18, 0x1E	; 30
    1d7e:	bf e0       	ldi	r27, 0x0F	; 15
    1d80:	3b 07       	cpc	r19, r27
    1d82:	09 f4       	brne	.+2      	; 0x1d86 <schip+0x2f8>
    1d84:	c2 c2       	rjmp	.+1412   	; 0x230a <schip+0x87c>
    1d86:	25 31       	cpi	r18, 0x15	; 21
    1d88:	3f 40       	sbci	r19, 0x0F	; 15
    1d8a:	09 f0       	breq	.+2      	; 0x1d8e <schip+0x300>
    1d8c:	65 c3       	rjmp	.+1738   	; 0x2458 <schip+0x9ca>
    1d8e:	ab c2       	rjmp	.+1366   	; 0x22e6 <schip+0x858>
    1d90:	25 35       	cpi	r18, 0x55	; 85
    1d92:	ff e0       	ldi	r31, 0x0F	; 15
    1d94:	3f 07       	cpc	r19, r31
    1d96:	09 f4       	brne	.+2      	; 0x1d9a <schip+0x30c>
    1d98:	2f c3       	rjmp	.+1630   	; 0x23f8 <schip+0x96a>
    1d9a:	50 f4       	brcc	.+20     	; 0x1db0 <schip+0x322>
    1d9c:	20 33       	cpi	r18, 0x30	; 48
    1d9e:	9f e0       	ldi	r25, 0x0F	; 15
    1da0:	39 07       	cpc	r19, r25
    1da2:	09 f4       	brne	.+2      	; 0x1da6 <schip+0x318>
    1da4:	da c2       	rjmp	.+1460   	; 0x235a <schip+0x8cc>
    1da6:	23 33       	cpi	r18, 0x33	; 51
    1da8:	3f 40       	sbci	r19, 0x0F	; 15
    1daa:	09 f4       	brne	.+2      	; 0x1dae <schip+0x320>
    1dac:	f4 c2       	rjmp	.+1512   	; 0x2396 <schip+0x908>
    1dae:	54 c3       	rjmp	.+1704   	; 0x2458 <schip+0x9ca>
    1db0:	25 37       	cpi	r18, 0x75	; 117
    1db2:	bf e0       	ldi	r27, 0x0F	; 15
    1db4:	3b 07       	cpc	r19, r27
    1db6:	09 f4       	brne	.+2      	; 0x1dba <schip+0x32c>
    1db8:	37 c3       	rjmp	.+1646   	; 0x2428 <schip+0x99a>
    1dba:	25 38       	cpi	r18, 0x85	; 133
    1dbc:	ef e0       	ldi	r30, 0x0F	; 15
    1dbe:	3e 07       	cpc	r19, r30
    1dc0:	09 f4       	brne	.+2      	; 0x1dc4 <schip+0x336>
    1dc2:	3d c3       	rjmp	.+1658   	; 0x243e <schip+0x9b0>
    1dc4:	25 36       	cpi	r18, 0x65	; 101
    1dc6:	3f 40       	sbci	r19, 0x0F	; 15
    1dc8:	09 f0       	breq	.+2      	; 0x1dcc <schip+0x33e>
    1dca:	46 c3       	rjmp	.+1676   	; 0x2458 <schip+0x9ca>
    1dcc:	21 c3       	rjmp	.+1602   	; 0x2410 <schip+0x982>
				break;
			case 0xfc: // 00FC, glisse l'affichage vers la gauche de 4 pixels
				chip_scroll_left();
				break;
			case 0xfd:// 00FD, sortie de l'interpréteur.
				return CHIP_EXIT_OK;
    1dce:	81 e0       	ldi	r24, 0x01	; 1
    1dd0:	44 c3       	rjmp	.+1672   	; 0x245a <schip+0x9cc>
				break;
		}
		// exécution de l'instruction
		switch(code){
			case 0xc0: // 00CN, glisse l'affichage N lignes vers le bas
				scroll_down(vms.b2&0xf);
    1dd2:	84 2f       	mov	r24, r20
    1dd4:	8f 70       	andi	r24, 0x0F	; 15
    1dd6:	0e 94 60 22 	call	0x44c0	; 0x44c0 <scroll_down>
				break;
    1dda:	a4 ce       	rjmp	.-696    	; 0x1b24 <schip+0x96>
			case 0xd0:
			    scroll_up(vms.b2&0xf);
    1ddc:	84 2f       	mov	r24, r20
    1dde:	8f 70       	andi	r24, 0x0F	; 15
    1de0:	0e 94 88 22 	call	0x4510	; 0x4510 <scroll_up>
				break;	
    1de4:	9f ce       	rjmp	.-706    	; 0x1b24 <schip+0x96>
			case 0xe0: // 00E0, efface l'écran
				cls();
    1de6:	0e 94 51 22 	call	0x44a2	; 0x44a2 <cls>
				break;
    1dea:	9c ce       	rjmp	.-712    	; 0x1b24 <schip+0x96>
			case 0xee: // 00EE, sortie de sous-routine
				vms.pc=vms.stack[vms.sp--];
    1dec:	d4 01       	movw	r26, r8
    1dee:	ec 91       	ld	r30, X
    1df0:	8f ef       	ldi	r24, 0xFF	; 255
    1df2:	8e 0f       	add	r24, r30
    1df4:	8c 93       	st	X, r24
    1df6:	f0 e0       	ldi	r31, 0x00	; 0
    1df8:	ee 0f       	add	r30, r30
    1dfa:	ff 1f       	adc	r31, r31
    1dfc:	e8 5d       	subi	r30, 0xD8	; 216
    1dfe:	fe 4f       	sbci	r31, 0xFE	; 254
    1e00:	87 a1       	ldd	r24, Z+39	; 0x27
    1e02:	90 a5       	ldd	r25, Z+40	; 0x28
    1e04:	e8 e2       	ldi	r30, 0x28	; 40
    1e06:	f1 e0       	ldi	r31, 0x01	; 1
    1e08:	91 83       	std	Z+1, r25	; 0x01
    1e0a:	80 83       	st	Z, r24
				break;
    1e0c:	8b ce       	rjmp	.-746    	; 0x1b24 <schip+0x96>
			case 0xfb: // 00FB, glisse l'affichage vers la droite de 4 pixels
				chip_scroll_right();
    1e0e:	0e 94 bb 22 	call	0x4576	; 0x4576 <chip_scroll_right>
				break;
    1e12:	88 ce       	rjmp	.-752    	; 0x1b24 <schip+0x96>
			case 0xfc: // 00FC, glisse l'affichage vers la gauche de 4 pixels
				chip_scroll_left();
    1e14:	0e 94 e5 22 	call	0x45ca	; 0x45ca <chip_scroll_left>
				break;
    1e18:	85 ce       	rjmp	.-758    	; 0x1b24 <schip+0x96>
			case 0xfe: //00FE,  
				break; // ignore ce code
			case 0xff:  //00FF, 
				break; // ignore ce code
			case 0x100: // 1NNN saut vers l'adresse 2*NNN
				vms.pc=caddr(vms.b1,vms.b2);
    1e1a:	e0 2f       	mov	r30, r16
    1e1c:	f0 e0       	ldi	r31, 0x00	; 0
    1e1e:	3e 2f       	mov	r19, r30
    1e20:	22 27       	eor	r18, r18
    1e22:	c9 01       	movw	r24, r18
    1e24:	84 0f       	add	r24, r20
    1e26:	91 1d       	adc	r25, r1
    1e28:	88 0f       	add	r24, r24
    1e2a:	99 1f       	adc	r25, r25
    1e2c:	a8 e2       	ldi	r26, 0x28	; 40
    1e2e:	b1 e0       	ldi	r27, 0x01	; 1
    1e30:	8d 93       	st	X+, r24
    1e32:	9c 93       	st	X, r25
				break;
    1e34:	77 ce       	rjmp	.-786    	; 0x1b24 <schip+0x96>
			case 0x200: // 2NNN  appelle la sous-routine à l'adresse 2*NNN
				vms.stack[++vms.sp]=vms.pc;
    1e36:	f4 01       	movw	r30, r8
    1e38:	80 81       	ld	r24, Z
    1e3a:	8f 5f       	subi	r24, 0xFF	; 255
    1e3c:	80 83       	st	Z, r24
    1e3e:	90 e0       	ldi	r25, 0x00	; 0
    1e40:	88 0f       	add	r24, r24
    1e42:	99 1f       	adc	r25, r25
    1e44:	fc 01       	movw	r30, r24
    1e46:	e8 5d       	subi	r30, 0xD8	; 216
    1e48:	fe 4f       	sbci	r31, 0xFE	; 254
    1e4a:	70 a7       	std	Z+40, r23	; 0x28
    1e4c:	67 a3       	std	Z+39, r22	; 0x27
				vms.pc=caddr(vms.b1,vms.b2);
    1e4e:	e0 2f       	mov	r30, r16
    1e50:	f0 e0       	ldi	r31, 0x00	; 0
    1e52:	3e 2f       	mov	r19, r30
    1e54:	22 27       	eor	r18, r18
    1e56:	c9 01       	movw	r24, r18
    1e58:	84 0f       	add	r24, r20
    1e5a:	91 1d       	adc	r25, r1
    1e5c:	88 0f       	add	r24, r24
    1e5e:	99 1f       	adc	r25, r25
    1e60:	a8 e2       	ldi	r26, 0x28	; 40
    1e62:	b1 e0       	ldi	r27, 0x01	; 1
    1e64:	8d 93       	st	X+, r24
    1e66:	9c 93       	st	X, r25
				break;
    1e68:	5d ce       	rjmp	.-838    	; 0x1b24 <schip+0x96>
			case 0x300: // 3XKK   saute l'instruction suivante si VX == KK
				if (vms.var[x]==vms.b2) vms.pc+=2;
    1e6a:	a0 2f       	mov	r26, r16
    1e6c:	b0 e0       	ldi	r27, 0x00	; 0
    1e6e:	a8 5d       	subi	r26, 0xD8	; 216
    1e70:	be 4f       	sbci	r27, 0xFE	; 254
    1e72:	15 96       	adiw	r26, 0x05	; 5
    1e74:	8c 91       	ld	r24, X
    1e76:	48 13       	cpse	r20, r24
    1e78:	55 ce       	rjmp	.-854    	; 0x1b24 <schip+0x96>
    1e7a:	34 96       	adiw	r30, 0x04	; 4
    1e7c:	a8 e2       	ldi	r26, 0x28	; 40
    1e7e:	b1 e0       	ldi	r27, 0x01	; 1
    1e80:	ed 93       	st	X+, r30
    1e82:	fc 93       	st	X, r31
    1e84:	4f ce       	rjmp	.-866    	; 0x1b24 <schip+0x96>
				break;
			case 0x400: // 4XKK  Saute l'instruction suivante si VX <> KK
				if (vms.var[x]!=vms.b2)vms.pc+=2;
    1e86:	a0 2f       	mov	r26, r16
    1e88:	b0 e0       	ldi	r27, 0x00	; 0
    1e8a:	a8 5d       	subi	r26, 0xD8	; 216
    1e8c:	be 4f       	sbci	r27, 0xFE	; 254
    1e8e:	15 96       	adiw	r26, 0x05	; 5
    1e90:	8c 91       	ld	r24, X
    1e92:	48 17       	cp	r20, r24
    1e94:	09 f4       	brne	.+2      	; 0x1e98 <schip+0x40a>
    1e96:	46 ce       	rjmp	.-884    	; 0x1b24 <schip+0x96>
    1e98:	34 96       	adiw	r30, 0x04	; 4
    1e9a:	a8 e2       	ldi	r26, 0x28	; 40
    1e9c:	b1 e0       	ldi	r27, 0x01	; 1
    1e9e:	ed 93       	st	X+, r30
    1ea0:	fc 93       	st	X, r31
    1ea2:	40 ce       	rjmp	.-896    	; 0x1b24 <schip+0x96>
				break;
			case 0x500: // 5XY0     Saute l'instruction suivante si VX == VY
				if (vms.var[x]==vms.var[y]) vms.pc+=2;
    1ea4:	60 2f       	mov	r22, r16
    1ea6:	70 e0       	ldi	r23, 0x00	; 0
    1ea8:	68 5d       	subi	r22, 0xD8	; 216
    1eaa:	7e 4f       	sbci	r23, 0xFE	; 254
    1eac:	a1 2f       	mov	r26, r17
    1eae:	b0 e0       	ldi	r27, 0x00	; 0
    1eb0:	9d 01       	movw	r18, r26
    1eb2:	28 5d       	subi	r18, 0xD8	; 216
    1eb4:	3e 4f       	sbci	r19, 0xFE	; 254
    1eb6:	db 01       	movw	r26, r22
    1eb8:	15 96       	adiw	r26, 0x05	; 5
    1eba:	9c 91       	ld	r25, X
    1ebc:	d9 01       	movw	r26, r18
    1ebe:	15 96       	adiw	r26, 0x05	; 5
    1ec0:	8c 91       	ld	r24, X
    1ec2:	98 13       	cpse	r25, r24
    1ec4:	2f ce       	rjmp	.-930    	; 0x1b24 <schip+0x96>
    1ec6:	34 96       	adiw	r30, 0x04	; 4
    1ec8:	a8 e2       	ldi	r26, 0x28	; 40
    1eca:	b1 e0       	ldi	r27, 0x01	; 1
    1ecc:	ed 93       	st	X+, r30
    1ece:	fc 93       	st	X, r31
    1ed0:	29 ce       	rjmp	.-942    	; 0x1b24 <schip+0x96>
				break;
			case 0x600: // 6XKK     VX := KK
				vms.var[x]=vms.b2;
    1ed2:	e0 2f       	mov	r30, r16
    1ed4:	f0 e0       	ldi	r31, 0x00	; 0
    1ed6:	e8 5d       	subi	r30, 0xD8	; 216
    1ed8:	fe 4f       	sbci	r31, 0xFE	; 254
    1eda:	45 83       	std	Z+5, r20	; 0x05
				break;
    1edc:	23 ce       	rjmp	.-954    	; 0x1b24 <schip+0x96>
			case 0x700: // 7XKK     VX := VX + KK
				vms.var[x]+=vms.b2;
    1ede:	e0 2f       	mov	r30, r16
    1ee0:	f0 e0       	ldi	r31, 0x00	; 0
    1ee2:	e8 5d       	subi	r30, 0xD8	; 216
    1ee4:	fe 4f       	sbci	r31, 0xFE	; 254
    1ee6:	85 81       	ldd	r24, Z+5	; 0x05
    1ee8:	48 0f       	add	r20, r24
    1eea:	45 83       	std	Z+5, r20	; 0x05
				break;
    1eec:	1b ce       	rjmp	.-970    	; 0x1b24 <schip+0x96>
			case 0x800: // 8XY0     VX := VY
				vms.var[x]=vms.var[y];
    1eee:	a1 2f       	mov	r26, r17
    1ef0:	b0 e0       	ldi	r27, 0x00	; 0
    1ef2:	a8 5d       	subi	r26, 0xD8	; 216
    1ef4:	be 4f       	sbci	r27, 0xFE	; 254
    1ef6:	15 96       	adiw	r26, 0x05	; 5
    1ef8:	8c 91       	ld	r24, X
    1efa:	e0 2f       	mov	r30, r16
    1efc:	f0 e0       	ldi	r31, 0x00	; 0
    1efe:	e8 5d       	subi	r30, 0xD8	; 216
    1f00:	fe 4f       	sbci	r31, 0xFE	; 254
    1f02:	85 83       	std	Z+5, r24	; 0x05
				break;
    1f04:	0f ce       	rjmp	.-994    	; 0x1b24 <schip+0x96>
			case 0x801: // 8XY1     VX := VX OR VY
				vms.var[x]|=vms.var[y];
    1f06:	e0 2f       	mov	r30, r16
    1f08:	f0 e0       	ldi	r31, 0x00	; 0
    1f0a:	e8 5d       	subi	r30, 0xD8	; 216
    1f0c:	fe 4f       	sbci	r31, 0xFE	; 254
    1f0e:	a1 2f       	mov	r26, r17
    1f10:	b0 e0       	ldi	r27, 0x00	; 0
    1f12:	a8 5d       	subi	r26, 0xD8	; 216
    1f14:	be 4f       	sbci	r27, 0xFE	; 254
    1f16:	15 96       	adiw	r26, 0x05	; 5
    1f18:	9c 91       	ld	r25, X
    1f1a:	85 81       	ldd	r24, Z+5	; 0x05
    1f1c:	89 2b       	or	r24, r25
    1f1e:	85 83       	std	Z+5, r24	; 0x05
				break;
    1f20:	01 ce       	rjmp	.-1022   	; 0x1b24 <schip+0x96>
			case 0x802: // 8XY2     VX := VX AND VY
				vms.var[x]&=vms.var[y];
    1f22:	e0 2f       	mov	r30, r16
    1f24:	f0 e0       	ldi	r31, 0x00	; 0
    1f26:	e8 5d       	subi	r30, 0xD8	; 216
    1f28:	fe 4f       	sbci	r31, 0xFE	; 254
    1f2a:	a1 2f       	mov	r26, r17
    1f2c:	b0 e0       	ldi	r27, 0x00	; 0
    1f2e:	a8 5d       	subi	r26, 0xD8	; 216
    1f30:	be 4f       	sbci	r27, 0xFE	; 254
    1f32:	15 96       	adiw	r26, 0x05	; 5
    1f34:	9c 91       	ld	r25, X
    1f36:	85 81       	ldd	r24, Z+5	; 0x05
    1f38:	89 23       	and	r24, r25
    1f3a:	85 83       	std	Z+5, r24	; 0x05
				break;
    1f3c:	f3 cd       	rjmp	.-1050   	; 0x1b24 <schip+0x96>
			case 0x803: // 8XY3     VX := VX XOR VY
				vms.var[x]^=vms.var[y];
    1f3e:	e0 2f       	mov	r30, r16
    1f40:	f0 e0       	ldi	r31, 0x00	; 0
    1f42:	e8 5d       	subi	r30, 0xD8	; 216
    1f44:	fe 4f       	sbci	r31, 0xFE	; 254
    1f46:	a1 2f       	mov	r26, r17
    1f48:	b0 e0       	ldi	r27, 0x00	; 0
    1f4a:	a8 5d       	subi	r26, 0xD8	; 216
    1f4c:	be 4f       	sbci	r27, 0xFE	; 254
    1f4e:	15 96       	adiw	r26, 0x05	; 5
    1f50:	9c 91       	ld	r25, X
    1f52:	85 81       	ldd	r24, Z+5	; 0x05
    1f54:	89 27       	eor	r24, r25
    1f56:	85 83       	std	Z+5, r24	; 0x05
				break;
    1f58:	e5 cd       	rjmp	.-1078   	; 0x1b24 <schip+0x96>
			case 0x804: // 8XY4     VX := VX + VY, VF := carry
				n=(vms.var[x]+vms.var[y])>255;
    1f5a:	e0 2f       	mov	r30, r16
    1f5c:	f0 e0       	ldi	r31, 0x00	; 0
    1f5e:	e8 5d       	subi	r30, 0xD8	; 216
    1f60:	fe 4f       	sbci	r31, 0xFE	; 254
    1f62:	25 81       	ldd	r18, Z+5	; 0x05
    1f64:	a1 2f       	mov	r26, r17
    1f66:	b0 e0       	ldi	r27, 0x00	; 0
    1f68:	a8 5d       	subi	r26, 0xD8	; 216
    1f6a:	be 4f       	sbci	r27, 0xFE	; 254
    1f6c:	15 96       	adiw	r26, 0x05	; 5
    1f6e:	8c 91       	ld	r24, X
				vms.var[x]+=vms.var[y];
    1f70:	98 2f       	mov	r25, r24
    1f72:	92 0f       	add	r25, r18
    1f74:	95 83       	std	Z+5, r25	; 0x05
				break;
			case 0x803: // 8XY3     VX := VX XOR VY
				vms.var[x]^=vms.var[y];
				break;
			case 0x804: // 8XY4     VX := VX + VY, VF := carry
				n=(vms.var[x]+vms.var[y])>255;
    1f76:	90 e0       	ldi	r25, 0x00	; 0
    1f78:	82 0f       	add	r24, r18
    1f7a:	91 1d       	adc	r25, r1
    1f7c:	21 e0       	ldi	r18, 0x01	; 1
    1f7e:	8f 3f       	cpi	r24, 0xFF	; 255
    1f80:	91 05       	cpc	r25, r1
    1f82:	09 f0       	breq	.+2      	; 0x1f86 <schip+0x4f8>
    1f84:	0c f4       	brge	.+2      	; 0x1f88 <schip+0x4fa>
    1f86:	20 e0       	ldi	r18, 0x00	; 0
				vms.var[x]+=vms.var[y];
				vms.var[15]=n;
    1f88:	f2 01       	movw	r30, r4
    1f8a:	20 83       	st	Z, r18
				break;
    1f8c:	cb cd       	rjmp	.-1130   	; 0x1b24 <schip+0x96>
			case 0x805: // 8XY5     VX := VX - VY, VF := not borrow
				n=vms.var[x]>=vms.var[y];
    1f8e:	e0 2f       	mov	r30, r16
    1f90:	f0 e0       	ldi	r31, 0x00	; 0
    1f92:	e8 5d       	subi	r30, 0xD8	; 216
    1f94:	fe 4f       	sbci	r31, 0xFE	; 254
    1f96:	95 81       	ldd	r25, Z+5	; 0x05
    1f98:	a1 2f       	mov	r26, r17
    1f9a:	b0 e0       	ldi	r27, 0x00	; 0
    1f9c:	a8 5d       	subi	r26, 0xD8	; 216
    1f9e:	be 4f       	sbci	r27, 0xFE	; 254
    1fa0:	15 96       	adiw	r26, 0x05	; 5
    1fa2:	8c 91       	ld	r24, X
				vms.var[x]-=vms.var[y];
    1fa4:	29 2f       	mov	r18, r25
    1fa6:	28 1b       	sub	r18, r24
    1fa8:	25 83       	std	Z+5, r18	; 0x05
				n=(vms.var[x]+vms.var[y])>255;
				vms.var[x]+=vms.var[y];
				vms.var[15]=n;
				break;
			case 0x805: // 8XY5     VX := VX - VY, VF := not borrow
				n=vms.var[x]>=vms.var[y];
    1faa:	21 e0       	ldi	r18, 0x01	; 1
    1fac:	98 17       	cp	r25, r24
    1fae:	08 f4       	brcc	.+2      	; 0x1fb2 <schip+0x524>
    1fb0:	20 e0       	ldi	r18, 0x00	; 0
				vms.var[x]-=vms.var[y];
				vms.var[15]=n;
    1fb2:	d2 01       	movw	r26, r4
    1fb4:	2c 93       	st	X, r18
				break;
    1fb6:	b6 cd       	rjmp	.-1172   	; 0x1b24 <schip+0x96>
			case 0x806: // 8XY6     VX := VX shr 1, VF := carry
				n=(vms.var[x]&1u);
    1fb8:	e0 2f       	mov	r30, r16
    1fba:	f0 e0       	ldi	r31, 0x00	; 0
    1fbc:	e8 5d       	subi	r30, 0xD8	; 216
    1fbe:	fe 4f       	sbci	r31, 0xFE	; 254
    1fc0:	85 81       	ldd	r24, Z+5	; 0x05
				vms.var[x]>>=1;
    1fc2:	98 2f       	mov	r25, r24
    1fc4:	96 95       	lsr	r25
    1fc6:	95 83       	std	Z+5, r25	; 0x05
				n=vms.var[x]>=vms.var[y];
				vms.var[x]-=vms.var[y];
				vms.var[15]=n;
				break;
			case 0x806: // 8XY6     VX := VX shr 1, VF := carry
				n=(vms.var[x]&1u);
    1fc8:	81 70       	andi	r24, 0x01	; 1
				vms.var[x]>>=1;
				vms.var[15]=n;
    1fca:	f2 01       	movw	r30, r4
    1fcc:	80 83       	st	Z, r24
				break;
    1fce:	aa cd       	rjmp	.-1196   	; 0x1b24 <schip+0x96>
			case 0x807: // 8XY7     VX := VY - VX, VF := not borrow
				n=vms.var[y]>=vms.var[x];
    1fd0:	a1 2f       	mov	r26, r17
    1fd2:	b0 e0       	ldi	r27, 0x00	; 0
    1fd4:	a8 5d       	subi	r26, 0xD8	; 216
    1fd6:	be 4f       	sbci	r27, 0xFE	; 254
    1fd8:	15 96       	adiw	r26, 0x05	; 5
    1fda:	9c 91       	ld	r25, X
    1fdc:	e0 2f       	mov	r30, r16
    1fde:	f0 e0       	ldi	r31, 0x00	; 0
    1fe0:	e8 5d       	subi	r30, 0xD8	; 216
    1fe2:	fe 4f       	sbci	r31, 0xFE	; 254
    1fe4:	85 81       	ldd	r24, Z+5	; 0x05
				vms.var[x]=vms.var[y]-vms.var[x];
    1fe6:	29 2f       	mov	r18, r25
    1fe8:	28 1b       	sub	r18, r24
    1fea:	25 83       	std	Z+5, r18	; 0x05
				n=(vms.var[x]&1u);
				vms.var[x]>>=1;
				vms.var[15]=n;
				break;
			case 0x807: // 8XY7     VX := VY - VX, VF := not borrow
				n=vms.var[y]>=vms.var[x];
    1fec:	21 e0       	ldi	r18, 0x01	; 1
    1fee:	98 17       	cp	r25, r24
    1ff0:	08 f4       	brcc	.+2      	; 0x1ff4 <schip+0x566>
    1ff2:	20 e0       	ldi	r18, 0x00	; 0
				vms.var[x]=vms.var[y]-vms.var[x];
				vms.var[15]=n;
    1ff4:	d2 01       	movw	r26, r4
    1ff6:	2c 93       	st	X, r18
				break;
    1ff8:	95 cd       	rjmp	.-1238   	; 0x1b24 <schip+0x96>
			case 0x80e: // 8XYE     VX := VX shl 1, VF := carry
				n=(vms.var[x]&128)>>7;
    1ffa:	e0 2f       	mov	r30, r16
    1ffc:	f0 e0       	ldi	r31, 0x00	; 0
    1ffe:	e8 5d       	subi	r30, 0xD8	; 216
    2000:	fe 4f       	sbci	r31, 0xFE	; 254
    2002:	85 81       	ldd	r24, Z+5	; 0x05
				vms.var[x]<<=1;
    2004:	98 2f       	mov	r25, r24
    2006:	99 0f       	add	r25, r25
    2008:	95 83       	std	Z+5, r25	; 0x05
				n=vms.var[y]>=vms.var[x];
				vms.var[x]=vms.var[y]-vms.var[x];
				vms.var[15]=n;
				break;
			case 0x80e: // 8XYE     VX := VX shl 1, VF := carry
				n=(vms.var[x]&128)>>7;
    200a:	88 1f       	adc	r24, r24
    200c:	88 27       	eor	r24, r24
    200e:	88 1f       	adc	r24, r24
				vms.var[x]<<=1;
				vms.var[15]=n;
    2010:	f2 01       	movw	r30, r4
    2012:	80 83       	st	Z, r24
				break;
    2014:	87 cd       	rjmp	.-1266   	; 0x1b24 <schip+0x96>
			case 0x900: // 9XY0     Saute l'instruction suivante si VX <> VY
				if (vms.var[x]!=vms.var[y]) vms.pc+=2;
    2016:	60 2f       	mov	r22, r16
    2018:	70 e0       	ldi	r23, 0x00	; 0
    201a:	68 5d       	subi	r22, 0xD8	; 216
    201c:	7e 4f       	sbci	r23, 0xFE	; 254
    201e:	a1 2f       	mov	r26, r17
    2020:	b0 e0       	ldi	r27, 0x00	; 0
    2022:	9d 01       	movw	r18, r26
    2024:	28 5d       	subi	r18, 0xD8	; 216
    2026:	3e 4f       	sbci	r19, 0xFE	; 254
    2028:	db 01       	movw	r26, r22
    202a:	15 96       	adiw	r26, 0x05	; 5
    202c:	9c 91       	ld	r25, X
    202e:	d9 01       	movw	r26, r18
    2030:	15 96       	adiw	r26, 0x05	; 5
    2032:	8c 91       	ld	r24, X
    2034:	98 17       	cp	r25, r24
    2036:	09 f4       	brne	.+2      	; 0x203a <schip+0x5ac>
    2038:	75 cd       	rjmp	.-1302   	; 0x1b24 <schip+0x96>
    203a:	34 96       	adiw	r30, 0x04	; 4
    203c:	a8 e2       	ldi	r26, 0x28	; 40
    203e:	b1 e0       	ldi	r27, 0x01	; 1
    2040:	ed 93       	st	X+, r30
    2042:	fc 93       	st	X, r31
    2044:	6f cd       	rjmp	.-1314   	; 0x1b24 <schip+0x96>
				break;
			case 0x901: // 9XY1  TONE VX, VY  joue une note de la gamme tempérée.
				key_tone(vms.var[x],vms.var[y],false);
    2046:	a1 2f       	mov	r26, r17
    2048:	b0 e0       	ldi	r27, 0x00	; 0
    204a:	a8 5d       	subi	r26, 0xD8	; 216
    204c:	be 4f       	sbci	r27, 0xFE	; 254
    204e:	e0 2f       	mov	r30, r16
    2050:	f0 e0       	ldi	r31, 0x00	; 0
    2052:	e8 5d       	subi	r30, 0xD8	; 216
    2054:	fe 4f       	sbci	r31, 0xFE	; 254
    2056:	40 e0       	ldi	r20, 0x00	; 0
    2058:	15 96       	adiw	r26, 0x05	; 5
    205a:	6c 91       	ld	r22, X
    205c:	85 81       	ldd	r24, Z+5	; 0x05
    205e:	0e 94 c2 1f 	call	0x3f84	; 0x3f84 <key_tone>
				break;
    2062:	60 cd       	rjmp	.-1344   	; 0x1b24 <schip+0x96>
			case 0x902: // 9XY2  PRT VX, VY  imprime le texte pointé par I. I est incrémenté.
				select_font(FONT_ASCII);
    2064:	82 e0       	ldi	r24, 0x02	; 2
    2066:	0e 94 0e 1e 	call	0x3c1c	; 0x3c1c <select_font>
				set_cursor(vms.var[x],vms.var[y]);
    206a:	a1 2f       	mov	r26, r17
    206c:	b0 e0       	ldi	r27, 0x00	; 0
    206e:	a8 5d       	subi	r26, 0xD8	; 216
    2070:	be 4f       	sbci	r27, 0xFE	; 254
    2072:	e0 2f       	mov	r30, r16
    2074:	f0 e0       	ldi	r31, 0x00	; 0
    2076:	e8 5d       	subi	r30, 0xD8	; 216
    2078:	fe 4f       	sbci	r31, 0xFE	; 254
    207a:	15 96       	adiw	r26, 0x05	; 5
    207c:	6c 91       	ld	r22, X
    207e:	85 81       	ldd	r24, Z+5	; 0x05
    2080:	0e 94 bf 1e 	call	0x3d7e	; 0x3d7e <set_cursor>
				n=sram_read_byte(vms.ix++);
    2084:	f5 01       	movw	r30, r10
    2086:	80 81       	ld	r24, Z
    2088:	91 81       	ldd	r25, Z+1	; 0x01
    208a:	9c 01       	movw	r18, r24
    208c:	2f 5f       	subi	r18, 0xFF	; 255
    208e:	3f 4f       	sbci	r19, 0xFF	; 255
    2090:	31 83       	std	Z+1, r19	; 0x01
    2092:	20 83       	st	Z, r18
    2094:	0e 94 6d 1d 	call	0x3ada	; 0x3ada <sram_read_byte>
				while (n){
    2098:	88 23       	and	r24, r24
    209a:	09 f4       	brne	.+2      	; 0x209e <schip+0x610>
    209c:	43 cd       	rjmp	.-1402   	; 0x1b24 <schip+0x96>
					put_char(n);
    209e:	0e 94 4b 1e 	call	0x3c96	; 0x3c96 <put_char>
					n=sram_read_byte(vms.ix++);
    20a2:	d5 01       	movw	r26, r10
    20a4:	8d 91       	ld	r24, X+
    20a6:	9c 91       	ld	r25, X
    20a8:	11 97       	sbiw	r26, 0x01	; 1
    20aa:	9c 01       	movw	r18, r24
    20ac:	2f 5f       	subi	r18, 0xFF	; 255
    20ae:	3f 4f       	sbci	r19, 0xFF	; 255
    20b0:	2d 93       	st	X+, r18
    20b2:	3c 93       	st	X, r19
    20b4:	0e 94 6d 1d 	call	0x3ada	; 0x3ada <sram_read_byte>
				break;
			case 0x902: // 9XY2  PRT VX, VY  imprime le texte pointé par I. I est incrémenté.
				select_font(FONT_ASCII);
				set_cursor(vms.var[x],vms.var[y]);
				n=sram_read_byte(vms.ix++);
				while (n){
    20b8:	81 11       	cpse	r24, r1
    20ba:	f1 cf       	rjmp	.-30     	; 0x209e <schip+0x610>
    20bc:	33 cd       	rjmp	.-1434   	; 0x1b24 <schip+0x96>
					put_char(n);
					n=sram_read_byte(vms.ix++);
				}
				break;
			case 0x903: // 9XY3 PIXI VX, VY  inverse le pixel aux coordonnées indiquées par VX,VY
				plot(vms.var[x],vms.var[y],INVERT);
    20be:	a1 2f       	mov	r26, r17
    20c0:	b0 e0       	ldi	r27, 0x00	; 0
    20c2:	a8 5d       	subi	r26, 0xD8	; 216
    20c4:	be 4f       	sbci	r27, 0xFE	; 254
    20c6:	e0 2f       	mov	r30, r16
    20c8:	f0 e0       	ldi	r31, 0x00	; 0
    20ca:	e8 5d       	subi	r30, 0xD8	; 216
    20cc:	fe 4f       	sbci	r31, 0xFE	; 254
    20ce:	42 e0       	ldi	r20, 0x02	; 2
    20d0:	15 96       	adiw	r26, 0x05	; 5
    20d2:	6c 91       	ld	r22, X
    20d4:	85 81       	ldd	r24, Z+5	; 0x05
    20d6:	0e 94 02 20 	call	0x4004	; 0x4004 <plot>
				break;
    20da:	24 cd       	rjmp	.-1464   	; 0x1b24 <schip+0x96>
			case 0x904: // 9NN4  NOISE NN, bruit blanc
			    noise((x<<4)+y);
    20dc:	81 2f       	mov	r24, r17
    20de:	b0 e1       	ldi	r27, 0x10	; 16
    20e0:	0b 9f       	mul	r16, r27
    20e2:	80 0d       	add	r24, r0
    20e4:	11 24       	eor	r1, r1
    20e6:	0e 94 d5 1f 	call	0x3faa	; 0x3faa <noise>
			    break;	
    20ea:	1c cd       	rjmp	.-1480   	; 0x1b24 <schip+0x96>
			case 0x905: // 9XY5 TONE VX, VY, WAIT  joue une note de la gamme tempérée attend la fin avant de poursuivre
				key_tone(vms.var[x],vms.var[y],true);
    20ec:	a1 2f       	mov	r26, r17
    20ee:	b0 e0       	ldi	r27, 0x00	; 0
    20f0:	a8 5d       	subi	r26, 0xD8	; 216
    20f2:	be 4f       	sbci	r27, 0xFE	; 254
    20f4:	e0 2f       	mov	r30, r16
    20f6:	f0 e0       	ldi	r31, 0x00	; 0
    20f8:	e8 5d       	subi	r30, 0xD8	; 216
    20fa:	fe 4f       	sbci	r31, 0xFE	; 254
    20fc:	41 e0       	ldi	r20, 0x01	; 1
    20fe:	15 96       	adiw	r26, 0x05	; 5
    2100:	6c 91       	ld	r22, X
    2102:	85 81       	ldd	r24, Z+5	; 0x05
    2104:	0e 94 c2 1f 	call	0x3f84	; 0x3f84 <key_tone>
				break;
    2108:	0d cd       	rjmp	.-1510   	; 0x1b24 <schip+0x96>
			case 0x906: // 9X06, PUSH VX
			    vms.stack[++vms.sp]=vms.var[x];
    210a:	f4 01       	movw	r30, r8
    210c:	a0 81       	ld	r26, Z
    210e:	af 5f       	subi	r26, 0xFF	; 255
    2110:	a0 83       	st	Z, r26
    2112:	b0 e0       	ldi	r27, 0x00	; 0
    2114:	aa 0f       	add	r26, r26
    2116:	bb 1f       	adc	r27, r27
    2118:	a8 5d       	subi	r26, 0xD8	; 216
    211a:	be 4f       	sbci	r27, 0xFE	; 254
    211c:	e0 2f       	mov	r30, r16
    211e:	f0 e0       	ldi	r31, 0x00	; 0
    2120:	e8 5d       	subi	r30, 0xD8	; 216
    2122:	fe 4f       	sbci	r31, 0xFE	; 254
    2124:	85 81       	ldd	r24, Z+5	; 0x05
    2126:	90 e0       	ldi	r25, 0x00	; 0
    2128:	98 96       	adiw	r26, 0x28	; 40
    212a:	9c 93       	st	X, r25
    212c:	8e 93       	st	-X, r24
    212e:	97 97       	sbiw	r26, 0x27	; 39
				break;	
    2130:	f9 cc       	rjmp	.-1550   	; 0x1b24 <schip+0x96>
			case 0x907: // 9X07, POP VX
			    vms.var[x]=vms.stack[vms.sp--];
    2132:	f4 01       	movw	r30, r8
    2134:	a0 81       	ld	r26, Z
    2136:	8f ef       	ldi	r24, 0xFF	; 255
    2138:	8a 0f       	add	r24, r26
    213a:	80 83       	st	Z, r24
    213c:	e0 2f       	mov	r30, r16
    213e:	f0 e0       	ldi	r31, 0x00	; 0
    2140:	e8 5d       	subi	r30, 0xD8	; 216
    2142:	fe 4f       	sbci	r31, 0xFE	; 254
    2144:	b0 e0       	ldi	r27, 0x00	; 0
    2146:	aa 0f       	add	r26, r26
    2148:	bb 1f       	adc	r27, r27
    214a:	a8 5d       	subi	r26, 0xD8	; 216
    214c:	be 4f       	sbci	r27, 0xFE	; 254
    214e:	97 96       	adiw	r26, 0x27	; 39
    2150:	8c 91       	ld	r24, X
    2152:	85 83       	std	Z+5, r24	; 0x05
				break;	
    2154:	e7 cc       	rjmp	.-1586   	; 0x1b24 <schip+0x96>
			case 0x908: // 9X08, SNWT,  VX=HRES
				vms.var[x]=HRES;
    2156:	e0 2f       	mov	r30, r16
    2158:	f0 e0       	ldi	r31, 0x00	; 0
    215a:	e8 5d       	subi	r30, 0xD8	; 216
    215c:	fe 4f       	sbci	r31, 0xFE	; 254
    215e:	20 e8       	ldi	r18, 0x80	; 128
    2160:	25 83       	std	Z+5, r18	; 0x05
				break;
    2162:	e0 cc       	rjmp	.-1600   	; 0x1b24 <schip+0x96>
			case 0x909: // 9X09, SNHT, VX=VRES
				vms.var[x]=VRES;
    2164:	e0 2f       	mov	r30, r16
    2166:	f0 e0       	ldi	r31, 0x00	; 0
    2168:	e8 5d       	subi	r30, 0xD8	; 216
    216a:	fe 4f       	sbci	r31, 0xFE	; 254
    216c:	80 e5       	ldi	r24, 0x50	; 80
    216e:	85 83       	std	Z+5, r24	; 0x05
				break;
    2170:	d9 cc       	rjmp	.-1614   	; 0x1b24 <schip+0x96>
			case 0xa00: // ANNN     I := 2*NNN
				vms.ix=caddr(vms.b1,vms.b2);  // adressse de 13 bits toujours paire
    2172:	e0 2f       	mov	r30, r16
    2174:	f0 e0       	ldi	r31, 0x00	; 0
    2176:	3e 2f       	mov	r19, r30
    2178:	22 27       	eor	r18, r18
    217a:	c9 01       	movw	r24, r18
    217c:	84 0f       	add	r24, r20
    217e:	91 1d       	adc	r25, r1
    2180:	88 0f       	add	r24, r24
    2182:	99 1f       	adc	r25, r25
    2184:	d5 01       	movw	r26, r10
    2186:	8d 93       	st	X+, r24
    2188:	9c 93       	st	X, r25
				vms.src_mem=RAM_MEM;
    218a:	f3 01       	movw	r30, r6
    218c:	80 81       	ld	r24, Z
    218e:	81 60       	ori	r24, 0x01	; 1
    2190:	80 83       	st	Z, r24
				break;
    2192:	c8 cc       	rjmp	.-1648   	; 0x1b24 <schip+0x96>
			case 0xb00: // BNNN     saut à 2*(NNN+V0)
				vms.pc=(vms.var[0]<<1)+caddr(vms.b1,vms.b2);
    2194:	50 91 2d 01 	lds	r21, 0x012D
    2198:	e0 2f       	mov	r30, r16
    219a:	f0 e0       	ldi	r31, 0x00	; 0
    219c:	3e 2f       	mov	r19, r30
    219e:	22 27       	eor	r18, r18
    21a0:	c9 01       	movw	r24, r18
    21a2:	84 0f       	add	r24, r20
    21a4:	91 1d       	adc	r25, r1
    21a6:	85 0f       	add	r24, r21
    21a8:	91 1d       	adc	r25, r1
    21aa:	88 0f       	add	r24, r24
    21ac:	99 1f       	adc	r25, r25
    21ae:	a8 e2       	ldi	r26, 0x28	; 40
    21b0:	b1 e0       	ldi	r27, 0x01	; 1
    21b2:	8d 93       	st	X+, r24
    21b4:	9c 93       	st	X, r25
				break;
    21b6:	b6 cc       	rjmp	.-1684   	; 0x1b24 <schip+0x96>
			case 0xc00: //CXKK VX=random_number&KK
				vms.var[x]=rand()&vms.b2;
    21b8:	0e 94 91 24 	call	0x4922	; 0x4922 <rand>
    21bc:	e0 2f       	mov	r30, r16
    21be:	f0 e0       	ldi	r31, 0x00	; 0
    21c0:	e8 5d       	subi	r30, 0xD8	; 216
    21c2:	fe 4f       	sbci	r31, 0xFE	; 254
    21c4:	d6 01       	movw	r26, r12
    21c6:	9c 91       	ld	r25, X
    21c8:	89 23       	and	r24, r25
    21ca:	85 83       	std	Z+5, r24	; 0x05
				break;
    21cc:	ab cc       	rjmp	.-1706   	; 0x1b24 <schip+0x96>
			case 0xd00: //DXYN dessine un sprite
				n=vms.b2&0xf;
    21ce:	4f 70       	andi	r20, 0x0F	; 15
    21d0:	49 83       	std	Y+1, r20	; 0x01
				if (!n){
    21d2:	41 11       	cpse	r20, r1
    21d4:	1a c0       	rjmp	.+52     	; 0x220a <schip+0x77c>
					sram_load_block(vms.ix,32,block);
    21d6:	a1 01       	movw	r20, r2
    21d8:	60 e2       	ldi	r22, 0x20	; 32
    21da:	70 e0       	ldi	r23, 0x00	; 0
    21dc:	f5 01       	movw	r30, r10
    21de:	80 81       	ld	r24, Z
    21e0:	91 81       	ldd	r25, Z+1	; 0x01
    21e2:	0e 94 b9 1d 	call	0x3b72	; 0x3b72 <sram_load_block>
					vms.var[15]=put_big_sprite((int8_t)vms.var[x],(int8_t)vms.var[y],(const uint8_t*)block);
    21e6:	81 2f       	mov	r24, r17
    21e8:	90 e0       	ldi	r25, 0x00	; 0
    21ea:	dc 01       	movw	r26, r24
    21ec:	a8 5d       	subi	r26, 0xD8	; 216
    21ee:	be 4f       	sbci	r27, 0xFE	; 254
    21f0:	e0 2f       	mov	r30, r16
    21f2:	f0 e0       	ldi	r31, 0x00	; 0
    21f4:	e8 5d       	subi	r30, 0xD8	; 216
    21f6:	fe 4f       	sbci	r31, 0xFE	; 254
    21f8:	a1 01       	movw	r20, r2
    21fa:	15 96       	adiw	r26, 0x05	; 5
    21fc:	6c 91       	ld	r22, X
    21fe:	85 81       	ldd	r24, Z+5	; 0x05
    2200:	0e 94 2b 21 	call	0x4256	; 0x4256 <put_big_sprite>
    2204:	d2 01       	movw	r26, r4
    2206:	8c 93       	st	X, r24
    2208:	8d cc       	rjmp	.-1766   	; 0x1b24 <schip+0x96>
				}else{
					if (vms.src_mem==FLASH_MEM){
    220a:	f3 01       	movw	r30, r6
    220c:	80 81       	ld	r24, Z
    220e:	80 fd       	sbrc	r24, 0
    2210:	17 c0       	rjmp	.+46     	; 0x2240 <schip+0x7b2>
						vms.var[15]=put_sprite((int8_t)vms.var[x],(int8_t)vms.var[y],n,(const uint8_t *)vms.ix,FLASH_MEM);
    2212:	d5 01       	movw	r26, r10
    2214:	2d 91       	ld	r18, X+
    2216:	3c 91       	ld	r19, X
    2218:	a1 2f       	mov	r26, r17
    221a:	b0 e0       	ldi	r27, 0x00	; 0
    221c:	a8 5d       	subi	r26, 0xD8	; 216
    221e:	be 4f       	sbci	r27, 0xFE	; 254
    2220:	e0 2f       	mov	r30, r16
    2222:	f0 e0       	ldi	r31, 0x00	; 0
    2224:	cf 01       	movw	r24, r30
    2226:	88 5d       	subi	r24, 0xD8	; 216
    2228:	9e 4f       	sbci	r25, 0xFE	; 254
    222a:	00 e0       	ldi	r16, 0x00	; 0
    222c:	49 81       	ldd	r20, Y+1	; 0x01
    222e:	15 96       	adiw	r26, 0x05	; 5
    2230:	6c 91       	ld	r22, X
    2232:	fc 01       	movw	r30, r24
    2234:	85 81       	ldd	r24, Z+5	; 0x05
    2236:	0e 94 63 20 	call	0x40c6	; 0x40c6 <put_sprite>
    223a:	d2 01       	movw	r26, r4
    223c:	8c 93       	st	X, r24
    223e:	72 cc       	rjmp	.-1820   	; 0x1b24 <schip+0x96>
					}else{
						sram_load_block(vms.ix,n,block);
    2240:	b9 81       	ldd	r27, Y+1	; 0x01
    2242:	6b 2f       	mov	r22, r27
    2244:	70 e0       	ldi	r23, 0x00	; 0
    2246:	a1 01       	movw	r20, r2
    2248:	f5 01       	movw	r30, r10
    224a:	80 81       	ld	r24, Z
    224c:	91 81       	ldd	r25, Z+1	; 0x01
    224e:	0e 94 b9 1d 	call	0x3b72	; 0x3b72 <sram_load_block>
						vms.var[15]=put_sprite((int8_t)vms.var[x],(int8_t)vms.var[y],n,(const uint8_t*)block,RAM_MEM);
    2252:	a1 2f       	mov	r26, r17
    2254:	b0 e0       	ldi	r27, 0x00	; 0
    2256:	a8 5d       	subi	r26, 0xD8	; 216
    2258:	be 4f       	sbci	r27, 0xFE	; 254
    225a:	e0 2f       	mov	r30, r16
    225c:	f0 e0       	ldi	r31, 0x00	; 0
    225e:	cf 01       	movw	r24, r30
    2260:	88 5d       	subi	r24, 0xD8	; 216
    2262:	9e 4f       	sbci	r25, 0xFE	; 254
    2264:	01 e0       	ldi	r16, 0x01	; 1
    2266:	91 01       	movw	r18, r2
    2268:	49 81       	ldd	r20, Y+1	; 0x01
    226a:	15 96       	adiw	r26, 0x05	; 5
    226c:	6c 91       	ld	r22, X
    226e:	dc 01       	movw	r26, r24
    2270:	15 96       	adiw	r26, 0x05	; 5
    2272:	8c 91       	ld	r24, X
    2274:	0e 94 63 20 	call	0x40c6	; 0x40c6 <put_sprite>
    2278:	f2 01       	movw	r30, r4
    227a:	80 83       	st	Z, r24
    227c:	53 cc       	rjmp	.-1882   	; 0x1b24 <schip+0x96>
					}
				}
				break;
			case 0xe9e: //EX9E, SKP VX, saute l'instruction suivante si la touche VX est enfoncée
				if (joystick_btn_down(vms.var[x])) vms.pc+=2;
    227e:	e0 2f       	mov	r30, r16
    2280:	f0 e0       	ldi	r31, 0x00	; 0
    2282:	e8 5d       	subi	r30, 0xD8	; 216
    2284:	fe 4f       	sbci	r31, 0xFE	; 254
    2286:	85 81       	ldd	r24, Z+5	; 0x05
    2288:	0e 94 cf 19 	call	0x339e	; 0x339e <joystick_btn_down>
    228c:	88 23       	and	r24, r24
    228e:	09 f4       	brne	.+2      	; 0x2292 <schip+0x804>
    2290:	49 cc       	rjmp	.-1902   	; 0x1b24 <schip+0x96>
    2292:	a8 e2       	ldi	r26, 0x28	; 40
    2294:	b1 e0       	ldi	r27, 0x01	; 1
    2296:	8d 91       	ld	r24, X+
    2298:	9c 91       	ld	r25, X
    229a:	11 97       	sbiw	r26, 0x01	; 1
    229c:	02 96       	adiw	r24, 0x02	; 2
    229e:	8d 93       	st	X+, r24
    22a0:	9c 93       	st	X, r25
    22a2:	40 cc       	rjmp	.-1920   	; 0x1b24 <schip+0x96>
				break;
			case 0xea1: //EXA1, SKNP VX, saute l'instruction suivante si la touche VX n'est pas enfoncée
				if (!joystick_btn_down(vms.var[x])) vms.pc+=2;
    22a4:	e0 2f       	mov	r30, r16
    22a6:	f0 e0       	ldi	r31, 0x00	; 0
    22a8:	e8 5d       	subi	r30, 0xD8	; 216
    22aa:	fe 4f       	sbci	r31, 0xFE	; 254
    22ac:	85 81       	ldd	r24, Z+5	; 0x05
    22ae:	0e 94 cf 19 	call	0x339e	; 0x339e <joystick_btn_down>
    22b2:	81 11       	cpse	r24, r1
    22b4:	37 cc       	rjmp	.-1938   	; 0x1b24 <schip+0x96>
    22b6:	e8 e2       	ldi	r30, 0x28	; 40
    22b8:	f1 e0       	ldi	r31, 0x01	; 1
    22ba:	80 81       	ld	r24, Z
    22bc:	91 81       	ldd	r25, Z+1	; 0x01
    22be:	02 96       	adiw	r24, 0x02	; 2
    22c0:	91 83       	std	Z+1, r25	; 0x01
    22c2:	80 83       	st	Z, r24
    22c4:	2f cc       	rjmp	.-1954   	; 0x1b24 <schip+0x96>
				break;
			case 0xf07: // FX07     VX := delay_cntr
				vms.var[x]=frame_delay;
    22c6:	80 91 c5 02 	lds	r24, 0x02C5
    22ca:	e0 2f       	mov	r30, r16
    22cc:	f0 e0       	ldi	r31, 0x00	; 0
    22ce:	e8 5d       	subi	r30, 0xD8	; 216
    22d0:	fe 4f       	sbci	r31, 0xFE	; 254
    22d2:	85 83       	std	Z+5, r24	; 0x05
				break;
    22d4:	27 cc       	rjmp	.-1970   	; 0x1b24 <schip+0x96>
			case 0xf0a: // FX0A     attend qu'une touche soit enfoncée et met sa valeur dans VX
				vms.var[x]=joystick_wait_any();
    22d6:	0e 94 d5 19 	call	0x33aa	; 0x33aa <joystick_wait_any>
    22da:	e0 2f       	mov	r30, r16
    22dc:	f0 e0       	ldi	r31, 0x00	; 0
    22de:	e8 5d       	subi	r30, 0xD8	; 216
    22e0:	fe 4f       	sbci	r31, 0xFE	; 254
    22e2:	85 83       	std	Z+5, r24	; 0x05
				break;
    22e4:	1f cc       	rjmp	.-1986   	; 0x1b24 <schip+0x96>
			case 0xf15: // FX15     démarre la minuterie delay_cntr avec la valeur de délais VX
				frame_delay=vms.var[x];
    22e6:	e0 2f       	mov	r30, r16
    22e8:	f0 e0       	ldi	r31, 0x00	; 0
    22ea:	e8 5d       	subi	r30, 0xD8	; 216
    22ec:	fe 4f       	sbci	r31, 0xFE	; 254
    22ee:	85 81       	ldd	r24, Z+5	; 0x05
    22f0:	80 93 c5 02 	sts	0x02C5, r24
				break;
    22f4:	17 cc       	rjmp	.-2002   	; 0x1b24 <schip+0x96>
			case 0xf18: // FX18     fait entendre un beep d'une durée VX (multiple de 16.7 msec)
				tone(523,vms.var[x]);
    22f6:	e0 2f       	mov	r30, r16
    22f8:	f0 e0       	ldi	r31, 0x00	; 0
    22fa:	e8 5d       	subi	r30, 0xD8	; 216
    22fc:	fe 4f       	sbci	r31, 0xFE	; 254
    22fe:	65 81       	ldd	r22, Z+5	; 0x05
    2300:	8b e0       	ldi	r24, 0x0B	; 11
    2302:	92 e0       	ldi	r25, 0x02	; 2
    2304:	0e 94 b0 1f 	call	0x3f60	; 0x3f60 <tone>
				break;
    2308:	0d cc       	rjmp	.-2022   	; 0x1b24 <schip+0x96>
			case 0xf1e: // FX1E     I := I + VX
				vms.ix += vms.var[x];
    230a:	e0 2f       	mov	r30, r16
    230c:	f0 e0       	ldi	r31, 0x00	; 0
    230e:	e8 5d       	subi	r30, 0xD8	; 216
    2310:	fe 4f       	sbci	r31, 0xFE	; 254
    2312:	25 81       	ldd	r18, Z+5	; 0x05
    2314:	d5 01       	movw	r26, r10
    2316:	8d 91       	ld	r24, X+
    2318:	9c 91       	ld	r25, X
    231a:	11 97       	sbiw	r26, 0x01	; 1
    231c:	82 0f       	add	r24, r18
    231e:	91 1d       	adc	r25, r1
    2320:	8d 93       	st	X+, r24
    2322:	9c 93       	st	X, r25
				break;
    2324:	ff cb       	rjmp	.-2050   	; 0x1b24 <schip+0x96>
			case 0xf29: // FX29     fait pointé vms.ix vers le caractère VX dans la police FONT_SHEX
				vms.ix=(int16_t)font_hex_4x6+vms.var[x]*SHEX_HEIGHT;
    2326:	e0 2f       	mov	r30, r16
    2328:	f0 e0       	ldi	r31, 0x00	; 0
    232a:	e8 5d       	subi	r30, 0xD8	; 216
    232c:	fe 4f       	sbci	r31, 0xFE	; 254
    232e:	85 81       	ldd	r24, Z+5	; 0x05
    2330:	90 e0       	ldi	r25, 0x00	; 0
    2332:	9c 01       	movw	r18, r24
    2334:	22 0f       	add	r18, r18
    2336:	33 1f       	adc	r19, r19
    2338:	82 0f       	add	r24, r18
    233a:	93 1f       	adc	r25, r19
    233c:	88 0f       	add	r24, r24
    233e:	99 1f       	adc	r25, r25
    2340:	8b 5a       	subi	r24, 0xAB	; 171
    2342:	9f 4e       	sbci	r25, 0xEF	; 239
    2344:	f5 01       	movw	r30, r10
    2346:	91 83       	std	Z+1, r25	; 0x01
    2348:	80 83       	st	Z, r24
				select_font(FONT_SHEX);
    234a:	80 e0       	ldi	r24, 0x00	; 0
    234c:	0e 94 0e 1e 	call	0x3c1c	; 0x3c1c <select_font>
				vms.src_mem=FLASH_MEM;
    2350:	d3 01       	movw	r26, r6
    2352:	8c 91       	ld	r24, X
    2354:	8e 7f       	andi	r24, 0xFE	; 254
    2356:	8c 93       	st	X, r24
				break;
    2358:	e5 cb       	rjmp	.-2102   	; 0x1b24 <schip+0x96>
			case 0xf30: // FX30 (schip)    fait pointé vms.ix vers le caractère dans  VX (0..9) pour la police FONT_LHEX
				vms.ix=(int16_t)font_hex_8x10+vms.var[x]*LHEX_HEIGHT;
    235a:	e0 2f       	mov	r30, r16
    235c:	f0 e0       	ldi	r31, 0x00	; 0
    235e:	e8 5d       	subi	r30, 0xD8	; 216
    2360:	fe 4f       	sbci	r31, 0xFE	; 254
    2362:	85 81       	ldd	r24, Z+5	; 0x05
    2364:	90 e0       	ldi	r25, 0x00	; 0
    2366:	9c 01       	movw	r18, r24
    2368:	22 0f       	add	r18, r18
    236a:	33 1f       	adc	r19, r19
    236c:	88 0f       	add	r24, r24
    236e:	99 1f       	adc	r25, r25
    2370:	88 0f       	add	r24, r24
    2372:	99 1f       	adc	r25, r25
    2374:	88 0f       	add	r24, r24
    2376:	99 1f       	adc	r25, r25
    2378:	82 0f       	add	r24, r18
    237a:	93 1f       	adc	r25, r19
    237c:	8b 54       	subi	r24, 0x4B	; 75
    237e:	90 4f       	sbci	r25, 0xF0	; 240
    2380:	f5 01       	movw	r30, r10
    2382:	91 83       	std	Z+1, r25	; 0x01
    2384:	80 83       	st	Z, r24
				select_font(FONT_LHEX);
    2386:	81 e0       	ldi	r24, 0x01	; 1
    2388:	0e 94 0e 1e 	call	0x3c1c	; 0x3c1c <select_font>
				vms.src_mem=FLASH_MEM;
    238c:	d3 01       	movw	r26, r6
    238e:	8c 91       	ld	r24, X
    2390:	8e 7f       	andi	r24, 0xFE	; 254
    2392:	8c 93       	st	X, r24
				break;
    2394:	c7 cb       	rjmp	.-2162   	; 0x1b24 <schip+0x96>
			case 0xf33: // FX33     met la représentation BCD de VX dans M(vms.ix)..M(vms.ix+2)
				n=vms.var[x];
    2396:	e0 2f       	mov	r30, r16
    2398:	f0 e0       	ldi	r31, 0x00	; 0
    239a:	e8 5d       	subi	r30, 0xD8	; 216
    239c:	fe 4f       	sbci	r31, 0xFE	; 254
    239e:	95 81       	ldd	r25, Z+5	; 0x05
				block[2]=n%10;
    23a0:	bd ec       	ldi	r27, 0xCD	; 205
    23a2:	9b 9f       	mul	r25, r27
    23a4:	81 2d       	mov	r24, r1
    23a6:	11 24       	eor	r1, r1
    23a8:	86 95       	lsr	r24
    23aa:	86 95       	lsr	r24
    23ac:	86 95       	lsr	r24
    23ae:	28 2f       	mov	r18, r24
    23b0:	22 0f       	add	r18, r18
    23b2:	32 2f       	mov	r19, r18
    23b4:	33 0f       	add	r19, r19
    23b6:	33 0f       	add	r19, r19
    23b8:	23 0f       	add	r18, r19
    23ba:	92 1b       	sub	r25, r18
    23bc:	ea e0       	ldi	r30, 0x0A	; 10
    23be:	f1 e0       	ldi	r31, 0x01	; 1
    23c0:	90 83       	st	Z, r25
				n /=10;
				block[1]=n%10;
    23c2:	8b 9f       	mul	r24, r27
    23c4:	91 2d       	mov	r25, r1
    23c6:	11 24       	eor	r1, r1
    23c8:	96 95       	lsr	r25
    23ca:	96 95       	lsr	r25
    23cc:	96 95       	lsr	r25
    23ce:	29 2f       	mov	r18, r25
    23d0:	22 0f       	add	r18, r18
    23d2:	32 2f       	mov	r19, r18
    23d4:	33 0f       	add	r19, r19
    23d6:	33 0f       	add	r19, r19
    23d8:	23 0f       	add	r18, r19
    23da:	82 1b       	sub	r24, r18
    23dc:	a9 e0       	ldi	r26, 0x09	; 9
    23de:	b1 e0       	ldi	r27, 0x01	; 1
    23e0:	8c 93       	st	X, r24
				block[0]=n/10;
    23e2:	f1 01       	movw	r30, r2
    23e4:	90 83       	st	Z, r25
				sram_store_block(vms.ix,3,block);
    23e6:	a1 01       	movw	r20, r2
    23e8:	63 e0       	ldi	r22, 0x03	; 3
    23ea:	70 e0       	ldi	r23, 0x00	; 0
    23ec:	d5 01       	movw	r26, r10
    23ee:	8d 91       	ld	r24, X+
    23f0:	9c 91       	ld	r25, X
    23f2:	0e 94 e4 1d 	call	0x3bc8	; 0x3bc8 <sram_store_block>
				break;
    23f6:	96 cb       	rjmp	.-2260   	; 0x1b24 <schip+0x96>
			case 0xf55: // FX55     Sauvegarde les registres V0..VX dans la mémoire SRAM à l'adresse M(vms.ix)
				sram_store_block(vms.ix,x+1,vms.var);
    23f8:	60 2f       	mov	r22, r16
    23fa:	70 e0       	ldi	r23, 0x00	; 0
    23fc:	6f 5f       	subi	r22, 0xFF	; 255
    23fe:	7f 4f       	sbci	r23, 0xFF	; 255
    2400:	4d e2       	ldi	r20, 0x2D	; 45
    2402:	51 e0       	ldi	r21, 0x01	; 1
    2404:	f5 01       	movw	r30, r10
    2406:	80 81       	ld	r24, Z
    2408:	91 81       	ldd	r25, Z+1	; 0x01
    240a:	0e 94 e4 1d 	call	0x3bc8	; 0x3bc8 <sram_store_block>
				break;
    240e:	8a cb       	rjmp	.-2284   	; 0x1b24 <schip+0x96>
			case 0xf65: // FX65     charge les registres V0..VX à partir de la mémoire SRAM à l'adresse M(vms.ix)
				sram_load_block(vms.ix,x+1,vms.var);
    2410:	60 2f       	mov	r22, r16
    2412:	70 e0       	ldi	r23, 0x00	; 0
    2414:	6f 5f       	subi	r22, 0xFF	; 255
    2416:	7f 4f       	sbci	r23, 0xFF	; 255
    2418:	4d e2       	ldi	r20, 0x2D	; 45
    241a:	51 e0       	ldi	r21, 0x01	; 1
    241c:	d5 01       	movw	r26, r10
    241e:	8d 91       	ld	r24, X+
    2420:	9c 91       	ld	r25, X
    2422:	0e 94 b9 1d 	call	0x3b72	; 0x3b72 <sram_load_block>
				break;
    2426:	7e cb       	rjmp	.-2308   	; 0x1b24 <schip+0x96>
			case 0x900:
				code |= vms.b2&0xf;
				break;
		}
		// exécution de l'instruction
		switch(code){
    2428:	80 e0       	ldi	r24, 0x00	; 0
			case 0xf65: // FX65     charge les registres V0..VX à partir de la mémoire SRAM à l'adresse M(vms.ix)
				sram_load_block(vms.ix,x+1,vms.var);
				break;
			case 0xf75: // FX75 (mode schip seulement) sauvegarde les registres V0..VX dans rpl
				for (n=0;n<=x;n++){
					vms.rpl[n]=vms.var[n];
    242a:	e8 2f       	mov	r30, r24
    242c:	f0 e0       	ldi	r31, 0x00	; 0
    242e:	e8 5d       	subi	r30, 0xD8	; 216
    2430:	fe 4f       	sbci	r31, 0xFE	; 254
    2432:	95 81       	ldd	r25, Z+5	; 0x05
    2434:	95 8b       	std	Z+21, r25	; 0x15
				break;
			case 0xf65: // FX65     charge les registres V0..VX à partir de la mémoire SRAM à l'adresse M(vms.ix)
				sram_load_block(vms.ix,x+1,vms.var);
				break;
			case 0xf75: // FX75 (mode schip seulement) sauvegarde les registres V0..VX dans rpl
				for (n=0;n<=x;n++){
    2436:	8f 5f       	subi	r24, 0xFF	; 255
    2438:	08 17       	cp	r16, r24
    243a:	b8 f7       	brcc	.-18     	; 0x242a <schip+0x99c>
    243c:	73 cb       	rjmp	.-2330   	; 0x1b24 <schip+0x96>
			case 0x900:
				code |= vms.b2&0xf;
				break;
		}
		// exécution de l'instruction
		switch(code){
    243e:	80 e0       	ldi	r24, 0x00	; 0
					vms.rpl[n]=vms.var[n];
				}
				break;
			case 0xf85: // FX85 (mode schip seulement) charge les registres V0..VX à partir de rpl
				for (n=0;n<=x;n++){
					vms.var[n]=vms.rpl[n];
    2440:	e8 2f       	mov	r30, r24
    2442:	f0 e0       	ldi	r31, 0x00	; 0
    2444:	e8 5d       	subi	r30, 0xD8	; 216
    2446:	fe 4f       	sbci	r31, 0xFE	; 254
    2448:	95 89       	ldd	r25, Z+21	; 0x15
    244a:	95 83       	std	Z+5, r25	; 0x05
				for (n=0;n<=x;n++){
					vms.rpl[n]=vms.var[n];
				}
				break;
			case 0xf85: // FX85 (mode schip seulement) charge les registres V0..VX à partir de rpl
				for (n=0;n<=x;n++){
    244c:	8f 5f       	subi	r24, 0xFF	; 255
    244e:	08 17       	cp	r16, r24
    2450:	b8 f7       	brcc	.-18     	; 0x2440 <schip+0x9b2>
    2452:	68 cb       	rjmp	.-2352   	; 0x1b24 <schip+0x96>
#if FW_DEBUG
		if (vms.debug && joystick_break()){
			vms.trace^=1;
		}
#else		
		if (joystick_break()) return CHIP_EXIT_OK;
    2454:	81 e0       	ldi	r24, 0x01	; 1
    2456:	01 c0       	rjmp	.+2      	; 0x245a <schip+0x9cc>
				break;
			default:
#if FW_DEBUG
				print_vms(PSTR("BAD OPCODE\n"));
#endif
				return CHIP_BAD_OPCODE;
    2458:	82 e0       	ldi	r24, 0x02	; 2
		}//switch
	}//while(1)
}
    245a:	0f 90       	pop	r0
    245c:	df 91       	pop	r29
    245e:	cf 91       	pop	r28
    2460:	1f 91       	pop	r17
    2462:	0f 91       	pop	r16
    2464:	ff 90       	pop	r15
    2466:	ef 90       	pop	r14
    2468:	df 90       	pop	r13
    246a:	cf 90       	pop	r12
    246c:	bf 90       	pop	r11
    246e:	af 90       	pop	r10
    2470:	9f 90       	pop	r9
    2472:	8f 90       	pop	r8
    2474:	7f 90       	pop	r7
    2476:	6f 90       	pop	r6
    2478:	5f 90       	pop	r5
    247a:	4f 90       	pop	r4
    247c:	3f 90       	pop	r3
    247e:	2f 90       	pop	r2
    2480:	08 95       	ret

00002482 <fat_get_next_cluster>:
 * \param[in] fs The filesystem for which to determine the next cluster.
 * \param[in] cluster_num The number of the cluster for which to determine its successor.
 * \returns The wanted cluster number, or 0 on error.
 */
cluster_t fat_get_next_cluster(const struct fat_fs_struct* fs, cluster_t cluster_num)
{
    2482:	cf 92       	push	r12
    2484:	df 92       	push	r13
    2486:	ef 92       	push	r14
    2488:	ff 92       	push	r15
    248a:	0f 93       	push	r16
    248c:	1f 93       	push	r17
    248e:	cf 93       	push	r28
    2490:	df 93       	push	r29
    2492:	00 d0       	rcall	.+0      	; 0x2494 <fat_get_next_cluster+0x12>
    2494:	cd b7       	in	r28, 0x3d	; 61
    2496:	de b7       	in	r29, 0x3e	; 62
    if(!fs || cluster_num < 2)
    2498:	00 97       	sbiw	r24, 0x00	; 0
    249a:	91 f1       	breq	.+100    	; 0x2500 <fat_get_next_cluster+0x7e>
    249c:	62 30       	cpi	r22, 0x02	; 2
    249e:	71 05       	cpc	r23, r1
    24a0:	90 f1       	brcs	.+100    	; 0x2506 <fat_get_next_cluster+0x84>
    else
#endif
    {
        /* read appropriate fat entry */
        uint16_t fat_entry;
        if(!fs->partition->device_read(fs->header.fat_offset + (offset_t) cluster_num * sizeof(fat_entry), (uint8_t*) &fat_entry, sizeof(fat_entry)))
    24a2:	dc 01       	movw	r26, r24
    24a4:	ed 91       	ld	r30, X+
    24a6:	fc 91       	ld	r31, X
    24a8:	11 97       	sbiw	r26, 0x01	; 1
    24aa:	ab 01       	movw	r20, r22
    24ac:	60 e0       	ldi	r22, 0x00	; 0
    24ae:	70 e0       	ldi	r23, 0x00	; 0
    24b0:	44 0f       	add	r20, r20
    24b2:	55 1f       	adc	r21, r21
    24b4:	66 1f       	adc	r22, r22
    24b6:	77 1f       	adc	r23, r23
    24b8:	16 96       	adiw	r26, 0x06	; 6
    24ba:	cd 90       	ld	r12, X+
    24bc:	dd 90       	ld	r13, X+
    24be:	ed 90       	ld	r14, X+
    24c0:	fc 90       	ld	r15, X
    24c2:	19 97       	sbiw	r26, 0x09	; 9
    24c4:	cb 01       	movw	r24, r22
    24c6:	ba 01       	movw	r22, r20
    24c8:	6c 0d       	add	r22, r12
    24ca:	7d 1d       	adc	r23, r13
    24cc:	8e 1d       	adc	r24, r14
    24ce:	9f 1d       	adc	r25, r15
    24d0:	01 90       	ld	r0, Z+
    24d2:	f0 81       	ld	r31, Z
    24d4:	e0 2d       	mov	r30, r0
    24d6:	22 e0       	ldi	r18, 0x02	; 2
    24d8:	30 e0       	ldi	r19, 0x00	; 0
    24da:	ae 01       	movw	r20, r28
    24dc:	4f 5f       	subi	r20, 0xFF	; 255
    24de:	5f 4f       	sbci	r21, 0xFF	; 255
    24e0:	09 95       	icall
    24e2:	88 23       	and	r24, r24
    24e4:	51 f0       	breq	.+20     	; 0x24fa <fat_get_next_cluster+0x78>
            return 0;

        /* determine next cluster from fat */
        cluster_num = ltoh16(fat_entry);
    24e6:	29 81       	ldd	r18, Y+1	; 0x01
    24e8:	3a 81       	ldd	r19, Y+2	; 0x02
        
        if(cluster_num == FAT16_CLUSTER_FREE ||
    24ea:	c9 01       	movw	r24, r18
    24ec:	01 97       	sbiw	r24, 0x01	; 1
    24ee:	8f 3e       	cpi	r24, 0xEF	; 239
    24f0:	9f 4f       	sbci	r25, 0xFF	; 255
    24f2:	18 f4       	brcc	.+6      	; 0x24fa <fat_get_next_cluster+0x78>
           (cluster_num >= FAT16_CLUSTER_RESERVED_MIN && cluster_num <= FAT16_CLUSTER_RESERVED_MAX) ||
           (cluster_num >= FAT16_CLUSTER_LAST_MIN && cluster_num <= FAT16_CLUSTER_LAST_MAX))
            return 0;
    }

    return cluster_num;
    24f4:	82 2f       	mov	r24, r18
    24f6:	93 2f       	mov	r25, r19
    24f8:	08 c0       	rjmp	.+16     	; 0x250a <fat_get_next_cluster+0x88>
#endif
    {
        /* read appropriate fat entry */
        uint16_t fat_entry;
        if(!fs->partition->device_read(fs->header.fat_offset + (offset_t) cluster_num * sizeof(fat_entry), (uint8_t*) &fat_entry, sizeof(fat_entry)))
            return 0;
    24fa:	80 e0       	ldi	r24, 0x00	; 0
    24fc:	90 e0       	ldi	r25, 0x00	; 0
    24fe:	05 c0       	rjmp	.+10     	; 0x250a <fat_get_next_cluster+0x88>
 * \returns The wanted cluster number, or 0 on error.
 */
cluster_t fat_get_next_cluster(const struct fat_fs_struct* fs, cluster_t cluster_num)
{
    if(!fs || cluster_num < 2)
        return 0;
    2500:	80 e0       	ldi	r24, 0x00	; 0
    2502:	90 e0       	ldi	r25, 0x00	; 0
    2504:	02 c0       	rjmp	.+4      	; 0x250a <fat_get_next_cluster+0x88>
    2506:	80 e0       	ldi	r24, 0x00	; 0
    2508:	90 e0       	ldi	r25, 0x00	; 0
           (cluster_num >= FAT16_CLUSTER_LAST_MIN && cluster_num <= FAT16_CLUSTER_LAST_MAX))
            return 0;
    }

    return cluster_num;
}
    250a:	0f 90       	pop	r0
    250c:	0f 90       	pop	r0
    250e:	df 91       	pop	r29
    2510:	cf 91       	pop	r28
    2512:	1f 91       	pop	r17
    2514:	0f 91       	pop	r16
    2516:	ff 90       	pop	r15
    2518:	ef 90       	pop	r14
    251a:	df 90       	pop	r13
    251c:	cf 90       	pop	r12
    251e:	08 95       	ret

00002520 <fat_dir_entry_read_callback>:
 * \param[in,out] p An argument structure controlling operation.
 * \returns 0 on failure or completion, 1 if reading has
 *          to be continued
 */
uint8_t fat_dir_entry_read_callback(uint8_t* buffer, offset_t offset, void* p)
{
    2520:	af 92       	push	r10
    2522:	bf 92       	push	r11
    2524:	df 92       	push	r13
    2526:	ef 92       	push	r14
    2528:	ff 92       	push	r15
    252a:	0f 93       	push	r16
    252c:	1f 93       	push	r17
    252e:	cf 93       	push	r28
    2530:	df 93       	push	r29
    2532:	7c 01       	movw	r14, r24
    2534:	e9 01       	movw	r28, r18
    struct fat_read_dir_callback_arg* arg = p;
    struct fat_dir_entry_struct* dir_entry = arg->dir_entry;
    2536:	08 81       	ld	r16, Y
    2538:	19 81       	ldd	r17, Y+1	; 0x01

    arg->bytes_read += 32;
    253a:	8a 81       	ldd	r24, Y+2	; 0x02
    253c:	9b 81       	ldd	r25, Y+3	; 0x03
    253e:	80 96       	adiw	r24, 0x20	; 32
    2540:	9b 83       	std	Y+3, r25	; 0x03
    2542:	8a 83       	std	Y+2, r24	; 0x02

    /* skip deleted or empty entries */
    if(buffer[0] == FAT_DIRENTRY_DELETED || !buffer[0])
    2544:	d7 01       	movw	r26, r14
    2546:	8c 91       	ld	r24, X
    2548:	85 3e       	cpi	r24, 0xE5	; 229
    254a:	09 f4       	brne	.+2      	; 0x254e <fat_dir_entry_read_callback+0x2e>
    254c:	9a c0       	rjmp	.+308    	; 0x2682 <fat_dir_entry_read_callback+0x162>
    254e:	88 23       	and	r24, r24
    2550:	09 f4       	brne	.+2      	; 0x2554 <fat_dir_entry_read_callback+0x34>
    2552:	99 c0       	rjmp	.+306    	; 0x2686 <fat_dir_entry_read_callback+0x166>
        return 1;
    }

#if !FAT_LFN_SUPPORT
    /* skip lfn entries */
    if(buffer[11] == 0x0f)
    2554:	1b 96       	adiw	r26, 0x0b	; 11
    2556:	8c 91       	ld	r24, X
    2558:	8f 30       	cpi	r24, 0x0F	; 15
    255a:	09 f4       	brne	.+2      	; 0x255e <fat_dir_entry_read_callback+0x3e>
    255c:	96 c0       	rjmp	.+300    	; 0x268a <fat_dir_entry_read_callback+0x16a>
        return 1;
#endif

    char* long_name = dir_entry->long_name;
    255e:	98 01       	movw	r18, r16
        /* if we do not have a long name or the previous lfn does not match, take the 8.3 name */
        if(long_name[0] == '\0' || arg->checksum != fat_calc_83_checksum(buffer))
#endif
        {
            /* reset directory entry */
            memset(dir_entry, 0, sizeof(*dir_entry));
    2560:	8b e2       	ldi	r24, 0x2B	; 43
    2562:	f8 01       	movw	r30, r16
    2564:	11 92       	st	Z+, r1
    2566:	8a 95       	dec	r24
    2568:	e9 f7       	brne	.-6      	; 0x2564 <fat_dir_entry_read_callback+0x44>
            dir_entry->entry_offset = offset;
    256a:	d8 01       	movw	r26, r16
    256c:	97 96       	adiw	r26, 0x27	; 39
    256e:	4d 93       	st	X+, r20
    2570:	5d 93       	st	X+, r21
    2572:	6d 93       	st	X+, r22
    2574:	7c 93       	st	X, r23
    2576:	9a 97       	sbiw	r26, 0x2a	; 42

            uint8_t i;
            for(i = 0; i < 8; ++i)
            {
                if(buffer[i] == ' ')
    2578:	f7 01       	movw	r30, r14
    257a:	d0 80       	ld	r13, Z
    257c:	f0 e2       	ldi	r31, 0x20	; 32
    257e:	df 16       	cp	r13, r31
    2580:	51 f1       	breq	.+84     	; 0x25d6 <fat_dir_entry_read_callback+0xb6>
    2582:	f7 01       	movw	r30, r14
    2584:	31 96       	adiw	r30, 0x01	; 1
    2586:	b7 01       	movw	r22, r14
    2588:	81 e0       	ldi	r24, 0x01	; 1
    258a:	90 e0       	ldi	r25, 0x00	; 0
    258c:	a0 e0       	ldi	r26, 0x00	; 0
    258e:	b0 e0       	ldi	r27, 0x00	; 0
    2590:	0a c0       	rjmp	.+20     	; 0x25a6 <fat_dir_entry_read_callback+0x86>
    2592:	bf 01       	movw	r22, r30
    2594:	d1 90       	ld	r13, Z+
    2596:	ac 01       	movw	r20, r24
    2598:	4f 5f       	subi	r20, 0xFF	; 255
    259a:	5f 4f       	sbci	r21, 0xFF	; 255
    259c:	b0 e2       	ldi	r27, 0x20	; 32
    259e:	db 16       	cp	r13, r27
    25a0:	d9 f0       	breq	.+54     	; 0x25d8 <fat_dir_entry_read_callback+0xb8>
    25a2:	dc 01       	movw	r26, r24
    25a4:	ca 01       	movw	r24, r20
                    break;
                long_name[i] = buffer[i];
    25a6:	5d 01       	movw	r10, r26
    25a8:	a2 0e       	add	r10, r18
    25aa:	b3 1e       	adc	r11, r19
    25ac:	d5 01       	movw	r26, r10
    25ae:	dc 92       	st	X, r13
                /* Windows NT and later versions do not store lfn entries
                 * for 8.3 names which have a lowercase basename, extension
                 * or both when everything else is uppercase. They use two
                 * extra bits to signal a lowercase basename or extension.
                 */
                if((buffer[12] & 0x08) && buffer[i] >= 'A' && buffer[i] <= 'Z')
    25b0:	d7 01       	movw	r26, r14
    25b2:	1c 96       	adiw	r26, 0x0c	; 12
    25b4:	4c 91       	ld	r20, X
    25b6:	43 ff       	sbrs	r20, 3
    25b8:	09 c0       	rjmp	.+18     	; 0x25cc <fat_dir_entry_read_callback+0xac>
    25ba:	db 01       	movw	r26, r22
    25bc:	4c 91       	ld	r20, X
    25be:	41 54       	subi	r20, 0x41	; 65
    25c0:	4a 31       	cpi	r20, 0x1A	; 26
    25c2:	20 f4       	brcc	.+8      	; 0x25cc <fat_dir_entry_read_callback+0xac>
                    long_name[i] += 'a' - 'A';
    25c4:	40 e2       	ldi	r20, 0x20	; 32
    25c6:	4d 0d       	add	r20, r13
    25c8:	d5 01       	movw	r26, r10
    25ca:	4c 93       	st	X, r20
            /* reset directory entry */
            memset(dir_entry, 0, sizeof(*dir_entry));
            dir_entry->entry_offset = offset;

            uint8_t i;
            for(i = 0; i < 8; ++i)
    25cc:	a8 2f       	mov	r26, r24
    25ce:	88 30       	cpi	r24, 0x08	; 8
    25d0:	91 05       	cpc	r25, r1
    25d2:	f9 f6       	brne	.-66     	; 0x2592 <fat_dir_entry_read_callback+0x72>
    25d4:	01 c0       	rjmp	.+2      	; 0x25d8 <fat_dir_entry_read_callback+0xb8>
    25d6:	a0 e0       	ldi	r26, 0x00	; 0
                 * extra bits to signal a lowercase basename or extension.
                 */
                if((buffer[12] & 0x08) && buffer[i] >= 'A' && buffer[i] <= 'Z')
                    long_name[i] += 'a' - 'A';
            }
            if(long_name[0] == 0x05)
    25d8:	f8 01       	movw	r30, r16
    25da:	80 81       	ld	r24, Z
    25dc:	85 30       	cpi	r24, 0x05	; 5
    25de:	11 f4       	brne	.+4      	; 0x25e4 <fat_dir_entry_read_callback+0xc4>
                long_name[0] = (char) FAT_DIRENTRY_DELETED;
    25e0:	85 ee       	ldi	r24, 0xE5	; 229
    25e2:	80 83       	st	Z, r24

            if(buffer[8] != ' ')
    25e4:	f7 01       	movw	r30, r14
    25e6:	80 85       	ldd	r24, Z+8	; 0x08
    25e8:	80 32       	cpi	r24, 0x20	; 32
    25ea:	59 f1       	breq	.+86     	; 0x2642 <fat_dir_entry_read_callback+0x122>
            {
                long_name[i++] = '.';
    25ec:	41 e0       	ldi	r20, 0x01	; 1
    25ee:	4a 0f       	add	r20, r26
    25f0:	8e e2       	ldi	r24, 0x2E	; 46
    25f2:	f8 01       	movw	r30, r16
    25f4:	ea 0f       	add	r30, r26
    25f6:	f1 1d       	adc	r31, r1
    25f8:	80 83       	st	Z, r24

                uint8_t j = 8;
                for(; j < 11; ++j)
                {
                    if(buffer[j] == ' ')
    25fa:	c7 01       	movw	r24, r14
    25fc:	08 96       	adiw	r24, 0x08	; 8
    25fe:	f7 01       	movw	r30, r14
    2600:	50 85       	ldd	r21, Z+8	; 0x08
    2602:	50 32       	cpi	r21, 0x20	; 32
    2604:	f9 f0       	breq	.+62     	; 0x2644 <fat_dir_entry_read_callback+0x124>
    2606:	39 96       	adiw	r30, 0x09	; 9
    2608:	74 e0       	ldi	r23, 0x04	; 4
    260a:	7a 0f       	add	r23, r26
    260c:	04 c0       	rjmp	.+8      	; 0x2616 <fat_dir_entry_read_callback+0xf6>
    260e:	cf 01       	movw	r24, r30
    2610:	51 91       	ld	r21, Z+
    2612:	50 32       	cpi	r21, 0x20	; 32
    2614:	b9 f0       	breq	.+46     	; 0x2644 <fat_dir_entry_read_callback+0x124>
                        break;
                    long_name[i] = buffer[j];
    2616:	59 01       	movw	r10, r18
    2618:	a4 0e       	add	r10, r20
    261a:	b1 1c       	adc	r11, r1
    261c:	d5 01       	movw	r26, r10
    261e:	5c 93       	st	X, r21

                    /* See above for the lowercase 8.3 name handling of
                     * Windows NT and later.
                     */
                    if((buffer[12] & 0x10) && buffer[j] >= 'A' && buffer[j] <= 'Z')
    2620:	d7 01       	movw	r26, r14
    2622:	1c 96       	adiw	r26, 0x0c	; 12
    2624:	6c 91       	ld	r22, X
    2626:	64 ff       	sbrs	r22, 4
    2628:	08 c0       	rjmp	.+16     	; 0x263a <fat_dir_entry_read_callback+0x11a>
    262a:	dc 01       	movw	r26, r24
    262c:	8c 91       	ld	r24, X
    262e:	81 54       	subi	r24, 0x41	; 65
    2630:	8a 31       	cpi	r24, 0x1A	; 26
    2632:	18 f4       	brcc	.+6      	; 0x263a <fat_dir_entry_read_callback+0x11a>
                        long_name[i] += 'a' - 'A';
    2634:	50 5e       	subi	r21, 0xE0	; 224
    2636:	d5 01       	movw	r26, r10
    2638:	5c 93       	st	X, r21

                    ++i;
    263a:	4f 5f       	subi	r20, 0xFF	; 255
            if(buffer[8] != ' ')
            {
                long_name[i++] = '.';

                uint8_t j = 8;
                for(; j < 11; ++j)
    263c:	47 13       	cpse	r20, r23
    263e:	e7 cf       	rjmp	.-50     	; 0x260e <fat_dir_entry_read_callback+0xee>
    2640:	01 c0       	rjmp	.+2      	; 0x2644 <fat_dir_entry_read_callback+0x124>
    2642:	4a 2f       	mov	r20, r26

                    ++i;
                }
            } 

            long_name[i] = '\0';
    2644:	f8 01       	movw	r30, r16
    2646:	e4 0f       	add	r30, r20
    2648:	f1 1d       	adc	r31, r1
    264a:	10 82       	st	Z, r1
        }
        
        /* extract properties of file and store them within the structure */
        dir_entry->attributes = buffer[11];
    264c:	f7 01       	movw	r30, r14
    264e:	83 85       	ldd	r24, Z+11	; 0x0b
    2650:	d8 01       	movw	r26, r16
    2652:	90 96       	adiw	r26, 0x20	; 32
    2654:	8c 93       	st	X, r24
        dir_entry->cluster = read16(&buffer[26]);
    2656:	c7 01       	movw	r24, r14
    2658:	4a 96       	adiw	r24, 0x1a	; 26
    265a:	0e 94 d3 09 	call	0x13a6	; 0x13a6 <read16>
    265e:	f8 01       	movw	r30, r16
    2660:	92 a3       	std	Z+34, r25	; 0x22
    2662:	81 a3       	std	Z+33, r24	; 0x21
#if FAT_FAT32_SUPPORT
        dir_entry->cluster |= ((cluster_t) read16(&buffer[20])) << 16;
#endif
        dir_entry->file_size = read32(&buffer[28]);
    2664:	c7 01       	movw	r24, r14
    2666:	4c 96       	adiw	r24, 0x1c	; 28
    2668:	0e 94 db 09 	call	0x13b6	; 0x13b6 <read32>
    266c:	d8 01       	movw	r26, r16
    266e:	93 96       	adiw	r26, 0x23	; 35
    2670:	6d 93       	st	X+, r22
    2672:	7d 93       	st	X+, r23
    2674:	8d 93       	st	X+, r24
    2676:	9c 93       	st	X, r25
    2678:	96 97       	sbiw	r26, 0x26	; 38
#if FAT_DATETIME_SUPPORT
        dir_entry->modification_time = read16(&buffer[22]);
        dir_entry->modification_date = read16(&buffer[24]);
#endif

        arg->finished = 1;
    267a:	81 e0       	ldi	r24, 0x01	; 1
    267c:	8c 83       	std	Y+4, r24	; 0x04
        return 0;
    267e:	80 e0       	ldi	r24, 0x00	; 0
    2680:	05 c0       	rjmp	.+10     	; 0x268c <fat_dir_entry_read_callback+0x16c>
    if(buffer[0] == FAT_DIRENTRY_DELETED || !buffer[0])
    {
#if FAT_LFN_SUPPORT
        arg->checksum = 0;
#endif
        return 1;
    2682:	81 e0       	ldi	r24, 0x01	; 1
    2684:	03 c0       	rjmp	.+6      	; 0x268c <fat_dir_entry_read_callback+0x16c>
    2686:	81 e0       	ldi	r24, 0x01	; 1
    2688:	01 c0       	rjmp	.+2      	; 0x268c <fat_dir_entry_read_callback+0x16c>
    }

#if !FAT_LFN_SUPPORT
    /* skip lfn entries */
    if(buffer[11] == 0x0f)
        return 1;
    268a:	81 e0       	ldi	r24, 0x01	; 1
#endif

        arg->finished = 1;
        return 0;
    }
}
    268c:	df 91       	pop	r29
    268e:	cf 91       	pop	r28
    2690:	1f 91       	pop	r17
    2692:	0f 91       	pop	r16
    2694:	ff 90       	pop	r15
    2696:	ef 90       	pop	r14
    2698:	df 90       	pop	r13
    269a:	bf 90       	pop	r11
    269c:	af 90       	pop	r10
    269e:	08 95       	ret

000026a0 <fat_open>:
 * \param[in] partition Discriptor of partition on which the filesystem resides.
 * \returns 0 on error, a FAT filesystem descriptor on success.
 * \see fat_close
 */
struct fat_fs_struct* fat_open(struct partition_struct* partition)
{
    26a0:	2f 92       	push	r2
    26a2:	3f 92       	push	r3
    26a4:	4f 92       	push	r4
    26a6:	5f 92       	push	r5
    26a8:	6f 92       	push	r6
    26aa:	7f 92       	push	r7
    26ac:	8f 92       	push	r8
    26ae:	9f 92       	push	r9
    26b0:	af 92       	push	r10
    26b2:	bf 92       	push	r11
    26b4:	cf 92       	push	r12
    26b6:	df 92       	push	r13
    26b8:	ef 92       	push	r14
    26ba:	ff 92       	push	r15
    26bc:	0f 93       	push	r16
    26be:	1f 93       	push	r17
    26c0:	cf 93       	push	r28
    26c2:	df 93       	push	r29
    26c4:	cd b7       	in	r28, 0x3d	; 61
    26c6:	de b7       	in	r29, 0x3e	; 62
    26c8:	a8 97       	sbiw	r28, 0x28	; 40
    26ca:	0f b6       	in	r0, 0x3f	; 63
    26cc:	f8 94       	cli
    26ce:	de bf       	out	0x3e, r29	; 62
    26d0:	0f be       	out	0x3f, r0	; 63
    26d2:	cd bf       	out	0x3d, r28	; 61
    26d4:	8c 01       	movw	r16, r24
    if(!partition ||
    26d6:	00 97       	sbiw	r24, 0x00	; 0
    26d8:	09 f4       	brne	.+2      	; 0x26dc <fat_open+0x3c>
    26da:	38 c1       	rjmp	.+624    	; 0x294c <fat_open+0x2ac>
#else
    struct fat_fs_struct* fs = fat_fs_handles;
    uint8_t i;
    for(i = 0; i < FAT_FS_COUNT; ++i)
    {
        if(!fs->partition)
    26dc:	80 91 89 02 	lds	r24, 0x0289
    26e0:	90 91 8a 02 	lds	r25, 0x028A
    26e4:	89 2b       	or	r24, r25
    26e6:	09 f4       	brne	.+2      	; 0x26ea <fat_open+0x4a>
    26e8:	34 c1       	rjmp	.+616    	; 0x2952 <fat_open+0x2b2>
            break;

        ++fs;
    }
    if(i >= FAT_FS_COUNT)
        return 0;
    26ea:	80 e0       	ldi	r24, 0x00	; 0
    26ec:	90 e0       	ldi	r25, 0x00	; 0
    26ee:	61 c1       	rjmp	.+706    	; 0x29b2 <fat_open+0x312>
#endif
    offset_t partition_offset = (offset_t) partition->offset * 512;
    if(!partition->device_read(partition_offset + 0x0b, buffer, sizeof(buffer)))
        return 0;

    uint16_t bytes_per_sector = read16(&buffer[0x00]);
    26f0:	ce 01       	movw	r24, r28
    26f2:	01 96       	adiw	r24, 0x01	; 1
    26f4:	0e 94 d3 09 	call	0x13a6	; 0x13a6 <read16>
    26f8:	1c 01       	movw	r2, r24
    uint16_t reserved_sectors = read16(&buffer[0x03]);
    26fa:	ce 01       	movw	r24, r28
    26fc:	04 96       	adiw	r24, 0x04	; 4
    26fe:	0e 94 d3 09 	call	0x13a6	; 0x13a6 <read16>
    2702:	9b 8f       	std	Y+27, r25	; 0x1b
    2704:	8a 8f       	std	Y+26, r24	; 0x1a
    uint8_t sectors_per_cluster = buffer[0x02];
    2706:	2b 81       	ldd	r18, Y+3	; 0x03
    2708:	2e a3       	std	Y+38, r18	; 0x26
    uint8_t fat_copies = buffer[0x05];
    270a:	3e 81       	ldd	r19, Y+6	; 0x06
    270c:	3e 8f       	std	Y+30, r19	; 0x1e
    uint16_t max_root_entries = read16(&buffer[0x06]);
    270e:	ce 01       	movw	r24, r28
    2710:	07 96       	adiw	r24, 0x07	; 7
    2712:	0e 94 d3 09 	call	0x13a6	; 0x13a6 <read16>
    2716:	98 a7       	std	Y+40, r25	; 0x28
    2718:	8f a3       	std	Y+39, r24	; 0x27
    uint16_t sector_count_16 = read16(&buffer[0x08]);
    271a:	ce 01       	movw	r24, r28
    271c:	09 96       	adiw	r24, 0x09	; 9
    271e:	0e 94 d3 09 	call	0x13a6	; 0x13a6 <read16>
    2722:	2c 01       	movw	r4, r24
    uint16_t sectors_per_fat = read16(&buffer[0x0b]);
    2724:	ce 01       	movw	r24, r28
    2726:	0c 96       	adiw	r24, 0x0c	; 12
    2728:	0e 94 d3 09 	call	0x13a6	; 0x13a6 <read16>
    272c:	3c 01       	movw	r6, r24
    uint32_t sector_count = read32(&buffer[0x15]);
    272e:	ce 01       	movw	r24, r28
    2730:	46 96       	adiw	r24, 0x16	; 22
    2732:	0e 94 db 09 	call	0x13b6	; 0x13b6 <read32>
    2736:	6b 01       	movw	r12, r22
    2738:	7c 01       	movw	r14, r24
#if FAT_FAT32_SUPPORT
    uint32_t sectors_per_fat32 = read32(&buffer[0x19]);
    uint32_t cluster_root_dir = read32(&buffer[0x21]);
#endif

    if(sector_count == 0)
    273a:	61 15       	cp	r22, r1
    273c:	71 05       	cpc	r23, r1
    273e:	81 05       	cpc	r24, r1
    2740:	91 05       	cpc	r25, r1
    2742:	39 f4       	brne	.+14     	; 0x2752 <fat_open+0xb2>
    {
        if(sector_count_16 == 0)
    2744:	41 14       	cp	r4, r1
    2746:	51 04       	cpc	r5, r1
    2748:	09 f4       	brne	.+2      	; 0x274c <fat_open+0xac>
    274a:	2d c1       	rjmp	.+602    	; 0x29a6 <fat_open+0x306>
            /* illegal volume size */
            return 0;
        else
            sector_count = sector_count_16;
    274c:	62 01       	movw	r12, r4
    274e:	e1 2c       	mov	r14, r1
    2750:	f1 2c       	mov	r15, r1
        sectors_per_fat32 = sectors_per_fat;
    else if(sectors_per_fat32 == 0)
        /* this is neither FAT16 nor FAT32 */
        return 0;
#else
    if(sectors_per_fat == 0)
    2752:	61 14       	cp	r6, r1
    2754:	71 04       	cpc	r7, r1
    2756:	09 f4       	brne	.+2      	; 0x275a <fat_open+0xba>
    2758:	26 c1       	rjmp	.+588    	; 0x29a6 <fat_open+0x306>
        return 0;
#endif

    /* determine the type of FAT we have here */
    uint32_t data_sector_count = sector_count
                                 - reserved_sectors
    275a:	aa 8d       	ldd	r26, Y+26	; 0x1a
    275c:	bb 8d       	ldd	r27, Y+27	; 0x1b
    275e:	cd 01       	movw	r24, r26
    2760:	a0 e0       	ldi	r26, 0x00	; 0
    2762:	b0 e0       	ldi	r27, 0x00	; 0
    2764:	8a 8f       	std	Y+26, r24	; 0x1a
    2766:	9b 8f       	std	Y+27, r25	; 0x1b
    2768:	ac 8f       	std	Y+28, r26	; 0x1c
    276a:	bd 8f       	std	Y+29, r27	; 0x1d
#if FAT_FAT32_SUPPORT
                                 - sectors_per_fat32 * fat_copies
#else
                                 - (uint32_t) sectors_per_fat * fat_copies
    276c:	93 01       	movw	r18, r6
    276e:	ee 8d       	ldd	r30, Y+30	; 0x1e
    2770:	ae 2f       	mov	r26, r30
    2772:	b0 e0       	ldi	r27, 0x00	; 0
    2774:	0e 94 29 24 	call	0x4852	; 0x4852 <__umulhisi3>
    2778:	6e 8f       	std	Y+30, r22	; 0x1e
    277a:	7f 8f       	std	Y+31, r23	; 0x1f
    277c:	88 a3       	std	Y+32, r24	; 0x20
    277e:	99 a3       	std	Y+33, r25	; 0x21
        return 0;
#endif

    /* determine the type of FAT we have here */
    uint32_t data_sector_count = sector_count
                                 - reserved_sectors
    2780:	26 01       	movw	r4, r12
    2782:	37 01       	movw	r6, r14
    2784:	2a 8d       	ldd	r18, Y+26	; 0x1a
    2786:	3b 8d       	ldd	r19, Y+27	; 0x1b
    2788:	4c 8d       	ldd	r20, Y+28	; 0x1c
    278a:	5d 8d       	ldd	r21, Y+29	; 0x1d
    278c:	42 1a       	sub	r4, r18
    278e:	53 0a       	sbc	r5, r19
    2790:	64 0a       	sbc	r6, r20
    2792:	75 0a       	sbc	r7, r21
#if FAT_FAT32_SUPPORT
                                 - sectors_per_fat32 * fat_copies
#else
                                 - (uint32_t) sectors_per_fat * fat_copies
    2794:	46 1a       	sub	r4, r22
    2796:	57 0a       	sbc	r5, r23
    2798:	68 0a       	sbc	r6, r24
    279a:	79 0a       	sbc	r7, r25
#endif
                                 - ((max_root_entries * 32 + bytes_per_sector - 1) / bytes_per_sector);
    279c:	8f a1       	ldd	r24, Y+39	; 0x27
    279e:	98 a5       	ldd	r25, Y+40	; 0x28
    27a0:	88 0f       	add	r24, r24
    27a2:	99 1f       	adc	r25, r25
    27a4:	82 95       	swap	r24
    27a6:	92 95       	swap	r25
    27a8:	90 7f       	andi	r25, 0xF0	; 240
    27aa:	98 27       	eor	r25, r24
    27ac:	80 7f       	andi	r24, 0xF0	; 240
    27ae:	98 27       	eor	r25, r24
    27b0:	91 01       	movw	r18, r2
    27b2:	21 50       	subi	r18, 0x01	; 1
    27b4:	31 09       	sbc	r19, r1
    27b6:	82 0f       	add	r24, r18
    27b8:	93 1f       	adc	r25, r19
    27ba:	b1 01       	movw	r22, r2
    27bc:	0e 94 d4 23 	call	0x47a8	; 0x47a8 <__udivmodhi4>
        /* this is not a FAT16 */
        return 0;
#endif

    /* determine the type of FAT we have here */
    uint32_t data_sector_count = sector_count
    27c0:	a3 01       	movw	r20, r6
    27c2:	92 01       	movw	r18, r4
    27c4:	26 1b       	sub	r18, r22
    27c6:	37 0b       	sbc	r19, r23
    27c8:	41 09       	sbc	r20, r1
    27ca:	51 09       	sbc	r21, r1
    27cc:	ca 01       	movw	r24, r20
    27ce:	b9 01       	movw	r22, r18
                                 - sectors_per_fat32 * fat_copies
#else
                                 - (uint32_t) sectors_per_fat * fat_copies
#endif
                                 - ((max_root_entries * 32 + bytes_per_sector - 1) / bytes_per_sector);
    uint32_t data_cluster_count = data_sector_count / sectors_per_cluster;
    27d0:	3e a1       	ldd	r19, Y+38	; 0x26
    27d2:	43 2e       	mov	r4, r19
    27d4:	51 2c       	mov	r5, r1
    27d6:	61 2c       	mov	r6, r1
    27d8:	71 2c       	mov	r7, r1
    27da:	a3 01       	movw	r20, r6
    27dc:	92 01       	movw	r18, r4
    27de:	0e 94 e8 23 	call	0x47d0	; 0x47d0 <__udivmodsi4>
    27e2:	29 01       	movw	r4, r18
    27e4:	3a 01       	movw	r6, r20
    if(data_cluster_count < 4085)
    27e6:	45 ef       	ldi	r20, 0xF5	; 245
    27e8:	44 16       	cp	r4, r20
    27ea:	4f e0       	ldi	r20, 0x0F	; 15
    27ec:	54 06       	cpc	r5, r20
    27ee:	61 04       	cpc	r6, r1
    27f0:	71 04       	cpc	r7, r1
    27f2:	08 f4       	brcc	.+2      	; 0x27f6 <fat_open+0x156>
    27f4:	d8 c0       	rjmp	.+432    	; 0x29a6 <fat_open+0x306>
        /* this is a FAT12, not supported */
        return 0;
    else if(data_cluster_count < 65525)
    27f6:	55 ef       	ldi	r21, 0xF5	; 245
    27f8:	45 16       	cp	r4, r21
    27fa:	5f ef       	ldi	r21, 0xFF	; 255
    27fc:	55 06       	cpc	r5, r21
    27fe:	61 04       	cpc	r6, r1
    2800:	71 04       	cpc	r7, r1
    2802:	28 f4       	brcc	.+10     	; 0x280e <fat_open+0x16e>
        /* this is a FAT16 */
        partition->type = PARTITION_TYPE_FAT16;
    2804:	86 e0       	ldi	r24, 0x06	; 6
    2806:	d8 01       	movw	r26, r16
    2808:	18 96       	adiw	r26, 0x08	; 8
    280a:	8c 93       	st	X, r24
    280c:	03 c0       	rjmp	.+6      	; 0x2814 <fat_open+0x174>
    else
        /* this is a FAT32 */
        partition->type = PARTITION_TYPE_FAT32;
    280e:	8b e0       	ldi	r24, 0x0B	; 11
    2810:	f8 01       	movw	r30, r16
    2812:	80 87       	std	Z+8, r24	; 0x08

    /* fill header information */
    struct fat_header_struct* header = &fs->header;
    memset(header, 0, sizeof(*header));
    2814:	eb e8       	ldi	r30, 0x8B	; 139
    2816:	f2 e0       	ldi	r31, 0x02	; 2
    2818:	88 e1       	ldi	r24, 0x18	; 24
    281a:	df 01       	movw	r26, r30
    281c:	1d 92       	st	X+, r1
    281e:	8a 95       	dec	r24
    2820:	e9 f7       	brne	.-6      	; 0x281c <fat_open+0x17c>
    
    header->size = (offset_t) sector_count * bytes_per_sector;
    2822:	91 01       	movw	r18, r2
    2824:	40 e0       	ldi	r20, 0x00	; 0
    2826:	50 e0       	ldi	r21, 0x00	; 0
    2828:	2a a3       	std	Y+34, r18	; 0x22
    282a:	3b a3       	std	Y+35, r19	; 0x23
    282c:	4c a3       	std	Y+36, r20	; 0x24
    282e:	5d a3       	std	Y+37, r21	; 0x25
    2830:	a7 01       	movw	r20, r14
    2832:	96 01       	movw	r18, r12
    2834:	6a a1       	ldd	r22, Y+34	; 0x22
    2836:	7b a1       	ldd	r23, Y+35	; 0x23
    2838:	8c a1       	ldd	r24, Y+36	; 0x24
    283a:	9d a1       	ldd	r25, Y+37	; 0x25
    283c:	0e 94 c4 23 	call	0x4788	; 0x4788 <__mulsi3>
    2840:	60 83       	st	Z, r22
    2842:	71 83       	std	Z+1, r23	; 0x01
    2844:	82 83       	std	Z+2, r24	; 0x02
    2846:	93 83       	std	Z+3, r25	; 0x03

    header->fat_offset = /* jump to partition */
                         partition_offset +
                         /* jump to fat */
                         (offset_t) reserved_sectors * bytes_per_sector;
    2848:	2a a1       	ldd	r18, Y+34	; 0x22
    284a:	3b a1       	ldd	r19, Y+35	; 0x23
    284c:	4c a1       	ldd	r20, Y+36	; 0x24
    284e:	5d a1       	ldd	r21, Y+37	; 0x25
    2850:	6a 8d       	ldd	r22, Y+26	; 0x1a
    2852:	7b 8d       	ldd	r23, Y+27	; 0x1b
    2854:	8c 8d       	ldd	r24, Y+28	; 0x1c
    2856:	9d 8d       	ldd	r25, Y+29	; 0x1d
    2858:	0e 94 c4 23 	call	0x4788	; 0x4788 <__mulsi3>
    memset(header, 0, sizeof(*header));
    
    header->size = (offset_t) sector_count * bytes_per_sector;

    header->fat_offset = /* jump to partition */
                         partition_offset +
    285c:	6b 01       	movw	r12, r22
    285e:	7c 01       	movw	r14, r24
    2860:	c8 0c       	add	r12, r8
    2862:	d9 1c       	adc	r13, r9
    2864:	ea 1c       	adc	r14, r10
    2866:	fb 1c       	adc	r15, r11
    struct fat_header_struct* header = &fs->header;
    memset(header, 0, sizeof(*header));
    
    header->size = (offset_t) sector_count * bytes_per_sector;

    header->fat_offset = /* jump to partition */
    2868:	c0 92 8f 02 	sts	0x028F, r12
    286c:	d0 92 90 02 	sts	0x0290, r13
    2870:	e0 92 91 02 	sts	0x0291, r14
    2874:	f0 92 92 02 	sts	0x0292, r15
                         partition_offset +
                         /* jump to fat */
                         (offset_t) reserved_sectors * bytes_per_sector;
    header->fat_size = (data_cluster_count + 2) * (partition->type == PARTITION_TYPE_FAT16 ? 2 : 4);
    2878:	c3 01       	movw	r24, r6
    287a:	b2 01       	movw	r22, r4
    287c:	6e 5f       	subi	r22, 0xFE	; 254
    287e:	7f 4f       	sbci	r23, 0xFF	; 255
    2880:	8f 4f       	sbci	r24, 0xFF	; 255
    2882:	9f 4f       	sbci	r25, 0xFF	; 255
    2884:	d8 01       	movw	r26, r16
    2886:	18 96       	adiw	r26, 0x08	; 8
    2888:	2c 91       	ld	r18, X
    288a:	26 30       	cpi	r18, 0x06	; 6
    288c:	29 f4       	brne	.+10     	; 0x2898 <fat_open+0x1f8>
    288e:	22 e0       	ldi	r18, 0x02	; 2
    2890:	30 e0       	ldi	r19, 0x00	; 0
    2892:	40 e0       	ldi	r20, 0x00	; 0
    2894:	50 e0       	ldi	r21, 0x00	; 0
    2896:	04 c0       	rjmp	.+8      	; 0x28a0 <fat_open+0x200>
    2898:	24 e0       	ldi	r18, 0x04	; 4
    289a:	30 e0       	ldi	r19, 0x00	; 0
    289c:	40 e0       	ldi	r20, 0x00	; 0
    289e:	50 e0       	ldi	r21, 0x00	; 0
    28a0:	0e 94 c4 23 	call	0x4788	; 0x4788 <__mulsi3>
    28a4:	60 93 93 02 	sts	0x0293, r22
    28a8:	70 93 94 02 	sts	0x0294, r23
    28ac:	80 93 95 02 	sts	0x0295, r24
    28b0:	90 93 96 02 	sts	0x0296, r25

    header->sector_size = bytes_per_sector;
    28b4:	30 92 98 02 	sts	0x0298, r3
    28b8:	20 92 97 02 	sts	0x0297, r2
    header->cluster_size = (uint16_t) bytes_per_sector * sectors_per_cluster;
    28bc:	be a1       	ldd	r27, Y+38	; 0x26
    28be:	b2 9d       	mul	r27, r2
    28c0:	c0 01       	movw	r24, r0
    28c2:	b3 9d       	mul	r27, r3
    28c4:	90 0d       	add	r25, r0
    28c6:	11 24       	eor	r1, r1
    28c8:	90 93 9a 02 	sts	0x029A, r25
    28cc:	80 93 99 02 	sts	0x0299, r24
#endif
    {
        header->root_dir_offset = /* jump to fats */
                                  header->fat_offset +
                                  /* jump to root directory entries */
                                  (offset_t) fat_copies * sectors_per_fat * bytes_per_sector;
    28d0:	2e 8d       	ldd	r18, Y+30	; 0x1e
    28d2:	3f 8d       	ldd	r19, Y+31	; 0x1f
    28d4:	48 a1       	ldd	r20, Y+32	; 0x20
    28d6:	59 a1       	ldd	r21, Y+33	; 0x21
    28d8:	6a a1       	ldd	r22, Y+34	; 0x22
    28da:	7b a1       	ldd	r23, Y+35	; 0x23
    28dc:	8c a1       	ldd	r24, Y+36	; 0x24
    28de:	9d a1       	ldd	r25, Y+37	; 0x25
    28e0:	0e 94 c4 23 	call	0x4788	; 0x4788 <__mulsi3>
#if FAT_FAT32_SUPPORT
    if(partition->type == PARTITION_TYPE_FAT16)
#endif
    {
        header->root_dir_offset = /* jump to fats */
                                  header->fat_offset +
    28e4:	c6 0e       	add	r12, r22
    28e6:	d7 1e       	adc	r13, r23
    28e8:	e8 1e       	adc	r14, r24
    28ea:	f9 1e       	adc	r15, r25

#if FAT_FAT32_SUPPORT
    if(partition->type == PARTITION_TYPE_FAT16)
#endif
    {
        header->root_dir_offset = /* jump to fats */
    28ec:	c0 92 9f 02 	sts	0x029F, r12
    28f0:	d0 92 a0 02 	sts	0x02A0, r13
    28f4:	e0 92 a1 02 	sts	0x02A1, r14
    28f8:	f0 92 a2 02 	sts	0x02A2, r15
                                  (offset_t) fat_copies * sectors_per_fat * bytes_per_sector;

        header->cluster_zero_offset = /* jump to root directory entries */
                                      header->root_dir_offset +
                                      /* skip root directory entries */
                                      (offset_t) max_root_entries * 32;
    28fc:	ef a1       	ldd	r30, Y+39	; 0x27
    28fe:	f8 a5       	ldd	r31, Y+40	; 0x28
    2900:	cf 01       	movw	r24, r30
    2902:	a0 e0       	ldi	r26, 0x00	; 0
    2904:	b0 e0       	ldi	r27, 0x00	; 0
    2906:	88 0f       	add	r24, r24
    2908:	99 1f       	adc	r25, r25
    290a:	aa 1f       	adc	r26, r26
    290c:	bb 1f       	adc	r27, r27
    290e:	88 0f       	add	r24, r24
    2910:	99 1f       	adc	r25, r25
    2912:	aa 1f       	adc	r26, r26
    2914:	bb 1f       	adc	r27, r27
    2916:	88 0f       	add	r24, r24
    2918:	99 1f       	adc	r25, r25
    291a:	aa 1f       	adc	r26, r26
    291c:	bb 1f       	adc	r27, r27
    291e:	88 0f       	add	r24, r24
    2920:	99 1f       	adc	r25, r25
    2922:	aa 1f       	adc	r26, r26
    2924:	bb 1f       	adc	r27, r27
    2926:	88 0f       	add	r24, r24
    2928:	99 1f       	adc	r25, r25
    292a:	aa 1f       	adc	r26, r26
    292c:	bb 1f       	adc	r27, r27
                                  header->fat_offset +
                                  /* jump to root directory entries */
                                  (offset_t) fat_copies * sectors_per_fat * bytes_per_sector;

        header->cluster_zero_offset = /* jump to root directory entries */
                                      header->root_dir_offset +
    292e:	c8 0e       	add	r12, r24
    2930:	d9 1e       	adc	r13, r25
    2932:	ea 1e       	adc	r14, r26
    2934:	fb 1e       	adc	r15, r27
        header->root_dir_offset = /* jump to fats */
                                  header->fat_offset +
                                  /* jump to root directory entries */
                                  (offset_t) fat_copies * sectors_per_fat * bytes_per_sector;

        header->cluster_zero_offset = /* jump to root directory entries */
    2936:	c0 92 9b 02 	sts	0x029B, r12
    293a:	d0 92 9c 02 	sts	0x029C, r13
    293e:	e0 92 9d 02 	sts	0x029D, r14
    2942:	f0 92 9e 02 	sts	0x029E, r15
    2946:	89 e8       	ldi	r24, 0x89	; 137
    2948:	92 e0       	ldi	r25, 0x02	; 2
    294a:	33 c0       	rjmp	.+102    	; 0x29b2 <fat_open+0x312>
       !partition->device_write_interval
#else
       0
#endif
      )
        return 0;
    294c:	80 e0       	ldi	r24, 0x00	; 0
    294e:	90 e0       	ldi	r25, 0x00	; 0
    2950:	30 c0       	rjmp	.+96     	; 0x29b2 <fat_open+0x312>
    }
    if(i >= FAT_FS_COUNT)
        return 0;
#endif

    memset(fs, 0, sizeof(*fs));
    2952:	e9 e8       	ldi	r30, 0x89	; 137
    2954:	f2 e0       	ldi	r31, 0x02	; 2
    2956:	8c e1       	ldi	r24, 0x1C	; 28
    2958:	df 01       	movw	r26, r30
    295a:	1d 92       	st	X+, r1
    295c:	8a 95       	dec	r24
    295e:	e9 f7       	brne	.-6      	; 0x295a <fat_open+0x2ba>

    fs->partition = partition;
    2960:	11 83       	std	Z+1, r17	; 0x01
    2962:	00 83       	st	Z, r16
#if FAT_FAT32_SUPPORT
    uint8_t buffer[37];
#else
    uint8_t buffer[25];
#endif
    offset_t partition_offset = (offset_t) partition->offset * 512;
    2964:	f8 01       	movw	r30, r16
    2966:	c1 84       	ldd	r12, Z+9	; 0x09
    2968:	d2 84       	ldd	r13, Z+10	; 0x0a
    296a:	e3 84       	ldd	r14, Z+11	; 0x0b
    296c:	f4 84       	ldd	r15, Z+12	; 0x0c
    296e:	46 01       	movw	r8, r12
    2970:	57 01       	movw	r10, r14
    2972:	07 2e       	mov	r0, r23
    2974:	79 e0       	ldi	r23, 0x09	; 9
    2976:	88 0c       	add	r8, r8
    2978:	99 1c       	adc	r9, r9
    297a:	aa 1c       	adc	r10, r10
    297c:	bb 1c       	adc	r11, r11
    297e:	7a 95       	dec	r23
    2980:	d1 f7       	brne	.-12     	; 0x2976 <fat_open+0x2d6>
    2982:	70 2d       	mov	r23, r0
    if(!partition->device_read(partition_offset + 0x0b, buffer, sizeof(buffer)))
    2984:	c5 01       	movw	r24, r10
    2986:	b4 01       	movw	r22, r8
    2988:	65 5f       	subi	r22, 0xF5	; 245
    298a:	7f 4f       	sbci	r23, 0xFF	; 255
    298c:	8f 4f       	sbci	r24, 0xFF	; 255
    298e:	9f 4f       	sbci	r25, 0xFF	; 255
    2990:	01 90       	ld	r0, Z+
    2992:	f0 81       	ld	r31, Z
    2994:	e0 2d       	mov	r30, r0
    2996:	29 e1       	ldi	r18, 0x19	; 25
    2998:	30 e0       	ldi	r19, 0x00	; 0
    299a:	ae 01       	movw	r20, r28
    299c:	4f 5f       	subi	r20, 0xFF	; 255
    299e:	5f 4f       	sbci	r21, 0xFF	; 255
    29a0:	09 95       	icall
    29a2:	81 11       	cpse	r24, r1
    29a4:	a5 ce       	rjmp	.-694    	; 0x26f0 <fat_open+0x50>
    if(!fat_read_header(fs))
    {
#if USE_DYNAMIC_MEMORY
        free(fs);
#else
        fs->partition = 0;
    29a6:	10 92 8a 02 	sts	0x028A, r1
    29aa:	10 92 89 02 	sts	0x0289, r1
#endif
        return 0;
    29ae:	80 e0       	ldi	r24, 0x00	; 0
    29b0:	90 e0       	ldi	r25, 0x00	; 0
    }
    
    return fs;
}
    29b2:	a8 96       	adiw	r28, 0x28	; 40
    29b4:	0f b6       	in	r0, 0x3f	; 63
    29b6:	f8 94       	cli
    29b8:	de bf       	out	0x3e, r29	; 62
    29ba:	0f be       	out	0x3f, r0	; 63
    29bc:	cd bf       	out	0x3d, r28	; 61
    29be:	df 91       	pop	r29
    29c0:	cf 91       	pop	r28
    29c2:	1f 91       	pop	r17
    29c4:	0f 91       	pop	r16
    29c6:	ff 90       	pop	r15
    29c8:	ef 90       	pop	r14
    29ca:	df 90       	pop	r13
    29cc:	cf 90       	pop	r12
    29ce:	bf 90       	pop	r11
    29d0:	af 90       	pop	r10
    29d2:	9f 90       	pop	r9
    29d4:	8f 90       	pop	r8
    29d6:	7f 90       	pop	r7
    29d8:	6f 90       	pop	r6
    29da:	5f 90       	pop	r5
    29dc:	4f 90       	pop	r4
    29de:	3f 90       	pop	r3
    29e0:	2f 90       	pop	r2
    29e2:	08 95       	ret

000029e4 <fat_close>:
 * \param[in] fs The filesystem to close.
 * \see fat_open
 */
void fat_close(struct fat_fs_struct* fs)
{
    if(!fs)
    29e4:	00 97       	sbiw	r24, 0x00	; 0
    29e6:	19 f0       	breq	.+6      	; 0x29ee <fat_close+0xa>
        return;

#if USE_DYNAMIC_MEMORY
    free(fs);
#else
    fs->partition = 0;
    29e8:	fc 01       	movw	r30, r24
    29ea:	11 82       	std	Z+1, r1	; 0x01
    29ec:	10 82       	st	Z, r1
    29ee:	08 95       	ret

000029f0 <fat_open_file>:
 * \param[in] dir_entry The directory entry of the file to open.
 * \returns The file handle, or 0 on failure.
 * \see fat_close_file
 */
struct fat_file_struct* fat_open_file(struct fat_fs_struct* fs, const struct fat_dir_entry_struct* dir_entry)
{
    29f0:	cf 93       	push	r28
    29f2:	df 93       	push	r29
    if(!fs || !dir_entry || (dir_entry->attributes & FAT_ATTRIB_DIR))
    29f4:	00 97       	sbiw	r24, 0x00	; 0
    29f6:	b1 f0       	breq	.+44     	; 0x2a24 <fat_open_file+0x34>
    29f8:	61 15       	cp	r22, r1
    29fa:	71 05       	cpc	r23, r1
    29fc:	b1 f0       	breq	.+44     	; 0x2a2a <fat_open_file+0x3a>
    29fe:	fb 01       	movw	r30, r22
    2a00:	20 a1       	ldd	r18, Z+32	; 0x20
    2a02:	24 fd       	sbrc	r18, 4
    2a04:	15 c0       	rjmp	.+42     	; 0x2a30 <fat_open_file+0x40>
#else
    struct fat_file_struct* fd = fat_file_handles;
    uint8_t i;
    for(i = 0; i < FAT_FILE_COUNT; ++i)
    {
        if(!fd->fs)
    2a06:	20 91 23 02 	lds	r18, 0x0223
    2a0a:	30 91 24 02 	lds	r19, 0x0224
    2a0e:	23 2b       	or	r18, r19
    2a10:	91 f0       	breq	.+36     	; 0x2a36 <fat_open_file+0x46>
    2a12:	20 91 56 02 	lds	r18, 0x0256
    2a16:	30 91 57 02 	lds	r19, 0x0257
    2a1a:	23 2b       	or	r18, r19
    2a1c:	79 f0       	breq	.+30     	; 0x2a3c <fat_open_file+0x4c>
            break;

        ++fd;
    }
    if(i >= FAT_FILE_COUNT)
        return 0;
    2a1e:	80 e0       	ldi	r24, 0x00	; 0
    2a20:	90 e0       	ldi	r25, 0x00	; 0
    2a22:	23 c0       	rjmp	.+70     	; 0x2a6a <fat_open_file+0x7a>
 * \see fat_close_file
 */
struct fat_file_struct* fat_open_file(struct fat_fs_struct* fs, const struct fat_dir_entry_struct* dir_entry)
{
    if(!fs || !dir_entry || (dir_entry->attributes & FAT_ATTRIB_DIR))
        return 0;
    2a24:	80 e0       	ldi	r24, 0x00	; 0
    2a26:	90 e0       	ldi	r25, 0x00	; 0
    2a28:	20 c0       	rjmp	.+64     	; 0x2a6a <fat_open_file+0x7a>
    2a2a:	80 e0       	ldi	r24, 0x00	; 0
    2a2c:	90 e0       	ldi	r25, 0x00	; 0
    2a2e:	1d c0       	rjmp	.+58     	; 0x2a6a <fat_open_file+0x7a>
    2a30:	80 e0       	ldi	r24, 0x00	; 0
    2a32:	90 e0       	ldi	r25, 0x00	; 0
    2a34:	1a c0       	rjmp	.+52     	; 0x2a6a <fat_open_file+0x7a>
#else
    struct fat_file_struct* fd = fat_file_handles;
    uint8_t i;
    for(i = 0; i < FAT_FILE_COUNT; ++i)
    {
        if(!fd->fs)
    2a36:	c3 e2       	ldi	r28, 0x23	; 35
    2a38:	d2 e0       	ldi	r29, 0x02	; 2
    2a3a:	02 c0       	rjmp	.+4      	; 0x2a40 <fat_open_file+0x50>
    2a3c:	c6 e5       	ldi	r28, 0x56	; 86
    2a3e:	d2 e0       	ldi	r29, 0x02	; 2
    }
    if(i >= FAT_FILE_COUNT)
        return 0;
#endif
    
    memcpy(&fd->dir_entry, dir_entry, sizeof(*dir_entry));
    2a40:	de 01       	movw	r26, r28
    2a42:	12 96       	adiw	r26, 0x02	; 2
    2a44:	2b e2       	ldi	r18, 0x2B	; 43
    2a46:	fb 01       	movw	r30, r22
    2a48:	01 90       	ld	r0, Z+
    2a4a:	0d 92       	st	X+, r0
    2a4c:	2a 95       	dec	r18
    2a4e:	e1 f7       	brne	.-8      	; 0x2a48 <fat_open_file+0x58>
    fd->fs = fs;
    2a50:	99 83       	std	Y+1, r25	; 0x01
    2a52:	88 83       	st	Y, r24
    fd->pos = 0;
    2a54:	1d a6       	std	Y+45, r1	; 0x2d
    2a56:	1e a6       	std	Y+46, r1	; 0x2e
    2a58:	1f a6       	std	Y+47, r1	; 0x2f
    2a5a:	18 aa       	std	Y+48, r1	; 0x30
    fd->pos_cluster = dir_entry->cluster;
    2a5c:	fb 01       	movw	r30, r22
    2a5e:	81 a1       	ldd	r24, Z+33	; 0x21
    2a60:	92 a1       	ldd	r25, Z+34	; 0x22
    2a62:	9a ab       	std	Y+50, r25	; 0x32
    2a64:	89 ab       	std	Y+49, r24	; 0x31

    return fd;
    2a66:	8c 2f       	mov	r24, r28
    2a68:	9d 2f       	mov	r25, r29
}
    2a6a:	df 91       	pop	r29
    2a6c:	cf 91       	pop	r28
    2a6e:	08 95       	ret

00002a70 <fat_close_file>:
 * \param[in] fd The file handle of the file to close.
 * \see fat_open_file
 */
void fat_close_file(struct fat_file_struct* fd)
{
    if(fd)
    2a70:	00 97       	sbiw	r24, 0x00	; 0
    2a72:	19 f0       	breq	.+6      	; 0x2a7a <fat_close_file+0xa>
#endif

#if USE_DYNAMIC_MEMORY
        free(fd);
#else
        fd->fs = 0;
    2a74:	fc 01       	movw	r30, r24
    2a76:	11 82       	std	Z+1, r1	; 0x01
    2a78:	10 82       	st	Z, r1
    2a7a:	08 95       	ret

00002a7c <fat_read_file>:
 * \param[in] buffer_len The amount of data to read.
 * \returns The number of bytes read, 0 on end of file, or -1 on failure.
 * \see fat_write_file
 */
intptr_t fat_read_file(struct fat_file_struct* fd, uint8_t* buffer, uintptr_t buffer_len)
{
    2a7c:	2f 92       	push	r2
    2a7e:	3f 92       	push	r3
    2a80:	4f 92       	push	r4
    2a82:	5f 92       	push	r5
    2a84:	6f 92       	push	r6
    2a86:	7f 92       	push	r7
    2a88:	8f 92       	push	r8
    2a8a:	9f 92       	push	r9
    2a8c:	af 92       	push	r10
    2a8e:	bf 92       	push	r11
    2a90:	cf 92       	push	r12
    2a92:	df 92       	push	r13
    2a94:	ef 92       	push	r14
    2a96:	ff 92       	push	r15
    2a98:	0f 93       	push	r16
    2a9a:	1f 93       	push	r17
    2a9c:	cf 93       	push	r28
    2a9e:	df 93       	push	r29
    2aa0:	cd b7       	in	r28, 0x3d	; 61
    2aa2:	de b7       	in	r29, 0x3e	; 62
    2aa4:	28 97       	sbiw	r28, 0x08	; 8
    2aa6:	0f b6       	in	r0, 0x3f	; 63
    2aa8:	f8 94       	cli
    2aaa:	de bf       	out	0x3e, r29	; 62
    2aac:	0f be       	out	0x3f, r0	; 63
    2aae:	cd bf       	out	0x3d, r28	; 61
    2ab0:	98 87       	std	Y+8, r25	; 0x08
    2ab2:	8f 83       	std	Y+7, r24	; 0x07
    2ab4:	1b 01       	movw	r2, r22
    2ab6:	5e 83       	std	Y+6, r21	; 0x06
    2ab8:	4d 83       	std	Y+5, r20	; 0x05
    /* check arguments */
    if(!fd || !buffer || buffer_len < 1)
    2aba:	00 97       	sbiw	r24, 0x00	; 0
    2abc:	09 f4       	brne	.+2      	; 0x2ac0 <fat_read_file+0x44>
    2abe:	f6 c0       	rjmp	.+492    	; 0x2cac <fat_read_file+0x230>
    2ac0:	61 15       	cp	r22, r1
    2ac2:	71 05       	cpc	r23, r1
    2ac4:	09 f4       	brne	.+2      	; 0x2ac8 <fat_read_file+0x4c>
    2ac6:	f5 c0       	rjmp	.+490    	; 0x2cb2 <fat_read_file+0x236>
    2ac8:	45 2b       	or	r20, r21
    2aca:	09 f4       	brne	.+2      	; 0x2ace <fat_read_file+0x52>
    2acc:	f5 c0       	rjmp	.+490    	; 0x2cb8 <fat_read_file+0x23c>
        return -1;

    /* determine number of bytes to read */
    if(fd->pos + buffer_len > fd->dir_entry.file_size)
    2ace:	dc 01       	movw	r26, r24
    2ad0:	9d 96       	adiw	r26, 0x2d	; 45
    2ad2:	cd 90       	ld	r12, X+
    2ad4:	dd 90       	ld	r13, X+
    2ad6:	ed 90       	ld	r14, X+
    2ad8:	fc 90       	ld	r15, X
    2ada:	d0 97       	sbiw	r26, 0x30	; 48
    2adc:	fc 01       	movw	r30, r24
    2ade:	85 a1       	ldd	r24, Z+37	; 0x25
    2ae0:	96 a1       	ldd	r25, Z+38	; 0x26
    2ae2:	a7 a1       	ldd	r26, Z+39	; 0x27
    2ae4:	b0 a5       	ldd	r27, Z+40	; 0x28
    2ae6:	b7 01       	movw	r22, r14
    2ae8:	a6 01       	movw	r20, r12
    2aea:	2d 81       	ldd	r18, Y+5	; 0x05
    2aec:	3e 81       	ldd	r19, Y+6	; 0x06
    2aee:	42 0f       	add	r20, r18
    2af0:	53 1f       	adc	r21, r19
    2af2:	61 1d       	adc	r22, r1
    2af4:	71 1d       	adc	r23, r1
    2af6:	84 17       	cp	r24, r20
    2af8:	95 07       	cpc	r25, r21
    2afa:	a6 07       	cpc	r26, r22
    2afc:	b7 07       	cpc	r27, r23
    2afe:	40 f4       	brcc	.+16     	; 0x2b10 <fat_read_file+0x94>
        buffer_len = fd->dir_entry.file_size - fd->pos;
    2b00:	fc 01       	movw	r30, r24
    2b02:	ec 19       	sub	r30, r12
    2b04:	fd 09       	sbc	r31, r13
    2b06:	fe 83       	std	Y+6, r31	; 0x06
    2b08:	ed 83       	std	Y+5, r30	; 0x05
    if(buffer_len == 0)
    2b0a:	ef 2b       	or	r30, r31
    2b0c:	09 f4       	brne	.+2      	; 0x2b10 <fat_read_file+0x94>
    2b0e:	d7 c0       	rjmp	.+430    	; 0x2cbe <fat_read_file+0x242>
        return 0;
    
    uint16_t cluster_size = fd->fs->header.cluster_size;
    2b10:	af 81       	ldd	r26, Y+7	; 0x07
    2b12:	b8 85       	ldd	r27, Y+8	; 0x08
    2b14:	ed 91       	ld	r30, X+
    2b16:	fc 91       	ld	r31, X
    2b18:	11 97       	sbiw	r26, 0x01	; 1
    2b1a:	60 88       	ldd	r6, Z+16	; 0x10
    2b1c:	71 88       	ldd	r7, Z+17	; 0x11
    cluster_t cluster_num = fd->pos_cluster;
    2b1e:	d1 96       	adiw	r26, 0x31	; 49
    2b20:	0d 91       	ld	r16, X+
    2b22:	1c 91       	ld	r17, X
    2b24:	d2 97       	sbiw	r26, 0x32	; 50
    uintptr_t buffer_left = buffer_len;
    uint16_t first_cluster_offset = (uint16_t) (fd->pos & (cluster_size - 1));

    /* find cluster in which to start reading */
    if(!cluster_num)
    2b26:	01 15       	cp	r16, r1
    2b28:	11 05       	cpc	r17, r1
    2b2a:	e9 f5       	brne	.+122    	; 0x2ba6 <fat_read_file+0x12a>
    {
        cluster_num = fd->dir_entry.cluster;
    2b2c:	93 96       	adiw	r26, 0x23	; 35
    2b2e:	0d 91       	ld	r16, X+
    2b30:	1c 91       	ld	r17, X
    2b32:	94 97       	sbiw	r26, 0x24	; 36
        
        if(!cluster_num)
    2b34:	01 15       	cp	r16, r1
    2b36:	11 05       	cpc	r17, r1
    2b38:	61 f4       	brne	.+24     	; 0x2b52 <fat_read_file+0xd6>
        {
            if(!fd->pos)
    2b3a:	81 e0       	ldi	r24, 0x01	; 1
    2b3c:	90 e0       	ldi	r25, 0x00	; 0
    2b3e:	cd 28       	or	r12, r13
    2b40:	ce 28       	or	r12, r14
    2b42:	cf 28       	or	r12, r15
    2b44:	11 f4       	brne	.+4      	; 0x2b4a <fat_read_file+0xce>
    2b46:	80 e0       	ldi	r24, 0x00	; 0
    2b48:	90 e0       	ldi	r25, 0x00	; 0
    2b4a:	91 95       	neg	r25
    2b4c:	81 95       	neg	r24
    2b4e:	91 09       	sbc	r25, r1
    2b50:	bb c0       	rjmp	.+374    	; 0x2cc8 <fat_read_file+0x24c>
                return 0;
            else
                return -1;
        }

        if(fd->pos)
    2b52:	c1 14       	cp	r12, r1
    2b54:	d1 04       	cpc	r13, r1
    2b56:	e1 04       	cpc	r14, r1
    2b58:	f1 04       	cpc	r15, r1
    2b5a:	29 f1       	breq	.+74     	; 0x2ba6 <fat_read_file+0x12a>
    2b5c:	46 01       	movw	r8, r12
    2b5e:	57 01       	movw	r10, r14
        {
            uint32_t pos = fd->pos;
            while(pos >= cluster_size)
    2b60:	c3 01       	movw	r24, r6
    2b62:	a0 e0       	ldi	r26, 0x00	; 0
    2b64:	b0 e0       	ldi	r27, 0x00	; 0
    2b66:	89 83       	std	Y+1, r24	; 0x01
    2b68:	9a 83       	std	Y+2, r25	; 0x02
    2b6a:	ab 83       	std	Y+3, r26	; 0x03
    2b6c:	bc 83       	std	Y+4, r27	; 0x04
    2b6e:	c8 01       	movw	r24, r16
    2b70:	83 01       	movw	r16, r6
    2b72:	49 80       	ldd	r4, Y+1	; 0x01
    2b74:	5a 80       	ldd	r5, Y+2	; 0x02
    2b76:	6b 80       	ldd	r6, Y+3	; 0x03
    2b78:	7c 80       	ldd	r7, Y+4	; 0x04
    2b7a:	0e c0       	rjmp	.+28     	; 0x2b98 <fat_read_file+0x11c>
            {
                pos -= cluster_size;
    2b7c:	84 18       	sub	r8, r4
    2b7e:	95 08       	sbc	r9, r5
    2b80:	a6 08       	sbc	r10, r6
    2b82:	b7 08       	sbc	r11, r7
                cluster_num = fat_get_next_cluster(fd->fs, cluster_num);
    2b84:	bc 01       	movw	r22, r24
    2b86:	ef 81       	ldd	r30, Y+7	; 0x07
    2b88:	f8 85       	ldd	r31, Y+8	; 0x08
    2b8a:	80 81       	ld	r24, Z
    2b8c:	91 81       	ldd	r25, Z+1	; 0x01
    2b8e:	0e 94 41 12 	call	0x2482	; 0x2482 <fat_get_next_cluster>
                if(!cluster_num)
    2b92:	00 97       	sbiw	r24, 0x00	; 0
    2b94:	09 f4       	brne	.+2      	; 0x2b98 <fat_read_file+0x11c>
    2b96:	96 c0       	rjmp	.+300    	; 0x2cc4 <fat_read_file+0x248>
        }

        if(fd->pos)
        {
            uint32_t pos = fd->pos;
            while(pos >= cluster_size)
    2b98:	84 14       	cp	r8, r4
    2b9a:	95 04       	cpc	r9, r5
    2b9c:	a6 04       	cpc	r10, r6
    2b9e:	b7 04       	cpc	r11, r7
    2ba0:	68 f7       	brcc	.-38     	; 0x2b7c <fat_read_file+0x100>
    2ba2:	38 01       	movw	r6, r16
    2ba4:	8c 01       	movw	r16, r24
        return 0;
    
    uint16_t cluster_size = fd->fs->header.cluster_size;
    cluster_t cluster_num = fd->pos_cluster;
    uintptr_t buffer_left = buffer_len;
    uint16_t first_cluster_offset = (uint16_t) (fd->pos & (cluster_size - 1));
    2ba6:	c3 01       	movw	r24, r6
    2ba8:	01 97       	sbiw	r24, 0x01	; 1
    2baa:	c8 22       	and	r12, r24
    2bac:	d9 22       	and	r13, r25
    2bae:	ad 80       	ldd	r10, Y+5	; 0x05
    2bb0:	be 80       	ldd	r11, Y+6	; 0x06
 * \returns The cluster offset.
 */
offset_t fat_cluster_offset(const struct fat_fs_struct* fs, cluster_t cluster_num)
{
    if(!fs || cluster_num < 2)
        return 0;
    2bb2:	91 2c       	mov	r9, r1
    2bb4:	81 2c       	mov	r8, r1
        if(first_cluster_offset + copy_length >= cluster_size)
        {
            /* we are on a cluster boundary, so get the next cluster */
            if((cluster_num = fat_get_next_cluster(fd->fs, cluster_num)))
            {
                first_cluster_offset = 0;
    2bb6:	51 2c       	mov	r5, r1
    2bb8:	41 2c       	mov	r4, r1
    }
    /* read data */
    do
    {
        /* calculate data size to copy from cluster */
        offset_t cluster_offset = fat_cluster_offset(fd->fs, cluster_num) + first_cluster_offset;
    2bba:	af 81       	ldd	r26, Y+7	; 0x07
    2bbc:	b8 85       	ldd	r27, Y+8	; 0x08
    2bbe:	ed 91       	ld	r30, X+
    2bc0:	fc 91       	ld	r31, X
 * \param[in] cluster_num The cluster whose offset to calculate.
 * \returns The cluster offset.
 */
offset_t fat_cluster_offset(const struct fat_fs_struct* fs, cluster_t cluster_num)
{
    if(!fs || cluster_num < 2)
    2bc2:	30 97       	sbiw	r30, 0x00	; 0
    2bc4:	a9 f0       	breq	.+42     	; 0x2bf0 <fat_read_file+0x174>
    2bc6:	02 30       	cpi	r16, 0x02	; 2
    2bc8:	11 05       	cpc	r17, r1
    2bca:	b8 f0       	brcs	.+46     	; 0x2bfa <fat_read_file+0x17e>
        return 0;

    return fs->header.cluster_zero_offset + (offset_t) (cluster_num - 2) * fs->header.cluster_size;
    2bcc:	a0 89       	ldd	r26, Z+16	; 0x10
    2bce:	b1 89       	ldd	r27, Z+17	; 0x11
    2bd0:	98 01       	movw	r18, r16
    2bd2:	22 50       	subi	r18, 0x02	; 2
    2bd4:	31 09       	sbc	r19, r1
    2bd6:	0e 94 29 24 	call	0x4852	; 0x4852 <__umulhisi3>
    2bda:	22 89       	ldd	r18, Z+18	; 0x12
    2bdc:	33 89       	ldd	r19, Z+19	; 0x13
    2bde:	44 89       	ldd	r20, Z+20	; 0x14
    2be0:	55 89       	ldd	r21, Z+21	; 0x15
    2be2:	dc 01       	movw	r26, r24
    2be4:	cb 01       	movw	r24, r22
    2be6:	82 0f       	add	r24, r18
    2be8:	93 1f       	adc	r25, r19
    2bea:	a4 1f       	adc	r26, r20
    2bec:	b5 1f       	adc	r27, r21
    2bee:	09 c0       	rjmp	.+18     	; 0x2c02 <fat_read_file+0x186>
 * \returns The cluster offset.
 */
offset_t fat_cluster_offset(const struct fat_fs_struct* fs, cluster_t cluster_num)
{
    if(!fs || cluster_num < 2)
        return 0;
    2bf0:	89 2d       	mov	r24, r9
    2bf2:	98 2d       	mov	r25, r8
    2bf4:	a0 e0       	ldi	r26, 0x00	; 0
    2bf6:	b0 e0       	ldi	r27, 0x00	; 0
    2bf8:	04 c0       	rjmp	.+8      	; 0x2c02 <fat_read_file+0x186>
    2bfa:	89 2d       	mov	r24, r9
    2bfc:	98 2d       	mov	r25, r8
    2bfe:	a0 e0       	ldi	r26, 0x00	; 0
    2c00:	b0 e0       	ldi	r27, 0x00	; 0
    2c02:	73 01       	movw	r14, r6
    2c04:	ec 18       	sub	r14, r12
    2c06:	fd 08       	sbc	r15, r13
    2c08:	ae 14       	cp	r10, r14
    2c0a:	bf 04       	cpc	r11, r15
    2c0c:	08 f4       	brcc	.+2      	; 0x2c10 <fat_read_file+0x194>
    2c0e:	75 01       	movw	r14, r10
        uint16_t copy_length = cluster_size - first_cluster_offset;
        if(copy_length > buffer_left)
            copy_length = buffer_left;

        /* read data */
        if(!fd->fs->partition->device_read(cluster_offset, buffer, copy_length))
    2c10:	01 90       	ld	r0, Z+
    2c12:	f0 81       	ld	r31, Z
    2c14:	e0 2d       	mov	r30, r0
    }
    /* read data */
    do
    {
        /* calculate data size to copy from cluster */
        offset_t cluster_offset = fat_cluster_offset(fd->fs, cluster_num) + first_cluster_offset;
    2c16:	bc 01       	movw	r22, r24
    2c18:	cd 01       	movw	r24, r26
    2c1a:	6c 0d       	add	r22, r12
    2c1c:	7d 1d       	adc	r23, r13
    2c1e:	81 1d       	adc	r24, r1
    2c20:	91 1d       	adc	r25, r1
        uint16_t copy_length = cluster_size - first_cluster_offset;
        if(copy_length > buffer_left)
            copy_length = buffer_left;

        /* read data */
        if(!fd->fs->partition->device_read(cluster_offset, buffer, copy_length))
    2c22:	01 90       	ld	r0, Z+
    2c24:	f0 81       	ld	r31, Z
    2c26:	e0 2d       	mov	r30, r0
    2c28:	97 01       	movw	r18, r14
    2c2a:	a1 01       	movw	r20, r2
    2c2c:	09 95       	icall
    2c2e:	81 11       	cpse	r24, r1
    2c30:	05 c0       	rjmp	.+10     	; 0x2c3c <fat_read_file+0x1c0>
            return buffer_len - buffer_left;
    2c32:	8d 81       	ldd	r24, Y+5	; 0x05
    2c34:	9e 81       	ldd	r25, Y+6	; 0x06
    2c36:	8a 19       	sub	r24, r10
    2c38:	9b 09       	sbc	r25, r11
    2c3a:	46 c0       	rjmp	.+140    	; 0x2cc8 <fat_read_file+0x24c>

        /* calculate new file position */
        buffer += copy_length;
    2c3c:	2e 0c       	add	r2, r14
    2c3e:	3f 1c       	adc	r3, r15
        buffer_left -= copy_length;
    2c40:	ae 18       	sub	r10, r14
    2c42:	bf 08       	sbc	r11, r15
        fd->pos += copy_length;
    2c44:	ef 81       	ldd	r30, Y+7	; 0x07
    2c46:	f8 85       	ldd	r31, Y+8	; 0x08
    2c48:	85 a5       	ldd	r24, Z+45	; 0x2d
    2c4a:	96 a5       	ldd	r25, Z+46	; 0x2e
    2c4c:	a7 a5       	ldd	r26, Z+47	; 0x2f
    2c4e:	b0 a9       	ldd	r27, Z+48	; 0x30
    2c50:	8e 0d       	add	r24, r14
    2c52:	9f 1d       	adc	r25, r15
    2c54:	a1 1d       	adc	r26, r1
    2c56:	b1 1d       	adc	r27, r1
    2c58:	85 a7       	std	Z+45, r24	; 0x2d
    2c5a:	96 a7       	std	Z+46, r25	; 0x2e
    2c5c:	a7 a7       	std	Z+47, r26	; 0x2f
    2c5e:	b0 ab       	std	Z+48, r27	; 0x30

        if(first_cluster_offset + copy_length >= cluster_size)
    2c60:	ec 0c       	add	r14, r12
    2c62:	fd 1c       	adc	r15, r13
    2c64:	e6 14       	cp	r14, r6
    2c66:	f7 04       	cpc	r15, r7
    2c68:	b0 f0       	brcs	.+44     	; 0x2c96 <fat_read_file+0x21a>
        {
            /* we are on a cluster boundary, so get the next cluster */
            if((cluster_num = fat_get_next_cluster(fd->fs, cluster_num)))
    2c6a:	b8 01       	movw	r22, r16
    2c6c:	80 81       	ld	r24, Z
    2c6e:	91 81       	ldd	r25, Z+1	; 0x01
    2c70:	0e 94 41 12 	call	0x2482	; 0x2482 <fat_get_next_cluster>
    2c74:	8c 01       	movw	r16, r24
    2c76:	00 97       	sbiw	r24, 0x00	; 0
    2c78:	61 f4       	brne	.+24     	; 0x2c92 <fat_read_file+0x216>
    2c7a:	2f 81       	ldd	r18, Y+7	; 0x07
    2c7c:	38 85       	ldd	r19, Y+8	; 0x08
            {
                first_cluster_offset = 0;
            }
            else
            {
                fd->pos_cluster = 0;
    2c7e:	d9 01       	movw	r26, r18
    2c80:	d2 96       	adiw	r26, 0x32	; 50
    2c82:	1c 92       	st	X, r1
    2c84:	1e 92       	st	-X, r1
    2c86:	d1 97       	sbiw	r26, 0x31	; 49
                return buffer_len - buffer_left;
    2c88:	8d 81       	ldd	r24, Y+5	; 0x05
    2c8a:	9e 81       	ldd	r25, Y+6	; 0x06
    2c8c:	8a 19       	sub	r24, r10
    2c8e:	9b 09       	sbc	r25, r11
    2c90:	1b c0       	rjmp	.+54     	; 0x2cc8 <fat_read_file+0x24c>
        if(first_cluster_offset + copy_length >= cluster_size)
        {
            /* we are on a cluster boundary, so get the next cluster */
            if((cluster_num = fat_get_next_cluster(fd->fs, cluster_num)))
            {
                first_cluster_offset = 0;
    2c92:	c5 2c       	mov	r12, r5
    2c94:	d4 2c       	mov	r13, r4
                fd->pos_cluster = 0;
                return buffer_len - buffer_left;
            }
        }

        fd->pos_cluster = cluster_num;
    2c96:	ef 81       	ldd	r30, Y+7	; 0x07
    2c98:	f8 85       	ldd	r31, Y+8	; 0x08
    2c9a:	12 ab       	std	Z+50, r17	; 0x32
    2c9c:	01 ab       	std	Z+49, r16	; 0x31

    } while(buffer_left > 0); /* check if we are done */
    2c9e:	a1 14       	cp	r10, r1
    2ca0:	b1 04       	cpc	r11, r1
    2ca2:	09 f0       	breq	.+2      	; 0x2ca6 <fat_read_file+0x22a>
    2ca4:	8a cf       	rjmp	.-236    	; 0x2bba <fat_read_file+0x13e>

    return buffer_len;
    2ca6:	8d 81       	ldd	r24, Y+5	; 0x05
    2ca8:	9e 81       	ldd	r25, Y+6	; 0x06
    2caa:	0e c0       	rjmp	.+28     	; 0x2cc8 <fat_read_file+0x24c>
 */
intptr_t fat_read_file(struct fat_file_struct* fd, uint8_t* buffer, uintptr_t buffer_len)
{
    /* check arguments */
    if(!fd || !buffer || buffer_len < 1)
        return -1;
    2cac:	8f ef       	ldi	r24, 0xFF	; 255
    2cae:	9f ef       	ldi	r25, 0xFF	; 255
    2cb0:	0b c0       	rjmp	.+22     	; 0x2cc8 <fat_read_file+0x24c>
    2cb2:	8f ef       	ldi	r24, 0xFF	; 255
    2cb4:	9f ef       	ldi	r25, 0xFF	; 255
    2cb6:	08 c0       	rjmp	.+16     	; 0x2cc8 <fat_read_file+0x24c>
    2cb8:	8f ef       	ldi	r24, 0xFF	; 255
    2cba:	9f ef       	ldi	r25, 0xFF	; 255
    2cbc:	05 c0       	rjmp	.+10     	; 0x2cc8 <fat_read_file+0x24c>

    /* determine number of bytes to read */
    if(fd->pos + buffer_len > fd->dir_entry.file_size)
        buffer_len = fd->dir_entry.file_size - fd->pos;
    if(buffer_len == 0)
        return 0;
    2cbe:	80 e0       	ldi	r24, 0x00	; 0
    2cc0:	90 e0       	ldi	r25, 0x00	; 0
    2cc2:	02 c0       	rjmp	.+4      	; 0x2cc8 <fat_read_file+0x24c>
            while(pos >= cluster_size)
            {
                pos -= cluster_size;
                cluster_num = fat_get_next_cluster(fd->fs, cluster_num);
                if(!cluster_num)
                    return -1;
    2cc4:	8f ef       	ldi	r24, 0xFF	; 255
    2cc6:	9f ef       	ldi	r25, 0xFF	; 255
        fd->pos_cluster = cluster_num;

    } while(buffer_left > 0); /* check if we are done */

    return buffer_len;
}
    2cc8:	28 96       	adiw	r28, 0x08	; 8
    2cca:	0f b6       	in	r0, 0x3f	; 63
    2ccc:	f8 94       	cli
    2cce:	de bf       	out	0x3e, r29	; 62
    2cd0:	0f be       	out	0x3f, r0	; 63
    2cd2:	cd bf       	out	0x3d, r28	; 61
    2cd4:	df 91       	pop	r29
    2cd6:	cf 91       	pop	r28
    2cd8:	1f 91       	pop	r17
    2cda:	0f 91       	pop	r16
    2cdc:	ff 90       	pop	r15
    2cde:	ef 90       	pop	r14
    2ce0:	df 90       	pop	r13
    2ce2:	cf 90       	pop	r12
    2ce4:	bf 90       	pop	r11
    2ce6:	af 90       	pop	r10
    2ce8:	9f 90       	pop	r9
    2cea:	8f 90       	pop	r8
    2cec:	7f 90       	pop	r7
    2cee:	6f 90       	pop	r6
    2cf0:	5f 90       	pop	r5
    2cf2:	4f 90       	pop	r4
    2cf4:	3f 90       	pop	r3
    2cf6:	2f 90       	pop	r2
    2cf8:	08 95       	ret

00002cfa <fat_open_dir>:
 * \param[in] dir_entry The directory entry which stands for the directory to open.
 * \returns An opaque directory descriptor on success, 0 on failure.
 * \see fat_close_dir
 */
struct fat_dir_struct* fat_open_dir(struct fat_fs_struct* fs, const struct fat_dir_entry_struct* dir_entry)
{
    2cfa:	cf 93       	push	r28
    2cfc:	df 93       	push	r29
    if(!fs || !dir_entry || !(dir_entry->attributes & FAT_ATTRIB_DIR))
    2cfe:	00 97       	sbiw	r24, 0x00	; 0
    2d00:	e9 f0       	breq	.+58     	; 0x2d3c <fat_open_dir+0x42>
    2d02:	61 15       	cp	r22, r1
    2d04:	71 05       	cpc	r23, r1
    2d06:	e9 f0       	breq	.+58     	; 0x2d42 <fat_open_dir+0x48>
    2d08:	fb 01       	movw	r30, r22
    2d0a:	20 a1       	ldd	r18, Z+32	; 0x20
    2d0c:	24 ff       	sbrs	r18, 4
    2d0e:	1c c0       	rjmp	.+56     	; 0x2d48 <fat_open_dir+0x4e>
#else
    struct fat_dir_struct* dd = fat_dir_handles;
    uint8_t i;
    for(i = 0; i < FAT_DIR_COUNT; ++i)
    {
        if(!dd->fs)
    2d10:	20 91 90 01 	lds	r18, 0x0190
    2d14:	30 91 91 01 	lds	r19, 0x0191
    2d18:	23 2b       	or	r18, r19
    2d1a:	e1 f0       	breq	.+56     	; 0x2d54 <fat_open_dir+0x5a>
    2d1c:	20 91 c1 01 	lds	r18, 0x01C1
    2d20:	30 91 c2 01 	lds	r19, 0x01C2
    2d24:	23 2b       	or	r18, r19
    2d26:	39 f0       	breq	.+14     	; 0x2d36 <fat_open_dir+0x3c>
            break;

        ++dd;
    2d28:	c2 ef       	ldi	r28, 0xF2	; 242
    2d2a:	d1 e0       	ldi	r29, 0x01	; 1
#else
    struct fat_dir_struct* dd = fat_dir_handles;
    uint8_t i;
    for(i = 0; i < FAT_DIR_COUNT; ++i)
    {
        if(!dd->fs)
    2d2c:	28 81       	ld	r18, Y
    2d2e:	39 81       	ldd	r19, Y+1	; 0x01
    2d30:	23 2b       	or	r18, r19
    2d32:	69 f4       	brne	.+26     	; 0x2d4e <fat_open_dir+0x54>
    2d34:	11 c0       	rjmp	.+34     	; 0x2d58 <fat_open_dir+0x5e>
            break;

        ++dd;
    2d36:	c1 ec       	ldi	r28, 0xC1	; 193
    2d38:	d1 e0       	ldi	r29, 0x01	; 1
    2d3a:	0e c0       	rjmp	.+28     	; 0x2d58 <fat_open_dir+0x5e>
 * \see fat_close_dir
 */
struct fat_dir_struct* fat_open_dir(struct fat_fs_struct* fs, const struct fat_dir_entry_struct* dir_entry)
{
    if(!fs || !dir_entry || !(dir_entry->attributes & FAT_ATTRIB_DIR))
        return 0;
    2d3c:	80 e0       	ldi	r24, 0x00	; 0
    2d3e:	90 e0       	ldi	r25, 0x00	; 0
    2d40:	1e c0       	rjmp	.+60     	; 0x2d7e <fat_open_dir+0x84>
    2d42:	80 e0       	ldi	r24, 0x00	; 0
    2d44:	90 e0       	ldi	r25, 0x00	; 0
    2d46:	1b c0       	rjmp	.+54     	; 0x2d7e <fat_open_dir+0x84>
    2d48:	80 e0       	ldi	r24, 0x00	; 0
    2d4a:	90 e0       	ldi	r25, 0x00	; 0
    2d4c:	18 c0       	rjmp	.+48     	; 0x2d7e <fat_open_dir+0x84>
            break;

        ++dd;
    }
    if(i >= FAT_DIR_COUNT)
        return 0;
    2d4e:	80 e0       	ldi	r24, 0x00	; 0
    2d50:	90 e0       	ldi	r25, 0x00	; 0
    2d52:	15 c0       	rjmp	.+42     	; 0x2d7e <fat_open_dir+0x84>
#else
    struct fat_dir_struct* dd = fat_dir_handles;
    uint8_t i;
    for(i = 0; i < FAT_DIR_COUNT; ++i)
    {
        if(!dd->fs)
    2d54:	c0 e9       	ldi	r28, 0x90	; 144
    2d56:	d1 e0       	ldi	r29, 0x01	; 1
    }
    if(i >= FAT_DIR_COUNT)
        return 0;
#endif
    
    memcpy(&dd->dir_entry, dir_entry, sizeof(*dir_entry));
    2d58:	de 01       	movw	r26, r28
    2d5a:	12 96       	adiw	r26, 0x02	; 2
    2d5c:	2b e2       	ldi	r18, 0x2B	; 43
    2d5e:	fb 01       	movw	r30, r22
    2d60:	01 90       	ld	r0, Z+
    2d62:	0d 92       	st	X+, r0
    2d64:	2a 95       	dec	r18
    2d66:	e1 f7       	brne	.-8      	; 0x2d60 <fat_open_dir+0x66>
    dd->fs = fs;
    2d68:	99 83       	std	Y+1, r25	; 0x01
    2d6a:	88 83       	st	Y, r24
    dd->entry_cluster = dir_entry->cluster;
    2d6c:	fb 01       	movw	r30, r22
    2d6e:	81 a1       	ldd	r24, Z+33	; 0x21
    2d70:	92 a1       	ldd	r25, Z+34	; 0x22
    2d72:	9e a7       	std	Y+46, r25	; 0x2e
    2d74:	8d a7       	std	Y+45, r24	; 0x2d
    dd->entry_offset = 0;
    2d76:	18 aa       	std	Y+48, r1	; 0x30
    2d78:	1f a6       	std	Y+47, r1	; 0x2f

    return dd;
    2d7a:	8c 2f       	mov	r24, r28
    2d7c:	9d 2f       	mov	r25, r29
}
    2d7e:	df 91       	pop	r29
    2d80:	cf 91       	pop	r28
    2d82:	08 95       	ret

00002d84 <fat_close_dir>:
 * \param[in] dd The directory descriptor to close.
 * \see fat_open_dir
 */
void fat_close_dir(struct fat_dir_struct* dd)
{
    if(dd)
    2d84:	00 97       	sbiw	r24, 0x00	; 0
    2d86:	19 f0       	breq	.+6      	; 0x2d8e <fat_close_dir+0xa>
#if USE_DYNAMIC_MEMORY
        free(dd);
#else
        dd->fs = 0;
    2d88:	fc 01       	movw	r30, r24
    2d8a:	11 82       	std	Z+1, r1	; 0x01
    2d8c:	10 82       	st	Z, r1
    2d8e:	08 95       	ret

00002d90 <fat_reset_dir>:
 * \param[in] dd The directory handle to reset.
 * \returns 0 on failure, 1 on success.
 * \see fat_read_dir
 */
uint8_t fat_reset_dir(struct fat_dir_struct* dd)
{
    2d90:	fc 01       	movw	r30, r24
    if(!dd)
    2d92:	00 97       	sbiw	r24, 0x00	; 0
    2d94:	41 f0       	breq	.+16     	; 0x2da6 <fat_reset_dir+0x16>
        return 0;

    dd->entry_cluster = dd->dir_entry.cluster;
    2d96:	83 a1       	ldd	r24, Z+35	; 0x23
    2d98:	94 a1       	ldd	r25, Z+36	; 0x24
    2d9a:	96 a7       	std	Z+46, r25	; 0x2e
    2d9c:	85 a7       	std	Z+45, r24	; 0x2d
    dd->entry_offset = 0;
    2d9e:	10 aa       	std	Z+48, r1	; 0x30
    2da0:	17 a6       	std	Z+47, r1	; 0x2f
    return 1;
    2da2:	81 e0       	ldi	r24, 0x01	; 1
    2da4:	08 95       	ret
 * \see fat_read_dir
 */
uint8_t fat_reset_dir(struct fat_dir_struct* dd)
{
    if(!dd)
        return 0;
    2da6:	80 e0       	ldi	r24, 0x00	; 0

    dd->entry_cluster = dd->dir_entry.cluster;
    dd->entry_offset = 0;
    return 1;
}
    2da8:	08 95       	ret

00002daa <fat_read_dir>:
 * \param[out] dir_entry Pointer to a buffer into which to write the directory entry information.
 * \returns 0 on failure, 1 on success.
 * \see fat_reset_dir
 */
uint8_t fat_read_dir(struct fat_dir_struct* dd, struct fat_dir_entry_struct* dir_entry)
{
    2daa:	2f 92       	push	r2
    2dac:	3f 92       	push	r3
    2dae:	4f 92       	push	r4
    2db0:	5f 92       	push	r5
    2db2:	6f 92       	push	r6
    2db4:	7f 92       	push	r7
    2db6:	8f 92       	push	r8
    2db8:	9f 92       	push	r9
    2dba:	af 92       	push	r10
    2dbc:	bf 92       	push	r11
    2dbe:	cf 92       	push	r12
    2dc0:	df 92       	push	r13
    2dc2:	ef 92       	push	r14
    2dc4:	ff 92       	push	r15
    2dc6:	0f 93       	push	r16
    2dc8:	1f 93       	push	r17
    2dca:	cf 93       	push	r28
    2dcc:	df 93       	push	r29
    2dce:	cd b7       	in	r28, 0x3d	; 61
    2dd0:	de b7       	in	r29, 0x3e	; 62
    2dd2:	ab 97       	sbiw	r28, 0x2b	; 43
    2dd4:	0f b6       	in	r0, 0x3f	; 63
    2dd6:	f8 94       	cli
    2dd8:	de bf       	out	0x3e, r29	; 62
    2dda:	0f be       	out	0x3f, r0	; 63
    2ddc:	cd bf       	out	0x3d, r28	; 61
    2dde:	9f a3       	std	Y+39, r25	; 0x27
    2de0:	8e a3       	std	Y+38, r24	; 0x26
    if(!dd || !dir_entry)
    2de2:	00 97       	sbiw	r24, 0x00	; 0
    2de4:	09 f4       	brne	.+2      	; 0x2de8 <fat_read_dir+0x3e>
    2de6:	c5 c0       	rjmp	.+394    	; 0x2f72 <fat_read_dir+0x1c8>
    2de8:	61 15       	cp	r22, r1
    2dea:	71 05       	cpc	r23, r1
    2dec:	09 f4       	brne	.+2      	; 0x2df0 <fat_read_dir+0x46>
    2dee:	c3 c0       	rjmp	.+390    	; 0x2f76 <fat_read_dir+0x1cc>
        return 0;

    /* get current position of directory handle */
    struct fat_fs_struct* fs = dd->fs;
    2df0:	dc 01       	movw	r26, r24
    2df2:	6d 90       	ld	r6, X+
    2df4:	7c 90       	ld	r7, X
    2df6:	11 97       	sbiw	r26, 0x01	; 1
    const struct fat_header_struct* header = &fs->header;
    uint16_t cluster_size = header->cluster_size;
    2df8:	f3 01       	movw	r30, r6
    2dfa:	80 88       	ldd	r8, Z+16	; 0x10
    2dfc:	91 88       	ldd	r9, Z+17	; 0x11
    cluster_t cluster_num = dd->entry_cluster;
    2dfe:	9d 96       	adiw	r26, 0x2d	; 45
    2e00:	2d 90       	ld	r2, X+
    2e02:	3c 90       	ld	r3, X
    2e04:	9e 97       	sbiw	r26, 0x2e	; 46
    uint16_t cluster_offset = dd->entry_offset;
    2e06:	9f 96       	adiw	r26, 0x2f	; 47
    2e08:	ad 90       	ld	r10, X+
    2e0a:	bc 90       	ld	r11, X
    2e0c:	d0 97       	sbiw	r26, 0x30	; 48
    struct fat_read_dir_callback_arg arg;

    if(cluster_offset >= cluster_size)
    2e0e:	a8 14       	cp	r10, r8
    2e10:	b9 04       	cpc	r11, r9
    2e12:	20 f0       	brcs	.+8      	; 0x2e1c <fat_read_dir+0x72>
        /* The latest call hit the border of the last cluster in
         * the chain, but it still returned a directory entry.
         * So we now reset the handle and signal the caller the
         * end of the listing.
         */
        fat_reset_dir(dd);
    2e14:	0e 94 c8 16 	call	0x2d90	; 0x2d90 <fat_reset_dir>
        return 0;
    2e18:	80 e0       	ldi	r24, 0x00	; 0
    2e1a:	b0 c0       	rjmp	.+352    	; 0x2f7c <fat_read_dir+0x1d2>
    }

    /* reset callback arguments */
    memset(&arg, 0, sizeof(arg));
    2e1c:	fe 01       	movw	r30, r28
    2e1e:	31 96       	adiw	r30, 0x01	; 1
    2e20:	85 e0       	ldi	r24, 0x05	; 5
    2e22:	df 01       	movw	r26, r30
    2e24:	1d 92       	st	X+, r1
    2e26:	8a 95       	dec	r24
    2e28:	e9 f7       	brne	.-6      	; 0x2e24 <fat_read_dir+0x7a>
    memset(dir_entry, 0, sizeof(*dir_entry));
    2e2a:	8b e2       	ldi	r24, 0x2B	; 43
    2e2c:	fb 01       	movw	r30, r22
    2e2e:	11 92       	st	Z+, r1
    2e30:	8a 95       	dec	r24
    2e32:	e9 f7       	brne	.-6      	; 0x2e2e <fat_read_dir+0x84>
    arg.dir_entry = dir_entry;
    2e34:	7a 83       	std	Y+2, r23	; 0x02
    2e36:	69 83       	std	Y+1, r22	; 0x01

    /* check if we read from the root directory */
    if(cluster_num == 0)
    2e38:	21 14       	cp	r2, r1
    2e3a:	31 04       	cpc	r3, r1
    2e3c:	09 f0       	breq	.+2      	; 0x2e40 <fat_read_dir+0x96>
    2e3e:	7e c0       	rjmp	.+252    	; 0x2f3c <fat_read_dir+0x192>
#if FAT_FAT32_SUPPORT
        if(fs->partition->type == PARTITION_TYPE_FAT32)
            cluster_num = header->root_dir_cluster;
        else
#endif
            cluster_size = header->cluster_zero_offset - header->root_dir_offset;
    2e40:	d3 01       	movw	r26, r6
    2e42:	52 96       	adiw	r26, 0x12	; 18
    2e44:	8d 90       	ld	r8, X+
    2e46:	9c 90       	ld	r9, X
    2e48:	53 97       	sbiw	r26, 0x13	; 19
    2e4a:	56 96       	adiw	r26, 0x16	; 22
    2e4c:	8d 91       	ld	r24, X+
    2e4e:	9c 91       	ld	r25, X
    2e50:	57 97       	sbiw	r26, 0x17	; 23
    2e52:	88 1a       	sub	r8, r24
    2e54:	99 0a       	sbc	r9, r25
    2e56:	72 c0       	rjmp	.+228    	; 0x2f3c <fat_read_dir+0x192>
    /* read entries */
    uint8_t buffer[32];
    while(!arg.finished)
    {
        /* read directory entries up to the cluster border */
        uint16_t cluster_left = cluster_size - cluster_offset;
    2e58:	84 01       	movw	r16, r8
    2e5a:	0a 19       	sub	r16, r10
    2e5c:	1b 09       	sbc	r17, r11
        offset_t pos = cluster_offset;
    2e5e:	65 01       	movw	r12, r10
    2e60:	e1 2c       	mov	r14, r1
    2e62:	f1 2c       	mov	r15, r1
        if(cluster_num == 0)
    2e64:	21 14       	cp	r2, r1
    2e66:	31 04       	cpc	r3, r1
    2e68:	61 f4       	brne	.+24     	; 0x2e82 <fat_read_dir+0xd8>
            pos += header->root_dir_offset;
    2e6a:	f3 01       	movw	r30, r6
    2e6c:	86 89       	ldd	r24, Z+22	; 0x16
    2e6e:	97 89       	ldd	r25, Z+23	; 0x17
    2e70:	a0 8d       	ldd	r26, Z+24	; 0x18
    2e72:	b1 8d       	ldd	r27, Z+25	; 0x19
    2e74:	bc 01       	movw	r22, r24
    2e76:	cd 01       	movw	r24, r26
    2e78:	6c 0d       	add	r22, r12
    2e7a:	7d 1d       	adc	r23, r13
    2e7c:	8e 1d       	adc	r24, r14
    2e7e:	9f 1d       	adc	r25, r15
    2e80:	2a c0       	rjmp	.+84     	; 0x2ed6 <fat_read_dir+0x12c>
 * \param[in] cluster_num The cluster whose offset to calculate.
 * \returns The cluster offset.
 */
offset_t fat_cluster_offset(const struct fat_fs_struct* fs, cluster_t cluster_num)
{
    if(!fs || cluster_num < 2)
    2e82:	61 14       	cp	r6, r1
    2e84:	71 04       	cpc	r7, r1
    2e86:	c1 f0       	breq	.+48     	; 0x2eb8 <fat_read_dir+0x10e>
    2e88:	f2 e0       	ldi	r31, 0x02	; 2
    2e8a:	2f 16       	cp	r2, r31
    2e8c:	31 04       	cpc	r3, r1
    2e8e:	c8 f0       	brcs	.+50     	; 0x2ec2 <fat_read_dir+0x118>
        return 0;

    return fs->header.cluster_zero_offset + (offset_t) (cluster_num - 2) * fs->header.cluster_size;
    2e90:	f3 01       	movw	r30, r6
    2e92:	a0 89       	ldd	r26, Z+16	; 0x10
    2e94:	b1 89       	ldd	r27, Z+17	; 0x11
    2e96:	28 a5       	ldd	r18, Y+40	; 0x28
    2e98:	39 a5       	ldd	r19, Y+41	; 0x29
    2e9a:	4a a5       	ldd	r20, Y+42	; 0x2a
    2e9c:	5b a5       	ldd	r21, Y+43	; 0x2b
    2e9e:	0e 94 38 24 	call	0x4870	; 0x4870 <__muluhisi3>
    2ea2:	22 89       	ldd	r18, Z+18	; 0x12
    2ea4:	33 89       	ldd	r19, Z+19	; 0x13
    2ea6:	44 89       	ldd	r20, Z+20	; 0x14
    2ea8:	55 89       	ldd	r21, Z+21	; 0x15
    2eaa:	dc 01       	movw	r26, r24
    2eac:	cb 01       	movw	r24, r22
    2eae:	82 0f       	add	r24, r18
    2eb0:	93 1f       	adc	r25, r19
    2eb2:	a4 1f       	adc	r26, r20
    2eb4:	b5 1f       	adc	r27, r21
    2eb6:	09 c0       	rjmp	.+18     	; 0x2eca <fat_read_dir+0x120>
 * \returns The cluster offset.
 */
offset_t fat_cluster_offset(const struct fat_fs_struct* fs, cluster_t cluster_num)
{
    if(!fs || cluster_num < 2)
        return 0;
    2eb8:	80 e0       	ldi	r24, 0x00	; 0
    2eba:	90 e0       	ldi	r25, 0x00	; 0
    2ebc:	a0 e0       	ldi	r26, 0x00	; 0
    2ebe:	b0 e0       	ldi	r27, 0x00	; 0
    2ec0:	04 c0       	rjmp	.+8      	; 0x2eca <fat_read_dir+0x120>
    2ec2:	80 e0       	ldi	r24, 0x00	; 0
    2ec4:	90 e0       	ldi	r25, 0x00	; 0
    2ec6:	a0 e0       	ldi	r26, 0x00	; 0
    2ec8:	b0 e0       	ldi	r27, 0x00	; 0
        uint16_t cluster_left = cluster_size - cluster_offset;
        offset_t pos = cluster_offset;
        if(cluster_num == 0)
            pos += header->root_dir_offset;
        else
            pos += fat_cluster_offset(fs, cluster_num);
    2eca:	bc 01       	movw	r22, r24
    2ecc:	cd 01       	movw	r24, r26
    2ece:	6c 0d       	add	r22, r12
    2ed0:	7d 1d       	adc	r23, r13
    2ed2:	8e 1d       	adc	r24, r14
    2ed4:	9f 1d       	adc	r25, r15

        arg.bytes_read = 0;
    2ed6:	1c 82       	std	Y+4, r1	; 0x04
    2ed8:	1b 82       	std	Y+3, r1	; 0x03
        if(!fs->partition->device_read_interval(pos,
    2eda:	d3 01       	movw	r26, r6
    2edc:	ed 91       	ld	r30, X+
    2ede:	fc 91       	ld	r31, X
    2ee0:	02 80       	ldd	r0, Z+2	; 0x02
    2ee2:	f3 81       	ldd	r31, Z+3	; 0x03
    2ee4:	e0 2d       	mov	r30, r0
    2ee6:	9e 01       	movw	r18, r28
    2ee8:	2f 5f       	subi	r18, 0xFF	; 255
    2eea:	3f 4f       	sbci	r19, 0xFF	; 255
    2eec:	69 01       	movw	r12, r18
    2eee:	0f 2e       	mov	r0, r31
    2ef0:	f0 e9       	ldi	r31, 0x90	; 144
    2ef2:	ef 2e       	mov	r14, r31
    2ef4:	f2 e1       	ldi	r31, 0x12	; 18
    2ef6:	ff 2e       	mov	r15, r31
    2ef8:	f0 2d       	mov	r31, r0
    2efa:	20 e2       	ldi	r18, 0x20	; 32
    2efc:	30 e0       	ldi	r19, 0x00	; 0
    2efe:	ae 01       	movw	r20, r28
    2f00:	4a 5f       	subi	r20, 0xFA	; 250
    2f02:	5f 4f       	sbci	r21, 0xFF	; 255
    2f04:	09 95       	icall
    2f06:	88 23       	and	r24, r24
    2f08:	c1 f1       	breq	.+112    	; 0x2f7a <fat_read_dir+0x1d0>
                                                fat_dir_entry_read_callback,
                                                &arg)
          )
            return 0;

        cluster_offset += arg.bytes_read;
    2f0a:	8b 81       	ldd	r24, Y+3	; 0x03
    2f0c:	9c 81       	ldd	r25, Y+4	; 0x04
    2f0e:	a8 0e       	add	r10, r24
    2f10:	b9 1e       	adc	r11, r25

        if(cluster_offset >= cluster_size)
    2f12:	a8 14       	cp	r10, r8
    2f14:	b9 04       	cpc	r11, r9
    2f16:	e8 f0       	brcs	.+58     	; 0x2f52 <fat_read_dir+0x1a8>
        {
            /* we reached the cluster border and switch to the next cluster */

            /* get number of next cluster */
            if((cluster_num = fat_get_next_cluster(fs, cluster_num)) != 0)
    2f18:	b1 01       	movw	r22, r2
    2f1a:	c3 01       	movw	r24, r6
    2f1c:	0e 94 41 12 	call	0x2482	; 0x2482 <fat_get_next_cluster>
    2f20:	1c 01       	movw	r2, r24
    2f22:	00 97       	sbiw	r24, 0x00	; 0
    2f24:	49 f4       	brne	.+18     	; 0x2f38 <fat_read_dir+0x18e>
                cluster_offset = 0;
                continue;
            }

            /* we are at the end of the cluster chain */
            if(!arg.finished)
    2f26:	8d 81       	ldd	r24, Y+5	; 0x05
    2f28:	81 11       	cpse	r24, r1
    2f2a:	17 c0       	rjmp	.+46     	; 0x2f5a <fat_read_dir+0x1b0>
            {
                /* directory entry not found, reset directory handle */
                fat_reset_dir(dd);
    2f2c:	8e a1       	ldd	r24, Y+38	; 0x26
    2f2e:	9f a1       	ldd	r25, Y+39	; 0x27
    2f30:	0e 94 c8 16 	call	0x2d90	; 0x2d90 <fat_reset_dir>
                return 0;
    2f34:	80 e0       	ldi	r24, 0x00	; 0
    2f36:	22 c0       	rjmp	.+68     	; 0x2f7c <fat_read_dir+0x1d2>
            /* we reached the cluster border and switch to the next cluster */

            /* get number of next cluster */
            if((cluster_num = fat_get_next_cluster(fs, cluster_num)) != 0)
            {
                cluster_offset = 0;
    2f38:	a1 2c       	mov	r10, r1
    2f3a:	b1 2c       	mov	r11, r1
offset_t fat_cluster_offset(const struct fat_fs_struct* fs, cluster_t cluster_num)
{
    if(!fs || cluster_num < 2)
        return 0;

    return fs->header.cluster_zero_offset + (offset_t) (cluster_num - 2) * fs->header.cluster_size;
    2f3c:	21 01       	movw	r4, r2
    2f3e:	32 e0       	ldi	r19, 0x02	; 2
    2f40:	43 1a       	sub	r4, r19
    2f42:	51 08       	sbc	r5, r1
    2f44:	c2 01       	movw	r24, r4
    2f46:	a0 e0       	ldi	r26, 0x00	; 0
    2f48:	b0 e0       	ldi	r27, 0x00	; 0
    2f4a:	88 a7       	std	Y+40, r24	; 0x28
    2f4c:	99 a7       	std	Y+41, r25	; 0x29
    2f4e:	aa a7       	std	Y+42, r26	; 0x2a
    2f50:	bb a7       	std	Y+43, r27	; 0x2b
            cluster_size = header->cluster_zero_offset - header->root_dir_offset;
    }

    /* read entries */
    uint8_t buffer[32];
    while(!arg.finished)
    2f52:	8d 81       	ldd	r24, Y+5	; 0x05
    2f54:	88 23       	and	r24, r24
    2f56:	09 f4       	brne	.+2      	; 0x2f5a <fat_read_dir+0x1b0>
    2f58:	7f cf       	rjmp	.-258    	; 0x2e58 <fat_read_dir+0xae>

            break;
        }
    }

    dd->entry_cluster = cluster_num;
    2f5a:	ae a1       	ldd	r26, Y+38	; 0x26
    2f5c:	bf a1       	ldd	r27, Y+39	; 0x27
    2f5e:	9e 96       	adiw	r26, 0x2e	; 46
    2f60:	3c 92       	st	X, r3
    2f62:	2e 92       	st	-X, r2
    2f64:	9d 97       	sbiw	r26, 0x2d	; 45
    dd->entry_offset = cluster_offset;
    2f66:	d0 96       	adiw	r26, 0x30	; 48
    2f68:	bc 92       	st	X, r11
    2f6a:	ae 92       	st	-X, r10
    2f6c:	9f 97       	sbiw	r26, 0x2f	; 47

    return arg.finished;
    2f6e:	8d 81       	ldd	r24, Y+5	; 0x05
    2f70:	05 c0       	rjmp	.+10     	; 0x2f7c <fat_read_dir+0x1d2>
 * \see fat_reset_dir
 */
uint8_t fat_read_dir(struct fat_dir_struct* dd, struct fat_dir_entry_struct* dir_entry)
{
    if(!dd || !dir_entry)
        return 0;
    2f72:	80 e0       	ldi	r24, 0x00	; 0
    2f74:	03 c0       	rjmp	.+6      	; 0x2f7c <fat_read_dir+0x1d2>
    2f76:	80 e0       	ldi	r24, 0x00	; 0
    2f78:	01 c0       	rjmp	.+2      	; 0x2f7c <fat_read_dir+0x1d2>
                                                sizeof(buffer),
                                                cluster_left,
                                                fat_dir_entry_read_callback,
                                                &arg)
          )
            return 0;
    2f7a:	80 e0       	ldi	r24, 0x00	; 0

    dd->entry_cluster = cluster_num;
    dd->entry_offset = cluster_offset;

    return arg.finished;
}
    2f7c:	ab 96       	adiw	r28, 0x2b	; 43
    2f7e:	0f b6       	in	r0, 0x3f	; 63
    2f80:	f8 94       	cli
    2f82:	de bf       	out	0x3e, r29	; 62
    2f84:	0f be       	out	0x3f, r0	; 63
    2f86:	cd bf       	out	0x3d, r28	; 61
    2f88:	df 91       	pop	r29
    2f8a:	cf 91       	pop	r28
    2f8c:	1f 91       	pop	r17
    2f8e:	0f 91       	pop	r16
    2f90:	ff 90       	pop	r15
    2f92:	ef 90       	pop	r14
    2f94:	df 90       	pop	r13
    2f96:	cf 90       	pop	r12
    2f98:	bf 90       	pop	r11
    2f9a:	af 90       	pop	r10
    2f9c:	9f 90       	pop	r9
    2f9e:	8f 90       	pop	r8
    2fa0:	7f 90       	pop	r7
    2fa2:	6f 90       	pop	r6
    2fa4:	5f 90       	pop	r5
    2fa6:	4f 90       	pop	r4
    2fa8:	3f 90       	pop	r3
    2faa:	2f 90       	pop	r2
    2fac:	08 95       	ret

00002fae <fat_get_dir_entry_of_path>:
 * \param[out] dir_entry The directory entry to fill.
 * \returns 0 on failure, 1 on success.
 * \see fat_read_dir
 */
uint8_t fat_get_dir_entry_of_path(struct fat_fs_struct* fs, const char* path, struct fat_dir_entry_struct* dir_entry)
{
    2fae:	4f 92       	push	r4
    2fb0:	5f 92       	push	r5
    2fb2:	6f 92       	push	r6
    2fb4:	7f 92       	push	r7
    2fb6:	8f 92       	push	r8
    2fb8:	9f 92       	push	r9
    2fba:	af 92       	push	r10
    2fbc:	bf 92       	push	r11
    2fbe:	cf 92       	push	r12
    2fc0:	df 92       	push	r13
    2fc2:	ef 92       	push	r14
    2fc4:	ff 92       	push	r15
    2fc6:	0f 93       	push	r16
    2fc8:	1f 93       	push	r17
    2fca:	cf 93       	push	r28
    2fcc:	df 93       	push	r29
    2fce:	5c 01       	movw	r10, r24
    2fd0:	6b 01       	movw	r12, r22
    2fd2:	ea 01       	movw	r28, r20
    if(!fs || !path || path[0] == '\0' || !dir_entry)
    2fd4:	00 97       	sbiw	r24, 0x00	; 0
    2fd6:	09 f4       	brne	.+2      	; 0x2fda <fat_get_dir_entry_of_path+0x2c>
    2fd8:	74 c0       	rjmp	.+232    	; 0x30c2 <fat_get_dir_entry_of_path+0x114>
    2fda:	61 15       	cp	r22, r1
    2fdc:	71 05       	cpc	r23, r1
    2fde:	09 f4       	brne	.+2      	; 0x2fe2 <fat_get_dir_entry_of_path+0x34>
    2fe0:	72 c0       	rjmp	.+228    	; 0x30c6 <fat_get_dir_entry_of_path+0x118>
    2fe2:	fb 01       	movw	r30, r22
    2fe4:	80 81       	ld	r24, Z
    2fe6:	88 23       	and	r24, r24
    2fe8:	09 f4       	brne	.+2      	; 0x2fec <fat_get_dir_entry_of_path+0x3e>
    2fea:	6f c0       	rjmp	.+222    	; 0x30ca <fat_get_dir_entry_of_path+0x11c>
    2fec:	20 97       	sbiw	r28, 0x00	; 0
    2fee:	09 f4       	brne	.+2      	; 0x2ff2 <fat_get_dir_entry_of_path+0x44>
    2ff0:	6e c0       	rjmp	.+220    	; 0x30ce <fat_get_dir_entry_of_path+0x120>
        return 0;

    if(path[0] == '/')
    2ff2:	8f 32       	cpi	r24, 0x2F	; 47
    2ff4:	19 f4       	brne	.+6      	; 0x2ffc <fat_get_dir_entry_of_path+0x4e>
        ++path;
    2ff6:	ff ef       	ldi	r31, 0xFF	; 255
    2ff8:	cf 1a       	sub	r12, r31
    2ffa:	df 0a       	sbc	r13, r31

    /* begin with the root directory */
    memset(dir_entry, 0, sizeof(*dir_entry));
    2ffc:	8b e2       	ldi	r24, 0x2B	; 43
    2ffe:	fe 01       	movw	r30, r28
    3000:	11 92       	st	Z+, r1
    3002:	8a 95       	dec	r24
    3004:	e9 f7       	brne	.-6      	; 0x3000 <fat_get_dir_entry_of_path+0x52>
    dir_entry->attributes = FAT_ATTRIB_DIR;
    3006:	80 e1       	ldi	r24, 0x10	; 16
    3008:	88 a3       	std	Y+32, r24	; 0x20

    while(1)
    {
        if(path[0] == '\0')
    300a:	f6 01       	movw	r30, r12
    300c:	80 81       	ld	r24, Z
    300e:	88 23       	and	r24, r24
    3010:	09 f4       	brne	.+2      	; 0x3014 <fat_get_dir_entry_of_path+0x66>
    3012:	5f c0       	rjmp	.+190    	; 0x30d2 <fat_get_dir_entry_of_path+0x124>
            if((strlen(dir_entry->long_name) != length_to_sep ||
                strncmp(path, dir_entry->long_name, length_to_sep) != 0))
                continue;

            fat_close_dir(dd);
            dd = 0;
    3014:	41 2c       	mov	r4, r1
    3016:	51 2c       	mov	r5, r1
    while(1)
    {
        if(path[0] == '\0')
            return 1;

        struct fat_dir_struct* dd = fat_open_dir(fs, dir_entry);
    3018:	be 01       	movw	r22, r28
    301a:	c5 01       	movw	r24, r10
    301c:	0e 94 7d 16 	call	0x2cfa	; 0x2cfa <fat_open_dir>
    3020:	8c 01       	movw	r16, r24
        if(!dd)
    3022:	00 97       	sbiw	r24, 0x00	; 0
    3024:	09 f4       	brne	.+2      	; 0x3028 <fat_get_dir_entry_of_path+0x7a>
    3026:	57 c0       	rjmp	.+174    	; 0x30d6 <fat_get_dir_entry_of_path+0x128>
            break;

        /* extract the next hierarchy we will search for */
        const char* sub_path = strchr(path, '/');
    3028:	6f e2       	ldi	r22, 0x2F	; 47
    302a:	70 e0       	ldi	r23, 0x00	; 0
    302c:	c6 01       	movw	r24, r12
    302e:	0e 94 ba 24 	call	0x4974	; 0x4974 <strchr>
        uint8_t length_to_sep;
        if(sub_path)
    3032:	00 97       	sbiw	r24, 0x00	; 0
    3034:	41 f0       	breq	.+16     	; 0x3046 <fat_get_dir_entry_of_path+0x98>
        {
            length_to_sep = sub_path - path;
    3036:	e8 2e       	mov	r14, r24
    3038:	ec 18       	sub	r14, r12
            ++sub_path;
    303a:	4c 01       	movw	r8, r24
    303c:	ff ef       	ldi	r31, 0xFF	; 255
    303e:	8f 1a       	sub	r8, r31
    3040:	9f 0a       	sbc	r9, r31
        
        /* read directory entries */
        while(fat_read_dir(dd, dir_entry))
        {
            /* check if we have found the next hierarchy */
            if((strlen(dir_entry->long_name) != length_to_sep ||
    3042:	f1 2c       	mov	r15, r1
    3044:	2c c0       	rjmp	.+88     	; 0x309e <fat_get_dir_entry_of_path+0xf0>
            length_to_sep = sub_path - path;
            ++sub_path;
        }
        else
        {
            length_to_sep = strlen(path);
    3046:	f6 01       	movw	r30, r12
    3048:	01 90       	ld	r0, Z+
    304a:	00 20       	and	r0, r0
    304c:	e9 f7       	brne	.-6      	; 0x3048 <fat_get_dir_entry_of_path+0x9a>
    304e:	31 97       	sbiw	r30, 0x01	; 1
    3050:	ec 19       	sub	r30, r12
    3052:	fd 09       	sbc	r31, r13
    3054:	ee 2e       	mov	r14, r30
            sub_path = path + length_to_sep;
    3056:	46 01       	movw	r8, r12
    3058:	8e 0e       	add	r8, r30
    305a:	91 1c       	adc	r9, r1
    305c:	f2 cf       	rjmp	.-28     	; 0x3042 <fat_get_dir_entry_of_path+0x94>
        
        /* read directory entries */
        while(fat_read_dir(dd, dir_entry))
        {
            /* check if we have found the next hierarchy */
            if((strlen(dir_entry->long_name) != length_to_sep ||
    305e:	fe 01       	movw	r30, r28
    3060:	01 90       	ld	r0, Z+
    3062:	00 20       	and	r0, r0
    3064:	e9 f7       	brne	.-6      	; 0x3060 <fat_get_dir_entry_of_path+0xb2>
    3066:	31 97       	sbiw	r30, 0x01	; 1
    3068:	3f 01       	movw	r6, r30
    306a:	6c 1a       	sub	r6, r28
    306c:	7d 0a       	sbc	r7, r29
    306e:	6e 14       	cp	r6, r14
    3070:	7f 04       	cpc	r7, r15
    3072:	a9 f4       	brne	.+42     	; 0x309e <fat_get_dir_entry_of_path+0xf0>
                strncmp(path, dir_entry->long_name, length_to_sep) != 0))
    3074:	a3 01       	movw	r20, r6
    3076:	be 01       	movw	r22, r28
    3078:	c6 01       	movw	r24, r12
    307a:	0e 94 d5 24 	call	0x49aa	; 0x49aa <strncmp>
        
        /* read directory entries */
        while(fat_read_dir(dd, dir_entry))
        {
            /* check if we have found the next hierarchy */
            if((strlen(dir_entry->long_name) != length_to_sep ||
    307e:	89 2b       	or	r24, r25
    3080:	71 f4       	brne	.+28     	; 0x309e <fat_get_dir_entry_of_path+0xf0>
                strncmp(path, dir_entry->long_name, length_to_sep) != 0))
                continue;

            fat_close_dir(dd);
    3082:	c8 01       	movw	r24, r16
    3084:	0e 94 c2 16 	call	0x2d84	; 0x2d84 <fat_close_dir>
            dd = 0;

            if(path[length_to_sep] == '\0')
    3088:	f6 01       	movw	r30, r12
    308a:	e6 0d       	add	r30, r6
    308c:	f7 1d       	adc	r31, r7
    308e:	80 81       	ld	r24, Z
    3090:	88 23       	and	r24, r24
    3092:	19 f1       	breq	.+70     	; 0x30da <fat_get_dir_entry_of_path+0x12c>
                /* we iterated through the whole path and have found the file */
                return 1;

            if(dir_entry->attributes & FAT_ATTRIB_DIR)
    3094:	88 a1       	ldd	r24, Y+32	; 0x20
    3096:	84 fd       	sbrc	r24, 4
    3098:	09 c0       	rjmp	.+18     	; 0x30ac <fat_get_dir_entry_of_path+0xfe>
                path = sub_path;
                break;
            }

            /* a parent of the file exists, but not the file itself */
            return 0;
    309a:	80 e0       	ldi	r24, 0x00	; 0
    309c:	21 c0       	rjmp	.+66     	; 0x30e0 <fat_get_dir_entry_of_path+0x132>
            length_to_sep = strlen(path);
            sub_path = path + length_to_sep;
        }
        
        /* read directory entries */
        while(fat_read_dir(dd, dir_entry))
    309e:	be 01       	movw	r22, r28
    30a0:	c8 01       	movw	r24, r16
    30a2:	0e 94 d5 16 	call	0x2daa	; 0x2daa <fat_read_dir>
    30a6:	81 11       	cpse	r24, r1
    30a8:	da cf       	rjmp	.-76     	; 0x305e <fat_get_dir_entry_of_path+0xb0>
    30aa:	03 c0       	rjmp	.+6      	; 0x30b2 <fat_get_dir_entry_of_path+0x104>
                return 1;

            if(dir_entry->attributes & FAT_ATTRIB_DIR)
            {
                /* we found a parent directory of the file we are searching for */
                path = sub_path;
    30ac:	64 01       	movw	r12, r8
            if((strlen(dir_entry->long_name) != length_to_sep ||
                strncmp(path, dir_entry->long_name, length_to_sep) != 0))
                continue;

            fat_close_dir(dd);
            dd = 0;
    30ae:	04 2d       	mov	r16, r4
    30b0:	15 2d       	mov	r17, r5

            /* a parent of the file exists, but not the file itself */
            return 0;
        }

        fat_close_dir(dd);
    30b2:	c8 01       	movw	r24, r16
    30b4:	0e 94 c2 16 	call	0x2d84	; 0x2d84 <fat_close_dir>
    memset(dir_entry, 0, sizeof(*dir_entry));
    dir_entry->attributes = FAT_ATTRIB_DIR;

    while(1)
    {
        if(path[0] == '\0')
    30b8:	f6 01       	movw	r30, r12
    30ba:	80 81       	ld	r24, Z
    30bc:	81 11       	cpse	r24, r1
    30be:	ac cf       	rjmp	.-168    	; 0x3018 <fat_get_dir_entry_of_path+0x6a>
    30c0:	0e c0       	rjmp	.+28     	; 0x30de <fat_get_dir_entry_of_path+0x130>
 * \see fat_read_dir
 */
uint8_t fat_get_dir_entry_of_path(struct fat_fs_struct* fs, const char* path, struct fat_dir_entry_struct* dir_entry)
{
    if(!fs || !path || path[0] == '\0' || !dir_entry)
        return 0;
    30c2:	80 e0       	ldi	r24, 0x00	; 0
    30c4:	0d c0       	rjmp	.+26     	; 0x30e0 <fat_get_dir_entry_of_path+0x132>
    30c6:	80 e0       	ldi	r24, 0x00	; 0
    30c8:	0b c0       	rjmp	.+22     	; 0x30e0 <fat_get_dir_entry_of_path+0x132>
    30ca:	80 e0       	ldi	r24, 0x00	; 0
    30cc:	09 c0       	rjmp	.+18     	; 0x30e0 <fat_get_dir_entry_of_path+0x132>
    30ce:	80 e0       	ldi	r24, 0x00	; 0
    30d0:	07 c0       	rjmp	.+14     	; 0x30e0 <fat_get_dir_entry_of_path+0x132>
    dir_entry->attributes = FAT_ATTRIB_DIR;

    while(1)
    {
        if(path[0] == '\0')
            return 1;
    30d2:	81 e0       	ldi	r24, 0x01	; 1
    30d4:	05 c0       	rjmp	.+10     	; 0x30e0 <fat_get_dir_entry_of_path+0x132>
        }

        fat_close_dir(dd);
    }
    
    return 0;
    30d6:	80 e0       	ldi	r24, 0x00	; 0
    30d8:	03 c0       	rjmp	.+6      	; 0x30e0 <fat_get_dir_entry_of_path+0x132>
            fat_close_dir(dd);
            dd = 0;

            if(path[length_to_sep] == '\0')
                /* we iterated through the whole path and have found the file */
                return 1;
    30da:	81 e0       	ldi	r24, 0x01	; 1
    30dc:	01 c0       	rjmp	.+2      	; 0x30e0 <fat_get_dir_entry_of_path+0x132>
    dir_entry->attributes = FAT_ATTRIB_DIR;

    while(1)
    {
        if(path[0] == '\0')
            return 1;
    30de:	81 e0       	ldi	r24, 0x01	; 1

        fat_close_dir(dd);
    }
    
    return 0;
}
    30e0:	df 91       	pop	r29
    30e2:	cf 91       	pop	r28
    30e4:	1f 91       	pop	r17
    30e6:	0f 91       	pop	r16
    30e8:	ff 90       	pop	r15
    30ea:	ef 90       	pop	r14
    30ec:	df 90       	pop	r13
    30ee:	cf 90       	pop	r12
    30f0:	bf 90       	pop	r11
    30f2:	af 90       	pop	r10
    30f4:	9f 90       	pop	r9
    30f6:	8f 90       	pop	r8
    30f8:	7f 90       	pop	r7
    30fa:	6f 90       	pop	r6
    30fc:	5f 90       	pop	r5
    30fe:	4f 90       	pop	r4
    3100:	08 95       	ret

00003102 <bad_sdcard>:
static struct fat_dir_struct *dd;
static struct fat_file_struct *fd;
static struct partition_struct *partition;


void bad_sdcard(const char *msg){
    3102:	cf 93       	push	r28
    3104:	df 93       	push	r29
    3106:	ec 01       	movw	r28, r24
	cls();
    3108:	0e 94 51 22 	call	0x44a2	; 0x44a2 <cls>
	select_font(FONT_ASCII);
    310c:	82 e0       	ldi	r24, 0x02	; 2
    310e:	0e 94 0e 1e 	call	0x3c1c	; 0x3c1c <select_font>
	prt_pstr(msg);
    3112:	ce 01       	movw	r24, r28
    3114:	0e 94 d3 1e 	call	0x3da6	; 0x3da6 <prt_pstr>
	prompt_btn();
    3118:	0e 94 eb 19 	call	0x33d6	; 0x33d6 <prompt_btn>
}
    311c:	df 91       	pop	r29
    311e:	cf 91       	pop	r28
    3120:	08 95       	ret

00003122 <fs_mount>:


uint8_t fs_mount(){
    3122:	0f 93       	push	r16
		if (get_pin_available()){
    3124:	18 99       	sbic	0x03, 0	; 3
    3126:	40 c0       	rjmp	.+128    	; 0x31a8 <fs_mount+0x86>
			// pas de carte SD
			// dans le lecteur
			return 0;
		}
        /* ouvre la première partition */
        partition = partition_open(sd_raw_read, sd_raw_read_interval, 0, 0, 0);
    3128:	00 e0       	ldi	r16, 0x00	; 0
    312a:	20 e0       	ldi	r18, 0x00	; 0
    312c:	30 e0       	ldi	r19, 0x00	; 0
    312e:	40 e0       	ldi	r20, 0x00	; 0
    3130:	50 e0       	ldi	r21, 0x00	; 0
    3132:	69 e0       	ldi	r22, 0x09	; 9
    3134:	7c e1       	ldi	r23, 0x1C	; 28
    3136:	8e e8       	ldi	r24, 0x8E	; 142
    3138:	9b e1       	ldi	r25, 0x1B	; 27
    313a:	0e 94 19 1a 	call	0x3432	; 0x3432 <partition_open>
    313e:	90 93 a6 02 	sts	0x02A6, r25
    3142:	80 93 a5 02 	sts	0x02A5, r24
        if(!partition)
    3146:	89 2b       	or	r24, r25
    3148:	b9 f4       	brne	.+46     	; 0x3178 <fs_mount+0x56>
        {
            /* Si la partition n'a pas ouvert essaie
             * pour  "superfloppy", i.e. pas de MBR.
             */
            partition = partition_open(sd_raw_read, sd_raw_read_interval, 0, 0, -1);
    314a:	0f ef       	ldi	r16, 0xFF	; 255
    314c:	20 e0       	ldi	r18, 0x00	; 0
    314e:	30 e0       	ldi	r19, 0x00	; 0
    3150:	40 e0       	ldi	r20, 0x00	; 0
    3152:	50 e0       	ldi	r21, 0x00	; 0
    3154:	69 e0       	ldi	r22, 0x09	; 9
    3156:	7c e1       	ldi	r23, 0x1C	; 28
    3158:	8e e8       	ldi	r24, 0x8E	; 142
    315a:	9b e1       	ldi	r25, 0x1B	; 27
    315c:	0e 94 19 1a 	call	0x3432	; 0x3432 <partition_open>
    3160:	90 93 a6 02 	sts	0x02A6, r25
    3164:	80 93 a5 02 	sts	0x02A5, r24
            if(!partition)
    3168:	89 2b       	or	r24, r25
    316a:	31 f4       	brne	.+12     	; 0x3178 <fs_mount+0x56>
            {   // rien à faire avec cette carte
                bad_sdcard(PSTR("Echec acces partition\n"));
    316c:	8e e2       	ldi	r24, 0x2E	; 46
    316e:	96 e0       	ldi	r25, 0x06	; 6
    3170:	0e 94 81 18 	call	0x3102	; 0x3102 <bad_sdcard>
				return 0;
    3174:	80 e0       	ldi	r24, 0x00	; 0
    3176:	1b c0       	rjmp	.+54     	; 0x31ae <fs_mount+0x8c>
			}
        }

        /* ouvre le système de fichiers */
        fs = fat_open(partition);
    3178:	80 91 a5 02 	lds	r24, 0x02A5
    317c:	90 91 a6 02 	lds	r25, 0x02A6
    3180:	0e 94 50 13 	call	0x26a0	; 0x26a0 <fat_open>
    3184:	90 93 ac 02 	sts	0x02AC, r25
    3188:	80 93 ab 02 	sts	0x02AB, r24
        if(!fs)
    318c:	89 2b       	or	r24, r25
    318e:	71 f4       	brne	.+28     	; 0x31ac <fs_mount+0x8a>
        {
            bad_sdcard(PSTR("Echec acces fichiers\n"));
    3190:	88 e1       	ldi	r24, 0x18	; 24
    3192:	96 e0       	ldi	r25, 0x06	; 6
    3194:	0e 94 81 18 	call	0x3102	; 0x3102 <bad_sdcard>
			partition_close(partition);
    3198:	80 91 a5 02 	lds	r24, 0x02A5
    319c:	90 91 a6 02 	lds	r25, 0x02A6
    31a0:	0e 94 b7 1a 	call	0x356e	; 0x356e <partition_close>
			return 0;
    31a4:	80 e0       	ldi	r24, 0x00	; 0
    31a6:	03 c0       	rjmp	.+6      	; 0x31ae <fs_mount+0x8c>

uint8_t fs_mount(){
		if (get_pin_available()){
			// pas de carte SD
			// dans le lecteur
			return 0;
    31a8:	80 e0       	ldi	r24, 0x00	; 0
    31aa:	01 c0       	rjmp	.+2      	; 0x31ae <fs_mount+0x8c>
            bad_sdcard(PSTR("Echec acces fichiers\n"));
			partition_close(partition);
			return 0;
		}

		return 1;
    31ac:	81 e0       	ldi	r24, 0x01	; 1
}
    31ae:	0f 91       	pop	r16
    31b0:	08 95       	ret

000031b2 <fs_umount>:

void fs_umount(){
	fat_close_file(fd);
    31b2:	80 91 a7 02 	lds	r24, 0x02A7
    31b6:	90 91 a8 02 	lds	r25, 0x02A8
    31ba:	0e 94 38 15 	call	0x2a70	; 0x2a70 <fat_close_file>
	fat_close_dir(dd);
    31be:	80 91 a9 02 	lds	r24, 0x02A9
    31c2:	90 91 aa 02 	lds	r25, 0x02AA
    31c6:	0e 94 c2 16 	call	0x2d84	; 0x2d84 <fat_close_dir>
	fat_close(fs);
    31ca:	80 91 ab 02 	lds	r24, 0x02AB
    31ce:	90 91 ac 02 	lds	r25, 0x02AC
    31d2:	0e 94 f2 14 	call	0x29e4	; 0x29e4 <fat_close>
	partition_close(partition);	
    31d6:	80 91 a5 02 	lds	r24, 0x02A5
    31da:	90 91 a6 02 	lds	r25, 0x02A6
    31de:	0e 94 b7 1a 	call	0x356e	; 0x356e <partition_close>
    31e2:	08 95       	ret

000031e4 <fs_open_dir>:
}


uint8_t  fs_open_dir(char *dir_name){
    31e4:	cf 93       	push	r28
    31e6:	df 93       	push	r29
    31e8:	cd b7       	in	r28, 0x3d	; 61
    31ea:	de b7       	in	r29, 0x3e	; 62
    31ec:	ab 97       	sbiw	r28, 0x2b	; 43
    31ee:	0f b6       	in	r0, 0x3f	; 63
    31f0:	f8 94       	cli
    31f2:	de bf       	out	0x3e, r29	; 62
    31f4:	0f be       	out	0x3f, r0	; 63
    31f6:	cd bf       	out	0x3d, r28	; 61
        /* ouvre le répertoire dir_name */
        struct fat_dir_entry_struct directory;
        fat_get_dir_entry_of_path(fs, dir_name, &directory);
    31f8:	ae 01       	movw	r20, r28
    31fa:	4f 5f       	subi	r20, 0xFF	; 255
    31fc:	5f 4f       	sbci	r21, 0xFF	; 255
    31fe:	bc 01       	movw	r22, r24
    3200:	80 91 ab 02 	lds	r24, 0x02AB
    3204:	90 91 ac 02 	lds	r25, 0x02AC
    3208:	0e 94 d7 17 	call	0x2fae	; 0x2fae <fat_get_dir_entry_of_path>
        dd = fat_open_dir(fs, &directory);
    320c:	be 01       	movw	r22, r28
    320e:	6f 5f       	subi	r22, 0xFF	; 255
    3210:	7f 4f       	sbci	r23, 0xFF	; 255
    3212:	80 91 ab 02 	lds	r24, 0x02AB
    3216:	90 91 ac 02 	lds	r25, 0x02AC
    321a:	0e 94 7d 16 	call	0x2cfa	; 0x2cfa <fat_open_dir>
    321e:	90 93 aa 02 	sts	0x02AA, r25
    3222:	80 93 a9 02 	sts	0x02A9, r24
        if(!dd)
    3226:	89 2b       	or	r24, r25
    3228:	41 f4       	brne	.+16     	; 0x323a <fs_open_dir+0x56>
        {
	        bad_sdcard(PSTR("Echec acces repert.\n"));
    322a:	83 e0       	ldi	r24, 0x03	; 3
    322c:	96 e0       	ldi	r25, 0x06	; 6
    322e:	0e 94 81 18 	call	0x3102	; 0x3102 <bad_sdcard>
			fs_umount();
    3232:	0e 94 d9 18 	call	0x31b2	; 0x31b2 <fs_umount>
	        return 0;
    3236:	80 e0       	ldi	r24, 0x00	; 0
    3238:	01 c0       	rjmp	.+2      	; 0x323c <fs_open_dir+0x58>
        }
        return 1;
    323a:	81 e0       	ldi	r24, 0x01	; 1
}
    323c:	ab 96       	adiw	r28, 0x2b	; 43
    323e:	0f b6       	in	r0, 0x3f	; 63
    3240:	f8 94       	cli
    3242:	de bf       	out	0x3e, r29	; 62
    3244:	0f be       	out	0x3f, r0	; 63
    3246:	cd bf       	out	0x3d, r28	; 61
    3248:	df 91       	pop	r29
    324a:	cf 91       	pop	r28
    324c:	08 95       	ret

0000324e <fs_open_file>:

void fs_close_dir(){
	fat_close_dir(dd);
}

uint8_t fs_open_file(char *file_name){
    324e:	0f 93       	push	r16
    3250:	1f 93       	push	r17
    3252:	cf 93       	push	r28
    3254:	df 93       	push	r29
    3256:	cd b7       	in	r28, 0x3d	; 61
    3258:	de b7       	in	r29, 0x3e	; 62
    325a:	ab 97       	sbiw	r28, 0x2b	; 43
    325c:	0f b6       	in	r0, 0x3f	; 63
    325e:	f8 94       	cli
    3260:	de bf       	out	0x3e, r29	; 62
    3262:	0f be       	out	0x3f, r0	; 63
    3264:	cd bf       	out	0x3d, r28	; 61
    3266:	8c 01       	movw	r16, r24
	uint8_t found=0;
	struct fat_dir_entry_struct dir_entry;
	while(fat_read_dir(dd, &dir_entry))
    3268:	1e c0       	rjmp	.+60     	; 0x32a6 <fs_open_file+0x58>
	{
		if(strcmp(dir_entry.long_name, file_name) == 0)
    326a:	b8 01       	movw	r22, r16
    326c:	ce 01       	movw	r24, r28
    326e:	01 96       	adiw	r24, 0x01	; 1
    3270:	0e 94 c5 24 	call	0x498a	; 0x498a <strcmp>
    3274:	89 2b       	or	r24, r25
    3276:	b9 f4       	brne	.+46     	; 0x32a6 <fs_open_file+0x58>
		{
			fat_reset_dir(dd);
    3278:	80 91 a9 02 	lds	r24, 0x02A9
    327c:	90 91 aa 02 	lds	r25, 0x02AA
    3280:	0e 94 c8 16 	call	0x2d90	; 0x2d90 <fat_reset_dir>
			break;
		}
	}

	if (!found) return 0;
    fd=fat_open_file(fs, &dir_entry);
    3284:	be 01       	movw	r22, r28
    3286:	6f 5f       	subi	r22, 0xFF	; 255
    3288:	7f 4f       	sbci	r23, 0xFF	; 255
    328a:	80 91 ab 02 	lds	r24, 0x02AB
    328e:	90 91 ac 02 	lds	r25, 0x02AC
    3292:	0e 94 f8 14 	call	0x29f0	; 0x29f0 <fat_open_file>
    3296:	90 93 a8 02 	sts	0x02A8, r25
    329a:	80 93 a7 02 	sts	0x02A7, r24
	if(!fd){	
    329e:	89 2b       	or	r24, r25
    32a0:	71 f0       	breq	.+28     	; 0x32be <fs_open_file+0x70>
		bad_sdcard(PSTR("Echec ouvert. fich.\n"));
		return 0;
	}
	//print(fd->dir_entry.long_name);
	return 1;
    32a2:	81 e0       	ldi	r24, 0x01	; 1
    32a4:	11 c0       	rjmp	.+34     	; 0x32c8 <fs_open_file+0x7a>
}

uint8_t fs_open_file(char *file_name){
	uint8_t found=0;
	struct fat_dir_entry_struct dir_entry;
	while(fat_read_dir(dd, &dir_entry))
    32a6:	be 01       	movw	r22, r28
    32a8:	6f 5f       	subi	r22, 0xFF	; 255
    32aa:	7f 4f       	sbci	r23, 0xFF	; 255
    32ac:	80 91 a9 02 	lds	r24, 0x02A9
    32b0:	90 91 aa 02 	lds	r25, 0x02AA
    32b4:	0e 94 d5 16 	call	0x2daa	; 0x2daa <fat_read_dir>
    32b8:	81 11       	cpse	r24, r1
    32ba:	d7 cf       	rjmp	.-82     	; 0x326a <fs_open_file+0x1c>
    32bc:	05 c0       	rjmp	.+10     	; 0x32c8 <fs_open_file+0x7a>
	}

	if (!found) return 0;
    fd=fat_open_file(fs, &dir_entry);
	if(!fd){	
		bad_sdcard(PSTR("Echec ouvert. fich.\n"));
    32be:	8e ee       	ldi	r24, 0xEE	; 238
    32c0:	95 e0       	ldi	r25, 0x05	; 5
    32c2:	0e 94 81 18 	call	0x3102	; 0x3102 <bad_sdcard>
		return 0;
    32c6:	80 e0       	ldi	r24, 0x00	; 0
	}
	//print(fd->dir_entry.long_name);
	return 1;
}
    32c8:	ab 96       	adiw	r28, 0x2b	; 43
    32ca:	0f b6       	in	r0, 0x3f	; 63
    32cc:	f8 94       	cli
    32ce:	de bf       	out	0x3e, r29	; 62
    32d0:	0f be       	out	0x3f, r0	; 63
    32d2:	cd bf       	out	0x3d, r28	; 61
    32d4:	df 91       	pop	r29
    32d6:	cf 91       	pop	r28
    32d8:	1f 91       	pop	r17
    32da:	0f 91       	pop	r16
    32dc:	08 95       	ret

000032de <fs_close_file>:


void fs_close_file(){
	fat_close_file(fd);
    32de:	80 91 a7 02 	lds	r24, 0x02A7
    32e2:	90 91 a8 02 	lds	r25, 0x02A8
    32e6:	0e 94 38 15 	call	0x2a70	; 0x2a70 <fat_close_file>
    32ea:	08 95       	ret

000032ec <fs_load_file>:
}

#define BUFF_SIZE (256)
// charge le fichier CHIP-8 dans la SRAM
// retourne nombres d'octets
uint8_t fs_load_file(uint16_t file_no){
    32ec:	ef 92       	push	r14
    32ee:	ff 92       	push	r15
    32f0:	0f 93       	push	r16
    32f2:	1f 93       	push	r17
    32f4:	cf 93       	push	r28
    32f6:	df 93       	push	r29
    32f8:	cd b7       	in	r28, 0x3d	; 61
    32fa:	de b7       	in	r29, 0x3e	; 62
    32fc:	da 95       	dec	r29
    32fe:	0f b6       	in	r0, 0x3f	; 63
    3300:	f8 94       	cli
    3302:	de bf       	out	0x3e, r29	; 62
    3304:	0f be       	out	0x3f, r0	; 63
    3306:	cd bf       	out	0x3d, r28	; 61
	uint16_t byte_count=0;
	intptr_t count;
	uint8_t buffer[256];
	sram_load_block(ENTRY_SIZE*file_no,ENTRY_SIZE,buffer);
    3308:	ae 01       	movw	r20, r28
    330a:	4f 5f       	subi	r20, 0xFF	; 255
    330c:	5f 4f       	sbci	r21, 0xFF	; 255
    330e:	60 e2       	ldi	r22, 0x20	; 32
    3310:	70 e0       	ldi	r23, 0x00	; 0
    3312:	88 0f       	add	r24, r24
    3314:	99 1f       	adc	r25, r25
    3316:	82 95       	swap	r24
    3318:	92 95       	swap	r25
    331a:	90 7f       	andi	r25, 0xF0	; 240
    331c:	98 27       	eor	r25, r24
    331e:	80 7f       	andi	r24, 0xF0	; 240
    3320:	98 27       	eor	r25, r24
    3322:	0e 94 b9 1d 	call	0x3b72	; 0x3b72 <sram_load_block>
	if (fs_open_file((char*)buffer)){
    3326:	ce 01       	movw	r24, r28
    3328:	01 96       	adiw	r24, 0x01	; 1
    332a:	0e 94 27 19 	call	0x324e	; 0x324e <fs_open_file>
    332e:	88 23       	and	r24, r24
    3330:	f1 f0       	breq	.+60     	; 0x336e <fs_load_file+0x82>
    3332:	e1 2c       	mov	r14, r1
    3334:	f1 2c       	mov	r15, r1
    3336:	09 c0       	rjmp	.+18     	; 0x334a <fs_load_file+0x5e>
		//print(fd->dir_entry.long_name);new_line();
		while((byte_count<SRAM_SIZE) && ((count = fat_read_file(fd, buffer, 256)) > 0)){
			sram_store_block(CODE_BASE_ADDR+byte_count,(uint16_t)count,buffer);
    3338:	ae 01       	movw	r20, r28
    333a:	4f 5f       	subi	r20, 0xFF	; 255
    333c:	5f 4f       	sbci	r21, 0xFF	; 255
    333e:	b8 01       	movw	r22, r16
    3340:	c7 01       	movw	r24, r14
    3342:	0e 94 e4 1d 	call	0x3bc8	; 0x3bc8 <sram_store_block>
			byte_count+=(uint16_t)count;
    3346:	e0 0e       	add	r14, r16
    3348:	f1 1e       	adc	r15, r17
	intptr_t count;
	uint8_t buffer[256];
	sram_load_block(ENTRY_SIZE*file_no,ENTRY_SIZE,buffer);
	if (fs_open_file((char*)buffer)){
		//print(fd->dir_entry.long_name);new_line();
		while((byte_count<SRAM_SIZE) && ((count = fat_read_file(fd, buffer, 256)) > 0)){
    334a:	40 e0       	ldi	r20, 0x00	; 0
    334c:	51 e0       	ldi	r21, 0x01	; 1
    334e:	be 01       	movw	r22, r28
    3350:	6f 5f       	subi	r22, 0xFF	; 255
    3352:	7f 4f       	sbci	r23, 0xFF	; 255
    3354:	80 91 a7 02 	lds	r24, 0x02A7
    3358:	90 91 a8 02 	lds	r25, 0x02A8
    335c:	0e 94 3e 15 	call	0x2a7c	; 0x2a7c <fat_read_file>
    3360:	8c 01       	movw	r16, r24
    3362:	18 16       	cp	r1, r24
    3364:	19 06       	cpc	r1, r25
    3366:	44 f3       	brlt	.-48     	; 0x3338 <fs_load_file+0x4c>
			sram_store_block(CODE_BASE_ADDR+byte_count,(uint16_t)count,buffer);
			byte_count+=(uint16_t)count;
		}
		fs_close_file();
    3368:	0e 94 6f 19 	call	0x32de	; 0x32de <fs_close_file>
    336c:	02 c0       	rjmp	.+4      	; 0x3372 <fs_load_file+0x86>

#define BUFF_SIZE (256)
// charge le fichier CHIP-8 dans la SRAM
// retourne nombres d'octets
uint8_t fs_load_file(uint16_t file_no){
	uint16_t byte_count=0;
    336e:	e1 2c       	mov	r14, r1
    3370:	f1 2c       	mov	r15, r1
			byte_count+=(uint16_t)count;
		}
		fs_close_file();
	}
	return byte_count;
}
    3372:	8e 2d       	mov	r24, r14
    3374:	d3 95       	inc	r29
    3376:	0f b6       	in	r0, 0x3f	; 63
    3378:	f8 94       	cli
    337a:	de bf       	out	0x3e, r29	; 62
    337c:	0f be       	out	0x3f, r0	; 63
    337e:	cd bf       	out	0x3d, r28	; 61
    3380:	df 91       	pop	r29
    3382:	cf 91       	pop	r28
    3384:	1f 91       	pop	r17
    3386:	0f 91       	pop	r16
    3388:	ff 90       	pop	r15
    338a:	ef 90       	pop	r14
    338c:	08 95       	ret

0000338e <fs_read_dir>:

inline uint8_t fs_read_dir(struct fat_dir_entry_struct *dir_entry){
	return fat_read_dir(dd, dir_entry);	
    338e:	bc 01       	movw	r22, r24
    3390:	80 91 a9 02 	lds	r24, 0x02A9
    3394:	90 91 aa 02 	lds	r25, 0x02AA
    3398:	0e 94 d5 16 	call	0x2daa	; 0x2daa <fat_read_dir>
}
    339c:	08 95       	ret

0000339e <joystick_btn_down>:
#include "text.h"
#include "tone.h"

//retourne l'état du bouton
inline uint8_t joystick_btn_down(uint8_t btn){
	return (JSTK_PIN & btn)==0;
    339e:	96 b1       	in	r25, 0x06	; 6
    33a0:	98 23       	and	r25, r24
    33a2:	81 e0       	ldi	r24, 0x01	; 1
    33a4:	09 f0       	breq	.+2      	; 0x33a8 <joystick_btn_down+0xa>
    33a6:	80 e0       	ldi	r24, 0x00	; 0
}//f()
    33a8:	08 95       	ret

000033aa <joystick_wait_any>:

//attend qu'un bouton sois enfoncé.
uint8_t joystick_wait_any(){
	while ((JSTK_PIN & JSTK_IMASK)==JSTK_IMASK);
    33aa:	86 b1       	in	r24, 0x06	; 6
    33ac:	8e 73       	andi	r24, 0x3E	; 62
    33ae:	8e 33       	cpi	r24, 0x3E	; 62
    33b0:	e1 f3       	breq	.-8      	; 0x33aa <joystick_wait_any>
	return (~(JSTK_PIN & JSTK_IMASK))&JSTK_IMASK;
    33b2:	86 b1       	in	r24, 0x06	; 6
    33b4:	80 95       	com	r24
}//f()
    33b6:	8e 73       	andi	r24, 0x3E	; 62
    33b8:	08 95       	ret

000033ba <joystick_wait_release>:

inline void joystick_wait_release(){
	while ((JSTK_PIN&JSTK_IMASK)!=JSTK_IMASK)tone(500,100);
    33ba:	86 b1       	in	r24, 0x06	; 6
    33bc:	8e 73       	andi	r24, 0x3E	; 62
    33be:	8e 33       	cpi	r24, 0x3E	; 62
    33c0:	49 f0       	breq	.+18     	; 0x33d4 <joystick_wait_release+0x1a>
    33c2:	64 e6       	ldi	r22, 0x64	; 100
    33c4:	84 ef       	ldi	r24, 0xF4	; 244
    33c6:	91 e0       	ldi	r25, 0x01	; 1
    33c8:	0e 94 b0 1f 	call	0x3f60	; 0x3f60 <tone>
    33cc:	86 b1       	in	r24, 0x06	; 6
    33ce:	8e 73       	andi	r24, 0x3E	; 62
    33d0:	8e 33       	cpi	r24, 0x3E	; 62
    33d2:	b9 f7       	brne	.-18     	; 0x33c2 <joystick_wait_release+0x8>
    33d4:	08 95       	ret

000033d6 <prompt_btn>:
}//f()

void prompt_btn(){
	prt_pstr(PSTR("bouton..."));
    33d6:	85 e4       	ldi	r24, 0x45	; 69
    33d8:	96 e0       	ldi	r25, 0x06	; 6
    33da:	0e 94 d3 1e 	call	0x3da6	; 0x3da6 <prt_pstr>
	while (JSTK_PIN&BTN_FIRE);
    33de:	35 99       	sbic	0x06, 5	; 6
    33e0:	fe cf       	rjmp	.-4      	; 0x33de <prompt_btn+0x8>
	while ((JSTK_PIN & JSTK_IMASK)==JSTK_IMASK);
	return (~(JSTK_PIN & JSTK_IMASK))&JSTK_IMASK;
}//f()

inline void joystick_wait_release(){
	while ((JSTK_PIN&JSTK_IMASK)!=JSTK_IMASK)tone(500,100);
    33e2:	86 b1       	in	r24, 0x06	; 6
    33e4:	8e 73       	andi	r24, 0x3E	; 62
    33e6:	8e 33       	cpi	r24, 0x3E	; 62
    33e8:	49 f0       	breq	.+18     	; 0x33fc <prompt_btn+0x26>
    33ea:	64 e6       	ldi	r22, 0x64	; 100
    33ec:	84 ef       	ldi	r24, 0xF4	; 244
    33ee:	91 e0       	ldi	r25, 0x01	; 1
    33f0:	0e 94 b0 1f 	call	0x3f60	; 0x3f60 <tone>
    33f4:	86 b1       	in	r24, 0x06	; 6
    33f6:	8e 73       	andi	r24, 0x3E	; 62
    33f8:	8e 33       	cpi	r24, 0x3E	; 62
    33fa:	b9 f7       	brne	.-18     	; 0x33ea <prompt_btn+0x14>
    33fc:	08 95       	ret

000033fe <joystick_break>:
	while (JSTK_PIN&BTN_FIRE);
    joystick_wait_release();
}//f()

uint8_t joystick_break(){
	if (!(JSTK_PIN & (BTN_UP|BTN_DOWN))||(!(JSTK_PIN&(BTN_LEFT|BTN_RIGHT)))){
    33fe:	86 b1       	in	r24, 0x06	; 6
    3400:	86 70       	andi	r24, 0x06	; 6
    3402:	19 f0       	breq	.+6      	; 0x340a <joystick_break+0xc>
    3404:	86 b1       	in	r24, 0x06	; 6
    3406:	88 71       	andi	r24, 0x18	; 24
    3408:	71 f4       	brne	.+28     	; 0x3426 <joystick_break+0x28>
	while ((JSTK_PIN & JSTK_IMASK)==JSTK_IMASK);
	return (~(JSTK_PIN & JSTK_IMASK))&JSTK_IMASK;
}//f()

inline void joystick_wait_release(){
	while ((JSTK_PIN&JSTK_IMASK)!=JSTK_IMASK)tone(500,100);
    340a:	86 b1       	in	r24, 0x06	; 6
    340c:	8e 73       	andi	r24, 0x3E	; 62
    340e:	8e 33       	cpi	r24, 0x3E	; 62
    3410:	61 f0       	breq	.+24     	; 0x342a <joystick_break+0x2c>
    3412:	64 e6       	ldi	r22, 0x64	; 100
    3414:	84 ef       	ldi	r24, 0xF4	; 244
    3416:	91 e0       	ldi	r25, 0x01	; 1
    3418:	0e 94 b0 1f 	call	0x3f60	; 0x3f60 <tone>
    341c:	86 b1       	in	r24, 0x06	; 6
    341e:	8e 73       	andi	r24, 0x3E	; 62
    3420:	8e 33       	cpi	r24, 0x3E	; 62
    3422:	b9 f7       	brne	.-18     	; 0x3412 <joystick_break+0x14>
    3424:	04 c0       	rjmp	.+8      	; 0x342e <joystick_break+0x30>
uint8_t joystick_break(){
	if (!(JSTK_PIN & (BTN_UP|BTN_DOWN))||(!(JSTK_PIN&(BTN_LEFT|BTN_RIGHT)))){
		joystick_wait_release();
		return 1;
	}
	return 0;
    3426:	80 e0       	ldi	r24, 0x00	; 0
    3428:	08 95       	ret
}//f()

uint8_t joystick_break(){
	if (!(JSTK_PIN & (BTN_UP|BTN_DOWN))||(!(JSTK_PIN&(BTN_LEFT|BTN_RIGHT)))){
		joystick_wait_release();
		return 1;
    342a:	81 e0       	ldi	r24, 0x01	; 1
    342c:	08 95       	ret
    342e:	81 e0       	ldi	r24, 0x01	; 1
	}
	return 0;
}//f()
    3430:	08 95       	ret

00003432 <partition_open>:
 *                  as a single partition (e.g. for "super floppy" use).
 * \returns 0 on failure, a partition descriptor on success.
 * \see partition_close
 */
struct partition_struct* partition_open(device_read_t device_read, device_read_interval_t device_read_interval, device_write_t device_write, device_write_interval_t device_write_interval, int8_t index)
{
    3432:	8f 92       	push	r8
    3434:	9f 92       	push	r9
    3436:	af 92       	push	r10
    3438:	bf 92       	push	r11
    343a:	cf 92       	push	r12
    343c:	df 92       	push	r13
    343e:	ef 92       	push	r14
    3440:	ff 92       	push	r15
    3442:	0f 93       	push	r16
    3444:	cf 93       	push	r28
    3446:	df 93       	push	r29
    3448:	cd b7       	in	r28, 0x3d	; 61
    344a:	de b7       	in	r29, 0x3e	; 62
    344c:	60 97       	sbiw	r28, 0x10	; 16
    344e:	0f b6       	in	r0, 0x3f	; 63
    3450:	f8 94       	cli
    3452:	de bf       	out	0x3e, r29	; 62
    3454:	0f be       	out	0x3f, r0	; 63
    3456:	cd bf       	out	0x3d, r28	; 61
    3458:	7c 01       	movw	r14, r24
    345a:	6b 01       	movw	r12, r22
    345c:	4a 01       	movw	r8, r20
    345e:	59 01       	movw	r10, r18
    struct partition_struct* new_partition = 0;
    uint8_t buffer[0x10];

    if(!device_read || !device_read_interval || index >= 4)
    3460:	00 97       	sbiw	r24, 0x00	; 0
    3462:	09 f4       	brne	.+2      	; 0x3466 <partition_open+0x34>
    3464:	4a c0       	rjmp	.+148    	; 0x34fa <partition_open+0xc8>
    3466:	61 15       	cp	r22, r1
    3468:	71 05       	cpc	r23, r1
    346a:	09 f4       	brne	.+2      	; 0x346e <partition_open+0x3c>
    346c:	49 c0       	rjmp	.+146    	; 0x3500 <partition_open+0xce>
    346e:	04 30       	cpi	r16, 0x04	; 4
    3470:	0c f0       	brlt	.+2      	; 0x3474 <partition_open+0x42>
    3472:	49 c0       	rjmp	.+146    	; 0x3506 <partition_open+0xd4>
        return 0;

    if(index >= 0)
    3474:	00 23       	and	r16, r16
    3476:	b4 f0       	brlt	.+44     	; 0x34a4 <partition_open+0x72>
    {
        /* read specified partition table index */
        if(!device_read(0x01be + index * 0x10, buffer, sizeof(buffer)))
    3478:	80 e1       	ldi	r24, 0x10	; 16
    347a:	08 02       	muls	r16, r24
    347c:	b0 01       	movw	r22, r0
    347e:	11 24       	eor	r1, r1
    3480:	62 54       	subi	r22, 0x42	; 66
    3482:	7e 4f       	sbci	r23, 0xFE	; 254
    3484:	88 27       	eor	r24, r24
    3486:	77 fd       	sbrc	r23, 7
    3488:	80 95       	com	r24
    348a:	98 2f       	mov	r25, r24
    348c:	20 e1       	ldi	r18, 0x10	; 16
    348e:	30 e0       	ldi	r19, 0x00	; 0
    3490:	ae 01       	movw	r20, r28
    3492:	4f 5f       	subi	r20, 0xFF	; 255
    3494:	5f 4f       	sbci	r21, 0xFF	; 255
    3496:	f7 01       	movw	r30, r14
    3498:	09 95       	icall
    349a:	88 23       	and	r24, r24
    349c:	b9 f1       	breq	.+110    	; 0x350c <partition_open+0xda>
            return 0;

        /* abort on empty partition entry */
        if(buffer[4] == 0x00)
    349e:	8d 81       	ldd	r24, Y+5	; 0x05
    34a0:	88 23       	and	r24, r24
    34a2:	b9 f1       	breq	.+110    	; 0x3512 <partition_open+0xe0>
#else
    new_partition = partition_handles;
    uint8_t i;
    for(i = 0; i < PARTITION_COUNT; ++i)
    {
        if(new_partition->type == PARTITION_TYPE_FREE)
    34a4:	80 91 b5 02 	lds	r24, 0x02B5
    34a8:	88 23       	and	r24, r24
    34aa:	b1 f1       	breq	.+108    	; 0x3518 <partition_open+0xe6>
            break;

        ++new_partition;
    }
    if(i >= PARTITION_COUNT)
        return 0;
    34ac:	80 e0       	ldi	r24, 0x00	; 0
    34ae:	90 e0       	ldi	r25, 0x00	; 0
    34b0:	4c c0       	rjmp	.+152    	; 0x354a <partition_open+0x118>
    new_partition->device_write = device_write;
    new_partition->device_write_interval = device_write_interval;

    if(index >= 0)
    {
        new_partition->type = buffer[4];
    34b2:	8d 81       	ldd	r24, Y+5	; 0x05
    34b4:	80 93 b5 02 	sts	0x02B5, r24
        new_partition->offset = read32(&buffer[8]);
    34b8:	ce 01       	movw	r24, r28
    34ba:	09 96       	adiw	r24, 0x09	; 9
    34bc:	0e 94 db 09 	call	0x13b6	; 0x13b6 <read32>
    34c0:	60 93 b6 02 	sts	0x02B6, r22
    34c4:	70 93 b7 02 	sts	0x02B7, r23
    34c8:	80 93 b8 02 	sts	0x02B8, r24
    34cc:	90 93 b9 02 	sts	0x02B9, r25
        new_partition->length = read32(&buffer[12]);
    34d0:	ce 01       	movw	r24, r28
    34d2:	0d 96       	adiw	r24, 0x0d	; 13
    34d4:	0e 94 db 09 	call	0x13b6	; 0x13b6 <read32>
    34d8:	60 93 ba 02 	sts	0x02BA, r22
    34dc:	70 93 bb 02 	sts	0x02BB, r23
    34e0:	80 93 bc 02 	sts	0x02BC, r24
    34e4:	90 93 bd 02 	sts	0x02BD, r25
#if USE_DYNAMIC_MEMORY
    new_partition = malloc(sizeof(*new_partition));
    if(!new_partition)
        return 0;
#else
    new_partition = partition_handles;
    34e8:	8d ea       	ldi	r24, 0xAD	; 173
    34ea:	92 e0       	ldi	r25, 0x02	; 2
    34ec:	2e c0       	rjmp	.+92     	; 0x354a <partition_open+0x118>
        new_partition->offset = read32(&buffer[8]);
        new_partition->length = read32(&buffer[12]);
    }
    else
    {
        new_partition->type = 0xff;
    34ee:	8f ef       	ldi	r24, 0xFF	; 255
    34f0:	80 93 b5 02 	sts	0x02B5, r24
#if USE_DYNAMIC_MEMORY
    new_partition = malloc(sizeof(*new_partition));
    if(!new_partition)
        return 0;
#else
    new_partition = partition_handles;
    34f4:	8d ea       	ldi	r24, 0xAD	; 173
    34f6:	92 e0       	ldi	r25, 0x02	; 2
    34f8:	28 c0       	rjmp	.+80     	; 0x354a <partition_open+0x118>
{
    struct partition_struct* new_partition = 0;
    uint8_t buffer[0x10];

    if(!device_read || !device_read_interval || index >= 4)
        return 0;
    34fa:	80 e0       	ldi	r24, 0x00	; 0
    34fc:	90 e0       	ldi	r25, 0x00	; 0
    34fe:	25 c0       	rjmp	.+74     	; 0x354a <partition_open+0x118>
    3500:	80 e0       	ldi	r24, 0x00	; 0
    3502:	90 e0       	ldi	r25, 0x00	; 0
    3504:	22 c0       	rjmp	.+68     	; 0x354a <partition_open+0x118>
    3506:	80 e0       	ldi	r24, 0x00	; 0
    3508:	90 e0       	ldi	r25, 0x00	; 0
    350a:	1f c0       	rjmp	.+62     	; 0x354a <partition_open+0x118>

    if(index >= 0)
    {
        /* read specified partition table index */
        if(!device_read(0x01be + index * 0x10, buffer, sizeof(buffer)))
            return 0;
    350c:	80 e0       	ldi	r24, 0x00	; 0
    350e:	90 e0       	ldi	r25, 0x00	; 0
    3510:	1c c0       	rjmp	.+56     	; 0x354a <partition_open+0x118>

        /* abort on empty partition entry */
        if(buffer[4] == 0x00)
            return 0;
    3512:	80 e0       	ldi	r24, 0x00	; 0
    3514:	90 e0       	ldi	r25, 0x00	; 0
    3516:	19 c0       	rjmp	.+50     	; 0x354a <partition_open+0x118>
    }
    if(i >= PARTITION_COUNT)
        return 0;
#endif

    memset(new_partition, 0, sizeof(*new_partition));
    3518:	ed ea       	ldi	r30, 0xAD	; 173
    351a:	f2 e0       	ldi	r31, 0x02	; 2
    351c:	81 e1       	ldi	r24, 0x11	; 17
    351e:	df 01       	movw	r26, r30
    3520:	1d 92       	st	X+, r1
    3522:	8a 95       	dec	r24
    3524:	e9 f7       	brne	.-6      	; 0x3520 <partition_open+0xee>

    /* fill partition descriptor */
    new_partition->device_read = device_read;
    3526:	f1 82       	std	Z+1, r15	; 0x01
    3528:	e0 82       	st	Z, r14
    new_partition->device_read_interval = device_read_interval;
    352a:	d0 92 b0 02 	sts	0x02B0, r13
    352e:	c0 92 af 02 	sts	0x02AF, r12
    new_partition->device_write = device_write;
    3532:	90 92 b2 02 	sts	0x02B2, r9
    3536:	80 92 b1 02 	sts	0x02B1, r8
    new_partition->device_write_interval = device_write_interval;
    353a:	b0 92 b4 02 	sts	0x02B4, r11
    353e:	a0 92 b3 02 	sts	0x02B3, r10

    if(index >= 0)
    3542:	00 23       	and	r16, r16
    3544:	0c f0       	brlt	.+2      	; 0x3548 <partition_open+0x116>
    3546:	b5 cf       	rjmp	.-150    	; 0x34b2 <partition_open+0x80>
    3548:	d2 cf       	rjmp	.-92     	; 0x34ee <partition_open+0xbc>
    {
        new_partition->type = 0xff;
    }

    return new_partition;
}
    354a:	60 96       	adiw	r28, 0x10	; 16
    354c:	0f b6       	in	r0, 0x3f	; 63
    354e:	f8 94       	cli
    3550:	de bf       	out	0x3e, r29	; 62
    3552:	0f be       	out	0x3f, r0	; 63
    3554:	cd bf       	out	0x3d, r28	; 61
    3556:	df 91       	pop	r29
    3558:	cf 91       	pop	r28
    355a:	0f 91       	pop	r16
    355c:	ff 90       	pop	r15
    355e:	ef 90       	pop	r14
    3560:	df 90       	pop	r13
    3562:	cf 90       	pop	r12
    3564:	bf 90       	pop	r11
    3566:	af 90       	pop	r10
    3568:	9f 90       	pop	r9
    356a:	8f 90       	pop	r8
    356c:	08 95       	ret

0000356e <partition_close>:
 * \returns 0 on failure, 1 on success.
 * \see partition_open
 */
uint8_t partition_close(struct partition_struct* partition)
{
    if(!partition)
    356e:	00 97       	sbiw	r24, 0x00	; 0
    3570:	21 f0       	breq	.+8      	; 0x357a <partition_close+0xc>

    /* destroy partition descriptor */
#if USE_DYNAMIC_MEMORY
    free(partition);
#else
    partition->type = PARTITION_TYPE_FREE;
    3572:	fc 01       	movw	r30, r24
    3574:	10 86       	std	Z+8, r1	; 0x08
#endif

    return 1;
    3576:	81 e0       	ldi	r24, 0x01	; 1
    3578:	08 95       	ret
 * \see partition_open
 */
uint8_t partition_close(struct partition_struct* partition)
{
    if(!partition)
        return 0;
    357a:	80 e0       	ldi	r24, 0x00	; 0
#else
    partition->type = PARTITION_TYPE_FREE;
#endif

    return 1;
}
    357c:	08 95       	ret

0000357e <sd_raw_send_byte>:
 * \param[in] b The byte to sent.
 * \see sd_raw_rec_byte
 */
void sd_raw_send_byte(uint8_t b)
{
    SPDR = b;
    357e:	8e bd       	out	0x2e, r24	; 46
    /* wait for byte to be shifted out */
    while(!(SPSR & (1 << SPIF)));
    3580:	0d b4       	in	r0, 0x2d	; 45
    3582:	07 fe       	sbrs	r0, 7
    3584:	fd cf       	rjmp	.-6      	; 0x3580 <sd_raw_send_byte+0x2>
    SPSR &= ~(1 << SPIF);
    3586:	8d b5       	in	r24, 0x2d	; 45
    3588:	8f 77       	andi	r24, 0x7F	; 127
    358a:	8d bd       	out	0x2d, r24	; 45
    358c:	08 95       	ret

0000358e <sd_raw_rec_byte>:
 * \see sd_raw_send_byte
 */
uint8_t sd_raw_rec_byte()
{
    /* send dummy data for receiving some */
    SPDR = 0xff;
    358e:	8f ef       	ldi	r24, 0xFF	; 255
    3590:	8e bd       	out	0x2e, r24	; 46
    while(!(SPSR & (1 << SPIF)));
    3592:	0d b4       	in	r0, 0x2d	; 45
    3594:	07 fe       	sbrs	r0, 7
    3596:	fd cf       	rjmp	.-6      	; 0x3592 <sd_raw_rec_byte+0x4>
    SPSR &= ~(1 << SPIF);
    3598:	8d b5       	in	r24, 0x2d	; 45
    359a:	8f 77       	andi	r24, 0x7F	; 127
    359c:	8d bd       	out	0x2d, r24	; 45

    return SPDR;
    359e:	8e b5       	in	r24, 0x2e	; 46
}
    35a0:	08 95       	ret

000035a2 <sd_raw_send_command>:
 * \param[in] command The command to send.
 * \param[in] arg The argument for command.
 * \returns The command answer.
 */
uint8_t sd_raw_send_command(uint8_t command, uint32_t arg)
{
    35a2:	ff 92       	push	r15
    35a4:	0f 93       	push	r16
    35a6:	1f 93       	push	r17
    35a8:	cf 93       	push	r28
    35aa:	df 93       	push	r29
    35ac:	c8 2f       	mov	r28, r24
    35ae:	d4 2f       	mov	r29, r20
    35b0:	15 2f       	mov	r17, r21
    35b2:	06 2f       	mov	r16, r22
    35b4:	f7 2e       	mov	r15, r23
    uint8_t response;

    /* wait some clock cycles */
    sd_raw_rec_byte();
    35b6:	0e 94 c7 1a 	call	0x358e	; 0x358e <sd_raw_rec_byte>

    /* send command via SPI */
    sd_raw_send_byte(0x40 | command);
    35ba:	8c 2f       	mov	r24, r28
    35bc:	80 64       	ori	r24, 0x40	; 64
    35be:	0e 94 bf 1a 	call	0x357e	; 0x357e <sd_raw_send_byte>
    sd_raw_send_byte((arg >> 24) & 0xff);
    35c2:	8f 2d       	mov	r24, r15
    35c4:	0e 94 bf 1a 	call	0x357e	; 0x357e <sd_raw_send_byte>
    sd_raw_send_byte((arg >> 16) & 0xff);
    35c8:	80 2f       	mov	r24, r16
    35ca:	0e 94 bf 1a 	call	0x357e	; 0x357e <sd_raw_send_byte>
    sd_raw_send_byte((arg >> 8) & 0xff);
    35ce:	81 2f       	mov	r24, r17
    35d0:	0e 94 bf 1a 	call	0x357e	; 0x357e <sd_raw_send_byte>
    sd_raw_send_byte((arg >> 0) & 0xff);
    35d4:	8d 2f       	mov	r24, r29
    35d6:	0e 94 bf 1a 	call	0x357e	; 0x357e <sd_raw_send_byte>
    switch(command)
    35da:	cc 23       	and	r28, r28
    35dc:	19 f0       	breq	.+6      	; 0x35e4 <sd_raw_send_command+0x42>
    35de:	c8 30       	cpi	r28, 0x08	; 8
    35e0:	29 f0       	breq	.+10     	; 0x35ec <sd_raw_send_command+0x4a>
    35e2:	08 c0       	rjmp	.+16     	; 0x35f4 <sd_raw_send_command+0x52>
    {
        case CMD_GO_IDLE_STATE:
           sd_raw_send_byte(0x95);
    35e4:	85 e9       	ldi	r24, 0x95	; 149
    35e6:	0e 94 bf 1a 	call	0x357e	; 0x357e <sd_raw_send_byte>
           break;
    35ea:	0f c0       	rjmp	.+30     	; 0x360a <sd_raw_send_command+0x68>
        case CMD_SEND_IF_COND:
           sd_raw_send_byte(0x87);
    35ec:	87 e8       	ldi	r24, 0x87	; 135
    35ee:	0e 94 bf 1a 	call	0x357e	; 0x357e <sd_raw_send_byte>
           break;
    35f2:	0b c0       	rjmp	.+22     	; 0x360a <sd_raw_send_command+0x68>
        default:
           sd_raw_send_byte(0xff);
    35f4:	8f ef       	ldi	r24, 0xFF	; 255
    35f6:	0e 94 bf 1a 	call	0x357e	; 0x357e <sd_raw_send_byte>
           break;
    35fa:	07 c0       	rjmp	.+14     	; 0x360a <sd_raw_send_command+0x68>
    }
    
    /* receive response */
    for(uint8_t i = 0; i < 10; ++i)
    {
        response = sd_raw_rec_byte();
    35fc:	0e 94 c7 1a 	call	0x358e	; 0x358e <sd_raw_rec_byte>
        if(response != 0xff)
    3600:	8f 3f       	cpi	r24, 0xFF	; 255
    3602:	29 f4       	brne	.+10     	; 0x360e <sd_raw_send_command+0x6c>
    3604:	c1 50       	subi	r28, 0x01	; 1
           sd_raw_send_byte(0xff);
           break;
    }
    
    /* receive response */
    for(uint8_t i = 0; i < 10; ++i)
    3606:	d1 f7       	brne	.-12     	; 0x35fc <sd_raw_send_command+0x5a>
    3608:	02 c0       	rjmp	.+4      	; 0x360e <sd_raw_send_command+0x6c>
 * \param[in] command The command to send.
 * \param[in] arg The argument for command.
 * \returns The command answer.
 */
uint8_t sd_raw_send_command(uint8_t command, uint32_t arg)
{
    360a:	ca e0       	ldi	r28, 0x0A	; 10
    360c:	f7 cf       	rjmp	.-18     	; 0x35fc <sd_raw_send_command+0x5a>
        if(response != 0xff)
            break;
    }

    return response;
}
    360e:	df 91       	pop	r29
    3610:	cf 91       	pop	r28
    3612:	1f 91       	pop	r17
    3614:	0f 91       	pop	r16
    3616:	ff 90       	pop	r15
    3618:	08 95       	ret

0000361a <sd_raw_available>:
 *
 * \returns 1 if the card is available, 0 if it is not.
 */
uint8_t sd_raw_available()
{
    return get_pin_available() == 0x00;
    361a:	83 b1       	in	r24, 0x03	; 3
    361c:	80 95       	com	r24
}
    361e:	81 70       	andi	r24, 0x01	; 1
    3620:	08 95       	ret

00003622 <sd_raw_init>:
 * Initializes memory card communication.
 *
 * \returns 0 on failure, 1 on success.
 */
uint8_t sd_raw_init()
{
    3622:	0f 93       	push	r16
    3624:	1f 93       	push	r17
    3626:	cf 93       	push	r28
    3628:	df 93       	push	r29
    /* enable inputs for reading card status */
    configure_pin_available();
    362a:	20 98       	cbi	0x04, 0	; 4
    362c:	28 9a       	sbi	0x05, 0	; 5
#if !defined(__CHIP_COMP__)    
	configure_pin_locked();
#endif
    /* enable outputs for MOSI, SCK, SS, input for MISO */
    configure_pin_mosi();
    362e:	23 9a       	sbi	0x04, 3	; 4
    configure_pin_sck();
    3630:	25 9a       	sbi	0x04, 5	; 4
    configure_pin_ss();
    3632:	21 9a       	sbi	0x04, 1	; 4
    configure_pin_miso();
    3634:	24 98       	cbi	0x04, 4	; 4

    unselect_card();
    3636:	29 9a       	sbi	0x05, 1	; 5

    /* initialize SPI with lowest frequency; max. 400kHz during identification mode of card */
    SPCR = (0 << SPIE) | /* SPI Interrupt Enable */
    3638:	83 e5       	ldi	r24, 0x53	; 83
    363a:	8c bd       	out	0x2c, r24	; 44
           (1 << MSTR) | /* Master mode */
           (0 << CPOL) | /* Clock Polarity: SCK low when idle */
           (0 << CPHA) | /* Clock Phase: sample on rising SCK edge */
           (1 << SPR1) | /* Clock Frequency: f_OSC / 128 */
           (1 << SPR0);
    SPSR &= ~(1 << SPI2X); /* No doubled clock frequency */
    363c:	8d b5       	in	r24, 0x2d	; 45
    363e:	8e 7f       	andi	r24, 0xFE	; 254
    3640:	8d bd       	out	0x2d, r24	; 45

    /* initialization procedure */
    sd_raw_card_type = 0;
    3642:	10 92 be 02 	sts	0x02BE, r1
    
    if(!sd_raw_available())
    3646:	0e 94 0d 1b 	call	0x361a	; 0x361a <sd_raw_available>
    364a:	88 23       	and	r24, r24
    364c:	09 f4       	brne	.+2      	; 0x3650 <sd_raw_init+0x2e>
    364e:	5f c0       	rjmp	.+190    	; 0x370e <sd_raw_init+0xec>
    3650:	1a e0       	ldi	r17, 0x0A	; 10

    /* card needs 74 cycles minimum to start up */
    for(uint8_t i = 0; i < 10; ++i)
    {
        /* wait 8 clock cycles */
        sd_raw_rec_byte();
    3652:	0e 94 c7 1a 	call	0x358e	; 0x358e <sd_raw_rec_byte>
    3656:	11 50       	subi	r17, 0x01	; 1
    
    if(!sd_raw_available())
        return 0;

    /* card needs 74 cycles minimum to start up */
    for(uint8_t i = 0; i < 10; ++i)
    3658:	e1 f7       	brne	.-8      	; 0x3652 <sd_raw_init+0x30>
        /* wait 8 clock cycles */
        sd_raw_rec_byte();
    }

    /* address card */
    select_card();
    365a:	29 98       	cbi	0x05, 1	; 5
    365c:	c0 e0       	ldi	r28, 0x00	; 0
    365e:	d2 e0       	ldi	r29, 0x02	; 2

    /* reset card */
    uint8_t response;
    for(uint16_t i = 0; ; ++i)
    {
        response = sd_raw_send_command(CMD_GO_IDLE_STATE, 0);
    3660:	40 e0       	ldi	r20, 0x00	; 0
    3662:	50 e0       	ldi	r21, 0x00	; 0
    3664:	ba 01       	movw	r22, r20
    3666:	80 e0       	ldi	r24, 0x00	; 0
    3668:	0e 94 d1 1a 	call	0x35a2	; 0x35a2 <sd_raw_send_command>
        if(response == (1 << R1_IDLE_STATE))
    366c:	81 30       	cpi	r24, 0x01	; 1
    366e:	29 f0       	breq	.+10     	; 0x367a <sd_raw_init+0x58>
    3670:	21 97       	sbiw	r28, 0x01	; 1
            break;

        if(i == 0x1ff)
    3672:	20 97       	sbiw	r28, 0x00	; 0
    3674:	a9 f7       	brne	.-22     	; 0x3660 <sd_raw_init+0x3e>
        {
            unselect_card();
    3676:	29 9a       	sbi	0x05, 1	; 5
            return 0;
    3678:	4b c0       	rjmp	.+150    	; 0x3710 <sd_raw_init+0xee>
    }
    else
#endif
    {
        /* determine SD/MMC card type */
        sd_raw_send_command(CMD_APP, 0);
    367a:	40 e0       	ldi	r20, 0x00	; 0
    367c:	50 e0       	ldi	r21, 0x00	; 0
    367e:	ba 01       	movw	r22, r20
    3680:	87 e3       	ldi	r24, 0x37	; 55
    3682:	0e 94 d1 1a 	call	0x35a2	; 0x35a2 <sd_raw_send_command>
        response = sd_raw_send_command(CMD_SD_SEND_OP_COND, 0);
    3686:	40 e0       	ldi	r20, 0x00	; 0
    3688:	50 e0       	ldi	r21, 0x00	; 0
    368a:	ba 01       	movw	r22, r20
    368c:	89 e2       	ldi	r24, 0x29	; 41
    368e:	0e 94 d1 1a 	call	0x35a2	; 0x35a2 <sd_raw_send_command>
        if((response & (1 << R1_ILL_COMMAND)) == 0)
    3692:	82 fd       	sbrc	r24, 2
    3694:	05 c0       	rjmp	.+10     	; 0x36a0 <sd_raw_init+0x7e>
        {
            /* card conforms to SD 1 card specification */
            sd_raw_card_type |= (1 << SD_RAW_SPEC_1);
    3696:	80 91 be 02 	lds	r24, 0x02BE
    369a:	81 60       	ori	r24, 0x01	; 1
    369c:	80 93 be 02 	sts	0x02BE, r24
        /* wait 8 clock cycles */
        sd_raw_rec_byte();
    }

    /* address card */
    select_card();
    36a0:	c0 e0       	ldi	r28, 0x00	; 0
    36a2:	d0 e8       	ldi	r29, 0x80	; 128
    }

    /* wait for card to get ready */
    for(uint16_t i = 0; ; ++i)
    {
        if(sd_raw_card_type & ((1 << SD_RAW_SPEC_1) | (1 << SD_RAW_SPEC_2)))
    36a4:	80 91 be 02 	lds	r24, 0x02BE
    36a8:	83 70       	andi	r24, 0x03	; 3
    36aa:	69 f0       	breq	.+26     	; 0x36c6 <sd_raw_init+0xa4>
            uint32_t arg = 0;
#if SD_RAW_SDHC
            if(sd_raw_card_type & (1 << SD_RAW_SPEC_2))
                arg = 0x40000000;
#endif
            sd_raw_send_command(CMD_APP, 0);
    36ac:	40 e0       	ldi	r20, 0x00	; 0
    36ae:	50 e0       	ldi	r21, 0x00	; 0
    36b0:	ba 01       	movw	r22, r20
    36b2:	87 e3       	ldi	r24, 0x37	; 55
    36b4:	0e 94 d1 1a 	call	0x35a2	; 0x35a2 <sd_raw_send_command>
            response = sd_raw_send_command(CMD_SD_SEND_OP_COND, arg);
    36b8:	40 e0       	ldi	r20, 0x00	; 0
    36ba:	50 e0       	ldi	r21, 0x00	; 0
    36bc:	ba 01       	movw	r22, r20
    36be:	89 e2       	ldi	r24, 0x29	; 41
    36c0:	0e 94 d1 1a 	call	0x35a2	; 0x35a2 <sd_raw_send_command>
    36c4:	06 c0       	rjmp	.+12     	; 0x36d2 <sd_raw_init+0xb0>
        }
        else
        {
            response = sd_raw_send_command(CMD_SEND_OP_COND, 0);
    36c6:	40 e0       	ldi	r20, 0x00	; 0
    36c8:	50 e0       	ldi	r21, 0x00	; 0
    36ca:	ba 01       	movw	r22, r20
    36cc:	81 e0       	ldi	r24, 0x01	; 1
    36ce:	0e 94 d1 1a 	call	0x35a2	; 0x35a2 <sd_raw_send_command>
        }

        if((response & (1 << R1_IDLE_STATE)) == 0)
    36d2:	08 2f       	mov	r16, r24
    36d4:	01 70       	andi	r16, 0x01	; 1
    36d6:	80 ff       	sbrs	r24, 0
    36d8:	05 c0       	rjmp	.+10     	; 0x36e4 <sd_raw_init+0xc2>
    36da:	21 97       	sbiw	r28, 0x01	; 1
            break;

        if(i == 0x7fff)
    36dc:	20 97       	sbiw	r28, 0x00	; 0
    36de:	11 f7       	brne	.-60     	; 0x36a4 <sd_raw_init+0x82>
        {
            unselect_card();
    36e0:	29 9a       	sbi	0x05, 1	; 5
            return 0;
    36e2:	16 c0       	rjmp	.+44     	; 0x3710 <sd_raw_init+0xee>
        sd_raw_rec_byte();
    }
#endif

    /* set block size to 512 bytes */
    if(sd_raw_send_command(CMD_SET_BLOCKLEN, 512))
    36e4:	40 e0       	ldi	r20, 0x00	; 0
    36e6:	52 e0       	ldi	r21, 0x02	; 2
    36e8:	60 e0       	ldi	r22, 0x00	; 0
    36ea:	70 e0       	ldi	r23, 0x00	; 0
    36ec:	80 e1       	ldi	r24, 0x10	; 16
    36ee:	0e 94 d1 1a 	call	0x35a2	; 0x35a2 <sd_raw_send_command>
    36f2:	88 23       	and	r24, r24
    36f4:	19 f0       	breq	.+6      	; 0x36fc <sd_raw_init+0xda>
    {
        unselect_card();
    36f6:	29 9a       	sbi	0x05, 1	; 5
        return 0;
    36f8:	10 2f       	mov	r17, r16
    36fa:	0a c0       	rjmp	.+20     	; 0x3710 <sd_raw_init+0xee>
    }

    /* deaddress card */
    unselect_card();
    36fc:	29 9a       	sbi	0x05, 1	; 5

    /* switch to highest SPI frequency possible */
    SPCR &= ~((1 << SPR1) | (1 << SPR0)); /* Clock Frequency: f_OSC / 4 */
    36fe:	8c b5       	in	r24, 0x2c	; 44
    3700:	8c 7f       	andi	r24, 0xFC	; 252
    3702:	8c bd       	out	0x2c, r24	; 44
    SPSR |= (1 << SPI2X); /* Doubled Clock Frequency: f_OSC / 2 */
    3704:	8d b5       	in	r24, 0x2d	; 45
    3706:	81 60       	ori	r24, 0x01	; 1
    3708:	8d bd       	out	0x2d, r24	; 45
#endif
    if(!sd_raw_read(0, raw_block, sizeof(raw_block)))
        return 0;
#endif

    return 1;
    370a:	11 e0       	ldi	r17, 0x01	; 1
    370c:	01 c0       	rjmp	.+2      	; 0x3710 <sd_raw_init+0xee>

    /* initialization procedure */
    sd_raw_card_type = 0;
    
    if(!sd_raw_available())
        return 0;
    370e:	10 e0       	ldi	r17, 0x00	; 0
    if(!sd_raw_read(0, raw_block, sizeof(raw_block)))
        return 0;
#endif

    return 1;
}
    3710:	81 2f       	mov	r24, r17
    3712:	df 91       	pop	r29
    3714:	cf 91       	pop	r28
    3716:	1f 91       	pop	r17
    3718:	0f 91       	pop	r16
    371a:	08 95       	ret

0000371c <sd_raw_read>:
 * \param[in] length The number of bytes to read.
 * \returns 0 on failure, 1 on success.
 * \see sd_raw_read_interval, sd_raw_write, sd_raw_write_interval
 */
uint8_t sd_raw_read(offset_t offset, uint8_t* buffer, uintptr_t length)
{
    371c:	2f 92       	push	r2
    371e:	3f 92       	push	r3
    3720:	4f 92       	push	r4
    3722:	5f 92       	push	r5
    3724:	6f 92       	push	r6
    3726:	7f 92       	push	r7
    3728:	8f 92       	push	r8
    372a:	9f 92       	push	r9
    372c:	af 92       	push	r10
    372e:	bf 92       	push	r11
    3730:	cf 92       	push	r12
    3732:	df 92       	push	r13
    3734:	ef 92       	push	r14
    3736:	ff 92       	push	r15
    3738:	0f 93       	push	r16
    373a:	1f 93       	push	r17
    373c:	cf 93       	push	r28
    373e:	df 93       	push	r29
    3740:	2b 01       	movw	r4, r22
    3742:	3c 01       	movw	r6, r24
    3744:	7a 01       	movw	r14, r20
    3746:	59 01       	movw	r10, r18
    offset_t block_address;
    uint16_t block_offset;
    uint16_t read_length;
    while(length > 0)
    3748:	21 15       	cp	r18, r1
    374a:	31 05       	cpc	r19, r1
    374c:	09 f4       	brne	.+2      	; 0x3750 <sd_raw_read+0x34>
    374e:	4b c0       	rjmp	.+150    	; 0x37e6 <sd_raw_read+0xca>
    {
        /* determine byte count to read at once */
        block_offset = offset & 0x01ff;
        block_address = offset - block_offset;
        read_length = 512 - block_offset; /* read up to block border */
    3750:	21 2c       	mov	r2, r1
    3752:	68 94       	set
    3754:	33 24       	eor	r3, r3
    3756:	31 f8       	bld	r3, 1
    uint16_t block_offset;
    uint16_t read_length;
    while(length > 0)
    {
        /* determine byte count to read at once */
        block_offset = offset & 0x01ff;
    3758:	82 01       	movw	r16, r4
    375a:	11 70       	andi	r17, 0x01	; 1
    375c:	41 01       	movw	r8, r2
    375e:	80 1a       	sub	r8, r16
    3760:	91 0a       	sbc	r9, r17
    3762:	a8 14       	cp	r10, r8
    3764:	b9 04       	cpc	r11, r9
    3766:	08 f4       	brcc	.+2      	; 0x376a <sd_raw_read+0x4e>
    3768:	45 01       	movw	r8, r10
            if(!sd_raw_sync())
                return 0;
#endif

            /* address card */
            select_card();
    376a:	29 98       	cbi	0x05, 1	; 5
    uint16_t read_length;
    while(length > 0)
    {
        /* determine byte count to read at once */
        block_offset = offset & 0x01ff;
        block_address = offset - block_offset;
    376c:	b3 01       	movw	r22, r6
    376e:	a2 01       	movw	r20, r4
    3770:	40 1b       	sub	r20, r16
    3772:	51 0b       	sbc	r21, r17
    3774:	61 09       	sbc	r22, r1
    3776:	71 09       	sbc	r23, r1

            /* send single block request */
#if SD_RAW_SDHC
            if(sd_raw_send_command(CMD_READ_SINGLE_BLOCK, (sd_raw_card_type & (1 << SD_RAW_SPEC_SDHC) ? block_address / 512 : block_address)))
#else
            if(sd_raw_send_command(CMD_READ_SINGLE_BLOCK, block_address))
    3778:	81 e1       	ldi	r24, 0x11	; 17
    377a:	0e 94 d1 1a 	call	0x35a2	; 0x35a2 <sd_raw_send_command>
    377e:	88 23       	and	r24, r24
    3780:	19 f0       	breq	.+6      	; 0x3788 <sd_raw_read+0x6c>
#endif
            {
                unselect_card();
    3782:	29 9a       	sbi	0x05, 1	; 5
                return 0;
    3784:	80 e0       	ldi	r24, 0x00	; 0
    3786:	32 c0       	rjmp	.+100    	; 0x37ec <sd_raw_read+0xd0>
            }

            /* wait for data block (start byte 0xfe) */
            while(sd_raw_rec_byte() != 0xfe);
    3788:	0e 94 c7 1a 	call	0x358e	; 0x358e <sd_raw_rec_byte>
    378c:	8e 3f       	cpi	r24, 0xFE	; 254
    378e:	e1 f7       	brne	.-8      	; 0x3788 <sd_raw_read+0x6c>

#if SD_RAW_SAVE_RAM
            /* read byte block */
            uint16_t read_to = block_offset + read_length;
    3790:	64 01       	movw	r12, r8
    3792:	c0 0e       	add	r12, r16
    3794:	d1 1e       	adc	r13, r17
            for(uint16_t i = 0; i < 512; ++i)
    3796:	80 e0       	ldi	r24, 0x00	; 0
    3798:	c8 2f       	mov	r28, r24
    379a:	90 e0       	ldi	r25, 0x00	; 0
    379c:	d9 2f       	mov	r29, r25
            {
                uint8_t b = sd_raw_rec_byte();
    379e:	0e 94 c7 1a 	call	0x358e	; 0x358e <sd_raw_rec_byte>
                if(i >= block_offset && i < read_to)
    37a2:	c0 17       	cp	r28, r16
    37a4:	d1 07       	cpc	r29, r17
    37a6:	40 f0       	brcs	.+16     	; 0x37b8 <sd_raw_read+0x9c>
    37a8:	cc 15       	cp	r28, r12
    37aa:	dd 05       	cpc	r29, r13
    37ac:	28 f4       	brcc	.+10     	; 0x37b8 <sd_raw_read+0x9c>
                    *buffer++ = b;
    37ae:	f7 01       	movw	r30, r14
    37b0:	80 83       	st	Z, r24
    37b2:	c7 01       	movw	r24, r14
    37b4:	01 96       	adiw	r24, 0x01	; 1
    37b6:	7c 01       	movw	r14, r24
            while(sd_raw_rec_byte() != 0xfe);

#if SD_RAW_SAVE_RAM
            /* read byte block */
            uint16_t read_to = block_offset + read_length;
            for(uint16_t i = 0; i < 512; ++i)
    37b8:	21 96       	adiw	r28, 0x01	; 1
    37ba:	c1 15       	cp	r28, r1
    37bc:	92 e0       	ldi	r25, 0x02	; 2
    37be:	d9 07       	cpc	r29, r25
    37c0:	71 f7       	brne	.-36     	; 0x379e <sd_raw_read+0x82>
            memcpy(buffer, raw_block + block_offset, read_length);
            buffer += read_length;
#endif
            
            /* read crc16 */
            sd_raw_rec_byte();
    37c2:	0e 94 c7 1a 	call	0x358e	; 0x358e <sd_raw_rec_byte>
            sd_raw_rec_byte();
    37c6:	0e 94 c7 1a 	call	0x358e	; 0x358e <sd_raw_rec_byte>
            
            /* deaddress card */
            unselect_card();
    37ca:	29 9a       	sbi	0x05, 1	; 5

            /* let card some time to finish */
            sd_raw_rec_byte();
    37cc:	0e 94 c7 1a 	call	0x358e	; 0x358e <sd_raw_rec_byte>
            memcpy(buffer, raw_block + block_offset, read_length);
            buffer += read_length;
        }
#endif

        length -= read_length;
    37d0:	a8 18       	sub	r10, r8
    37d2:	b9 08       	sbc	r11, r9
        offset += read_length;
    37d4:	48 0c       	add	r4, r8
    37d6:	59 1c       	adc	r5, r9
    37d8:	61 1c       	adc	r6, r1
    37da:	71 1c       	adc	r7, r1
uint8_t sd_raw_read(offset_t offset, uint8_t* buffer, uintptr_t length)
{
    offset_t block_address;
    uint16_t block_offset;
    uint16_t read_length;
    while(length > 0)
    37dc:	a1 14       	cp	r10, r1
    37de:	b1 04       	cpc	r11, r1
    37e0:	09 f0       	breq	.+2      	; 0x37e4 <sd_raw_read+0xc8>
    37e2:	ba cf       	rjmp	.-140    	; 0x3758 <sd_raw_read+0x3c>
    37e4:	02 c0       	rjmp	.+4      	; 0x37ea <sd_raw_read+0xce>

        length -= read_length;
        offset += read_length;
    }

    return 1;
    37e6:	81 e0       	ldi	r24, 0x01	; 1
    37e8:	01 c0       	rjmp	.+2      	; 0x37ec <sd_raw_read+0xd0>
    37ea:	81 e0       	ldi	r24, 0x01	; 1
}
    37ec:	df 91       	pop	r29
    37ee:	cf 91       	pop	r28
    37f0:	1f 91       	pop	r17
    37f2:	0f 91       	pop	r16
    37f4:	ff 90       	pop	r15
    37f6:	ef 90       	pop	r14
    37f8:	df 90       	pop	r13
    37fa:	cf 90       	pop	r12
    37fc:	bf 90       	pop	r11
    37fe:	af 90       	pop	r10
    3800:	9f 90       	pop	r9
    3802:	8f 90       	pop	r8
    3804:	7f 90       	pop	r7
    3806:	6f 90       	pop	r6
    3808:	5f 90       	pop	r5
    380a:	4f 90       	pop	r4
    380c:	3f 90       	pop	r3
    380e:	2f 90       	pop	r2
    3810:	08 95       	ret

00003812 <sd_raw_read_interval>:
 * \param[in] p An opaque pointer directly passed to the callback function.
 * \returns 0 on failure, 1 on success
 * \see sd_raw_write_interval, sd_raw_read, sd_raw_write
 */
uint8_t sd_raw_read_interval(offset_t offset, uint8_t* buffer, uintptr_t interval, uintptr_t length, sd_raw_read_interval_handler_t callback, void* p)
{
    3812:	2f 92       	push	r2
    3814:	3f 92       	push	r3
    3816:	4f 92       	push	r4
    3818:	5f 92       	push	r5
    381a:	6f 92       	push	r6
    381c:	7f 92       	push	r7
    381e:	8f 92       	push	r8
    3820:	9f 92       	push	r9
    3822:	af 92       	push	r10
    3824:	bf 92       	push	r11
    3826:	cf 92       	push	r12
    3828:	df 92       	push	r13
    382a:	ef 92       	push	r14
    382c:	ff 92       	push	r15
    382e:	0f 93       	push	r16
    3830:	1f 93       	push	r17
    3832:	cf 93       	push	r28
    3834:	df 93       	push	r29
    3836:	cd b7       	in	r28, 0x3d	; 61
    3838:	de b7       	in	r29, 0x3e	; 62
    383a:	2a 97       	sbiw	r28, 0x0a	; 10
    383c:	0f b6       	in	r0, 0x3f	; 63
    383e:	f8 94       	cli
    3840:	de bf       	out	0x3e, r29	; 62
    3842:	0f be       	out	0x3f, r0	; 63
    3844:	cd bf       	out	0x3d, r28	; 61
    3846:	4b 01       	movw	r8, r22
    3848:	5c 01       	movw	r10, r24
    384a:	19 01       	movw	r2, r18
    384c:	28 01       	movw	r4, r16
    384e:	fc 82       	std	Y+4, r15	; 0x04
    3850:	eb 82       	std	Y+3, r14	; 0x03
    3852:	de 82       	std	Y+6, r13	; 0x06
    3854:	cd 82       	std	Y+5, r12	; 0x05
    if(!buffer || interval == 0 || length < interval || !callback)
    3856:	41 15       	cp	r20, r1
    3858:	51 05       	cpc	r21, r1
    385a:	09 f4       	brne	.+2      	; 0x385e <sd_raw_read_interval+0x4c>
    385c:	ad c0       	rjmp	.+346    	; 0x39b8 <sd_raw_read_interval+0x1a6>
    385e:	21 15       	cp	r18, r1
    3860:	31 05       	cpc	r19, r1
    3862:	09 f4       	brne	.+2      	; 0x3866 <sd_raw_read_interval+0x54>
    3864:	ab c0       	rjmp	.+342    	; 0x39bc <sd_raw_read_interval+0x1aa>
    3866:	02 17       	cp	r16, r18
    3868:	13 07       	cpc	r17, r19
    386a:	08 f4       	brcc	.+2      	; 0x386e <sd_raw_read_interval+0x5c>
    386c:	a9 c0       	rjmp	.+338    	; 0x39c0 <sd_raw_read_interval+0x1ae>
    386e:	ef 28       	or	r14, r15
    3870:	09 f4       	brne	.+2      	; 0x3874 <sd_raw_read_interval+0x62>
    3872:	a8 c0       	rjmp	.+336    	; 0x39c4 <sd_raw_read_interval+0x1b2>
    }

    return 1;
#else
    /* address card */
    select_card();
    3874:	29 98       	cbi	0x05, 1	; 5
    3876:	69 01       	movw	r12, r18
    3878:	c4 0e       	add	r12, r20
    387a:	d5 1e       	adc	r13, r21
    387c:	64 2e       	mov	r6, r20
    387e:	75 2e       	mov	r7, r21
    uint8_t* buffer_cur;
    uint8_t finished = 0;
    do
    {
        /* determine byte count to read at once */
        block_offset = offset & 0x01ff;
    3880:	84 01       	movw	r16, r8
    3882:	11 70       	andi	r17, 0x01	; 1
        read_length = 512 - block_offset;
    3884:	80 e0       	ldi	r24, 0x00	; 0
    3886:	92 e0       	ldi	r25, 0x02	; 2
    3888:	80 1b       	sub	r24, r16
    388a:	91 0b       	sbc	r25, r17
    388c:	9a 83       	std	Y+2, r25	; 0x02
    388e:	89 83       	std	Y+1, r24	; 0x01
        
        /* send single block request */
#if SD_RAW_SDHC
        if(sd_raw_send_command(CMD_READ_SINGLE_BLOCK, (sd_raw_card_type & (1 << SD_RAW_SPEC_SDHC) ? offset / 512 : offset - block_offset)))
#else
        if(sd_raw_send_command(CMD_READ_SINGLE_BLOCK, offset - block_offset))
    3890:	d5 01       	movw	r26, r10
    3892:	c4 01       	movw	r24, r8
    3894:	80 1b       	sub	r24, r16
    3896:	91 0b       	sbc	r25, r17
    3898:	a1 09       	sbc	r26, r1
    389a:	b1 09       	sbc	r27, r1
    389c:	8f 83       	std	Y+7, r24	; 0x07
    389e:	98 87       	std	Y+8, r25	; 0x08
    38a0:	a9 87       	std	Y+9, r26	; 0x09
    38a2:	ba 87       	std	Y+10, r27	; 0x0a
    38a4:	ac 01       	movw	r20, r24
    38a6:	bd 01       	movw	r22, r26
    38a8:	81 e1       	ldi	r24, 0x11	; 17
    38aa:	0e 94 d1 1a 	call	0x35a2	; 0x35a2 <sd_raw_send_command>
    38ae:	88 23       	and	r24, r24
    38b0:	19 f0       	breq	.+6      	; 0x38b8 <sd_raw_read_interval+0xa6>
#endif
        {
            unselect_card();
    38b2:	29 9a       	sbi	0x05, 1	; 5
            return 0;
    38b4:	80 e0       	ldi	r24, 0x00	; 0
    38b6:	93 c0       	rjmp	.+294    	; 0x39de <sd_raw_read_interval+0x1cc>
        }

        /* wait for data block (start byte 0xfe) */
        while(sd_raw_rec_byte() != 0xfe);
    38b8:	0e 94 c7 1a 	call	0x358e	; 0x358e <sd_raw_rec_byte>
    38bc:	8e 3f       	cpi	r24, 0xFE	; 254
    38be:	e1 f7       	brne	.-8      	; 0x38b8 <sd_raw_read_interval+0xa6>

        /* read up to the data of interest */
        for(uint16_t i = 0; i < block_offset; ++i)
    38c0:	01 15       	cp	r16, r1
    38c2:	11 05       	cpc	r17, r1
    38c4:	51 f0       	breq	.+20     	; 0x38da <sd_raw_read_interval+0xc8>
    38c6:	e1 2c       	mov	r14, r1
    38c8:	f1 2c       	mov	r15, r1
            sd_raw_rec_byte();
    38ca:	0e 94 c7 1a 	call	0x358e	; 0x358e <sd_raw_rec_byte>

        /* wait for data block (start byte 0xfe) */
        while(sd_raw_rec_byte() != 0xfe);

        /* read up to the data of interest */
        for(uint16_t i = 0; i < block_offset; ++i)
    38ce:	9f ef       	ldi	r25, 0xFF	; 255
    38d0:	e9 1a       	sub	r14, r25
    38d2:	f9 0a       	sbc	r15, r25
    38d4:	e0 16       	cp	r14, r16
    38d6:	f1 06       	cpc	r15, r17
    38d8:	c1 f7       	brne	.-16     	; 0x38ca <sd_raw_read_interval+0xb8>
            sd_raw_rec_byte();

        /* read interval bytes of data and execute the callback */
        do
        {
            if(read_length < interval || length < interval)
    38da:	a9 81       	ldd	r26, Y+1	; 0x01
    38dc:	ba 81       	ldd	r27, Y+2	; 0x02
    38de:	a2 15       	cp	r26, r2
    38e0:	b3 05       	cpc	r27, r3
    38e2:	90 f0       	brcs	.+36     	; 0x3908 <sd_raw_read_interval+0xf6>
    38e4:	42 14       	cp	r4, r2
    38e6:	53 04       	cpc	r5, r3
    38e8:	88 f0       	brcs	.+34     	; 0x390c <sd_raw_read_interval+0xfa>
    38ea:	7d 01       	movw	r14, r26
    38ec:	0a c0       	rjmp	.+20     	; 0x3902 <sd_raw_read_interval+0xf0>
    38ee:	e2 14       	cp	r14, r2
    38f0:	f3 04       	cpc	r15, r3
    38f2:	08 f4       	brcc	.+2      	; 0x38f6 <sd_raw_read_interval+0xe4>
    38f4:	69 c0       	rjmp	.+210    	; 0x39c8 <sd_raw_read_interval+0x1b6>
    38f6:	02 0d       	add	r16, r2
    38f8:	13 1d       	adc	r17, r3
    38fa:	42 14       	cp	r4, r2
    38fc:	53 04       	cpc	r5, r3
    38fe:	08 f4       	brcc	.+2      	; 0x3902 <sd_raw_read_interval+0xf0>
    3900:	66 c0       	rjmp	.+204    	; 0x39ce <sd_raw_read_interval+0x1bc>
    3902:	69 82       	std	Y+1, r6	; 0x01
    3904:	7a 82       	std	Y+2, r7	; 0x02
    3906:	11 c0       	rjmp	.+34     	; 0x392a <sd_raw_read_interval+0x118>
    3908:	f1 2c       	mov	r15, r1
    390a:	06 c0       	rjmp	.+12     	; 0x3918 <sd_raw_read_interval+0x106>
    390c:	f1 2c       	mov	r15, r1
    390e:	04 c0       	rjmp	.+8      	; 0x3918 <sd_raw_read_interval+0x106>
    3910:	fa 82       	std	Y+2, r15	; 0x02
    3912:	e9 82       	std	Y+1, r14	; 0x01
            for(uint16_t i = 0; i < interval; ++i)
                *buffer_cur++ = sd_raw_rec_byte();

            if(!callback(buffer, offset + (512 - read_length), p))
            {
                finished = 1;
    3914:	ff 24       	eor	r15, r15
    3916:	f3 94       	inc	r15
            length -= interval;

        } while(read_length > 0 && length > 0);
        
        /* read rest of data block */
        while(read_length-- > 0)
    3918:	09 81       	ldd	r16, Y+1	; 0x01
    391a:	1a 81       	ldd	r17, Y+2	; 0x02
    391c:	01 50       	subi	r16, 0x01	; 1
    391e:	11 09       	sbc	r17, r1
    3920:	89 81       	ldd	r24, Y+1	; 0x01
    3922:	9a 81       	ldd	r25, Y+2	; 0x02
    3924:	89 2b       	or	r24, r25
    3926:	41 f5       	brne	.+80     	; 0x3978 <sd_raw_read_interval+0x166>
    3928:	30 c0       	rjmp	.+96     	; 0x398a <sd_raw_read_interval+0x178>
            if(read_length < interval || length < interval)
                break;

            buffer_cur = buffer;
            for(uint16_t i = 0; i < interval; ++i)
                *buffer_cur++ = sd_raw_rec_byte();
    392a:	0e 94 c7 1a 	call	0x358e	; 0x358e <sd_raw_rec_byte>
    392e:	a9 81       	ldd	r26, Y+1	; 0x01
    3930:	ba 81       	ldd	r27, Y+2	; 0x02
    3932:	8d 93       	st	X+, r24
    3934:	ba 83       	std	Y+2, r27	; 0x02
    3936:	a9 83       	std	Y+1, r26	; 0x01
        {
            if(read_length < interval || length < interval)
                break;

            buffer_cur = buffer;
            for(uint16_t i = 0; i < interval; ++i)
    3938:	ac 15       	cp	r26, r12
    393a:	bd 05       	cpc	r27, r13
    393c:	b1 f7       	brne	.-20     	; 0x392a <sd_raw_read_interval+0x118>
                *buffer_cur++ = sd_raw_rec_byte();

            if(!callback(buffer, offset + (512 - read_length), p))
    393e:	2d 81       	ldd	r18, Y+5	; 0x05
    3940:	3e 81       	ldd	r19, Y+6	; 0x06
    3942:	b5 01       	movw	r22, r10
    3944:	a4 01       	movw	r20, r8
    3946:	40 0f       	add	r20, r16
    3948:	51 1f       	adc	r21, r17
    394a:	61 1d       	adc	r22, r1
    394c:	71 1d       	adc	r23, r1
    394e:	86 2d       	mov	r24, r6
    3950:	97 2d       	mov	r25, r7
    3952:	eb 81       	ldd	r30, Y+3	; 0x03
    3954:	fc 81       	ldd	r31, Y+4	; 0x04
    3956:	09 95       	icall
    3958:	88 23       	and	r24, r24
    395a:	d1 f2       	breq	.-76     	; 0x3910 <sd_raw_read_interval+0xfe>
            {
                finished = 1;
                break;
            }

            read_length -= interval;
    395c:	e2 18       	sub	r14, r2
    395e:	f3 08       	sbc	r15, r3
            length -= interval;
    3960:	42 18       	sub	r4, r2
    3962:	53 08       	sbc	r5, r3

        } while(read_length > 0 && length > 0);
    3964:	e1 14       	cp	r14, r1
    3966:	f1 04       	cpc	r15, r1
    3968:	79 f0       	breq	.+30     	; 0x3988 <sd_raw_read_interval+0x176>
    396a:	41 14       	cp	r4, r1
    396c:	51 04       	cpc	r5, r1
    396e:	09 f0       	breq	.+2      	; 0x3972 <sd_raw_read_interval+0x160>
    3970:	be cf       	rjmp	.-132    	; 0x38ee <sd_raw_read_interval+0xdc>
    3972:	fa 82       	std	Y+2, r15	; 0x02
    3974:	e9 82       	std	Y+1, r14	; 0x01
    3976:	2d c0       	rjmp	.+90     	; 0x39d2 <sd_raw_read_interval+0x1c0>
        
        /* read rest of data block */
        while(read_length-- > 0)
            sd_raw_rec_byte();
    3978:	0e 94 c7 1a 	call	0x358e	; 0x358e <sd_raw_rec_byte>
            length -= interval;

        } while(read_length > 0 && length > 0);
        
        /* read rest of data block */
        while(read_length-- > 0)
    397c:	c8 01       	movw	r24, r16
    397e:	01 97       	sbiw	r24, 0x01	; 1
    3980:	01 2b       	or	r16, r17
    3982:	19 f0       	breq	.+6      	; 0x398a <sd_raw_read_interval+0x178>
    3984:	8c 01       	movw	r16, r24
    3986:	f8 cf       	rjmp	.-16     	; 0x3978 <sd_raw_read_interval+0x166>
    3988:	f1 2c       	mov	r15, r1
            sd_raw_rec_byte();
        
        /* read crc16 */
        sd_raw_rec_byte();
    398a:	0e 94 c7 1a 	call	0x358e	; 0x358e <sd_raw_rec_byte>
        sd_raw_rec_byte();
    398e:	0e 94 c7 1a 	call	0x358e	; 0x358e <sd_raw_rec_byte>

        if(length < interval)
    3992:	42 14       	cp	r4, r2
    3994:	53 04       	cpc	r5, r3
    3996:	58 f0       	brcs	.+22     	; 0x39ae <sd_raw_read_interval+0x19c>
            break;

        offset = offset - block_offset + 512;
    3998:	8f 80       	ldd	r8, Y+7	; 0x07
    399a:	98 84       	ldd	r9, Y+8	; 0x08
    399c:	a9 84       	ldd	r10, Y+9	; 0x09
    399e:	ba 84       	ldd	r11, Y+10	; 0x0a
    39a0:	f2 e0       	ldi	r31, 0x02	; 2
    39a2:	9f 0e       	add	r9, r31
    39a4:	a1 1c       	adc	r10, r1
    39a6:	b1 1c       	adc	r11, r1

    } while(!finished);
    39a8:	ff 20       	and	r15, r15
    39aa:	09 f4       	brne	.+2      	; 0x39ae <sd_raw_read_interval+0x19c>
    39ac:	69 cf       	rjmp	.-302    	; 0x3880 <sd_raw_read_interval+0x6e>
    
    /* deaddress card */
    unselect_card();
    39ae:	29 9a       	sbi	0x05, 1	; 5

    /* let card some time to finish */
    sd_raw_rec_byte();
    39b0:	0e 94 c7 1a 	call	0x358e	; 0x358e <sd_raw_rec_byte>

    return 1;
    39b4:	81 e0       	ldi	r24, 0x01	; 1
    39b6:	13 c0       	rjmp	.+38     	; 0x39de <sd_raw_read_interval+0x1cc>
 * \see sd_raw_write_interval, sd_raw_read, sd_raw_write
 */
uint8_t sd_raw_read_interval(offset_t offset, uint8_t* buffer, uintptr_t interval, uintptr_t length, sd_raw_read_interval_handler_t callback, void* p)
{
    if(!buffer || interval == 0 || length < interval || !callback)
        return 0;
    39b8:	80 e0       	ldi	r24, 0x00	; 0
    39ba:	11 c0       	rjmp	.+34     	; 0x39de <sd_raw_read_interval+0x1cc>
    39bc:	80 e0       	ldi	r24, 0x00	; 0
    39be:	0f c0       	rjmp	.+30     	; 0x39de <sd_raw_read_interval+0x1cc>
    39c0:	80 e0       	ldi	r24, 0x00	; 0
    39c2:	0d c0       	rjmp	.+26     	; 0x39de <sd_raw_read_interval+0x1cc>
    39c4:	80 e0       	ldi	r24, 0x00	; 0
    39c6:	0b c0       	rjmp	.+22     	; 0x39de <sd_raw_read_interval+0x1cc>
    39c8:	fa 82       	std	Y+2, r15	; 0x02
    39ca:	e9 82       	std	Y+1, r14	; 0x01
    39cc:	02 c0       	rjmp	.+4      	; 0x39d2 <sd_raw_read_interval+0x1c0>
    39ce:	fa 82       	std	Y+2, r15	; 0x02
    39d0:	e9 82       	std	Y+1, r14	; 0x01
            length -= interval;

        } while(read_length > 0 && length > 0);
        
        /* read rest of data block */
        while(read_length-- > 0)
    39d2:	09 81       	ldd	r16, Y+1	; 0x01
    39d4:	1a 81       	ldd	r17, Y+2	; 0x02
    39d6:	01 50       	subi	r16, 0x01	; 1
    39d8:	11 09       	sbc	r17, r1
    39da:	f1 2c       	mov	r15, r1
    39dc:	cd cf       	rjmp	.-102    	; 0x3978 <sd_raw_read_interval+0x166>
    /* let card some time to finish */
    sd_raw_rec_byte();

    return 1;
#endif
}
    39de:	2a 96       	adiw	r28, 0x0a	; 10
    39e0:	0f b6       	in	r0, 0x3f	; 63
    39e2:	f8 94       	cli
    39e4:	de bf       	out	0x3e, r29	; 62
    39e6:	0f be       	out	0x3f, r0	; 63
    39e8:	cd bf       	out	0x3d, r28	; 61
    39ea:	df 91       	pop	r29
    39ec:	cf 91       	pop	r28
    39ee:	1f 91       	pop	r17
    39f0:	0f 91       	pop	r16
    39f2:	ff 90       	pop	r15
    39f4:	ef 90       	pop	r14
    39f6:	df 90       	pop	r13
    39f8:	cf 90       	pop	r12
    39fa:	bf 90       	pop	r11
    39fc:	af 90       	pop	r10
    39fe:	9f 90       	pop	r9
    3a00:	8f 90       	pop	r8
    3a02:	7f 90       	pop	r7
    3a04:	6f 90       	pop	r6
    3a06:	5f 90       	pop	r5
    3a08:	4f 90       	pop	r4
    3a0a:	3f 90       	pop	r3
    3a0c:	2f 90       	pop	r2
    3a0e:	08 95       	ret

00003a10 <sram_wrmode>:
		--size;
	}
}

void sram_wrmode(unsigned char mode){
	sram_enable();
    3a10:	40 98       	cbi	0x08, 0	; 8
#define sram_enable()  {SRAM_PORT &= ~SRAM_SEL;}
#define sram_disable() {SRAM_PORT |= SRAM_SEL;}


inline void sram_send_byte(unsigned char b){
	SPI_SR|=(1<<SPI2X);
    3a12:	9d b5       	in	r25, 0x2d	; 45
    3a14:	91 60       	ori	r25, 0x01	; 1
    3a16:	9d bd       	out	0x2d, r25	; 45
	SPI_DR = b;
    3a18:	91 e0       	ldi	r25, 0x01	; 1
    3a1a:	9e bd       	out	0x2e, r25	; 46
	while (!(SPI_SR&(1<<SPIF)));
    3a1c:	0d b4       	in	r0, 0x2d	; 45
    3a1e:	07 fe       	sbrs	r0, 7
    3a20:	fd cf       	rjmp	.-6      	; 0x3a1c <sram_wrmode+0xc>
#define sram_enable()  {SRAM_PORT &= ~SRAM_SEL;}
#define sram_disable() {SRAM_PORT |= SRAM_SEL;}


inline void sram_send_byte(unsigned char b){
	SPI_SR|=(1<<SPI2X);
    3a22:	9d b5       	in	r25, 0x2d	; 45
    3a24:	91 60       	ori	r25, 0x01	; 1
    3a26:	9d bd       	out	0x2d, r25	; 45
	SPI_DR = b;
    3a28:	8e bd       	out	0x2e, r24	; 46
	while (!(SPI_SR&(1<<SPIF)));
    3a2a:	0d b4       	in	r0, 0x2d	; 45
    3a2c:	07 fe       	sbrs	r0, 7
    3a2e:	fd cf       	rjmp	.-6      	; 0x3a2a <sram_wrmode+0x1a>

void sram_wrmode(unsigned char mode){
	sram_enable();
	sram_send_byte(SRAM_WRMR);
	sram_send_byte(mode);
	sram_disable();
    3a30:	40 9a       	sbi	0x08, 0	; 8
    3a32:	08 95       	ret

00003a34 <sram_clear>:
}

void sram_clear(){
	uint32_t i;

	sram_enable();
    3a34:	40 98       	cbi	0x08, 0	; 8
#define sram_enable()  {SRAM_PORT &= ~SRAM_SEL;}
#define sram_disable() {SRAM_PORT |= SRAM_SEL;}


inline void sram_send_byte(unsigned char b){
	SPI_SR|=(1<<SPI2X);
    3a36:	8d b5       	in	r24, 0x2d	; 45
    3a38:	81 60       	ori	r24, 0x01	; 1
    3a3a:	8d bd       	out	0x2d, r24	; 45
	SPI_DR = b;
    3a3c:	82 e0       	ldi	r24, 0x02	; 2
    3a3e:	8e bd       	out	0x2e, r24	; 46
	while (!(SPI_SR&(1<<SPIF)));
    3a40:	0d b4       	in	r0, 0x2d	; 45
    3a42:	07 fe       	sbrs	r0, 7
    3a44:	fd cf       	rjmp	.-6      	; 0x3a40 <sram_clear+0xc>
#define sram_enable()  {SRAM_PORT &= ~SRAM_SEL;}
#define sram_disable() {SRAM_PORT |= SRAM_SEL;}


inline void sram_send_byte(unsigned char b){
	SPI_SR|=(1<<SPI2X);
    3a46:	8d b5       	in	r24, 0x2d	; 45
    3a48:	81 60       	ori	r24, 0x01	; 1
    3a4a:	8d bd       	out	0x2d, r24	; 45
	SPI_DR = b;
    3a4c:	1e bc       	out	0x2e, r1	; 46
	while (!(SPI_SR&(1<<SPIF)));
    3a4e:	0d b4       	in	r0, 0x2d	; 45
    3a50:	07 fe       	sbrs	r0, 7
    3a52:	fd cf       	rjmp	.-6      	; 0x3a4e <sram_clear+0x1a>
#define sram_enable()  {SRAM_PORT &= ~SRAM_SEL;}
#define sram_disable() {SRAM_PORT |= SRAM_SEL;}


inline void sram_send_byte(unsigned char b){
	SPI_SR|=(1<<SPI2X);
    3a54:	8d b5       	in	r24, 0x2d	; 45
    3a56:	81 60       	ori	r24, 0x01	; 1
    3a58:	8d bd       	out	0x2d, r24	; 45
	SPI_DR = b;
    3a5a:	1e bc       	out	0x2e, r1	; 46
	while (!(SPI_SR&(1<<SPIF)));
    3a5c:	0d b4       	in	r0, 0x2d	; 45
    3a5e:	07 fe       	sbrs	r0, 7
    3a60:	fd cf       	rjmp	.-6      	; 0x3a5c <sram_clear+0x28>
    3a62:	80 e0       	ldi	r24, 0x00	; 0
    3a64:	90 e0       	ldi	r25, 0x00	; 0
    3a66:	a1 e0       	ldi	r26, 0x01	; 1
    3a68:	b0 e0       	ldi	r27, 0x00	; 0
#define sram_enable()  {SRAM_PORT &= ~SRAM_SEL;}
#define sram_disable() {SRAM_PORT |= SRAM_SEL;}


inline void sram_send_byte(unsigned char b){
	SPI_SR|=(1<<SPI2X);
    3a6a:	2d b5       	in	r18, 0x2d	; 45
    3a6c:	21 60       	ori	r18, 0x01	; 1
    3a6e:	2d bd       	out	0x2d, r18	; 45
	SPI_DR = b;
    3a70:	1e bc       	out	0x2e, r1	; 46
	while (!(SPI_SR&(1<<SPIF)));
    3a72:	0d b4       	in	r0, 0x2d	; 45
    3a74:	07 fe       	sbrs	r0, 7
    3a76:	fd cf       	rjmp	.-6      	; 0x3a72 <sram_clear+0x3e>
    3a78:	01 97       	sbiw	r24, 0x01	; 1
    3a7a:	a1 09       	sbc	r26, r1
    3a7c:	b1 09       	sbc	r27, r1
void sram_clear(){
	uint32_t i;

	sram_enable();
	sram_cmd(SRAM_WRITE,0);
	for (i=0;i<SRAM_SIZE;i++){
    3a7e:	00 97       	sbiw	r24, 0x00	; 0
    3a80:	a1 05       	cpc	r26, r1
    3a82:	b1 05       	cpc	r27, r1
    3a84:	91 f7       	brne	.-28     	; 0x3a6a <sram_clear+0x36>
		sram_send_byte(0);
	}
	sram_disable();
    3a86:	40 9a       	sbi	0x08, 0	; 8
    3a88:	08 95       	ret

00003a8a <sram_init>:

}

// initialisation de la SRAM
void sram_init(){
	SRAM_DDR |= SRAM_SEL;
    3a8a:	38 9a       	sbi	0x07, 0	; 7
	sram_disable(); 
    3a8c:	40 9a       	sbi	0x08, 0	; 8
	//met la SRAM en mode séquentiel
	sram_wrmode(SRAM_SQMD);
    3a8e:	80 e4       	ldi	r24, 0x40	; 64
    3a90:	0e 94 08 1d 	call	0x3a10	; 0x3a10 <sram_wrmode>
	//efface la SRAM
	sram_clear();
    3a94:	0e 94 1a 1d 	call	0x3a34	; 0x3a34 <sram_clear>
    3a98:	08 95       	ret

00003a9a <sram_write_byte>:
}


// écriture d'un octet dans la SRAM
void sram_write_byte(uint16_t addr, uint8_t data){
	sram_enable();
    3a9a:	40 98       	cbi	0x08, 0	; 8
#define sram_enable()  {SRAM_PORT &= ~SRAM_SEL;}
#define sram_disable() {SRAM_PORT |= SRAM_SEL;}


inline void sram_send_byte(unsigned char b){
	SPI_SR|=(1<<SPI2X);
    3a9c:	2d b5       	in	r18, 0x2d	; 45
    3a9e:	21 60       	ori	r18, 0x01	; 1
    3aa0:	2d bd       	out	0x2d, r18	; 45
	SPI_DR = b;
    3aa2:	22 e0       	ldi	r18, 0x02	; 2
    3aa4:	2e bd       	out	0x2e, r18	; 46
	while (!(SPI_SR&(1<<SPIF)));
    3aa6:	0d b4       	in	r0, 0x2d	; 45
    3aa8:	07 fe       	sbrs	r0, 7
    3aaa:	fd cf       	rjmp	.-6      	; 0x3aa6 <sram_write_byte+0xc>
#define sram_enable()  {SRAM_PORT &= ~SRAM_SEL;}
#define sram_disable() {SRAM_PORT |= SRAM_SEL;}


inline void sram_send_byte(unsigned char b){
	SPI_SR|=(1<<SPI2X);
    3aac:	2d b5       	in	r18, 0x2d	; 45
    3aae:	21 60       	ori	r18, 0x01	; 1
    3ab0:	2d bd       	out	0x2d, r18	; 45
	SPI_DR = b;
    3ab2:	9e bd       	out	0x2e, r25	; 46
	while (!(SPI_SR&(1<<SPIF)));
    3ab4:	0d b4       	in	r0, 0x2d	; 45
    3ab6:	07 fe       	sbrs	r0, 7
    3ab8:	fd cf       	rjmp	.-6      	; 0x3ab4 <sram_write_byte+0x1a>
#define sram_enable()  {SRAM_PORT &= ~SRAM_SEL;}
#define sram_disable() {SRAM_PORT |= SRAM_SEL;}


inline void sram_send_byte(unsigned char b){
	SPI_SR|=(1<<SPI2X);
    3aba:	9d b5       	in	r25, 0x2d	; 45
    3abc:	91 60       	ori	r25, 0x01	; 1
    3abe:	9d bd       	out	0x2d, r25	; 45
	SPI_DR = b;
    3ac0:	8e bd       	out	0x2e, r24	; 46
	while (!(SPI_SR&(1<<SPIF)));
    3ac2:	0d b4       	in	r0, 0x2d	; 45
    3ac4:	07 fe       	sbrs	r0, 7
    3ac6:	fd cf       	rjmp	.-6      	; 0x3ac2 <sram_write_byte+0x28>
#define sram_enable()  {SRAM_PORT &= ~SRAM_SEL;}
#define sram_disable() {SRAM_PORT |= SRAM_SEL;}


inline void sram_send_byte(unsigned char b){
	SPI_SR|=(1<<SPI2X);
    3ac8:	8d b5       	in	r24, 0x2d	; 45
    3aca:	81 60       	ori	r24, 0x01	; 1
    3acc:	8d bd       	out	0x2d, r24	; 45
	SPI_DR = b;
    3ace:	6e bd       	out	0x2e, r22	; 46
	while (!(SPI_SR&(1<<SPIF)));
    3ad0:	0d b4       	in	r0, 0x2d	; 45
    3ad2:	07 fe       	sbrs	r0, 7
    3ad4:	fd cf       	rjmp	.-6      	; 0x3ad0 <sram_write_byte+0x36>
// écriture d'un octet dans la SRAM
void sram_write_byte(uint16_t addr, uint8_t data){
	sram_enable();
	sram_cmd(SRAM_WRITE,addr);
	sram_send_byte(data);
	sram_disable();
    3ad6:	40 9a       	sbi	0x08, 0	; 8
    3ad8:	08 95       	ret

00003ada <sram_read_byte>:
}
*/

// lecture d'un octet de la SRAM
uint8_t sram_read_byte(uint16_t addr){
	sram_enable();
    3ada:	40 98       	cbi	0x08, 0	; 8
#define sram_enable()  {SRAM_PORT &= ~SRAM_SEL;}
#define sram_disable() {SRAM_PORT |= SRAM_SEL;}


inline void sram_send_byte(unsigned char b){
	SPI_SR|=(1<<SPI2X);
    3adc:	2d b5       	in	r18, 0x2d	; 45
    3ade:	21 60       	ori	r18, 0x01	; 1
    3ae0:	2d bd       	out	0x2d, r18	; 45
	SPI_DR = b;
    3ae2:	23 e0       	ldi	r18, 0x03	; 3
    3ae4:	2e bd       	out	0x2e, r18	; 46
	while (!(SPI_SR&(1<<SPIF)));
    3ae6:	0d b4       	in	r0, 0x2d	; 45
    3ae8:	07 fe       	sbrs	r0, 7
    3aea:	fd cf       	rjmp	.-6      	; 0x3ae6 <sram_read_byte+0xc>
#define sram_enable()  {SRAM_PORT &= ~SRAM_SEL;}
#define sram_disable() {SRAM_PORT |= SRAM_SEL;}


inline void sram_send_byte(unsigned char b){
	SPI_SR|=(1<<SPI2X);
    3aec:	2d b5       	in	r18, 0x2d	; 45
    3aee:	21 60       	ori	r18, 0x01	; 1
    3af0:	2d bd       	out	0x2d, r18	; 45
	SPI_DR = b;
    3af2:	9e bd       	out	0x2e, r25	; 46
	while (!(SPI_SR&(1<<SPIF)));
    3af4:	0d b4       	in	r0, 0x2d	; 45
    3af6:	07 fe       	sbrs	r0, 7
    3af8:	fd cf       	rjmp	.-6      	; 0x3af4 <sram_read_byte+0x1a>
#define sram_enable()  {SRAM_PORT &= ~SRAM_SEL;}
#define sram_disable() {SRAM_PORT |= SRAM_SEL;}


inline void sram_send_byte(unsigned char b){
	SPI_SR|=(1<<SPI2X);
    3afa:	9d b5       	in	r25, 0x2d	; 45
    3afc:	91 60       	ori	r25, 0x01	; 1
    3afe:	9d bd       	out	0x2d, r25	; 45
	SPI_DR = b;
    3b00:	8e bd       	out	0x2e, r24	; 46
	while (!(SPI_SR&(1<<SPIF)));
    3b02:	0d b4       	in	r0, 0x2d	; 45
    3b04:	07 fe       	sbrs	r0, 7
    3b06:	fd cf       	rjmp	.-6      	; 0x3b02 <sram_read_byte+0x28>
#define sram_enable()  {SRAM_PORT &= ~SRAM_SEL;}
#define sram_disable() {SRAM_PORT |= SRAM_SEL;}


inline void sram_send_byte(unsigned char b){
	SPI_SR|=(1<<SPI2X);
    3b08:	8d b5       	in	r24, 0x2d	; 45
    3b0a:	81 60       	ori	r24, 0x01	; 1
    3b0c:	8d bd       	out	0x2d, r24	; 45
	SPI_DR = b;
    3b0e:	1e bc       	out	0x2e, r1	; 46
	while (!(SPI_SR&(1<<SPIF)));
    3b10:	0d b4       	in	r0, 0x2d	; 45
    3b12:	07 fe       	sbrs	r0, 7
    3b14:	fd cf       	rjmp	.-6      	; 0x3b10 <sram_read_byte+0x36>
// lecture d'un octet de la SRAM
uint8_t sram_read_byte(uint16_t addr){
	sram_enable();
	sram_cmd(SRAM_READ,addr);
	sram_send_byte(0);
	sram_disable();
    3b16:	40 9a       	sbi	0x08, 0	; 8
	return SPI_DR;
    3b18:	8e b5       	in	r24, 0x2e	; 46
}
    3b1a:	08 95       	ret

00003b1c <sram_read_word>:

// lecture d'un mot 16 bits
// ordre little indian
uint16_t sram_read_word(uint16_t addr){
	uint16_t w;
	sram_enable();
    3b1c:	40 98       	cbi	0x08, 0	; 8
#define sram_enable()  {SRAM_PORT &= ~SRAM_SEL;}
#define sram_disable() {SRAM_PORT |= SRAM_SEL;}


inline void sram_send_byte(unsigned char b){
	SPI_SR|=(1<<SPI2X);
    3b1e:	2d b5       	in	r18, 0x2d	; 45
    3b20:	21 60       	ori	r18, 0x01	; 1
    3b22:	2d bd       	out	0x2d, r18	; 45
	SPI_DR = b;
    3b24:	23 e0       	ldi	r18, 0x03	; 3
    3b26:	2e bd       	out	0x2e, r18	; 46
	while (!(SPI_SR&(1<<SPIF)));
    3b28:	0d b4       	in	r0, 0x2d	; 45
    3b2a:	07 fe       	sbrs	r0, 7
    3b2c:	fd cf       	rjmp	.-6      	; 0x3b28 <sram_read_word+0xc>
#define sram_enable()  {SRAM_PORT &= ~SRAM_SEL;}
#define sram_disable() {SRAM_PORT |= SRAM_SEL;}


inline void sram_send_byte(unsigned char b){
	SPI_SR|=(1<<SPI2X);
    3b2e:	2d b5       	in	r18, 0x2d	; 45
    3b30:	21 60       	ori	r18, 0x01	; 1
    3b32:	2d bd       	out	0x2d, r18	; 45
	SPI_DR = b;
    3b34:	9e bd       	out	0x2e, r25	; 46
	while (!(SPI_SR&(1<<SPIF)));
    3b36:	0d b4       	in	r0, 0x2d	; 45
    3b38:	07 fe       	sbrs	r0, 7
    3b3a:	fd cf       	rjmp	.-6      	; 0x3b36 <sram_read_word+0x1a>
#define sram_enable()  {SRAM_PORT &= ~SRAM_SEL;}
#define sram_disable() {SRAM_PORT |= SRAM_SEL;}


inline void sram_send_byte(unsigned char b){
	SPI_SR|=(1<<SPI2X);
    3b3c:	9d b5       	in	r25, 0x2d	; 45
    3b3e:	91 60       	ori	r25, 0x01	; 1
    3b40:	9d bd       	out	0x2d, r25	; 45
	SPI_DR = b;
    3b42:	8e bd       	out	0x2e, r24	; 46
	while (!(SPI_SR&(1<<SPIF)));
    3b44:	0d b4       	in	r0, 0x2d	; 45
    3b46:	07 fe       	sbrs	r0, 7
    3b48:	fd cf       	rjmp	.-6      	; 0x3b44 <sram_read_word+0x28>
#define sram_enable()  {SRAM_PORT &= ~SRAM_SEL;}
#define sram_disable() {SRAM_PORT |= SRAM_SEL;}


inline void sram_send_byte(unsigned char b){
	SPI_SR|=(1<<SPI2X);
    3b4a:	8d b5       	in	r24, 0x2d	; 45
    3b4c:	81 60       	ori	r24, 0x01	; 1
    3b4e:	8d bd       	out	0x2d, r24	; 45
	SPI_DR = b;
    3b50:	1e bc       	out	0x2e, r1	; 46
	while (!(SPI_SR&(1<<SPIF)));
    3b52:	0d b4       	in	r0, 0x2d	; 45
    3b54:	07 fe       	sbrs	r0, 7
    3b56:	fd cf       	rjmp	.-6      	; 0x3b52 <sram_read_word+0x36>
uint16_t sram_read_word(uint16_t addr){
	uint16_t w;
	sram_enable();
	sram_cmd(SRAM_READ,addr);
	sram_send_byte(0);
	w=SPI_DR;
    3b58:	8e b5       	in	r24, 0x2e	; 46
    3b5a:	90 e0       	ldi	r25, 0x00	; 0
#define sram_enable()  {SRAM_PORT &= ~SRAM_SEL;}
#define sram_disable() {SRAM_PORT |= SRAM_SEL;}


inline void sram_send_byte(unsigned char b){
	SPI_SR|=(1<<SPI2X);
    3b5c:	2d b5       	in	r18, 0x2d	; 45
    3b5e:	21 60       	ori	r18, 0x01	; 1
    3b60:	2d bd       	out	0x2d, r18	; 45
	SPI_DR = b;
    3b62:	1e bc       	out	0x2e, r1	; 46
	while (!(SPI_SR&(1<<SPIF)));
    3b64:	0d b4       	in	r0, 0x2d	; 45
    3b66:	07 fe       	sbrs	r0, 7
    3b68:	fd cf       	rjmp	.-6      	; 0x3b64 <sram_read_word+0x48>
	sram_enable();
	sram_cmd(SRAM_READ,addr);
	sram_send_byte(0);
	w=SPI_DR;
	sram_send_byte(0);
	w |= SPI_DR<<8;
    3b6a:	2e b5       	in	r18, 0x2e	; 46
	sram_disable();
    3b6c:	40 9a       	sbi	0x08, 0	; 8
	return w;
}
    3b6e:	92 2b       	or	r25, r18
    3b70:	08 95       	ret

00003b72 <sram_load_block>:

// charge un bloc de mémoire SRAM dans un variable tableau.
void sram_load_block(uint16_t addr,uint16_t size, uint8_t *b){
	sram_enable();
    3b72:	40 98       	cbi	0x08, 0	; 8
#define sram_enable()  {SRAM_PORT &= ~SRAM_SEL;}
#define sram_disable() {SRAM_PORT |= SRAM_SEL;}


inline void sram_send_byte(unsigned char b){
	SPI_SR|=(1<<SPI2X);
    3b74:	2d b5       	in	r18, 0x2d	; 45
    3b76:	21 60       	ori	r18, 0x01	; 1
    3b78:	2d bd       	out	0x2d, r18	; 45
	SPI_DR = b;
    3b7a:	23 e0       	ldi	r18, 0x03	; 3
    3b7c:	2e bd       	out	0x2e, r18	; 46
	while (!(SPI_SR&(1<<SPIF)));
    3b7e:	0d b4       	in	r0, 0x2d	; 45
    3b80:	07 fe       	sbrs	r0, 7
    3b82:	fd cf       	rjmp	.-6      	; 0x3b7e <sram_load_block+0xc>
#define sram_enable()  {SRAM_PORT &= ~SRAM_SEL;}
#define sram_disable() {SRAM_PORT |= SRAM_SEL;}


inline void sram_send_byte(unsigned char b){
	SPI_SR|=(1<<SPI2X);
    3b84:	2d b5       	in	r18, 0x2d	; 45
    3b86:	21 60       	ori	r18, 0x01	; 1
    3b88:	2d bd       	out	0x2d, r18	; 45
	SPI_DR = b;
    3b8a:	9e bd       	out	0x2e, r25	; 46
	while (!(SPI_SR&(1<<SPIF)));
    3b8c:	0d b4       	in	r0, 0x2d	; 45
    3b8e:	07 fe       	sbrs	r0, 7
    3b90:	fd cf       	rjmp	.-6      	; 0x3b8c <sram_load_block+0x1a>
#define sram_enable()  {SRAM_PORT &= ~SRAM_SEL;}
#define sram_disable() {SRAM_PORT |= SRAM_SEL;}


inline void sram_send_byte(unsigned char b){
	SPI_SR|=(1<<SPI2X);
    3b92:	9d b5       	in	r25, 0x2d	; 45
    3b94:	91 60       	ori	r25, 0x01	; 1
    3b96:	9d bd       	out	0x2d, r25	; 45
	SPI_DR = b;
    3b98:	8e bd       	out	0x2e, r24	; 46
	while (!(SPI_SR&(1<<SPIF)));
    3b9a:	0d b4       	in	r0, 0x2d	; 45
    3b9c:	07 fe       	sbrs	r0, 7
    3b9e:	fd cf       	rjmp	.-6      	; 0x3b9a <sram_load_block+0x28>
	uint16_t i;
	for (i=0;i<size;i++) sram_send_byte(*block++);
}

inline void sram_read_block(uint8_t *block, uint16_t size){
	while (size){
    3ba0:	61 15       	cp	r22, r1
    3ba2:	71 05       	cpc	r23, r1
    3ba4:	79 f0       	breq	.+30     	; 0x3bc4 <sram_load_block+0x52>
    3ba6:	fa 01       	movw	r30, r20
    3ba8:	46 0f       	add	r20, r22
    3baa:	57 1f       	adc	r21, r23
#define sram_enable()  {SRAM_PORT &= ~SRAM_SEL;}
#define sram_disable() {SRAM_PORT |= SRAM_SEL;}


inline void sram_send_byte(unsigned char b){
	SPI_SR|=(1<<SPI2X);
    3bac:	8d b5       	in	r24, 0x2d	; 45
    3bae:	81 60       	ori	r24, 0x01	; 1
    3bb0:	8d bd       	out	0x2d, r24	; 45
	SPI_DR = b;
    3bb2:	1e bc       	out	0x2e, r1	; 46
	while (!(SPI_SR&(1<<SPIF)));
    3bb4:	0d b4       	in	r0, 0x2d	; 45
    3bb6:	07 fe       	sbrs	r0, 7
    3bb8:	fd cf       	rjmp	.-6      	; 0x3bb4 <sram_load_block+0x42>
}

inline void sram_read_block(uint8_t *block, uint16_t size){
	while (size){
		sram_send_byte(0);
		*block++=SPI_DR;
    3bba:	8e b5       	in	r24, 0x2e	; 46
    3bbc:	81 93       	st	Z+, r24
	uint16_t i;
	for (i=0;i<size;i++) sram_send_byte(*block++);
}

inline void sram_read_block(uint8_t *block, uint16_t size){
	while (size){
    3bbe:	e4 17       	cp	r30, r20
    3bc0:	f5 07       	cpc	r31, r21
    3bc2:	a1 f7       	brne	.-24     	; 0x3bac <sram_load_block+0x3a>
// charge un bloc de mémoire SRAM dans un variable tableau.
void sram_load_block(uint16_t addr,uint16_t size, uint8_t *b){
	sram_enable();
	sram_cmd(SRAM_READ,addr);
	sram_read_block(b,size);
	sram_disable();
    3bc4:	40 9a       	sbi	0x08, 0	; 8
    3bc6:	08 95       	ret

00003bc8 <sram_store_block>:
}

// transfert le contenu d'une variable tableau dans 
// la mémoire SRAM
void sram_store_block(uint16_t addr, uint16_t size, uint8_t *b){
	sram_enable();
    3bc8:	40 98       	cbi	0x08, 0	; 8
#define sram_enable()  {SRAM_PORT &= ~SRAM_SEL;}
#define sram_disable() {SRAM_PORT |= SRAM_SEL;}


inline void sram_send_byte(unsigned char b){
	SPI_SR|=(1<<SPI2X);
    3bca:	2d b5       	in	r18, 0x2d	; 45
    3bcc:	21 60       	ori	r18, 0x01	; 1
    3bce:	2d bd       	out	0x2d, r18	; 45
	SPI_DR = b;
    3bd0:	22 e0       	ldi	r18, 0x02	; 2
    3bd2:	2e bd       	out	0x2e, r18	; 46
	while (!(SPI_SR&(1<<SPIF)));
    3bd4:	0d b4       	in	r0, 0x2d	; 45
    3bd6:	07 fe       	sbrs	r0, 7
    3bd8:	fd cf       	rjmp	.-6      	; 0x3bd4 <sram_store_block+0xc>
#define sram_enable()  {SRAM_PORT &= ~SRAM_SEL;}
#define sram_disable() {SRAM_PORT |= SRAM_SEL;}


inline void sram_send_byte(unsigned char b){
	SPI_SR|=(1<<SPI2X);
    3bda:	2d b5       	in	r18, 0x2d	; 45
    3bdc:	21 60       	ori	r18, 0x01	; 1
    3bde:	2d bd       	out	0x2d, r18	; 45
	SPI_DR = b;
    3be0:	9e bd       	out	0x2e, r25	; 46
	while (!(SPI_SR&(1<<SPIF)));
    3be2:	0d b4       	in	r0, 0x2d	; 45
    3be4:	07 fe       	sbrs	r0, 7
    3be6:	fd cf       	rjmp	.-6      	; 0x3be2 <sram_store_block+0x1a>
#define sram_enable()  {SRAM_PORT &= ~SRAM_SEL;}
#define sram_disable() {SRAM_PORT |= SRAM_SEL;}


inline void sram_send_byte(unsigned char b){
	SPI_SR|=(1<<SPI2X);
    3be8:	9d b5       	in	r25, 0x2d	; 45
    3bea:	91 60       	ori	r25, 0x01	; 1
    3bec:	9d bd       	out	0x2d, r25	; 45
	SPI_DR = b;
    3bee:	8e bd       	out	0x2e, r24	; 46
	while (!(SPI_SR&(1<<SPIF)));
    3bf0:	0d b4       	in	r0, 0x2d	; 45
    3bf2:	07 fe       	sbrs	r0, 7
    3bf4:	fd cf       	rjmp	.-6      	; 0x3bf0 <sram_store_block+0x28>
							sram_send_byte(addr&0xff)
							
							
inline void sram_write_block(uint8_t *block,uint16_t size){
	uint16_t i;
	for (i=0;i<size;i++) sram_send_byte(*block++);
    3bf6:	61 15       	cp	r22, r1
    3bf8:	71 05       	cpc	r23, r1
    3bfa:	71 f0       	breq	.+28     	; 0x3c18 <sram_store_block+0x50>
    3bfc:	fa 01       	movw	r30, r20
    3bfe:	46 0f       	add	r20, r22
    3c00:	57 1f       	adc	r21, r23
    3c02:	81 91       	ld	r24, Z+
#define sram_enable()  {SRAM_PORT &= ~SRAM_SEL;}
#define sram_disable() {SRAM_PORT |= SRAM_SEL;}


inline void sram_send_byte(unsigned char b){
	SPI_SR|=(1<<SPI2X);
    3c04:	9d b5       	in	r25, 0x2d	; 45
    3c06:	91 60       	ori	r25, 0x01	; 1
    3c08:	9d bd       	out	0x2d, r25	; 45
	SPI_DR = b;
    3c0a:	8e bd       	out	0x2e, r24	; 46
	while (!(SPI_SR&(1<<SPIF)));
    3c0c:	0d b4       	in	r0, 0x2d	; 45
    3c0e:	07 fe       	sbrs	r0, 7
    3c10:	fd cf       	rjmp	.-6      	; 0x3c0c <sram_store_block+0x44>
							sram_send_byte(addr&0xff)
							
							
inline void sram_write_block(uint8_t *block,uint16_t size){
	uint16_t i;
	for (i=0;i<size;i++) sram_send_byte(*block++);
    3c12:	e4 17       	cp	r30, r20
    3c14:	f5 07       	cpc	r31, r21
    3c16:	a9 f7       	brne	.-22     	; 0x3c02 <sram_store_block+0x3a>
// la mémoire SRAM
void sram_store_block(uint16_t addr, uint16_t size, uint8_t *b){
	sram_enable();
	sram_cmd(SRAM_WRITE,addr);
	sram_write_block(b,size);
	sram_disable();
    3c18:	40 9a       	sbi	0x08, 0	; 8
    3c1a:	08 95       	ret

00003c1c <select_font>:

uint8_t font=FONT_ASCII;
uint8_t xpos=0, ypos=0;
	
void select_font(uint8_t font_id){
	font=font_id;
    3c1c:	80 93 04 01 	sts	0x0104, r24
    3c20:	08 95       	ret

00003c22 <new_line>:
}

void new_line(){
	xpos=0;
    3c22:	10 92 c0 02 	sts	0x02C0, r1
	switch (font){
    3c26:	80 91 04 01 	lds	r24, 0x0104
    3c2a:	81 30       	cpi	r24, 0x01	; 1
    3c2c:	a1 f0       	breq	.+40     	; 0x3c56 <new_line+0x34>
    3c2e:	18 f0       	brcs	.+6      	; 0x3c36 <new_line+0x14>
    3c30:	82 30       	cpi	r24, 0x02	; 2
    3c32:	09 f1       	breq	.+66     	; 0x3c76 <new_line+0x54>
    3c34:	08 95       	ret
	case FONT_SHEX:
		if ((ypos+SHEX_HEIGHT)<=(VRES-SHEX_HEIGHT+1)){
    3c36:	20 91 bf 02 	lds	r18, 0x02BF
    3c3a:	82 2f       	mov	r24, r18
    3c3c:	90 e0       	ldi	r25, 0x00	; 0
    3c3e:	06 96       	adiw	r24, 0x06	; 6
    3c40:	8c 34       	cpi	r24, 0x4C	; 76
    3c42:	91 05       	cpc	r25, r1
    3c44:	24 f4       	brge	.+8      	; 0x3c4e <new_line+0x2c>
			ypos+=SHEX_HEIGHT;
    3c46:	2a 5f       	subi	r18, 0xFA	; 250
    3c48:	20 93 bf 02 	sts	0x02BF, r18
    3c4c:	08 95       	ret
		}else{
			scroll_up(SHEX_HEIGHT);
    3c4e:	86 e0       	ldi	r24, 0x06	; 6
    3c50:	0e 94 88 22 	call	0x4510	; 0x4510 <scroll_up>
    3c54:	08 95       	ret
		}
		break;
	case FONT_LHEX:
		if ((ypos+LHEX_HEIGHT)<=(VRES-LHEX_HEIGHT+1)){
    3c56:	20 91 bf 02 	lds	r18, 0x02BF
    3c5a:	82 2f       	mov	r24, r18
    3c5c:	90 e0       	ldi	r25, 0x00	; 0
    3c5e:	0a 96       	adiw	r24, 0x0a	; 10
    3c60:	88 34       	cpi	r24, 0x48	; 72
    3c62:	91 05       	cpc	r25, r1
    3c64:	24 f4       	brge	.+8      	; 0x3c6e <new_line+0x4c>
			ypos+=LHEX_HEIGHT;
    3c66:	26 5f       	subi	r18, 0xF6	; 246
    3c68:	20 93 bf 02 	sts	0x02BF, r18
    3c6c:	08 95       	ret
		}else{
			scroll_up(LHEX_HEIGHT);
    3c6e:	8a e0       	ldi	r24, 0x0A	; 10
    3c70:	0e 94 88 22 	call	0x4510	; 0x4510 <scroll_up>
    3c74:	08 95       	ret
		}
		break;
	case FONT_ASCII:
		if ((ypos+CHAR_HEIGHT)<=(VRES-CHAR_HEIGHT+1)){
    3c76:	20 91 bf 02 	lds	r18, 0x02BF
    3c7a:	82 2f       	mov	r24, r18
    3c7c:	90 e0       	ldi	r25, 0x00	; 0
    3c7e:	08 96       	adiw	r24, 0x08	; 8
    3c80:	8a 34       	cpi	r24, 0x4A	; 74
    3c82:	91 05       	cpc	r25, r1
    3c84:	24 f4       	brge	.+8      	; 0x3c8e <new_line+0x6c>
			ypos+=CHAR_HEIGHT;
    3c86:	28 5f       	subi	r18, 0xF8	; 248
    3c88:	20 93 bf 02 	sts	0x02BF, r18
    3c8c:	08 95       	ret
		}else{
			scroll_up(CHAR_HEIGHT);
    3c8e:	88 e0       	ldi	r24, 0x08	; 8
    3c90:	0e 94 88 22 	call	0x4510	; 0x4510 <scroll_up>
    3c94:	08 95       	ret

00003c96 <put_char>:
		break;	
	}//swtich

}

void put_char(uint8_t c){
    3c96:	0f 93       	push	r16
	switch(font){
    3c98:	90 91 04 01 	lds	r25, 0x0104
    3c9c:	91 30       	cpi	r25, 0x01	; 1
    3c9e:	31 f1       	breq	.+76     	; 0x3cec <put_char+0x56>
    3ca0:	20 f0       	brcs	.+8      	; 0x3caa <put_char+0x14>
    3ca2:	92 30       	cpi	r25, 0x02	; 2
    3ca4:	09 f4       	brne	.+2      	; 0x3ca8 <put_char+0x12>
    3ca6:	45 c0       	rjmp	.+138    	; 0x3d32 <put_char+0x9c>
    3ca8:	68 c0       	rjmp	.+208    	; 0x3d7a <put_char+0xe4>
	case FONT_SHEX:	
		if (c<16){
    3caa:	80 31       	cpi	r24, 0x10	; 16
    3cac:	08 f0       	brcs	.+2      	; 0x3cb0 <put_char+0x1a>
    3cae:	65 c0       	rjmp	.+202    	; 0x3d7a <put_char+0xe4>
			put_sprite(xpos,ypos,SHEX_HEIGHT,&font_hex_4x6[c*SHEX_HEIGHT],FLASH_MEM);
    3cb0:	90 e0       	ldi	r25, 0x00	; 0
    3cb2:	9c 01       	movw	r18, r24
    3cb4:	22 0f       	add	r18, r18
    3cb6:	33 1f       	adc	r19, r19
    3cb8:	82 0f       	add	r24, r18
    3cba:	93 1f       	adc	r25, r19
    3cbc:	9c 01       	movw	r18, r24
    3cbe:	22 0f       	add	r18, r18
    3cc0:	33 1f       	adc	r19, r19
    3cc2:	2b 5a       	subi	r18, 0xAB	; 171
    3cc4:	3f 4e       	sbci	r19, 0xEF	; 239
    3cc6:	00 e0       	ldi	r16, 0x00	; 0
    3cc8:	46 e0       	ldi	r20, 0x06	; 6
    3cca:	60 91 bf 02 	lds	r22, 0x02BF
    3cce:	80 91 c0 02 	lds	r24, 0x02C0
    3cd2:	0e 94 63 20 	call	0x40c6	; 0x40c6 <put_sprite>
			xpos+=SHEX_WIDTH;
    3cd6:	80 91 c0 02 	lds	r24, 0x02C0
    3cda:	8c 5f       	subi	r24, 0xFC	; 252
    3cdc:	80 93 c0 02 	sts	0x02C0, r24
			if (xpos>(HRES-SHEX_WIDTH+1)){
    3ce0:	8e 37       	cpi	r24, 0x7E	; 126
    3ce2:	08 f4       	brcc	.+2      	; 0x3ce6 <put_char+0x50>
    3ce4:	4a c0       	rjmp	.+148    	; 0x3d7a <put_char+0xe4>
				new_line();
    3ce6:	0e 94 11 1e 	call	0x3c22	; 0x3c22 <new_line>
    3cea:	47 c0       	rjmp	.+142    	; 0x3d7a <put_char+0xe4>
			}
		}
		break;
	case FONT_LHEX:
		if (c<16){
    3cec:	80 31       	cpi	r24, 0x10	; 16
    3cee:	08 f0       	brcs	.+2      	; 0x3cf2 <put_char+0x5c>
    3cf0:	44 c0       	rjmp	.+136    	; 0x3d7a <put_char+0xe4>
			put_sprite(xpos,ypos,LHEX_HEIGHT,&font_hex_8x10[c*LHEX_HEIGHT],FLASH_MEM);
    3cf2:	90 e0       	ldi	r25, 0x00	; 0
    3cf4:	9c 01       	movw	r18, r24
    3cf6:	22 0f       	add	r18, r18
    3cf8:	33 1f       	adc	r19, r19
    3cfa:	88 0f       	add	r24, r24
    3cfc:	99 1f       	adc	r25, r25
    3cfe:	88 0f       	add	r24, r24
    3d00:	99 1f       	adc	r25, r25
    3d02:	88 0f       	add	r24, r24
    3d04:	99 1f       	adc	r25, r25
    3d06:	28 0f       	add	r18, r24
    3d08:	39 1f       	adc	r19, r25
    3d0a:	2b 54       	subi	r18, 0x4B	; 75
    3d0c:	30 4f       	sbci	r19, 0xF0	; 240
    3d0e:	00 e0       	ldi	r16, 0x00	; 0
    3d10:	4a e0       	ldi	r20, 0x0A	; 10
    3d12:	60 91 bf 02 	lds	r22, 0x02BF
    3d16:	80 91 c0 02 	lds	r24, 0x02C0
    3d1a:	0e 94 63 20 	call	0x40c6	; 0x40c6 <put_sprite>
			xpos+=LHEX_WIDTH;
    3d1e:	80 91 c0 02 	lds	r24, 0x02C0
    3d22:	88 5f       	subi	r24, 0xF8	; 248
    3d24:	80 93 c0 02 	sts	0x02C0, r24
			if (xpos>(HRES-LHEX_WIDTH+1)){
    3d28:	8a 37       	cpi	r24, 0x7A	; 122
    3d2a:	38 f1       	brcs	.+78     	; 0x3d7a <put_char+0xe4>
				new_line();
    3d2c:	0e 94 11 1e 	call	0x3c22	; 0x3c22 <new_line>
    3d30:	24 c0       	rjmp	.+72     	; 0x3d7a <put_char+0xe4>
			}
		}
		break;
	case FONT_ASCII:
		if (c=='\n'){
    3d32:	8a 30       	cpi	r24, 0x0A	; 10
    3d34:	19 f4       	brne	.+6      	; 0x3d3c <put_char+0xa6>
			new_line();
    3d36:	0e 94 11 1e 	call	0x3c22	; 0x3c22 <new_line>
    3d3a:	1f c0       	rjmp	.+62     	; 0x3d7a <put_char+0xe4>
		}else if ((c>31) && (c<(FONT_SIZE+32))){
    3d3c:	90 ee       	ldi	r25, 0xE0	; 224
    3d3e:	98 0f       	add	r25, r24
    3d40:	95 36       	cpi	r25, 0x65	; 101
    3d42:	d8 f4       	brcc	.+54     	; 0x3d7a <put_char+0xe4>
			put_sprite(xpos,ypos,CHAR_HEIGHT,&font_6x8[(c-32)*CHAR_HEIGHT],FLASH_MEM);
    3d44:	28 2f       	mov	r18, r24
    3d46:	30 e0       	ldi	r19, 0x00	; 0
    3d48:	22 0f       	add	r18, r18
    3d4a:	33 1f       	adc	r19, r19
    3d4c:	22 0f       	add	r18, r18
    3d4e:	33 1f       	adc	r19, r19
    3d50:	22 0f       	add	r18, r18
    3d52:	33 1f       	adc	r19, r19
    3d54:	23 57       	subi	r18, 0x73	; 115
    3d56:	34 4f       	sbci	r19, 0xF4	; 244
    3d58:	00 e0       	ldi	r16, 0x00	; 0
    3d5a:	48 e0       	ldi	r20, 0x08	; 8
    3d5c:	60 91 bf 02 	lds	r22, 0x02BF
    3d60:	80 91 c0 02 	lds	r24, 0x02C0
    3d64:	0e 94 63 20 	call	0x40c6	; 0x40c6 <put_sprite>
			xpos+=CHAR_WIDTH;
    3d68:	80 91 c0 02 	lds	r24, 0x02C0
    3d6c:	8a 5f       	subi	r24, 0xFA	; 250
    3d6e:	80 93 c0 02 	sts	0x02C0, r24
			if (xpos>(HRES-CHAR_WIDTH+1)){
    3d72:	8c 37       	cpi	r24, 0x7C	; 124
    3d74:	10 f0       	brcs	.+4      	; 0x3d7a <put_char+0xe4>
				new_line();
    3d76:	0e 94 11 1e 	call	0x3c22	; 0x3c22 <new_line>
			}
		}
		break;		
	}
}
    3d7a:	0f 91       	pop	r16
    3d7c:	08 95       	ret

00003d7e <set_cursor>:

void set_cursor(uint8_t x, uint8_t y){
	xpos=x;
    3d7e:	80 93 c0 02 	sts	0x02C0, r24
	ypos=y;
    3d82:	60 93 bf 02 	sts	0x02BF, r22
    3d86:	08 95       	ret

00003d88 <print>:

uint16_t get_cursor(){
	return (xpos<<8)+ypos;
}

void print(const unsigned char* str){
    3d88:	cf 93       	push	r28
    3d8a:	df 93       	push	r29
    3d8c:	ec 01       	movw	r28, r24
	while (*str) put_char(*str++);
    3d8e:	88 81       	ld	r24, Y
    3d90:	88 23       	and	r24, r24
    3d92:	31 f0       	breq	.+12     	; 0x3da0 <print+0x18>
    3d94:	21 96       	adiw	r28, 0x01	; 1
    3d96:	0e 94 4b 1e 	call	0x3c96	; 0x3c96 <put_char>
    3d9a:	89 91       	ld	r24, Y+
    3d9c:	81 11       	cpse	r24, r1
    3d9e:	fb cf       	rjmp	.-10     	; 0x3d96 <print+0xe>
}
    3da0:	df 91       	pop	r29
    3da2:	cf 91       	pop	r28
    3da4:	08 95       	ret

00003da6 <prt_pstr>:

void prt_pstr(const char *str){
    3da6:	cf 93       	push	r28
    3da8:	df 93       	push	r29
	uint8_t c;
	while ((c=pgm_read_byte(str++))) put_char(c);	
    3daa:	ec 01       	movw	r28, r24
    3dac:	21 96       	adiw	r28, 0x01	; 1
    3dae:	fc 01       	movw	r30, r24
    3db0:	84 91       	lpm	r24, Z
    3db2:	88 23       	and	r24, r24
    3db4:	39 f0       	breq	.+14     	; 0x3dc4 <prt_pstr+0x1e>
    3db6:	0e 94 4b 1e 	call	0x3c96	; 0x3c96 <put_char>
    3dba:	fe 01       	movw	r30, r28
    3dbc:	84 91       	lpm	r24, Z
    3dbe:	21 96       	adiw	r28, 0x01	; 1
    3dc0:	81 11       	cpse	r24, r1
    3dc2:	f9 cf       	rjmp	.-14     	; 0x3db6 <prt_pstr+0x10>
}
    3dc4:	df 91       	pop	r29
    3dc6:	cf 91       	pop	r28
    3dc8:	08 95       	ret

00003dca <print_hex>:
	put_char(' ');
	i++;
	while (i<12) put_char(nstr[i++]);
}

void print_hex(uint16_t n,uint8_t width){
    3dca:	0f 93       	push	r16
    3dcc:	1f 93       	push	r17
    3dce:	cf 93       	push	r28
    3dd0:	df 93       	push	r29
    3dd2:	00 d0       	rcall	.+0      	; 0x3dd4 <print_hex+0xa>
    3dd4:	00 d0       	rcall	.+0      	; 0x3dd6 <print_hex+0xc>
    3dd6:	cd b7       	in	r28, 0x3d	; 61
    3dd8:	de b7       	in	r29, 0x3e	; 62
    3dda:	06 2f       	mov	r16, r22
	uint8_t hex[4];
	uint8_t i=3,h;
    3ddc:	13 e0       	ldi	r17, 0x03	; 3
	
	do{
		h=n&0xf;
    3dde:	28 2f       	mov	r18, r24
    3de0:	2f 70       	andi	r18, 0x0F	; 15
		if (h<10) hex[i]=h+'0'; else hex[i]=h+'A'-10;
    3de2:	2a 30       	cpi	r18, 0x0A	; 10
    3de4:	48 f4       	brcc	.+18     	; 0x3df8 <print_hex+0x2e>
    3de6:	e1 e0       	ldi	r30, 0x01	; 1
    3de8:	f0 e0       	ldi	r31, 0x00	; 0
    3dea:	ec 0f       	add	r30, r28
    3dec:	fd 1f       	adc	r31, r29
    3dee:	e1 0f       	add	r30, r17
    3df0:	f1 1d       	adc	r31, r1
    3df2:	20 5d       	subi	r18, 0xD0	; 208
    3df4:	20 83       	st	Z, r18
    3df6:	08 c0       	rjmp	.+16     	; 0x3e08 <print_hex+0x3e>
    3df8:	e1 e0       	ldi	r30, 0x01	; 1
    3dfa:	f0 e0       	ldi	r31, 0x00	; 0
    3dfc:	ec 0f       	add	r30, r28
    3dfe:	fd 1f       	adc	r31, r29
    3e00:	e1 0f       	add	r30, r17
    3e02:	f1 1d       	adc	r31, r1
    3e04:	29 5c       	subi	r18, 0xC9	; 201
    3e06:	20 83       	st	Z, r18
		n>>=4;
    3e08:	92 95       	swap	r25
    3e0a:	82 95       	swap	r24
    3e0c:	8f 70       	andi	r24, 0x0F	; 15
    3e0e:	89 27       	eor	r24, r25
    3e10:	9f 70       	andi	r25, 0x0F	; 15
    3e12:	89 27       	eor	r24, r25
		i--;
    3e14:	11 50       	subi	r17, 0x01	; 1
		width--;
    3e16:	01 50       	subi	r16, 0x01	; 1
	}while (n);
    3e18:	00 97       	sbiw	r24, 0x00	; 0
    3e1a:	09 f7       	brne	.-62     	; 0x3dde <print_hex+0x14>
	put_char(' ');
    3e1c:	80 e2       	ldi	r24, 0x20	; 32
    3e1e:	0e 94 4b 1e 	call	0x3c96	; 0x3c96 <put_char>
	while (width){hex[i--]='0'; width--;}
    3e22:	00 23       	and	r16, r16
    3e24:	81 f0       	breq	.+32     	; 0x3e46 <print_hex+0x7c>
    3e26:	81 2f       	mov	r24, r17
    3e28:	80 1b       	sub	r24, r16
    3e2a:	20 e3       	ldi	r18, 0x30	; 48
    3e2c:	9f ef       	ldi	r25, 0xFF	; 255
    3e2e:	91 0f       	add	r25, r17
    3e30:	e1 e0       	ldi	r30, 0x01	; 1
    3e32:	f0 e0       	ldi	r31, 0x00	; 0
    3e34:	ec 0f       	add	r30, r28
    3e36:	fd 1f       	adc	r31, r29
    3e38:	e1 0f       	add	r30, r17
    3e3a:	f1 1d       	adc	r31, r1
    3e3c:	20 83       	st	Z, r18
    3e3e:	98 17       	cp	r25, r24
    3e40:	19 f0       	breq	.+6      	; 0x3e48 <print_hex+0x7e>
    3e42:	19 2f       	mov	r17, r25
    3e44:	f3 cf       	rjmp	.-26     	; 0x3e2c <print_hex+0x62>
	
	do{
		h=n&0xf;
		if (h<10) hex[i]=h+'0'; else hex[i]=h+'A'-10;
		n>>=4;
		i--;
    3e46:	81 2f       	mov	r24, r17
		width--;
	}while (n);
	put_char(' ');
	while (width){hex[i--]='0'; width--;}
	i++;
    3e48:	8f 5f       	subi	r24, 0xFF	; 255
	while (i<4) put_char(hex[i++]);
    3e4a:	84 30       	cpi	r24, 0x04	; 4
    3e4c:	78 f4       	brcc	.+30     	; 0x3e6c <print_hex+0xa2>
    3e4e:	11 e0       	ldi	r17, 0x01	; 1
    3e50:	18 0f       	add	r17, r24
    3e52:	e1 e0       	ldi	r30, 0x01	; 1
    3e54:	f0 e0       	ldi	r31, 0x00	; 0
    3e56:	ec 0f       	add	r30, r28
    3e58:	fd 1f       	adc	r31, r29
    3e5a:	e8 0f       	add	r30, r24
    3e5c:	f1 1d       	adc	r31, r1
    3e5e:	80 81       	ld	r24, Z
    3e60:	0e 94 4b 1e 	call	0x3c96	; 0x3c96 <put_char>
    3e64:	14 30       	cpi	r17, 0x04	; 4
    3e66:	11 f0       	breq	.+4      	; 0x3e6c <print_hex+0xa2>
    3e68:	81 2f       	mov	r24, r17
    3e6a:	f1 cf       	rjmp	.-30     	; 0x3e4e <print_hex+0x84>
}
    3e6c:	0f 90       	pop	r0
    3e6e:	0f 90       	pop	r0
    3e70:	0f 90       	pop	r0
    3e72:	0f 90       	pop	r0
    3e74:	df 91       	pop	r29
    3e76:	cf 91       	pop	r28
    3e78:	1f 91       	pop	r17
    3e7a:	0f 91       	pop	r16
    3e7c:	08 95       	ret

00003e7e <text_scroller>:
		if (xpos-CHAR_WIDTH>=0) xpos-=CHAR_WIDTH;
		break;	
	}
}

void text_scroller(const uint8_t *text, uint8_t speed){
    3e7e:	df 92       	push	r13
    3e80:	ef 92       	push	r14
    3e82:	ff 92       	push	r15
    3e84:	0f 93       	push	r16
    3e86:	1f 93       	push	r17
    3e88:	cf 93       	push	r28
    3e8a:	df 93       	push	r29
    3e8c:	8c 01       	movw	r16, r24
    3e8e:	f6 2e       	mov	r15, r22
	uint8_t c,j;

	cls();
    3e90:	0e 94 51 22 	call	0x44a2	; 0x44a2 <cls>

uint8_t font=FONT_ASCII;
uint8_t xpos=0, ypos=0;
	
void select_font(uint8_t font_id){
	font=font_id;
    3e94:	82 e0       	ldi	r24, 0x02	; 2
    3e96:	80 93 04 01 	sts	0x0104, r24
void text_scroller(const uint8_t *text, uint8_t speed){
	uint8_t c,j;

	cls();
	select_font(FONT_ASCII);
	c=pgm_read_byte(text++);
    3e9a:	e8 01       	movw	r28, r16
    3e9c:	21 96       	adiw	r28, 0x01	; 1
    3e9e:	f8 01       	movw	r30, r16
    3ea0:	04 91       	lpm	r16, Z
	while (c){
    3ea2:	00 23       	and	r16, r16
    3ea4:	09 f4       	brne	.+2      	; 0x3ea8 <text_scroller+0x2a>
    3ea6:	4c c0       	rjmp	.+152    	; 0x3f40 <text_scroller+0xc2>
	}
}

void set_cursor(uint8_t x, uint8_t y){
	xpos=x;
	ypos=y;
    3ea8:	68 94       	set
    3eaa:	ee 24       	eor	r14, r14
    3eac:	e5 f8       	bld	r14, 5
			frame_delay=speed;
			while(frame_delay);
			scroll_up(1);
			if (joystick_break()) {goto break_out;}
		}
		c=pgm_read_byte(text++);
    3eae:	68 94       	set
    3eb0:	dd 24       	eor	r13, r13
    3eb2:	d3 f8       	bld	r13, 3
		break;		
	}
}

void set_cursor(uint8_t x, uint8_t y){
	xpos=x;
    3eb4:	10 92 c0 02 	sts	0x02C0, r1
	ypos=y;
    3eb8:	e0 92 bf 02 	sts	0x02BF, r14
	cls();
	select_font(FONT_ASCII);
	c=pgm_read_byte(text++);
	while (c){
		set_cursor(0,4*CHAR_HEIGHT);
		while (c && c!='\n'){
    3ebc:	00 23       	and	r16, r16
    3ebe:	09 f4       	brne	.+2      	; 0x3ec2 <text_scroller+0x44>
    3ec0:	3d c0       	rjmp	.+122    	; 0x3f3c <text_scroller+0xbe>
    3ec2:	0a 30       	cpi	r16, 0x0A	; 10
    3ec4:	09 f4       	brne	.+2      	; 0x3ec8 <text_scroller+0x4a>
    3ec6:	3a c0       	rjmp	.+116    	; 0x3f3c <text_scroller+0xbe>
			put_char(c);
    3ec8:	80 2f       	mov	r24, r16
    3eca:	0e 94 4b 1e 	call	0x3c96	; 0x3c96 <put_char>
			c=pgm_read_byte(text++);
    3ece:	21 96       	adiw	r28, 0x01	; 1
    3ed0:	fe 01       	movw	r30, r28
    3ed2:	31 97       	sbiw	r30, 0x01	; 1
    3ed4:	04 91       	lpm	r16, Z
			if (joystick_break()) {goto break_out;}
    3ed6:	0e 94 ff 19 	call	0x33fe	; 0x33fe <joystick_break>
    3eda:	81 11       	cpse	r24, r1
    3edc:	2c c0       	rjmp	.+88     	; 0x3f36 <text_scroller+0xb8>
	cls();
	select_font(FONT_ASCII);
	c=pgm_read_byte(text++);
	while (c){
		set_cursor(0,4*CHAR_HEIGHT);
		while (c && c!='\n'){
    3ede:	00 23       	and	r16, r16
    3ee0:	69 f1       	breq	.+90     	; 0x3f3c <text_scroller+0xbe>
    3ee2:	0a 30       	cpi	r16, 0x0A	; 10
    3ee4:	89 f7       	brne	.-30     	; 0x3ec8 <text_scroller+0x4a>
    3ee6:	2a c0       	rjmp	.+84     	; 0x3f3c <text_scroller+0xbe>
			put_char(c);
			c=pgm_read_byte(text++);
			if (joystick_break()) {goto break_out;}
		}
		for (j=0;j<CHAR_HEIGHT;j++){
			frame_delay=speed;
    3ee8:	f0 92 c5 02 	sts	0x02C5, r15
			while(frame_delay);
    3eec:	80 91 c5 02 	lds	r24, 0x02C5
    3ef0:	81 11       	cpse	r24, r1
    3ef2:	fc cf       	rjmp	.-8      	; 0x3eec <text_scroller+0x6e>
			scroll_up(1);
    3ef4:	81 e0       	ldi	r24, 0x01	; 1
    3ef6:	0e 94 88 22 	call	0x4510	; 0x4510 <scroll_up>
			if (joystick_break()) {goto break_out;}
    3efa:	0e 94 ff 19 	call	0x33fe	; 0x33fe <joystick_break>
    3efe:	81 11       	cpse	r24, r1
    3f00:	1a c0       	rjmp	.+52     	; 0x3f36 <text_scroller+0xb8>
    3f02:	11 50       	subi	r17, 0x01	; 1
		while (c && c!='\n'){
			put_char(c);
			c=pgm_read_byte(text++);
			if (joystick_break()) {goto break_out;}
		}
		for (j=0;j<CHAR_HEIGHT;j++){
    3f04:	89 f7       	brne	.-30     	; 0x3ee8 <text_scroller+0x6a>
			frame_delay=speed;
			while(frame_delay);
			scroll_up(1);
			if (joystick_break()) {goto break_out;}
		}
		c=pgm_read_byte(text++);
    3f06:	9e 01       	movw	r18, r28
    3f08:	2f 5f       	subi	r18, 0xFF	; 255
    3f0a:	3f 4f       	sbci	r19, 0xFF	; 255
    3f0c:	fe 01       	movw	r30, r28
    3f0e:	04 91       	lpm	r16, Z
	uint8_t c,j;

	cls();
	select_font(FONT_ASCII);
	c=pgm_read_byte(text++);
	while (c){
    3f10:	00 23       	and	r16, r16
    3f12:	b1 f0       	breq	.+44     	; 0x3f40 <text_scroller+0xc2>
			frame_delay=speed;
			while(frame_delay);
			scroll_up(1);
			if (joystick_break()) {goto break_out;}
		}
		c=pgm_read_byte(text++);
    3f14:	e9 01       	movw	r28, r18
    3f16:	ce cf       	rjmp	.-100    	; 0x3eb4 <text_scroller+0x36>
	}//while
	for (c=0;c<4*CHAR_HEIGHT;c++){
		frame_delay=speed;
    3f18:	f0 92 c5 02 	sts	0x02C5, r15
		while(frame_delay);
    3f1c:	80 91 c5 02 	lds	r24, 0x02C5
    3f20:	81 11       	cpse	r24, r1
    3f22:	fc cf       	rjmp	.-8      	; 0x3f1c <text_scroller+0x9e>
		scroll_up(1);
    3f24:	81 e0       	ldi	r24, 0x01	; 1
    3f26:	0e 94 88 22 	call	0x4510	; 0x4510 <scroll_up>
		if (joystick_break()) { break;}
    3f2a:	0e 94 ff 19 	call	0x33fe	; 0x33fe <joystick_break>
    3f2e:	81 11       	cpse	r24, r1
    3f30:	02 c0       	rjmp	.+4      	; 0x3f36 <text_scroller+0xb8>
    3f32:	c1 50       	subi	r28, 0x01	; 1
			scroll_up(1);
			if (joystick_break()) {goto break_out;}
		}
		c=pgm_read_byte(text++);
	}//while
	for (c=0;c<4*CHAR_HEIGHT;c++){
    3f34:	89 f7       	brne	.-30     	; 0x3f18 <text_scroller+0x9a>
		while(frame_delay);
		scroll_up(1);
		if (joystick_break()) { break;}
	}//for
break_out:	
	cls();
    3f36:	0e 94 51 22 	call	0x44a2	; 0x44a2 <cls>
    3f3a:	04 c0       	rjmp	.+8      	; 0x3f44 <text_scroller+0xc6>
			frame_delay=speed;
			while(frame_delay);
			scroll_up(1);
			if (joystick_break()) {goto break_out;}
		}
		c=pgm_read_byte(text++);
    3f3c:	1d 2d       	mov	r17, r13
    3f3e:	d4 cf       	rjmp	.-88     	; 0x3ee8 <text_scroller+0x6a>
    3f40:	c0 e2       	ldi	r28, 0x20	; 32
    3f42:	ea cf       	rjmp	.-44     	; 0x3f18 <text_scroller+0x9a>
		scroll_up(1);
		if (joystick_break()) { break;}
	}//for
break_out:	
	cls();
}
    3f44:	df 91       	pop	r29
    3f46:	cf 91       	pop	r28
    3f48:	1f 91       	pop	r17
    3f4a:	0f 91       	pop	r16
    3f4c:	ff 90       	pop	r15
    3f4e:	ef 90       	pop	r14
    3f50:	df 90       	pop	r13
    3f52:	08 95       	ret

00003f54 <tone_init>:




void tone_init(){
	TONE_DDR |= TONE_OUT;
    3f54:	56 9a       	sbi	0x0a, 6	; 10
	TONE_TCCRB = 3; // CLKt0=CLKio/64
    3f56:	83 e0       	ldi	r24, 0x03	; 3
    3f58:	85 bd       	out	0x25, r24	; 37
	TONE_TCCRA = (1<<6)| 2; // OC0A toggle, mode 2 CTC
    3f5a:	82 e4       	ldi	r24, 0x42	; 66
    3f5c:	84 bd       	out	0x24, r24	; 36
    3f5e:	08 95       	ret

00003f60 <tone>:
}


// fréquence en hertz
// durée en  millisecondes
void tone(uint16_t freq, uint8_t length){
    3f60:	cf 93       	push	r28
    3f62:	c6 2f       	mov	r28, r22
	TONE_OCRA = (F_CPU/128)/freq-1;
    3f64:	9c 01       	movw	r18, r24
    3f66:	40 e0       	ldi	r20, 0x00	; 0
    3f68:	50 e0       	ldi	r21, 0x00	; 0
    3f6a:	68 e4       	ldi	r22, 0x48	; 72
    3f6c:	78 ee       	ldi	r23, 0xE8	; 232
    3f6e:	81 e0       	ldi	r24, 0x01	; 1
    3f70:	90 e0       	ldi	r25, 0x00	; 0
    3f72:	0e 94 0a 24 	call	0x4814	; 0x4814 <__divmodsi4>
    3f76:	21 50       	subi	r18, 0x01	; 1
    3f78:	27 bd       	out	0x27, r18	; 39
	tone_on();
    3f7a:	56 9a       	sbi	0x0a, 6	; 10
	tone_length = length;
    3f7c:	c0 93 c4 02 	sts	0x02C4, r28
}
    3f80:	cf 91       	pop	r28
    3f82:	08 95       	ret

00003f84 <key_tone>:

PROGMEM const uint16_t SCALE[16]={523,554,587,622,659,698,740,784,831,880,932,988,1047,1109,1175,1245};
	
inline void key_tone(uint8_t key, uint8_t length,bool wait_end){
    3f84:	cf 93       	push	r28
    3f86:	c4 2f       	mov	r28, r20
	tone(pgm_read_word(&SCALE[key&15]),length);	
    3f88:	8f 70       	andi	r24, 0x0F	; 15
    3f8a:	e8 2f       	mov	r30, r24
    3f8c:	f0 e0       	ldi	r31, 0x00	; 0
    3f8e:	ee 0f       	add	r30, r30
    3f90:	ff 1f       	adc	r31, r31
    3f92:	eb 54       	subi	r30, 0x4B	; 75
    3f94:	ff 4e       	sbci	r31, 0xEF	; 239
    3f96:	85 91       	lpm	r24, Z+
    3f98:	94 91       	lpm	r25, Z
    3f9a:	0e 94 b0 1f 	call	0x3f60	; 0x3f60 <tone>
	if (wait_end) wait_tone_end();
    3f9e:	cc 23       	and	r28, r28
    3fa0:	11 f0       	breq	.+4      	; 0x3fa6 <key_tone+0x22>
    3fa2:	56 99       	sbic	0x0a, 6	; 10
    3fa4:	fe cf       	rjmp	.-4      	; 0x3fa2 <key_tone+0x1e>
}
    3fa6:	cf 91       	pop	r28
    3fa8:	08 95       	ret

00003faa <noise>:

void noise(uint8_t length){
	
	TONE_DDR |= TONE_OUT;
    3faa:	56 9a       	sbi	0x0a, 6	; 10
	tone_length=length;
    3fac:	80 93 c4 02 	sts	0x02C4, r24
	while (tone_length){
    3fb0:	07 c0       	rjmp	.+14     	; 0x3fc0 <noise+0x16>
		if (rand()&1)
    3fb2:	0e 94 91 24 	call	0x4922	; 0x4922 <rand>
    3fb6:	80 ff       	sbrs	r24, 0
    3fb8:	02 c0       	rjmp	.+4      	; 0x3fbe <noise+0x14>
		   TONE_PORT|=TONE_OUT;
    3fba:	5e 9a       	sbi	0x0b, 6	; 11
    3fbc:	01 c0       	rjmp	.+2      	; 0x3fc0 <noise+0x16>
		else
		   TONE_PORT&=~TONE_OUT;   
    3fbe:	5e 98       	cbi	0x0b, 6	; 11

void noise(uint8_t length){
	
	TONE_DDR |= TONE_OUT;
	tone_length=length;
	while (tone_length){
    3fc0:	80 91 c4 02 	lds	r24, 0x02C4
    3fc4:	81 11       	cpse	r24, r1
    3fc6:	f5 cf       	rjmp	.-22     	; 0x3fb2 <noise+0x8>
		if (rand()&1)
		   TONE_PORT|=TONE_OUT;
		else
		   TONE_PORT&=~TONE_OUT;   
	}
	TONE_DDR &= ~TONE_OUT;
    3fc8:	56 98       	cbi	0x0a, 6	; 10
    3fca:	08 95       	ret

00003fcc <tvout_init>:
#include "tone.h"
#include "sram.h"

void tvout_init(){
	// met broche sync en mode sortie
	NTSC_SYNC_DDR |= NTSC_SYNC_OUT;
    3fcc:	22 9a       	sbi	0x04, 2	; 4
	//configuration USART0 pour mode SPI
	NSTC_VIDEO_CONFIG();
    3fce:	82 ec       	ldi	r24, 0xC2	; 194
    3fd0:	80 93 c2 00 	sts	0x00C2, r24
	//configuration PWM 16 bits pour sync video
	NTSC_SYNC_OCRA=HTIME;
    3fd4:	87 ef       	ldi	r24, 0xF7	; 247
    3fd6:	93 e0       	ldi	r25, 0x03	; 3
    3fd8:	90 93 89 00 	sts	0x0089, r25
    3fdc:	80 93 88 00 	sts	0x0088, r24
	NTSC_SYNC_OCRB=VPULSE;
    3fe0:	83 e6       	ldi	r24, 0x63	; 99
    3fe2:	93 e0       	ldi	r25, 0x03	; 3
    3fe4:	90 93 8b 00 	sts	0x008B, r25
    3fe8:	80 93 8a 00 	sts	0x008A, r24
	//configuration mode PWM
	NTSC_SYNC_CONFIG();
    3fec:	83 e3       	ldi	r24, 0x33	; 51
    3fee:	80 93 80 00 	sts	0x0080, r24
    3ff2:	89 e1       	ldi	r24, 0x19	; 25
    3ff4:	80 93 81 00 	sts	0x0081, r24
	//activation interruption
	NTSC_SYNC_INT_ENABLE();
    3ff8:	ef e6       	ldi	r30, 0x6F	; 111
    3ffa:	f0 e0       	ldi	r31, 0x00	; 0
    3ffc:	80 81       	ld	r24, Z
    3ffe:	84 60       	ori	r24, 0x04	; 4
    4000:	80 83       	st	Z, r24
    4002:	08 95       	ret

00004004 <plot>:

// dessine un point à l'écran
void plot(int8_t x, int8_t y, optype op){
	int8_t xbyte,xbit;
	
	if ((x<0)||(x>=HRES)||(y<0)||(y>=VRES)) return;
    4004:	88 23       	and	r24, r24
    4006:	0c f4       	brge	.+2      	; 0x400a <plot+0x6>
    4008:	5d c0       	rjmp	.+186    	; 0x40c4 <plot+0xc0>
    400a:	60 35       	cpi	r22, 0x50	; 80
    400c:	08 f0       	brcs	.+2      	; 0x4010 <plot+0xc>
    400e:	5a c0       	rjmp	.+180    	; 0x40c4 <plot+0xc0>
	xbyte= x/8;
    4010:	e8 2f       	mov	r30, r24
    4012:	88 23       	and	r24, r24
    4014:	14 f4       	brge	.+4      	; 0x401a <plot+0x16>
    4016:	e7 e0       	ldi	r30, 0x07	; 7
    4018:	e8 0f       	add	r30, r24
    401a:	e5 95       	asr	r30
    401c:	e5 95       	asr	r30
    401e:	e5 95       	asr	r30
	xbit = 7-x%8;
    4020:	87 78       	andi	r24, 0x87	; 135
    4022:	1c f4       	brge	.+6      	; 0x402a <plot+0x26>
    4024:	81 50       	subi	r24, 0x01	; 1
    4026:	88 6f       	ori	r24, 0xF8	; 248
    4028:	8f 5f       	subi	r24, 0xFF	; 255
    402a:	97 e0       	ldi	r25, 0x07	; 7
    402c:	98 1b       	sub	r25, r24
	switch (op){
    402e:	41 30       	cpi	r20, 0x01	; 1
    4030:	d9 f0       	breq	.+54     	; 0x4068 <plot+0x64>
    4032:	18 f0       	brcs	.+6      	; 0x403a <plot+0x36>
    4034:	42 30       	cpi	r20, 0x02	; 2
    4036:	81 f1       	breq	.+96     	; 0x4098 <plot+0x94>
    4038:	08 95       	ret
		case WHITE:
		video_buffer[y*HBYTES+xbyte] |= (1<<xbit);
    403a:	ff 27       	eor	r31, r31
    403c:	e7 fd       	sbrc	r30, 7
    403e:	f0 95       	com	r31
    4040:	40 e1       	ldi	r20, 0x10	; 16
    4042:	64 02       	muls	r22, r20
    4044:	e0 0d       	add	r30, r0
    4046:	f1 1d       	adc	r31, r1
    4048:	11 24       	eor	r1, r1
    404a:	ea 53       	subi	r30, 0x3A	; 58
    404c:	fd 4f       	sbci	r31, 0xFD	; 253
    404e:	21 e0       	ldi	r18, 0x01	; 1
    4050:	30 e0       	ldi	r19, 0x00	; 0
    4052:	a9 01       	movw	r20, r18
    4054:	02 c0       	rjmp	.+4      	; 0x405a <plot+0x56>
    4056:	44 0f       	add	r20, r20
    4058:	55 1f       	adc	r21, r21
    405a:	9a 95       	dec	r25
    405c:	e2 f7       	brpl	.-8      	; 0x4056 <plot+0x52>
    405e:	ca 01       	movw	r24, r20
    4060:	90 81       	ld	r25, Z
    4062:	89 2b       	or	r24, r25
    4064:	80 83       	st	Z, r24
		break;
    4066:	08 95       	ret
		case BLACK:
		video_buffer[y*HBYTES+xbyte] &= ~(1<<xbit);
    4068:	ff 27       	eor	r31, r31
    406a:	e7 fd       	sbrc	r30, 7
    406c:	f0 95       	com	r31
    406e:	50 e1       	ldi	r21, 0x10	; 16
    4070:	65 02       	muls	r22, r21
    4072:	e0 0d       	add	r30, r0
    4074:	f1 1d       	adc	r31, r1
    4076:	11 24       	eor	r1, r1
    4078:	ea 53       	subi	r30, 0x3A	; 58
    407a:	fd 4f       	sbci	r31, 0xFD	; 253
    407c:	21 e0       	ldi	r18, 0x01	; 1
    407e:	30 e0       	ldi	r19, 0x00	; 0
    4080:	a9 01       	movw	r20, r18
    4082:	02 c0       	rjmp	.+4      	; 0x4088 <plot+0x84>
    4084:	44 0f       	add	r20, r20
    4086:	55 1f       	adc	r21, r21
    4088:	9a 95       	dec	r25
    408a:	e2 f7       	brpl	.-8      	; 0x4084 <plot+0x80>
    408c:	ca 01       	movw	r24, r20
    408e:	80 95       	com	r24
    4090:	90 81       	ld	r25, Z
    4092:	89 23       	and	r24, r25
    4094:	80 83       	st	Z, r24
		break;
    4096:	08 95       	ret
		case INVERT:
		video_buffer[y*HBYTES+xbyte] ^= (1<<xbit);
    4098:	ff 27       	eor	r31, r31
    409a:	e7 fd       	sbrc	r30, 7
    409c:	f0 95       	com	r31
    409e:	50 e1       	ldi	r21, 0x10	; 16
    40a0:	65 02       	muls	r22, r21
    40a2:	e0 0d       	add	r30, r0
    40a4:	f1 1d       	adc	r31, r1
    40a6:	11 24       	eor	r1, r1
    40a8:	ea 53       	subi	r30, 0x3A	; 58
    40aa:	fd 4f       	sbci	r31, 0xFD	; 253
    40ac:	21 e0       	ldi	r18, 0x01	; 1
    40ae:	30 e0       	ldi	r19, 0x00	; 0
    40b0:	a9 01       	movw	r20, r18
    40b2:	02 c0       	rjmp	.+4      	; 0x40b8 <plot+0xb4>
    40b4:	44 0f       	add	r20, r20
    40b6:	55 1f       	adc	r21, r21
    40b8:	9a 95       	dec	r25
    40ba:	e2 f7       	brpl	.-8      	; 0x40b4 <plot+0xb0>
    40bc:	ca 01       	movw	r24, r20
    40be:	90 81       	ld	r25, Z
    40c0:	89 27       	eor	r24, r25
    40c2:	80 83       	st	Z, r24
    40c4:	08 95       	ret

000040c6 <put_sprite>:


// dessine un sprite 8 pixels par n pixels
// s'il y a collision retourne une valeur 1
// autrement 0.
int8_t put_sprite(int8_t x, int8_t y, uint8_t n, const uint8_t *sprite, int8_t memory){
    40c6:	9f 92       	push	r9
    40c8:	af 92       	push	r10
    40ca:	bf 92       	push	r11
    40cc:	cf 92       	push	r12
    40ce:	df 92       	push	r13
    40d0:	ef 92       	push	r14
    40d2:	ff 92       	push	r15
    40d4:	0f 93       	push	r16
    40d6:	1f 93       	push	r17
    40d8:	cf 93       	push	r28
    40da:	df 93       	push	r29
	int8_t xbyte, shl, shr, row, collision;
	uint8_t sprite_row;

	
	// contrôle des limites
	if ((x<-7)||(x>=HRES)||(y<-14)||y>=VRES){return 0;} 
    40dc:	89 3f       	cpi	r24, 0xF9	; 249
    40de:	0c f4       	brge	.+2      	; 0x40e2 <put_sprite+0x1c>
    40e0:	a7 c0       	rjmp	.+334    	; 0x4230 <put_sprite+0x16a>
    40e2:	9e e0       	ldi	r25, 0x0E	; 14
    40e4:	96 0f       	add	r25, r22
    40e6:	9e 35       	cpi	r25, 0x5E	; 94
    40e8:	08 f0       	brcs	.+2      	; 0x40ec <put_sprite+0x26>
    40ea:	a4 c0       	rjmp	.+328    	; 0x4234 <put_sprite+0x16e>
	collision=0;
	if (x<0){
    40ec:	88 23       	and	r24, r24
    40ee:	c4 f5       	brge	.+112    	; 0x4160 <put_sprite+0x9a>
		shl=-x;
    40f0:	81 95       	neg	r24
		for (row=0;row<n;row++){
    40f2:	50 e0       	ldi	r21, 0x00	; 0
    40f4:	14 16       	cp	r1, r20
    40f6:	15 06       	cpc	r1, r21
    40f8:	0c f0       	brlt	.+2      	; 0x40fc <put_sprite+0x36>
    40fa:	9e c0       	rjmp	.+316    	; 0x4238 <put_sprite+0x172>
	uint8_t sprite_row;

	
	// contrôle des limites
	if ((x<-7)||(x>=HRES)||(y<-14)||y>=VRES){return 0;} 
	collision=0;
    40fc:	70 e0       	ldi	r23, 0x00	; 0
	if (x<0){
		shl=-x;
		for (row=0;row<n;row++){
    40fe:	90 e0       	ldi	r25, 0x00	; 0
    4100:	a6 2f       	mov	r26, r22
			if (y<0 || y>=VRES){y++;continue;}
    4102:	60 35       	cpi	r22, 0x50	; 80
    4104:	18 f5       	brcc	.+70     	; 0x414c <put_sprite+0x86>
			if (memory==RAM_MEM){
    4106:	01 30       	cpi	r16, 0x01	; 1
    4108:	39 f4       	brne	.+14     	; 0x4118 <put_sprite+0x52>
				sprite_row=sprite[row];
    410a:	f9 01       	movw	r30, r18
    410c:	e9 0f       	add	r30, r25
    410e:	f1 1d       	adc	r31, r1
    4110:	97 fd       	sbrc	r25, 7
    4112:	fa 95       	dec	r31
    4114:	c0 81       	ld	r28, Z
    4116:	06 c0       	rjmp	.+12     	; 0x4124 <put_sprite+0x5e>
			}else{
				sprite_row= pgm_read_byte(sprite+row);
    4118:	f9 01       	movw	r30, r18
    411a:	e9 0f       	add	r30, r25
    411c:	f1 1d       	adc	r31, r1
    411e:	97 fd       	sbrc	r25, 7
    4120:	fa 95       	dec	r31
    4122:	c4 91       	lpm	r28, Z
			}
			collision |= video_buffer[y*HBYTES] & (sprite_row<<shl);
    4124:	e0 e1       	ldi	r30, 0x10	; 16
    4126:	ae 02       	muls	r26, r30
    4128:	d0 01       	movw	r26, r0
    412a:	11 24       	eor	r1, r1
    412c:	aa 53       	subi	r26, 0x3A	; 58
    412e:	bd 4f       	sbci	r27, 0xFD	; 253
    4130:	1c 91       	ld	r17, X
    4132:	d0 e0       	ldi	r29, 0x00	; 0
    4134:	fe 01       	movw	r30, r28
    4136:	08 2e       	mov	r0, r24
    4138:	02 c0       	rjmp	.+4      	; 0x413e <put_sprite+0x78>
    413a:	ee 0f       	add	r30, r30
    413c:	ff 1f       	adc	r31, r31
    413e:	0a 94       	dec	r0
    4140:	e2 f7       	brpl	.-8      	; 0x413a <put_sprite+0x74>
    4142:	f1 2f       	mov	r31, r17
    4144:	fe 23       	and	r31, r30
    4146:	7f 2b       	or	r23, r31
			video_buffer[y*HBYTES] ^= sprite_row<<shl;
    4148:	e1 27       	eor	r30, r17
    414a:	ec 93       	st	X, r30
	// contrôle des limites
	if ((x<-7)||(x>=HRES)||(y<-14)||y>=VRES){return 0;} 
	collision=0;
	if (x<0){
		shl=-x;
		for (row=0;row<n;row++){
    414c:	9f 5f       	subi	r25, 0xFF	; 255
    414e:	6f 5f       	subi	r22, 0xFF	; 255
    4150:	e9 2f       	mov	r30, r25
    4152:	ff 27       	eor	r31, r31
    4154:	e7 fd       	sbrc	r30, 7
    4156:	f0 95       	com	r31
    4158:	e4 17       	cp	r30, r20
    415a:	f5 07       	cpc	r31, r21
    415c:	8c f2       	brlt	.-94     	; 0x4100 <put_sprite+0x3a>
    415e:	63 c0       	rjmp	.+198    	; 0x4226 <put_sprite+0x160>
			collision |= video_buffer[y*HBYTES] & (sprite_row<<shl);
			video_buffer[y*HBYTES] ^= sprite_row<<shl;
			y++;
		}//for
	}else{
		shr= x&7;
    4160:	f8 2f       	mov	r31, r24
    4162:	f7 70       	andi	r31, 0x07	; 7
    4164:	af 2e       	mov	r10, r31
		shl=(8-shr)&7;
    4166:	9f 2f       	mov	r25, r31
    4168:	91 95       	neg	r25
    416a:	97 70       	andi	r25, 0x07	; 7
    416c:	b9 2e       	mov	r11, r25
		xbyte=x>>3;
    416e:	85 95       	asr	r24
    4170:	85 95       	asr	r24
    4172:	85 95       	asr	r24
		for (row=0;row<n;row++){
    4174:	50 e0       	ldi	r21, 0x00	; 0
    4176:	14 16       	cp	r1, r20
    4178:	15 06       	cpc	r1, r21
    417a:	0c f0       	brlt	.+2      	; 0x417e <put_sprite+0xb8>
    417c:	5f c0       	rjmp	.+190    	; 0x423c <put_sprite+0x176>
	uint8_t sprite_row;

	
	// contrôle des limites
	if ((x<-7)||(x>=HRES)||(y<-14)||y>=VRES){return 0;} 
	collision=0;
    417e:	70 e0       	ldi	r23, 0x00	; 0
		}//for
	}else{
		shr= x&7;
		shl=(8-shr)&7;
		xbyte=x>>3;
		for (row=0;row<n;row++){
    4180:	10 e0       	ldi	r17, 0x00	; 0
			if (memory==RAM_MEM){
				sprite_row=sprite[row];
				}else{
				sprite_row= pgm_read_byte(sprite+row);
			}
			collision |= video_buffer[y*HBYTES+xbyte] & (sprite_row>>shr);
    4182:	e8 2e       	mov	r14, r24
    4184:	ff 24       	eor	r15, r15
    4186:	e7 fc       	sbrc	r14, 7
    4188:	f0 94       	com	r15
			video_buffer[y*HBYTES+xbyte] ^= sprite_row>>shr;
			if (shl && (xbyte+1<HBYTES)){
    418a:	67 01       	movw	r12, r14
    418c:	8f ef       	ldi	r24, 0xFF	; 255
    418e:	c8 1a       	sub	r12, r24
    4190:	d8 0a       	sbc	r13, r24
    4192:	86 2f       	mov	r24, r22
	}else{
		shr= x&7;
		shl=(8-shr)&7;
		xbyte=x>>3;
		for (row=0;row<n;row++){
			if (y<0 || y>=VRES){y++;continue;}
    4194:	60 35       	cpi	r22, 0x50	; 80
    4196:	08 f0       	brcs	.+2      	; 0x419a <put_sprite+0xd4>
    4198:	3c c0       	rjmp	.+120    	; 0x4212 <put_sprite+0x14c>
			if (memory==RAM_MEM){
    419a:	01 30       	cpi	r16, 0x01	; 1
    419c:	39 f4       	brne	.+14     	; 0x41ac <put_sprite+0xe6>
				sprite_row=sprite[row];
    419e:	f9 01       	movw	r30, r18
    41a0:	e1 0f       	add	r30, r17
    41a2:	f1 1d       	adc	r31, r1
    41a4:	17 fd       	sbrc	r17, 7
    41a6:	fa 95       	dec	r31
    41a8:	c0 81       	ld	r28, Z
    41aa:	06 c0       	rjmp	.+12     	; 0x41b8 <put_sprite+0xf2>
				}else{
				sprite_row= pgm_read_byte(sprite+row);
    41ac:	f9 01       	movw	r30, r18
    41ae:	e1 0f       	add	r30, r17
    41b0:	f1 1d       	adc	r31, r1
    41b2:	17 fd       	sbrc	r17, 7
    41b4:	fa 95       	dec	r31
    41b6:	c4 91       	lpm	r28, Z
			}
			collision |= video_buffer[y*HBYTES+xbyte] & (sprite_row>>shr);
    41b8:	f7 01       	movw	r30, r14
    41ba:	a0 e1       	ldi	r26, 0x10	; 16
    41bc:	8a 02       	muls	r24, r26
    41be:	e0 0d       	add	r30, r0
    41c0:	f1 1d       	adc	r31, r1
    41c2:	11 24       	eor	r1, r1
    41c4:	cf 01       	movw	r24, r30
    41c6:	df 01       	movw	r26, r30
    41c8:	aa 53       	subi	r26, 0x3A	; 58
    41ca:	bd 4f       	sbci	r27, 0xFD	; 253
    41cc:	9c 90       	ld	r9, X
    41ce:	d0 e0       	ldi	r29, 0x00	; 0
    41d0:	fe 01       	movw	r30, r28
    41d2:	0a 2c       	mov	r0, r10
    41d4:	02 c0       	rjmp	.+4      	; 0x41da <put_sprite+0x114>
    41d6:	f5 95       	asr	r31
    41d8:	e7 95       	ror	r30
    41da:	0a 94       	dec	r0
    41dc:	e2 f7       	brpl	.-8      	; 0x41d6 <put_sprite+0x110>
    41de:	f9 2d       	mov	r31, r9
    41e0:	fe 23       	and	r31, r30
    41e2:	7f 2b       	or	r23, r31
			video_buffer[y*HBYTES+xbyte] ^= sprite_row>>shr;
    41e4:	e9 25       	eor	r30, r9
    41e6:	ec 93       	st	X, r30
			if (shl && (xbyte+1<HBYTES)){
    41e8:	bb 20       	and	r11, r11
    41ea:	99 f0       	breq	.+38     	; 0x4212 <put_sprite+0x14c>
    41ec:	e0 e1       	ldi	r30, 0x10	; 16
    41ee:	ce 16       	cp	r12, r30
    41f0:	d1 04       	cpc	r13, r1
    41f2:	7c f4       	brge	.+30     	; 0x4212 <put_sprite+0x14c>
				collision |= video_buffer[y*HBYTES+xbyte+1] & (sprite_row<<shl);
    41f4:	fc 01       	movw	r30, r24
    41f6:	e9 53       	subi	r30, 0x39	; 57
    41f8:	fd 4f       	sbci	r31, 0xFD	; 253
    41fa:	80 81       	ld	r24, Z
    41fc:	0b 2c       	mov	r0, r11
    41fe:	02 c0       	rjmp	.+4      	; 0x4204 <put_sprite+0x13e>
    4200:	cc 0f       	add	r28, r28
    4202:	dd 1f       	adc	r29, r29
    4204:	0a 94       	dec	r0
    4206:	e2 f7       	brpl	.-8      	; 0x4200 <put_sprite+0x13a>
    4208:	9c 2f       	mov	r25, r28
    420a:	98 23       	and	r25, r24
    420c:	79 2b       	or	r23, r25
				video_buffer[y*HBYTES+xbyte+1] ^= sprite_row<<shl;
    420e:	c8 27       	eor	r28, r24
    4210:	c0 83       	st	Z, r28
		}//for
	}else{
		shr= x&7;
		shl=(8-shr)&7;
		xbyte=x>>3;
		for (row=0;row<n;row++){
    4212:	1f 5f       	subi	r17, 0xFF	; 255
    4214:	6f 5f       	subi	r22, 0xFF	; 255
    4216:	e1 2f       	mov	r30, r17
    4218:	ff 27       	eor	r31, r31
    421a:	e7 fd       	sbrc	r30, 7
    421c:	f0 95       	com	r31
    421e:	e4 17       	cp	r30, r20
    4220:	f5 07       	cpc	r31, r21
    4222:	0c f4       	brge	.+2      	; 0x4226 <put_sprite+0x160>
    4224:	b6 cf       	rjmp	.-148    	; 0x4192 <put_sprite+0xcc>
				video_buffer[y*HBYTES+xbyte+1] ^= sprite_row<<shl;
			}
			y++;
		}
	}
	if (collision) collision=1;
    4226:	81 e0       	ldi	r24, 0x01	; 1
    4228:	71 11       	cpse	r23, r1
    422a:	09 c0       	rjmp	.+18     	; 0x423e <put_sprite+0x178>
    422c:	80 e0       	ldi	r24, 0x00	; 0
    422e:	07 c0       	rjmp	.+14     	; 0x423e <put_sprite+0x178>
	int8_t xbyte, shl, shr, row, collision;
	uint8_t sprite_row;

	
	// contrôle des limites
	if ((x<-7)||(x>=HRES)||(y<-14)||y>=VRES){return 0;} 
    4230:	80 e0       	ldi	r24, 0x00	; 0
    4232:	05 c0       	rjmp	.+10     	; 0x423e <put_sprite+0x178>
    4234:	80 e0       	ldi	r24, 0x00	; 0
    4236:	03 c0       	rjmp	.+6      	; 0x423e <put_sprite+0x178>
	collision=0;
	if (x<0){
		shl=-x;
		for (row=0;row<n;row++){
    4238:	80 e0       	ldi	r24, 0x00	; 0
    423a:	01 c0       	rjmp	.+2      	; 0x423e <put_sprite+0x178>
		}//for
	}else{
		shr= x&7;
		shl=(8-shr)&7;
		xbyte=x>>3;
		for (row=0;row<n;row++){
    423c:	80 e0       	ldi	r24, 0x00	; 0
			y++;
		}
	}
	if (collision) collision=1;
	return collision;
}
    423e:	df 91       	pop	r29
    4240:	cf 91       	pop	r28
    4242:	1f 91       	pop	r17
    4244:	0f 91       	pop	r16
    4246:	ff 90       	pop	r15
    4248:	ef 90       	pop	r14
    424a:	df 90       	pop	r13
    424c:	cf 90       	pop	r12
    424e:	bf 90       	pop	r11
    4250:	af 90       	pop	r10
    4252:	9f 90       	pop	r9
    4254:	08 95       	ret

00004256 <put_big_sprite>:

//dessine un sprite 16x16pixels
// le sprite est en mémoire RAM
// s'il y a collision retourne 1,
// autrement 0.
int8_t put_big_sprite(int8_t x, int8_t y,const uint8_t *sprite){
    4256:	6f 92       	push	r6
    4258:	7f 92       	push	r7
    425a:	8f 92       	push	r8
    425c:	9f 92       	push	r9
    425e:	af 92       	push	r10
    4260:	bf 92       	push	r11
    4262:	cf 92       	push	r12
    4264:	df 92       	push	r13
    4266:	ef 92       	push	r14
    4268:	ff 92       	push	r15
    426a:	0f 93       	push	r16
    426c:	1f 93       	push	r17
    426e:	cf 93       	push	r28
    4270:	df 93       	push	r29
	int8_t xbyte, shl, shr, row, collision;
	uint8_t sprite_row;

	// contrôle des limites
	if ((x<-15)||(x>=HRES)||(y<-15)||(y>=VRES)) return 0;
    4272:	81 3f       	cpi	r24, 0xF1	; 241
    4274:	0c f4       	brge	.+2      	; 0x4278 <put_big_sprite+0x22>
    4276:	ef c0       	rjmp	.+478    	; 0x4456 <put_big_sprite+0x200>
    4278:	9f e0       	ldi	r25, 0x0F	; 15
    427a:	96 0f       	add	r25, r22
    427c:	9f 35       	cpi	r25, 0x5F	; 95
    427e:	08 f0       	brcs	.+2      	; 0x4282 <put_big_sprite+0x2c>
    4280:	ec c0       	rjmp	.+472    	; 0x445a <put_big_sprite+0x204>
	collision=0;
	if (x<-7){ // x {-7..-15}
    4282:	89 3f       	cpi	r24, 0xF9	; 249
    4284:	1c f5       	brge	.+70     	; 0x42cc <put_big_sprite+0x76>
		shl=-x-8;
    4286:	78 ef       	ldi	r23, 0xF8	; 248
    4288:	78 1b       	sub	r23, r24
    428a:	fa 01       	movw	r30, r20
    428c:	31 96       	adiw	r30, 0x01	; 1
    428e:	40 e1       	ldi	r20, 0x10	; 16
	int8_t xbyte, shl, shr, row, collision;
	uint8_t sprite_row;

	// contrôle des limites
	if ((x<-15)||(x>=HRES)||(y<-15)||(y>=VRES)) return 0;
	collision=0;
    4290:	91 2c       	mov	r9, r1
	if (x<-7){ // x {-7..-15}
		shl=-x-8;
		for (row=0;row<32;row+=2){
			if ((y<0) || (y>= VRES)){y++; continue;}
    4292:	60 35       	cpi	r22, 0x50	; 80
    4294:	a8 f4       	brcc	.+42     	; 0x42c0 <put_big_sprite+0x6a>
			sprite_row=sprite[row+1];
			collision |= video_buffer[y*HBYTES] & (sprite_row<<shl);
    4296:	20 e1       	ldi	r18, 0x10	; 16
    4298:	62 02       	muls	r22, r18
    429a:	d0 01       	movw	r26, r0
    429c:	11 24       	eor	r1, r1
    429e:	aa 53       	subi	r26, 0x3A	; 58
    42a0:	bd 4f       	sbci	r27, 0xFD	; 253
    42a2:	5c 91       	ld	r21, X
    42a4:	20 81       	ld	r18, Z
    42a6:	30 e0       	ldi	r19, 0x00	; 0
    42a8:	c9 01       	movw	r24, r18
    42aa:	07 2e       	mov	r0, r23
    42ac:	02 c0       	rjmp	.+4      	; 0x42b2 <put_big_sprite+0x5c>
    42ae:	88 0f       	add	r24, r24
    42b0:	99 1f       	adc	r25, r25
    42b2:	0a 94       	dec	r0
    42b4:	e2 f7       	brpl	.-8      	; 0x42ae <put_big_sprite+0x58>
    42b6:	95 2f       	mov	r25, r21
    42b8:	98 23       	and	r25, r24
    42ba:	99 2a       	or	r9, r25
			video_buffer[y*HBYTES] ^= sprite_row<<shl;
    42bc:	85 27       	eor	r24, r21
    42be:	8c 93       	st	X, r24
    42c0:	41 50       	subi	r20, 0x01	; 1
    42c2:	6f 5f       	subi	r22, 0xFF	; 255
    42c4:	32 96       	adiw	r30, 0x02	; 2
	// contrôle des limites
	if ((x<-15)||(x>=HRES)||(y<-15)||(y>=VRES)) return 0;
	collision=0;
	if (x<-7){ // x {-7..-15}
		shl=-x-8;
		for (row=0;row<32;row+=2){
    42c6:	41 11       	cpse	r20, r1
    42c8:	e4 cf       	rjmp	.-56     	; 0x4292 <put_big_sprite+0x3c>
    42ca:	c0 c0       	rjmp	.+384    	; 0x444c <put_big_sprite+0x1f6>
			sprite_row=sprite[row+1];
			collision |= video_buffer[y*HBYTES] & (sprite_row<<shl);
			video_buffer[y*HBYTES] ^= sprite_row<<shl;
			y++;
		}
	}else if (x<0){ // x {-1..-7}
    42cc:	88 23       	and	r24, r24
    42ce:	0c f0       	brlt	.+2      	; 0x42d2 <put_big_sprite+0x7c>
    42d0:	48 c0       	rjmp	.+144    	; 0x4362 <put_big_sprite+0x10c>
		shl=-x;
    42d2:	f8 2e       	mov	r15, r24
    42d4:	f1 94       	neg	r15
		shr=8-shl;
    42d6:	68 94       	set
    42d8:	ee 24       	eor	r14, r14
    42da:	e3 f8       	bld	r14, 3
    42dc:	e8 0e       	add	r14, r24
    42de:	fa 01       	movw	r30, r20
    42e0:	31 96       	adiw	r30, 0x01	; 1
    42e2:	70 e1       	ldi	r23, 0x10	; 16
	int8_t xbyte, shl, shr, row, collision;
	uint8_t sprite_row;

	// contrôle des limites
	if ((x<-15)||(x>=HRES)||(y<-15)||(y>=VRES)) return 0;
	collision=0;
    42e4:	91 2c       	mov	r9, r1
		}
	}else if (x<0){ // x {-1..-7}
		shl=-x;
		shr=8-shl;
		for (row=0;row<32;row+=2){
			if ((y<0) || (y>= VRES)){y++; continue;}
    42e6:	60 35       	cpi	r22, 0x50	; 80
    42e8:	b0 f5       	brcc	.+108    	; 0x4356 <put_big_sprite+0x100>
			sprite_row=sprite[row];
			collision|=video_buffer[y*HBYTES] & (sprite_row<<shl);
    42ea:	c0 e1       	ldi	r28, 0x10	; 16
    42ec:	6c 02       	muls	r22, r28
    42ee:	c0 01       	movw	r24, r0
    42f0:	11 24       	eor	r1, r1
    42f2:	dc 01       	movw	r26, r24
    42f4:	aa 53       	subi	r26, 0x3A	; 58
    42f6:	bd 4f       	sbci	r27, 0xFD	; 253
    42f8:	dc 90       	ld	r13, X
    42fa:	ef 01       	movw	r28, r30
    42fc:	21 97       	sbiw	r28, 0x01	; 1
    42fe:	28 81       	ld	r18, Y
    4300:	30 e0       	ldi	r19, 0x00	; 0
    4302:	e9 01       	movw	r28, r18
    4304:	0f 2c       	mov	r0, r15
    4306:	02 c0       	rjmp	.+4      	; 0x430c <put_big_sprite+0xb6>
    4308:	cc 0f       	add	r28, r28
    430a:	dd 1f       	adc	r29, r29
    430c:	0a 94       	dec	r0
    430e:	e2 f7       	brpl	.-8      	; 0x4308 <put_big_sprite+0xb2>
			video_buffer[y*HBYTES] ^= sprite_row<<shl;
    4310:	dc 2f       	mov	r29, r28
    4312:	dd 25       	eor	r29, r13
    4314:	dc 93       	st	X, r29
			sprite_row=sprite[row+1];
			collision|=video_buffer[y*HBYTES] & (sprite_row>>shr);
    4316:	00 81       	ld	r16, Z
    4318:	10 e0       	ldi	r17, 0x00	; 0
    431a:	a8 01       	movw	r20, r16
    431c:	0e 2c       	mov	r0, r14
    431e:	02 c0       	rjmp	.+4      	; 0x4324 <put_big_sprite+0xce>
    4320:	55 95       	asr	r21
    4322:	47 95       	ror	r20
    4324:	0a 94       	dec	r0
    4326:	e2 f7       	brpl	.-8      	; 0x4320 <put_big_sprite+0xca>
			video_buffer[y*HBYTES] ^= sprite_row>>shr;
    4328:	2d 2f       	mov	r18, r29
    432a:	24 27       	eor	r18, r20
    432c:	2c 93       	st	X, r18
			collision|=video_buffer[y*HBYTES+1] & (sprite_row<<shl);
    432e:	dc 01       	movw	r26, r24
    4330:	a9 53       	subi	r26, 0x39	; 57
    4332:	bd 4f       	sbci	r27, 0xFD	; 253
    4334:	9c 91       	ld	r25, X
    4336:	98 01       	movw	r18, r16
    4338:	0f 2c       	mov	r0, r15
    433a:	02 c0       	rjmp	.+4      	; 0x4340 <put_big_sprite+0xea>
    433c:	22 0f       	add	r18, r18
    433e:	33 1f       	adc	r19, r19
    4340:	0a 94       	dec	r0
    4342:	e2 f7       	brpl	.-8      	; 0x433c <put_big_sprite+0xe6>
		shl=-x;
		shr=8-shl;
		for (row=0;row<32;row+=2){
			if ((y<0) || (y>= VRES)){y++; continue;}
			sprite_row=sprite[row];
			collision|=video_buffer[y*HBYTES] & (sprite_row<<shl);
    4344:	cd 21       	and	r28, r13
			video_buffer[y*HBYTES] ^= sprite_row<<shl;
			sprite_row=sprite[row+1];
			collision|=video_buffer[y*HBYTES] & (sprite_row>>shr);
			video_buffer[y*HBYTES] ^= sprite_row>>shr;
			collision|=video_buffer[y*HBYTES+1] & (sprite_row<<shl);
    4346:	89 2f       	mov	r24, r25
    4348:	82 23       	and	r24, r18
		shl=-x;
		shr=8-shl;
		for (row=0;row<32;row+=2){
			if ((y<0) || (y>= VRES)){y++; continue;}
			sprite_row=sprite[row];
			collision|=video_buffer[y*HBYTES] & (sprite_row<<shl);
    434a:	c8 2b       	or	r28, r24
			video_buffer[y*HBYTES] ^= sprite_row<<shl;
			sprite_row=sprite[row+1];
			collision|=video_buffer[y*HBYTES] & (sprite_row>>shr);
    434c:	9c 2a       	or	r9, r28
    434e:	4d 23       	and	r20, r29
			video_buffer[y*HBYTES] ^= sprite_row>>shr;
			collision|=video_buffer[y*HBYTES+1] & (sprite_row<<shl);
    4350:	94 2a       	or	r9, r20
			video_buffer[y*HBYTES+1] ^= sprite_row<<shl;
    4352:	29 27       	eor	r18, r25
    4354:	2c 93       	st	X, r18
    4356:	71 50       	subi	r23, 0x01	; 1
    4358:	6f 5f       	subi	r22, 0xFF	; 255
    435a:	32 96       	adiw	r30, 0x02	; 2
			y++;
		}
	}else if (x<0){ // x {-1..-7}
		shl=-x;
		shr=8-shl;
		for (row=0;row<32;row+=2){
    435c:	71 11       	cpse	r23, r1
    435e:	c3 cf       	rjmp	.-122    	; 0x42e6 <put_big_sprite+0x90>
    4360:	75 c0       	rjmp	.+234    	; 0x444c <put_big_sprite+0x1f6>
			collision|=video_buffer[y*HBYTES+1] & (sprite_row<<shl);
			video_buffer[y*HBYTES+1] ^= sprite_row<<shl;
			y++;
		}
	}else{ // x {0..HRES-1}
		shr= x&7;
    4362:	d8 2f       	mov	r29, r24
    4364:	d7 70       	andi	r29, 0x07	; 7
    4366:	bd 2e       	mov	r11, r29
		shl=(8-shr)&7;
    4368:	9d 2f       	mov	r25, r29
    436a:	91 95       	neg	r25
    436c:	97 70       	andi	r25, 0x07	; 7
    436e:	a9 2e       	mov	r10, r25
		xbyte=x>>3;
    4370:	85 95       	asr	r24
    4372:	85 95       	asr	r24
    4374:	85 95       	asr	r24
    4376:	4f 5f       	subi	r20, 0xFF	; 255
    4378:	5f 4f       	sbci	r21, 0xFF	; 255
    437a:	70 e1       	ldi	r23, 0x10	; 16
	int8_t xbyte, shl, shr, row, collision;
	uint8_t sprite_row;

	// contrôle des limites
	if ((x<-15)||(x>=HRES)||(y<-15)||(y>=VRES)) return 0;
	collision=0;
    437c:	91 2c       	mov	r9, r1
		shl=(8-shr)&7;
		xbyte=x>>3;
		for (row=0;row<32;row+=2){
			if ((y<0) || (y>=VRES)){y++; continue;}
			sprite_row=sprite[row];
			collision |= video_buffer[y*HBYTES+xbyte] & (sprite_row>>shr);
    437e:	e8 2e       	mov	r14, r24
    4380:	ff 24       	eor	r15, r15
    4382:	e7 fc       	sbrc	r14, 7
    4384:	f0 94       	com	r15
			video_buffer[y*HBYTES+xbyte] ^= sprite_row>>shr;
			if ((xbyte+1)<HBYTES){
    4386:	67 01       	movw	r12, r14
    4388:	2f ef       	ldi	r18, 0xFF	; 255
    438a:	c2 1a       	sub	r12, r18
    438c:	d2 0a       	sbc	r13, r18
					video_buffer[y*HBYTES+xbyte+1] ^= sprite_row<<shl;
				}
				sprite_row=sprite[row+1];
				collision |= video_buffer[y*HBYTES+xbyte+1] & (sprite_row>>shr);
				video_buffer[y*HBYTES+xbyte+1] ^= (sprite_row>>shr);
				if (shl && ((xbyte+2)<HBYTES)){
    438e:	37 01       	movw	r6, r14
    4390:	82 e0       	ldi	r24, 0x02	; 2
    4392:	68 0e       	add	r6, r24
    4394:	71 1c       	adc	r7, r1
	}else{ // x {0..HRES-1}
		shr= x&7;
		shl=(8-shr)&7;
		xbyte=x>>3;
		for (row=0;row<32;row+=2){
			if ((y<0) || (y>=VRES)){y++; continue;}
    4396:	60 35       	cpi	r22, 0x50	; 80
    4398:	08 f0       	brcs	.+2      	; 0x439c <put_big_sprite+0x146>
    439a:	52 c0       	rjmp	.+164    	; 0x4440 <put_big_sprite+0x1ea>
			sprite_row=sprite[row];
			collision |= video_buffer[y*HBYTES+xbyte] & (sprite_row>>shr);
    439c:	d7 01       	movw	r26, r14
    439e:	90 e1       	ldi	r25, 0x10	; 16
    43a0:	69 02       	muls	r22, r25
    43a2:	a0 0d       	add	r26, r0
    43a4:	b1 1d       	adc	r27, r1
    43a6:	11 24       	eor	r1, r1
    43a8:	fd 01       	movw	r30, r26
    43aa:	ea 53       	subi	r30, 0x3A	; 58
    43ac:	fd 4f       	sbci	r31, 0xFD	; 253
    43ae:	80 80       	ld	r8, Z
    43b0:	ea 01       	movw	r28, r20
    43b2:	21 97       	sbiw	r28, 0x01	; 1
    43b4:	88 81       	ld	r24, Y
    43b6:	90 e0       	ldi	r25, 0x00	; 0
    43b8:	9c 01       	movw	r18, r24
    43ba:	0b 2c       	mov	r0, r11
    43bc:	02 c0       	rjmp	.+4      	; 0x43c2 <put_big_sprite+0x16c>
    43be:	35 95       	asr	r19
    43c0:	27 95       	ror	r18
    43c2:	0a 94       	dec	r0
    43c4:	e2 f7       	brpl	.-8      	; 0x43be <put_big_sprite+0x168>
    43c6:	38 2d       	mov	r19, r8
    43c8:	32 23       	and	r19, r18
    43ca:	93 2a       	or	r9, r19
			video_buffer[y*HBYTES+xbyte] ^= sprite_row>>shr;
    43cc:	28 25       	eor	r18, r8
    43ce:	20 83       	st	Z, r18
			if ((xbyte+1)<HBYTES){
    43d0:	c0 e1       	ldi	r28, 0x10	; 16
    43d2:	cc 16       	cp	r12, r28
    43d4:	d1 04       	cpc	r13, r1
    43d6:	a4 f5       	brge	.+104    	; 0x4440 <put_big_sprite+0x1ea>
				if (shl){
    43d8:	aa 20       	and	r10, r10
    43da:	09 f4       	brne	.+2      	; 0x43de <put_big_sprite+0x188>
    43dc:	40 c0       	rjmp	.+128    	; 0x445e <put_big_sprite+0x208>
					collision |= video_buffer[y*HBYTES+xbyte+1] & (sprite_row<<shl);
    43de:	fd 01       	movw	r30, r26
    43e0:	e9 53       	subi	r30, 0x39	; 57
    43e2:	fd 4f       	sbci	r31, 0xFD	; 253
    43e4:	20 81       	ld	r18, Z
    43e6:	0a 2c       	mov	r0, r10
    43e8:	02 c0       	rjmp	.+4      	; 0x43ee <put_big_sprite+0x198>
    43ea:	88 0f       	add	r24, r24
    43ec:	99 1f       	adc	r25, r25
    43ee:	0a 94       	dec	r0
    43f0:	e2 f7       	brpl	.-8      	; 0x43ea <put_big_sprite+0x194>
    43f2:	92 2f       	mov	r25, r18
    43f4:	98 23       	and	r25, r24
    43f6:	99 2a       	or	r9, r25
					video_buffer[y*HBYTES+xbyte+1] ^= sprite_row<<shl;
    43f8:	82 27       	eor	r24, r18
    43fa:	80 83       	st	Z, r24
				}
				sprite_row=sprite[row+1];
				collision |= video_buffer[y*HBYTES+xbyte+1] & (sprite_row>>shr);
    43fc:	ea 01       	movw	r28, r20
    43fe:	98 81       	ld	r25, Y
    4400:	c9 2f       	mov	r28, r25
    4402:	d0 e0       	ldi	r29, 0x00	; 0
    4404:	9e 01       	movw	r18, r28
    4406:	0b 2c       	mov	r0, r11
    4408:	02 c0       	rjmp	.+4      	; 0x440e <put_big_sprite+0x1b8>
    440a:	35 95       	asr	r19
    440c:	27 95       	ror	r18
    440e:	0a 94       	dec	r0
    4410:	e2 f7       	brpl	.-8      	; 0x440a <put_big_sprite+0x1b4>
    4412:	98 2f       	mov	r25, r24
    4414:	92 23       	and	r25, r18
    4416:	99 2a       	or	r9, r25
				video_buffer[y*HBYTES+xbyte+1] ^= (sprite_row>>shr);
    4418:	82 27       	eor	r24, r18
    441a:	80 83       	st	Z, r24
				if (shl && ((xbyte+2)<HBYTES)){
    441c:	20 e1       	ldi	r18, 0x10	; 16
    441e:	62 16       	cp	r6, r18
    4420:	71 04       	cpc	r7, r1
    4422:	74 f4       	brge	.+28     	; 0x4440 <put_big_sprite+0x1ea>
					collision |= video_buffer[y*HBYTES+xbyte+2] & (sprite_row<<shl);
    4424:	a8 53       	subi	r26, 0x38	; 56
    4426:	bd 4f       	sbci	r27, 0xFD	; 253
    4428:	8c 91       	ld	r24, X
    442a:	0a 2c       	mov	r0, r10
    442c:	02 c0       	rjmp	.+4      	; 0x4432 <put_big_sprite+0x1dc>
    442e:	cc 0f       	add	r28, r28
    4430:	dd 1f       	adc	r29, r29
    4432:	0a 94       	dec	r0
    4434:	e2 f7       	brpl	.-8      	; 0x442e <put_big_sprite+0x1d8>
    4436:	9c 2f       	mov	r25, r28
    4438:	98 23       	and	r25, r24
    443a:	99 2a       	or	r9, r25
					video_buffer[y*HBYTES+xbyte+2] ^=(sprite_row<<shl);
    443c:	c8 27       	eor	r28, r24
    443e:	cc 93       	st	X, r28
    4440:	71 50       	subi	r23, 0x01	; 1
    4442:	6f 5f       	subi	r22, 0xFF	; 255
    4444:	4e 5f       	subi	r20, 0xFE	; 254
    4446:	5f 4f       	sbci	r21, 0xFF	; 255
		}
	}else{ // x {0..HRES-1}
		shr= x&7;
		shl=(8-shr)&7;
		xbyte=x>>3;
		for (row=0;row<32;row+=2){
    4448:	71 11       	cpse	r23, r1
    444a:	a5 cf       	rjmp	.-182    	; 0x4396 <put_big_sprite+0x140>
				}
			}
			y++;
		}
	}
	if (collision) collision=1;
    444c:	81 e0       	ldi	r24, 0x01	; 1
    444e:	91 10       	cpse	r9, r1
    4450:	19 c0       	rjmp	.+50     	; 0x4484 <put_big_sprite+0x22e>
    4452:	80 e0       	ldi	r24, 0x00	; 0
    4454:	17 c0       	rjmp	.+46     	; 0x4484 <put_big_sprite+0x22e>
int8_t put_big_sprite(int8_t x, int8_t y,const uint8_t *sprite){
	int8_t xbyte, shl, shr, row, collision;
	uint8_t sprite_row;

	// contrôle des limites
	if ((x<-15)||(x>=HRES)||(y<-15)||(y>=VRES)) return 0;
    4456:	80 e0       	ldi	r24, 0x00	; 0
    4458:	15 c0       	rjmp	.+42     	; 0x4484 <put_big_sprite+0x22e>
    445a:	80 e0       	ldi	r24, 0x00	; 0
    445c:	13 c0       	rjmp	.+38     	; 0x4484 <put_big_sprite+0x22e>
				if (shl){
					collision |= video_buffer[y*HBYTES+xbyte+1] & (sprite_row<<shl);
					video_buffer[y*HBYTES+xbyte+1] ^= sprite_row<<shl;
				}
				sprite_row=sprite[row+1];
				collision |= video_buffer[y*HBYTES+xbyte+1] & (sprite_row>>shr);
    445e:	a9 53       	subi	r26, 0x39	; 57
    4460:	bd 4f       	sbci	r27, 0xFD	; 253
    4462:	ec 91       	ld	r30, X
    4464:	ea 01       	movw	r28, r20
    4466:	28 81       	ld	r18, Y
    4468:	30 e0       	ldi	r19, 0x00	; 0
    446a:	c9 01       	movw	r24, r18
    446c:	0b 2c       	mov	r0, r11
    446e:	02 c0       	rjmp	.+4      	; 0x4474 <put_big_sprite+0x21e>
    4470:	95 95       	asr	r25
    4472:	87 95       	ror	r24
    4474:	0a 94       	dec	r0
    4476:	e2 f7       	brpl	.-8      	; 0x4470 <put_big_sprite+0x21a>
    4478:	9e 2f       	mov	r25, r30
    447a:	98 23       	and	r25, r24
    447c:	99 2a       	or	r9, r25
				video_buffer[y*HBYTES+xbyte+1] ^= (sprite_row>>shr);
    447e:	8e 27       	eor	r24, r30
    4480:	8c 93       	st	X, r24
    4482:	de cf       	rjmp	.-68     	; 0x4440 <put_big_sprite+0x1ea>
			y++;
		}
	}
	if (collision) collision=1;
	return collision;
}
    4484:	df 91       	pop	r29
    4486:	cf 91       	pop	r28
    4488:	1f 91       	pop	r17
    448a:	0f 91       	pop	r16
    448c:	ff 90       	pop	r15
    448e:	ef 90       	pop	r14
    4490:	df 90       	pop	r13
    4492:	cf 90       	pop	r12
    4494:	bf 90       	pop	r11
    4496:	af 90       	pop	r10
    4498:	9f 90       	pop	r9
    449a:	8f 90       	pop	r8
    449c:	7f 90       	pop	r7
    449e:	6f 90       	pop	r6
    44a0:	08 95       	ret

000044a2 <cls>:


void cls(){
	memset(video_buffer,0,VRES*HBYTES);	
    44a2:	80 e0       	ldi	r24, 0x00	; 0
    44a4:	95 e0       	ldi	r25, 0x05	; 5
    44a6:	e6 ec       	ldi	r30, 0xC6	; 198
    44a8:	f2 e0       	ldi	r31, 0x02	; 2
    44aa:	df 01       	movw	r26, r30
    44ac:	9c 01       	movw	r18, r24
    44ae:	1d 92       	st	X+, r1
    44b0:	21 50       	subi	r18, 0x01	; 1
    44b2:	30 40       	sbci	r19, 0x00	; 0
    44b4:	e1 f7       	brne	.-8      	; 0x44ae <cls+0xc>
	set_cursor(0,0);
    44b6:	60 e0       	ldi	r22, 0x00	; 0
    44b8:	80 e0       	ldi	r24, 0x00	; 0
    44ba:	0e 94 bf 1e 	call	0x3d7e	; 0x3d7e <set_cursor>
    44be:	08 95       	ret

000044c0 <scroll_down>:
}


// lines {1..31}
void scroll_down(uint8_t lines){
    44c0:	cf 93       	push	r28
    44c2:	df 93       	push	r29
	if (!lines) return;
    44c4:	88 23       	and	r24, r24
    44c6:	09 f1       	breq	.+66     	; 0x450a <scroll_down+0x4a>
	lines &=0x1f;
    44c8:	8f 71       	andi	r24, 0x1F	; 31
	memmove(video_buffer+HBYTES*lines,video_buffer,HBYTES*VRES-HBYTES*lines);
    44ca:	90 e0       	ldi	r25, 0x00	; 0
    44cc:	ec 01       	movw	r28, r24
    44ce:	c2 95       	swap	r28
    44d0:	d2 95       	swap	r29
    44d2:	d0 7f       	andi	r29, 0xF0	; 240
    44d4:	dc 27       	eor	r29, r28
    44d6:	c0 7f       	andi	r28, 0xF0	; 240
    44d8:	dc 27       	eor	r29, r28
    44da:	40 e5       	ldi	r20, 0x50	; 80
    44dc:	50 e0       	ldi	r21, 0x00	; 0
    44de:	48 1b       	sub	r20, r24
    44e0:	59 0b       	sbc	r21, r25
    44e2:	42 95       	swap	r20
    44e4:	52 95       	swap	r21
    44e6:	50 7f       	andi	r21, 0xF0	; 240
    44e8:	54 27       	eor	r21, r20
    44ea:	40 7f       	andi	r20, 0xF0	; 240
    44ec:	54 27       	eor	r21, r20
    44ee:	66 ec       	ldi	r22, 0xC6	; 198
    44f0:	72 e0       	ldi	r23, 0x02	; 2
    44f2:	ce 01       	movw	r24, r28
    44f4:	8a 53       	subi	r24, 0x3A	; 58
    44f6:	9d 4f       	sbci	r25, 0xFD	; 253
    44f8:	0e 94 a1 24 	call	0x4942	; 0x4942 <memmove>
	memset(video_buffer,0,HBYTES*lines);	
    44fc:	ae 01       	movw	r20, r28
    44fe:	60 e0       	ldi	r22, 0x00	; 0
    4500:	70 e0       	ldi	r23, 0x00	; 0
    4502:	86 ec       	ldi	r24, 0xC6	; 198
    4504:	92 e0       	ldi	r25, 0x02	; 2
    4506:	0e 94 b3 24 	call	0x4966	; 0x4966 <memset>
}
    450a:	df 91       	pop	r29
    450c:	cf 91       	pop	r28
    450e:	08 95       	ret

00004510 <scroll_up>:


// lines {1..31}
void scroll_up(uint8_t lines){
    4510:	0f 93       	push	r16
    4512:	1f 93       	push	r17
    4514:	cf 93       	push	r28
    4516:	df 93       	push	r29
	if (!lines) return;
    4518:	88 23       	and	r24, r24
    451a:	41 f1       	breq	.+80     	; 0x456c <scroll_up+0x5c>
	lines &=0x1f;
    451c:	8f 71       	andi	r24, 0x1F	; 31
	memmove(video_buffer,video_buffer+HBYTES*lines,HBYTES*VRES-HBYTES*lines);	
    451e:	08 2f       	mov	r16, r24
    4520:	10 e0       	ldi	r17, 0x00	; 0
    4522:	e8 01       	movw	r28, r16
    4524:	c2 95       	swap	r28
    4526:	d2 95       	swap	r29
    4528:	d0 7f       	andi	r29, 0xF0	; 240
    452a:	dc 27       	eor	r29, r28
    452c:	c0 7f       	andi	r28, 0xF0	; 240
    452e:	dc 27       	eor	r29, r28
    4530:	40 e5       	ldi	r20, 0x50	; 80
    4532:	50 e0       	ldi	r21, 0x00	; 0
    4534:	40 1b       	sub	r20, r16
    4536:	51 0b       	sbc	r21, r17
    4538:	42 95       	swap	r20
    453a:	52 95       	swap	r21
    453c:	50 7f       	andi	r21, 0xF0	; 240
    453e:	54 27       	eor	r21, r20
    4540:	40 7f       	andi	r20, 0xF0	; 240
    4542:	54 27       	eor	r21, r20
    4544:	be 01       	movw	r22, r28
    4546:	6a 53       	subi	r22, 0x3A	; 58
    4548:	7d 4f       	sbci	r23, 0xFD	; 253
    454a:	86 ec       	ldi	r24, 0xC6	; 198
    454c:	92 e0       	ldi	r25, 0x02	; 2
    454e:	0e 94 a1 24 	call	0x4942	; 0x4942 <memmove>
	memset(video_buffer+HBYTES*VRES-HBYTES*lines,0,HBYTES*lines);
    4552:	20 ef       	ldi	r18, 0xF0	; 240
    4554:	20 03       	mulsu	r18, r16
    4556:	c0 01       	movw	r24, r0
    4558:	21 9f       	mul	r18, r17
    455a:	90 0d       	add	r25, r0
    455c:	11 24       	eor	r1, r1
    455e:	ae 01       	movw	r20, r28
    4560:	60 e0       	ldi	r22, 0x00	; 0
    4562:	70 e0       	ldi	r23, 0x00	; 0
    4564:	8a 53       	subi	r24, 0x3A	; 58
    4566:	98 4f       	sbci	r25, 0xF8	; 248
    4568:	0e 94 b3 24 	call	0x4966	; 0x4966 <memset>
}
    456c:	df 91       	pop	r29
    456e:	cf 91       	pop	r28
    4570:	1f 91       	pop	r17
    4572:	0f 91       	pop	r16
    4574:	08 95       	ret

00004576 <chip_scroll_right>:
	}
}

// optimisé pour la VM chip8()
// décale de 4 pixels
void chip_scroll_right(){
    4576:	1f 93       	push	r17
    4578:	cf 93       	push	r28
    457a:	df 93       	push	r29
    457c:	c6 ec       	ldi	r28, 0xC6	; 198
    457e:	d2 e0       	ldi	r29, 0x02	; 2
    4580:	66 ec       	ldi	r22, 0xC6	; 198
    4582:	77 e0       	ldi	r23, 0x07	; 7
    4584:	ae 01       	movw	r20, r28
    4586:	40 5f       	subi	r20, 0xF0	; 240
    4588:	5f 4f       	sbci	r21, 0xFF	; 255
    458a:	9e 01       	movw	r18, r28
    458c:	2f 5f       	subi	r18, 0xFF	; 255
    458e:	3f 4f       	sbci	r19, 0xFF	; 255
    4590:	de 01       	movw	r26, r28
    4592:	1f 96       	adiw	r26, 0x0f	; 15
    4594:	fa 01       	movw	r30, r20
	uint8_t *line_buffer;

	for (line=1;line<=VRES;line++){
		line_buffer=video_buffer+HBYTES*line-1;
		for (column=HBYTES-1;column;column--){
			*line_buffer=(*line_buffer>>4)|((*(line_buffer-1))<<4);
    4596:	8e 91       	ld	r24, -X
    4598:	10 e1       	ldi	r17, 0x10	; 16
    459a:	81 9f       	mul	r24, r17
    459c:	c0 01       	movw	r24, r0
    459e:	11 24       	eor	r1, r1
    45a0:	92 91       	ld	r25, -Z
    45a2:	92 95       	swap	r25
    45a4:	9f 70       	andi	r25, 0x0F	; 15
    45a6:	89 2b       	or	r24, r25
    45a8:	80 83       	st	Z, r24
	uint8_t line, column;
	uint8_t *line_buffer;

	for (line=1;line<=VRES;line++){
		line_buffer=video_buffer+HBYTES*line-1;
		for (column=HBYTES-1;column;column--){
    45aa:	e2 17       	cp	r30, r18
    45ac:	f3 07       	cpc	r31, r19
    45ae:	99 f7       	brne	.-26     	; 0x4596 <chip_scroll_right+0x20>
			*line_buffer=(*line_buffer>>4)|((*(line_buffer-1))<<4);
			--line_buffer;
		}
		*line_buffer>>=4;
    45b0:	88 81       	ld	r24, Y
    45b2:	82 95       	swap	r24
    45b4:	8f 70       	andi	r24, 0x0F	; 15
    45b6:	88 83       	st	Y, r24
// décale de 4 pixels
void chip_scroll_right(){
	uint8_t line, column;
	uint8_t *line_buffer;

	for (line=1;line<=VRES;line++){
    45b8:	64 17       	cp	r22, r20
    45ba:	75 07       	cpc	r23, r21
    45bc:	11 f0       	breq	.+4      	; 0x45c2 <chip_scroll_right+0x4c>
    45be:	ea 01       	movw	r28, r20
    45c0:	e1 cf       	rjmp	.-62     	; 0x4584 <chip_scroll_right+0xe>
			*line_buffer=(*line_buffer>>4)|((*(line_buffer-1))<<4);
			--line_buffer;
		}
		*line_buffer>>=4;
	}
}
    45c2:	df 91       	pop	r29
    45c4:	cf 91       	pop	r28
    45c6:	1f 91       	pop	r17
    45c8:	08 95       	ret

000045ca <chip_scroll_left>:
	}
}

// optimisé pour la VM chip8()
// décale de 4 pixels
void chip_scroll_left(){
    45ca:	cf 93       	push	r28
    45cc:	df 93       	push	r29
    45ce:	25 ed       	ldi	r18, 0xD5	; 213
    45d0:	32 e0       	ldi	r19, 0x02	; 2
    45d2:	45 ed       	ldi	r20, 0xD5	; 213
    45d4:	57 e0       	ldi	r21, 0x07	; 7
    45d6:	f9 01       	movw	r30, r18
    45d8:	3f 97       	sbiw	r30, 0x0f	; 15
    45da:	e9 01       	movw	r28, r18
    45dc:	d9 01       	movw	r26, r18
    45de:	1e 97       	sbiw	r26, 0x0e	; 14
	uint8_t line, column;
	uint8_t  *line_buffer;
	for (line=0;line<VRES;line++){
		line_buffer=video_buffer+HBYTES*line;
		for (column=0;column<(HBYTES-1);column++){
			*line_buffer=(*line_buffer<<4)|((*(line_buffer+1))>>4);
    45e0:	6d 91       	ld	r22, X+
    45e2:	62 95       	swap	r22
    45e4:	6f 70       	andi	r22, 0x0F	; 15
    45e6:	80 81       	ld	r24, Z
    45e8:	70 e1       	ldi	r23, 0x10	; 16
    45ea:	87 9f       	mul	r24, r23
    45ec:	c0 01       	movw	r24, r0
    45ee:	11 24       	eor	r1, r1
    45f0:	86 2b       	or	r24, r22
    45f2:	81 93       	st	Z+, r24
void chip_scroll_left(){
	uint8_t line, column;
	uint8_t  *line_buffer;
	for (line=0;line<VRES;line++){
		line_buffer=video_buffer+HBYTES*line;
		for (column=0;column<(HBYTES-1);column++){
    45f4:	ec 17       	cp	r30, r28
    45f6:	fd 07       	cpc	r31, r29
    45f8:	99 f7       	brne	.-26     	; 0x45e0 <chip_scroll_left+0x16>
			*line_buffer=(*line_buffer<<4)|((*(line_buffer+1))>>4);
			++line_buffer;
		}
		*line_buffer<<=4;
    45fa:	88 81       	ld	r24, Y
    45fc:	82 95       	swap	r24
    45fe:	80 7f       	andi	r24, 0xF0	; 240
    4600:	88 83       	st	Y, r24
    4602:	20 5f       	subi	r18, 0xF0	; 240
    4604:	3f 4f       	sbci	r19, 0xFF	; 255
// optimisé pour la VM chip8()
// décale de 4 pixels
void chip_scroll_left(){
	uint8_t line, column;
	uint8_t  *line_buffer;
	for (line=0;line<VRES;line++){
    4606:	24 17       	cp	r18, r20
    4608:	35 07       	cpc	r19, r21
    460a:	29 f7       	brne	.-54     	; 0x45d6 <chip_scroll_left+0xc>
			*line_buffer=(*line_buffer<<4)|((*(line_buffer+1))>>4);
			++line_buffer;
		}
		*line_buffer<<=4;
	}
}
    460c:	df 91       	pop	r29
    460e:	cf 91       	pop	r28
    4610:	08 95       	ret

00004612 <screen_save>:



void screen_save(){
	sram_store_block(SAVE_SCREEN_ADDR,HBYTES*VRES,video_buffer);
    4612:	46 ec       	ldi	r20, 0xC6	; 198
    4614:	52 e0       	ldi	r21, 0x02	; 2
    4616:	60 e0       	ldi	r22, 0x00	; 0
    4618:	75 e0       	ldi	r23, 0x05	; 5
    461a:	80 e0       	ldi	r24, 0x00	; 0
    461c:	90 e8       	ldi	r25, 0x80	; 128
    461e:	0e 94 e4 1d 	call	0x3bc8	; 0x3bc8 <sram_store_block>
    4622:	08 95       	ret

00004624 <screen_restore>:
}

void screen_restore(){
	sram_load_block(SAVE_SCREEN_ADDR,HBYTES*VRES,video_buffer);
    4624:	46 ec       	ldi	r20, 0xC6	; 198
    4626:	52 e0       	ldi	r21, 0x02	; 2
    4628:	60 e0       	ldi	r22, 0x00	; 0
    462a:	75 e0       	ldi	r23, 0x05	; 5
    462c:	80 e0       	ldi	r24, 0x00	; 0
    462e:	90 e8       	ldi	r25, 0x80	; 128
    4630:	0e 94 b9 1d 	call	0x3b72	; 0x3b72 <sram_load_block>
    4634:	08 95       	ret

00004636 <__vector_12>:
static volatile uint16_t line_count=0;
static volatile uint8_t video=0;

// interruption à la fin de
// chaque pulse de synchronisation
ISR(TIMER1_COMPB_vect){
    4636:	1f 92       	push	r1
    4638:	0f 92       	push	r0
    463a:	0f b6       	in	r0, 0x3f	; 63
    463c:	0f 92       	push	r0
    463e:	11 24       	eor	r1, r1
    4640:	2f 93       	push	r18
    4642:	8f 93       	push	r24
    4644:	9f 93       	push	r25
    4646:	af 93       	push	r26
    4648:	bf 93       	push	r27
    464a:	cf 93       	push	r28
    464c:	df 93       	push	r29
    464e:	ef 93       	push	r30
    4650:	ff 93       	push	r31
	register unsigned i;
	register unsigned char *buff;

	line_count++;
    4652:	80 91 c2 02 	lds	r24, 0x02C2
    4656:	90 91 c3 02 	lds	r25, 0x02C3
    465a:	01 96       	adiw	r24, 0x01	; 1
    465c:	90 93 c3 02 	sts	0x02C3, r25
    4660:	80 93 c2 02 	sts	0x02C2, r24
	switch(line_count){
    4664:	80 91 c2 02 	lds	r24, 0x02C2
    4668:	90 91 c3 02 	lds	r25, 0x02C3
    466c:	83 30       	cpi	r24, 0x03	; 3
    466e:	91 05       	cpc	r25, r1
    4670:	61 f1       	breq	.+88     	; 0x46ca <__vector_12+0x94>
    4672:	30 f4       	brcc	.+12     	; 0x4680 <__vector_12+0x4a>
    4674:	81 30       	cpi	r24, 0x01	; 1
    4676:	91 05       	cpc	r25, r1
    4678:	69 f0       	breq	.+26     	; 0x4694 <__vector_12+0x5e>
    467a:	02 97       	sbiw	r24, 0x02	; 2
    467c:	b1 f0       	breq	.+44     	; 0x46aa <__vector_12+0x74>
    467e:	3e c0       	rjmp	.+124    	; 0x46fc <__vector_12+0xc6>
    4680:	81 3d       	cpi	r24, 0xD1	; 209
    4682:	91 05       	cpc	r25, r1
    4684:	69 f1       	breq	.+90     	; 0x46e0 <__vector_12+0xaa>
    4686:	86 30       	cpi	r24, 0x06	; 6
    4688:	21 e0       	ldi	r18, 0x01	; 1
    468a:	92 07       	cpc	r25, r18
    468c:	61 f1       	breq	.+88     	; 0x46e6 <__vector_12+0xb0>
    468e:	c2 97       	sbiw	r24, 0x32	; 50
    4690:	a9 f5       	brne	.+106    	; 0x46fc <__vector_12+0xc6>
    4692:	22 c0       	rjmp	.+68     	; 0x46d8 <__vector_12+0xa2>
		case 1:
			if (frame_delay) frame_delay--;
    4694:	80 91 c5 02 	lds	r24, 0x02C5
    4698:	88 23       	and	r24, r24
    469a:	09 f4       	brne	.+2      	; 0x469e <__vector_12+0x68>
    469c:	67 c0       	rjmp	.+206    	; 0x476c <__vector_12+0x136>
    469e:	80 91 c5 02 	lds	r24, 0x02C5
    46a2:	81 50       	subi	r24, 0x01	; 1
    46a4:	80 93 c5 02 	sts	0x02C5, r24
    46a8:	61 c0       	rjmp	.+194    	; 0x476c <__vector_12+0x136>
			break;
		case 2:
		if (tone_length){
    46aa:	80 91 c4 02 	lds	r24, 0x02C4
    46ae:	88 23       	and	r24, r24
    46b0:	09 f4       	brne	.+2      	; 0x46b4 <__vector_12+0x7e>
    46b2:	5c c0       	rjmp	.+184    	; 0x476c <__vector_12+0x136>
			tone_length--;
    46b4:	80 91 c4 02 	lds	r24, 0x02C4
    46b8:	81 50       	subi	r24, 0x01	; 1
    46ba:	80 93 c4 02 	sts	0x02C4, r24
			if (!tone_length) tone_off();
    46be:	80 91 c4 02 	lds	r24, 0x02C4
    46c2:	81 11       	cpse	r24, r1
    46c4:	53 c0       	rjmp	.+166    	; 0x476c <__vector_12+0x136>
    46c6:	56 98       	cbi	0x0a, 6	; 10
    46c8:	51 c0       	rjmp	.+162    	; 0x476c <__vector_12+0x136>
		}
		break;
		case 3:
			NTSC_SYNC_OCRB=HPULSE;
    46ca:	8a e4       	ldi	r24, 0x4A	; 74
    46cc:	90 e0       	ldi	r25, 0x00	; 0
    46ce:	90 93 8b 00 	sts	0x008B, r25
    46d2:	80 93 8a 00 	sts	0x008A, r24
			break;
    46d6:	4a c0       	rjmp	.+148    	; 0x476c <__vector_12+0x136>
		case FIRST_VISIBLE:
			video=1;
    46d8:	81 e0       	ldi	r24, 0x01	; 1
    46da:	80 93 c1 02 	sts	0x02C1, r24
			break;
    46de:	46 c0       	rjmp	.+140    	; 0x476c <__vector_12+0x136>
		case LAST_VISIBLE:
			video=0;
    46e0:	10 92 c1 02 	sts	0x02C1, r1
			break;
    46e4:	43 c0       	rjmp	.+134    	; 0x476c <__vector_12+0x136>
		case 262:
			line_count=0;
    46e6:	10 92 c3 02 	sts	0x02C3, r1
    46ea:	10 92 c2 02 	sts	0x02C2, r1
			NTSC_SYNC_OCRB=VPULSE;
    46ee:	83 e6       	ldi	r24, 0x63	; 99
    46f0:	93 e0       	ldi	r25, 0x03	; 3
    46f2:	90 93 8b 00 	sts	0x008B, r25
    46f6:	80 93 8a 00 	sts	0x008A, r24
			break;
    46fa:	38 c0       	rjmp	.+112    	; 0x476c <__vector_12+0x136>
		default:
			if (video){
    46fc:	80 91 c1 02 	lds	r24, 0x02C1
    4700:	88 23       	and	r24, r24
    4702:	a1 f1       	breq	.+104    	; 0x476c <__vector_12+0x136>
				buff=video_buffer+(((line_count-FIRST_VISIBLE)>>1)*HBYTES);
    4704:	a0 91 c2 02 	lds	r26, 0x02C2
    4708:	b0 91 c3 02 	lds	r27, 0x02C3
				NTSC_VIDEO_UBRR=0;
    470c:	e4 ec       	ldi	r30, 0xC4	; 196
    470e:	f0 e0       	ldi	r31, 0x00	; 0
    4710:	11 82       	std	Z+1, r1	; 0x01
    4712:	10 82       	st	Z, r1
				NTSC_VIDEO_UCSRB=(1<<TXEN0);
    4714:	88 e0       	ldi	r24, 0x08	; 8
    4716:	80 93 c1 00 	sts	0x00C1, r24
				NTSC_VIDEO_UBRR=2;
    471a:	82 e0       	ldi	r24, 0x02	; 2
    471c:	90 e0       	ldi	r25, 0x00	; 0
    471e:	91 83       	std	Z+1, r25	; 0x01
    4720:	80 83       	st	Z, r24
				NTSC_VIDEO_UDR=0x0;
    4722:	10 92 c6 00 	sts	0x00C6, r1
			line_count=0;
			NTSC_SYNC_OCRB=VPULSE;
			break;
		default:
			if (video){
				buff=video_buffer+(((line_count-FIRST_VISIBLE)>>1)*HBYTES);
    4726:	d2 97       	sbiw	r26, 0x32	; 50
    4728:	b6 95       	lsr	r27
    472a:	a7 95       	ror	r26
    472c:	a2 95       	swap	r26
    472e:	b2 95       	swap	r27
    4730:	b0 7f       	andi	r27, 0xF0	; 240
    4732:	ba 27       	eor	r27, r26
    4734:	a0 7f       	andi	r26, 0xF0	; 240
    4736:	ba 27       	eor	r27, r26
    4738:	aa 53       	subi	r26, 0x3A	; 58
    473a:	bd 4f       	sbci	r27, 0xFD	; 253
    473c:	cd 01       	movw	r24, r26
    473e:	40 96       	adiw	r24, 0x10	; 16
				NTSC_VIDEO_UBRR=0;
				NTSC_VIDEO_UCSRB=(1<<TXEN0);
				NTSC_VIDEO_UBRR=2;
				NTSC_VIDEO_UDR=0x0;
				for (i=HBYTES;i;i--){
					while ( !( UCSR0A & (1<<UDRE0)) );
    4740:	e0 ec       	ldi	r30, 0xC0	; 192
    4742:	f0 e0       	ldi	r31, 0x00	; 0
					NTSC_VIDEO_UDR=*buff++;
    4744:	c6 ec       	ldi	r28, 0xC6	; 198
    4746:	d0 e0       	ldi	r29, 0x00	; 0
				NTSC_VIDEO_UBRR=0;
				NTSC_VIDEO_UCSRB=(1<<TXEN0);
				NTSC_VIDEO_UBRR=2;
				NTSC_VIDEO_UDR=0x0;
				for (i=HBYTES;i;i--){
					while ( !( UCSR0A & (1<<UDRE0)) );
    4748:	20 81       	ld	r18, Z
    474a:	25 ff       	sbrs	r18, 5
    474c:	fd cf       	rjmp	.-6      	; 0x4748 <__vector_12+0x112>
					NTSC_VIDEO_UDR=*buff++;
    474e:	2d 91       	ld	r18, X+
    4750:	28 83       	st	Y, r18
				buff=video_buffer+(((line_count-FIRST_VISIBLE)>>1)*HBYTES);
				NTSC_VIDEO_UBRR=0;
				NTSC_VIDEO_UCSRB=(1<<TXEN0);
				NTSC_VIDEO_UBRR=2;
				NTSC_VIDEO_UDR=0x0;
				for (i=HBYTES;i;i--){
    4752:	a8 17       	cp	r26, r24
    4754:	b9 07       	cpc	r27, r25
    4756:	c1 f7       	brne	.-16     	; 0x4748 <__vector_12+0x112>
					while ( !( UCSR0A & (1<<UDRE0)) );
					NTSC_VIDEO_UDR=*buff++;
				}
				while (!(NTSC_VIDEO_UCSRA & (1<<TXC0)));
    4758:	e0 ec       	ldi	r30, 0xC0	; 192
    475a:	f0 e0       	ldi	r31, 0x00	; 0
    475c:	80 81       	ld	r24, Z
    475e:	86 ff       	sbrs	r24, 6
    4760:	fd cf       	rjmp	.-6      	; 0x475c <__vector_12+0x126>
				NTSC_VIDEO_UCSRB &= ~(1<<TXEN0);
    4762:	e1 ec       	ldi	r30, 0xC1	; 193
    4764:	f0 e0       	ldi	r31, 0x00	; 0
    4766:	80 81       	ld	r24, Z
    4768:	87 7f       	andi	r24, 0xF7	; 247
    476a:	80 83       	st	Z, r24
			}
			break;
	}//switch
}
    476c:	ff 91       	pop	r31
    476e:	ef 91       	pop	r30
    4770:	df 91       	pop	r29
    4772:	cf 91       	pop	r28
    4774:	bf 91       	pop	r27
    4776:	af 91       	pop	r26
    4778:	9f 91       	pop	r25
    477a:	8f 91       	pop	r24
    477c:	2f 91       	pop	r18
    477e:	0f 90       	pop	r0
    4780:	0f be       	out	0x3f, r0	; 63
    4782:	0f 90       	pop	r0
    4784:	1f 90       	pop	r1
    4786:	18 95       	reti

00004788 <__mulsi3>:
    4788:	db 01       	movw	r26, r22
    478a:	8f 93       	push	r24
    478c:	9f 93       	push	r25
    478e:	0e 94 38 24 	call	0x4870	; 0x4870 <__muluhisi3>
    4792:	bf 91       	pop	r27
    4794:	af 91       	pop	r26
    4796:	a2 9f       	mul	r26, r18
    4798:	80 0d       	add	r24, r0
    479a:	91 1d       	adc	r25, r1
    479c:	a3 9f       	mul	r26, r19
    479e:	90 0d       	add	r25, r0
    47a0:	b2 9f       	mul	r27, r18
    47a2:	90 0d       	add	r25, r0
    47a4:	11 24       	eor	r1, r1
    47a6:	08 95       	ret

000047a8 <__udivmodhi4>:
    47a8:	aa 1b       	sub	r26, r26
    47aa:	bb 1b       	sub	r27, r27
    47ac:	51 e1       	ldi	r21, 0x11	; 17
    47ae:	07 c0       	rjmp	.+14     	; 0x47be <__udivmodhi4_ep>

000047b0 <__udivmodhi4_loop>:
    47b0:	aa 1f       	adc	r26, r26
    47b2:	bb 1f       	adc	r27, r27
    47b4:	a6 17       	cp	r26, r22
    47b6:	b7 07       	cpc	r27, r23
    47b8:	10 f0       	brcs	.+4      	; 0x47be <__udivmodhi4_ep>
    47ba:	a6 1b       	sub	r26, r22
    47bc:	b7 0b       	sbc	r27, r23

000047be <__udivmodhi4_ep>:
    47be:	88 1f       	adc	r24, r24
    47c0:	99 1f       	adc	r25, r25
    47c2:	5a 95       	dec	r21
    47c4:	a9 f7       	brne	.-22     	; 0x47b0 <__udivmodhi4_loop>
    47c6:	80 95       	com	r24
    47c8:	90 95       	com	r25
    47ca:	bc 01       	movw	r22, r24
    47cc:	cd 01       	movw	r24, r26
    47ce:	08 95       	ret

000047d0 <__udivmodsi4>:
    47d0:	a1 e2       	ldi	r26, 0x21	; 33
    47d2:	1a 2e       	mov	r1, r26
    47d4:	aa 1b       	sub	r26, r26
    47d6:	bb 1b       	sub	r27, r27
    47d8:	fd 01       	movw	r30, r26
    47da:	0d c0       	rjmp	.+26     	; 0x47f6 <__udivmodsi4_ep>

000047dc <__udivmodsi4_loop>:
    47dc:	aa 1f       	adc	r26, r26
    47de:	bb 1f       	adc	r27, r27
    47e0:	ee 1f       	adc	r30, r30
    47e2:	ff 1f       	adc	r31, r31
    47e4:	a2 17       	cp	r26, r18
    47e6:	b3 07       	cpc	r27, r19
    47e8:	e4 07       	cpc	r30, r20
    47ea:	f5 07       	cpc	r31, r21
    47ec:	20 f0       	brcs	.+8      	; 0x47f6 <__udivmodsi4_ep>
    47ee:	a2 1b       	sub	r26, r18
    47f0:	b3 0b       	sbc	r27, r19
    47f2:	e4 0b       	sbc	r30, r20
    47f4:	f5 0b       	sbc	r31, r21

000047f6 <__udivmodsi4_ep>:
    47f6:	66 1f       	adc	r22, r22
    47f8:	77 1f       	adc	r23, r23
    47fa:	88 1f       	adc	r24, r24
    47fc:	99 1f       	adc	r25, r25
    47fe:	1a 94       	dec	r1
    4800:	69 f7       	brne	.-38     	; 0x47dc <__udivmodsi4_loop>
    4802:	60 95       	com	r22
    4804:	70 95       	com	r23
    4806:	80 95       	com	r24
    4808:	90 95       	com	r25
    480a:	9b 01       	movw	r18, r22
    480c:	ac 01       	movw	r20, r24
    480e:	bd 01       	movw	r22, r26
    4810:	cf 01       	movw	r24, r30
    4812:	08 95       	ret

00004814 <__divmodsi4>:
    4814:	05 2e       	mov	r0, r21
    4816:	97 fb       	bst	r25, 7
    4818:	1e f4       	brtc	.+6      	; 0x4820 <__divmodsi4+0xc>
    481a:	00 94       	com	r0
    481c:	0e 94 21 24 	call	0x4842	; 0x4842 <__negsi2>
    4820:	57 fd       	sbrc	r21, 7
    4822:	07 d0       	rcall	.+14     	; 0x4832 <__divmodsi4_neg2>
    4824:	0e 94 e8 23 	call	0x47d0	; 0x47d0 <__udivmodsi4>
    4828:	07 fc       	sbrc	r0, 7
    482a:	03 d0       	rcall	.+6      	; 0x4832 <__divmodsi4_neg2>
    482c:	4e f4       	brtc	.+18     	; 0x4840 <__divmodsi4_exit>
    482e:	0c 94 21 24 	jmp	0x4842	; 0x4842 <__negsi2>

00004832 <__divmodsi4_neg2>:
    4832:	50 95       	com	r21
    4834:	40 95       	com	r20
    4836:	30 95       	com	r19
    4838:	21 95       	neg	r18
    483a:	3f 4f       	sbci	r19, 0xFF	; 255
    483c:	4f 4f       	sbci	r20, 0xFF	; 255
    483e:	5f 4f       	sbci	r21, 0xFF	; 255

00004840 <__divmodsi4_exit>:
    4840:	08 95       	ret

00004842 <__negsi2>:
    4842:	90 95       	com	r25
    4844:	80 95       	com	r24
    4846:	70 95       	com	r23
    4848:	61 95       	neg	r22
    484a:	7f 4f       	sbci	r23, 0xFF	; 255
    484c:	8f 4f       	sbci	r24, 0xFF	; 255
    484e:	9f 4f       	sbci	r25, 0xFF	; 255
    4850:	08 95       	ret

00004852 <__umulhisi3>:
    4852:	a2 9f       	mul	r26, r18
    4854:	b0 01       	movw	r22, r0
    4856:	b3 9f       	mul	r27, r19
    4858:	c0 01       	movw	r24, r0
    485a:	a3 9f       	mul	r26, r19
    485c:	70 0d       	add	r23, r0
    485e:	81 1d       	adc	r24, r1
    4860:	11 24       	eor	r1, r1
    4862:	91 1d       	adc	r25, r1
    4864:	b2 9f       	mul	r27, r18
    4866:	70 0d       	add	r23, r0
    4868:	81 1d       	adc	r24, r1
    486a:	11 24       	eor	r1, r1
    486c:	91 1d       	adc	r25, r1
    486e:	08 95       	ret

00004870 <__muluhisi3>:
    4870:	0e 94 29 24 	call	0x4852	; 0x4852 <__umulhisi3>
    4874:	a5 9f       	mul	r26, r21
    4876:	90 0d       	add	r25, r0
    4878:	b4 9f       	mul	r27, r20
    487a:	90 0d       	add	r25, r0
    487c:	a4 9f       	mul	r26, r20
    487e:	80 0d       	add	r24, r0
    4880:	91 1d       	adc	r25, r1
    4882:	11 24       	eor	r1, r1
    4884:	08 95       	ret

00004886 <do_rand>:
    4886:	8f 92       	push	r8
    4888:	9f 92       	push	r9
    488a:	af 92       	push	r10
    488c:	bf 92       	push	r11
    488e:	cf 92       	push	r12
    4890:	df 92       	push	r13
    4892:	ef 92       	push	r14
    4894:	ff 92       	push	r15
    4896:	cf 93       	push	r28
    4898:	df 93       	push	r29
    489a:	ec 01       	movw	r28, r24
    489c:	68 81       	ld	r22, Y
    489e:	79 81       	ldd	r23, Y+1	; 0x01
    48a0:	8a 81       	ldd	r24, Y+2	; 0x02
    48a2:	9b 81       	ldd	r25, Y+3	; 0x03
    48a4:	61 15       	cp	r22, r1
    48a6:	71 05       	cpc	r23, r1
    48a8:	81 05       	cpc	r24, r1
    48aa:	91 05       	cpc	r25, r1
    48ac:	21 f4       	brne	.+8      	; 0x48b6 <do_rand+0x30>
    48ae:	64 e2       	ldi	r22, 0x24	; 36
    48b0:	79 ed       	ldi	r23, 0xD9	; 217
    48b2:	8b e5       	ldi	r24, 0x5B	; 91
    48b4:	97 e0       	ldi	r25, 0x07	; 7
    48b6:	2d e1       	ldi	r18, 0x1D	; 29
    48b8:	33 ef       	ldi	r19, 0xF3	; 243
    48ba:	41 e0       	ldi	r20, 0x01	; 1
    48bc:	50 e0       	ldi	r21, 0x00	; 0
    48be:	0e 94 0a 24 	call	0x4814	; 0x4814 <__divmodsi4>
    48c2:	49 01       	movw	r8, r18
    48c4:	5a 01       	movw	r10, r20
    48c6:	9b 01       	movw	r18, r22
    48c8:	ac 01       	movw	r20, r24
    48ca:	a7 ea       	ldi	r26, 0xA7	; 167
    48cc:	b1 e4       	ldi	r27, 0x41	; 65
    48ce:	0e 94 38 24 	call	0x4870	; 0x4870 <__muluhisi3>
    48d2:	6b 01       	movw	r12, r22
    48d4:	7c 01       	movw	r14, r24
    48d6:	ac ee       	ldi	r26, 0xEC	; 236
    48d8:	b4 ef       	ldi	r27, 0xF4	; 244
    48da:	a5 01       	movw	r20, r10
    48dc:	94 01       	movw	r18, r8
    48de:	0e 94 ef 24 	call	0x49de	; 0x49de <__mulohisi3>
    48e2:	c6 0e       	add	r12, r22
    48e4:	d7 1e       	adc	r13, r23
    48e6:	e8 1e       	adc	r14, r24
    48e8:	f9 1e       	adc	r15, r25
    48ea:	f7 fe       	sbrs	r15, 7
    48ec:	06 c0       	rjmp	.+12     	; 0x48fa <do_rand+0x74>
    48ee:	81 e0       	ldi	r24, 0x01	; 1
    48f0:	c8 1a       	sub	r12, r24
    48f2:	d1 08       	sbc	r13, r1
    48f4:	e1 08       	sbc	r14, r1
    48f6:	80 e8       	ldi	r24, 0x80	; 128
    48f8:	f8 0a       	sbc	r15, r24
    48fa:	c8 82       	st	Y, r12
    48fc:	d9 82       	std	Y+1, r13	; 0x01
    48fe:	ea 82       	std	Y+2, r14	; 0x02
    4900:	fb 82       	std	Y+3, r15	; 0x03
    4902:	c6 01       	movw	r24, r12
    4904:	9f 77       	andi	r25, 0x7F	; 127
    4906:	df 91       	pop	r29
    4908:	cf 91       	pop	r28
    490a:	ff 90       	pop	r15
    490c:	ef 90       	pop	r14
    490e:	df 90       	pop	r13
    4910:	cf 90       	pop	r12
    4912:	bf 90       	pop	r11
    4914:	af 90       	pop	r10
    4916:	9f 90       	pop	r9
    4918:	8f 90       	pop	r8
    491a:	08 95       	ret

0000491c <rand_r>:
    491c:	0e 94 43 24 	call	0x4886	; 0x4886 <do_rand>
    4920:	08 95       	ret

00004922 <rand>:
    4922:	80 e0       	ldi	r24, 0x00	; 0
    4924:	91 e0       	ldi	r25, 0x01	; 1
    4926:	0e 94 43 24 	call	0x4886	; 0x4886 <do_rand>
    492a:	08 95       	ret

0000492c <srand>:
    492c:	a0 e0       	ldi	r26, 0x00	; 0
    492e:	b0 e0       	ldi	r27, 0x00	; 0
    4930:	80 93 00 01 	sts	0x0100, r24
    4934:	90 93 01 01 	sts	0x0101, r25
    4938:	a0 93 02 01 	sts	0x0102, r26
    493c:	b0 93 03 01 	sts	0x0103, r27
    4940:	08 95       	ret

00004942 <memmove>:
    4942:	68 17       	cp	r22, r24
    4944:	79 07       	cpc	r23, r25
    4946:	68 f4       	brcc	.+26     	; 0x4962 <memmove+0x20>
    4948:	fb 01       	movw	r30, r22
    494a:	dc 01       	movw	r26, r24
    494c:	e4 0f       	add	r30, r20
    494e:	f5 1f       	adc	r31, r21
    4950:	a4 0f       	add	r26, r20
    4952:	b5 1f       	adc	r27, r21
    4954:	02 c0       	rjmp	.+4      	; 0x495a <memmove+0x18>
    4956:	02 90       	ld	r0, -Z
    4958:	0e 92       	st	-X, r0
    495a:	41 50       	subi	r20, 0x01	; 1
    495c:	50 40       	sbci	r21, 0x00	; 0
    495e:	d8 f7       	brcc	.-10     	; 0x4956 <memmove+0x14>
    4960:	08 95       	ret
    4962:	0c 94 e3 24 	jmp	0x49c6	; 0x49c6 <memcpy>

00004966 <memset>:
    4966:	dc 01       	movw	r26, r24
    4968:	01 c0       	rjmp	.+2      	; 0x496c <memset+0x6>
    496a:	6d 93       	st	X+, r22
    496c:	41 50       	subi	r20, 0x01	; 1
    496e:	50 40       	sbci	r21, 0x00	; 0
    4970:	e0 f7       	brcc	.-8      	; 0x496a <memset+0x4>
    4972:	08 95       	ret

00004974 <strchr>:
    4974:	fc 01       	movw	r30, r24
    4976:	81 91       	ld	r24, Z+
    4978:	86 17       	cp	r24, r22
    497a:	21 f0       	breq	.+8      	; 0x4984 <strchr+0x10>
    497c:	88 23       	and	r24, r24
    497e:	d9 f7       	brne	.-10     	; 0x4976 <strchr+0x2>
    4980:	99 27       	eor	r25, r25
    4982:	08 95       	ret
    4984:	31 97       	sbiw	r30, 0x01	; 1
    4986:	cf 01       	movw	r24, r30
    4988:	08 95       	ret

0000498a <strcmp>:
    498a:	fb 01       	movw	r30, r22
    498c:	dc 01       	movw	r26, r24
    498e:	8d 91       	ld	r24, X+
    4990:	01 90       	ld	r0, Z+
    4992:	80 19       	sub	r24, r0
    4994:	01 10       	cpse	r0, r1
    4996:	d9 f3       	breq	.-10     	; 0x498e <strcmp+0x4>
    4998:	99 0b       	sbc	r25, r25
    499a:	08 95       	ret

0000499c <strcpy>:
    499c:	fb 01       	movw	r30, r22
    499e:	dc 01       	movw	r26, r24
    49a0:	01 90       	ld	r0, Z+
    49a2:	0d 92       	st	X+, r0
    49a4:	00 20       	and	r0, r0
    49a6:	e1 f7       	brne	.-8      	; 0x49a0 <strcpy+0x4>
    49a8:	08 95       	ret

000049aa <strncmp>:
    49aa:	fb 01       	movw	r30, r22
    49ac:	dc 01       	movw	r26, r24
    49ae:	41 50       	subi	r20, 0x01	; 1
    49b0:	50 40       	sbci	r21, 0x00	; 0
    49b2:	30 f0       	brcs	.+12     	; 0x49c0 <strncmp+0x16>
    49b4:	8d 91       	ld	r24, X+
    49b6:	01 90       	ld	r0, Z+
    49b8:	80 19       	sub	r24, r0
    49ba:	19 f4       	brne	.+6      	; 0x49c2 <strncmp+0x18>
    49bc:	00 20       	and	r0, r0
    49be:	b9 f7       	brne	.-18     	; 0x49ae <strncmp+0x4>
    49c0:	88 1b       	sub	r24, r24
    49c2:	99 0b       	sbc	r25, r25
    49c4:	08 95       	ret

000049c6 <memcpy>:
    49c6:	fb 01       	movw	r30, r22
    49c8:	dc 01       	movw	r26, r24
    49ca:	02 c0       	rjmp	.+4      	; 0x49d0 <memcpy+0xa>
    49cc:	01 90       	ld	r0, Z+
    49ce:	0d 92       	st	X+, r0
    49d0:	41 50       	subi	r20, 0x01	; 1
    49d2:	50 40       	sbci	r21, 0x00	; 0
    49d4:	d8 f7       	brcc	.-10     	; 0x49cc <memcpy+0x6>
    49d6:	08 95       	ret

000049d8 <__mulshisi3>:
    49d8:	b7 ff       	sbrs	r27, 7
    49da:	0c 94 38 24 	jmp	0x4870	; 0x4870 <__muluhisi3>

000049de <__mulohisi3>:
    49de:	0e 94 38 24 	call	0x4870	; 0x4870 <__muluhisi3>
    49e2:	82 1b       	sub	r24, r18
    49e4:	93 0b       	sbc	r25, r19
    49e6:	08 95       	ret

000049e8 <_exit>:
    49e8:	f8 94       	cli

000049ea <__stop_program>:
    49ea:	ff cf       	rjmp	.-2      	; 0x49ea <__stop_program>
