
CHIPCON.elf:     file format elf32-avr

Sections:
Idx Name          Size      VMA       LMA       File off  Algn
  0 .data         00000008  00800100  00007a6e  00007b02  2**0
                  CONTENTS, ALLOC, LOAD, DATA
  1 .text         00007a6e  00000000  00000000  00000094  2**1
                  CONTENTS, ALLOC, LOAD, READONLY, CODE
  2 .bss          00000741  00800108  00800108  00007b0a  2**0
                  ALLOC
  3 .comment      00000030  00000000  00000000  00007b0a  2**0
                  CONTENTS, READONLY

Disassembly of section .text:

00000000 <__vectors>:
       0:	0c 94 e4 22 	jmp	0x45c8	; 0x45c8 <__ctors_end>
       4:	0c 94 01 23 	jmp	0x4602	; 0x4602 <__bad_interrupt>
       8:	0c 94 01 23 	jmp	0x4602	; 0x4602 <__bad_interrupt>
       c:	0c 94 01 23 	jmp	0x4602	; 0x4602 <__bad_interrupt>
      10:	0c 94 01 23 	jmp	0x4602	; 0x4602 <__bad_interrupt>
      14:	0c 94 01 23 	jmp	0x4602	; 0x4602 <__bad_interrupt>
      18:	0c 94 01 23 	jmp	0x4602	; 0x4602 <__bad_interrupt>
      1c:	0c 94 01 23 	jmp	0x4602	; 0x4602 <__bad_interrupt>
      20:	0c 94 01 23 	jmp	0x4602	; 0x4602 <__bad_interrupt>
      24:	0c 94 01 23 	jmp	0x4602	; 0x4602 <__bad_interrupt>
      28:	0c 94 01 23 	jmp	0x4602	; 0x4602 <__bad_interrupt>
      2c:	0c 94 01 23 	jmp	0x4602	; 0x4602 <__bad_interrupt>
      30:	0c 94 4a 3b 	jmp	0x7694	; 0x7694 <__vector_12>
      34:	0c 94 01 23 	jmp	0x4602	; 0x4602 <__bad_interrupt>
      38:	0c 94 01 23 	jmp	0x4602	; 0x4602 <__bad_interrupt>
      3c:	0c 94 01 23 	jmp	0x4602	; 0x4602 <__bad_interrupt>
      40:	0c 94 01 23 	jmp	0x4602	; 0x4602 <__bad_interrupt>
      44:	0c 94 01 23 	jmp	0x4602	; 0x4602 <__bad_interrupt>
      48:	0c 94 01 23 	jmp	0x4602	; 0x4602 <__bad_interrupt>
      4c:	0c 94 01 23 	jmp	0x4602	; 0x4602 <__bad_interrupt>
      50:	0c 94 01 23 	jmp	0x4602	; 0x4602 <__bad_interrupt>
      54:	0c 94 01 23 	jmp	0x4602	; 0x4602 <__bad_interrupt>
      58:	0c 94 01 23 	jmp	0x4602	; 0x4602 <__bad_interrupt>
      5c:	0c 94 01 23 	jmp	0x4602	; 0x4602 <__bad_interrupt>
      60:	0c 94 01 23 	jmp	0x4602	; 0x4602 <__bad_interrupt>
      64:	0c 94 01 23 	jmp	0x4602	; 0x4602 <__bad_interrupt>
      68:	cf 29       	or	r28, r15
      6a:	db 29       	or	r29, r11
      6c:	e7 29       	or	r30, r7
      6e:	f3 29       	or	r31, r3
      70:	ff 29       	or	r31, r15
      72:	95 29       	or	r25, r5
      74:	c3 29       	or	r28, r3

00000076 <__trampolines_end>:
      76:	12 1a       	sub	r1, r18
      78:	32 2e       	mov	r3, r18
      7a:	30 30       	cpi	r19, 0x00	; 0
      7c:	20 43       	sbci	r18, 0x30	; 48
      7e:	2e 20       	and	r2, r14
      80:	45 67       	ori	r20, 0x75	; 117
      82:	65 62       	ori	r22, 0x25	; 37
      84:	65 72       	andi	r22, 0x25	; 37
      86:	67 20       	and	r6, r7
      88:	31 38       	cpi	r19, 0x81	; 129
      8a:	2f 38       	cpi	r18, 0x8F	; 143
      8c:	2d 27       	eor	r18, r29
      8e:	39 31       	cpi	r19, 0x19	; 25
      90:	00 ff       	sbrs	r16, 0
      92:	80 03       	fmuls	r16, r16
      94:	81 13       	cpse	r24, r17
      96:	a8 e2       	ldi	r26, 0x28	; 40
      98:	f1 55       	subi	r31, 0x51	; 81
      9a:	60 05       	cpc	r22, r0
      9c:	a8 e6       	ldi	r26, 0x68	; 104
      9e:	f0 55       	subi	r31, 0x50	; 80
      a0:	87 73       	andi	r24, 0x37	; 55
      a2:	86 63       	ori	r24, 0x36	; 54
      a4:	27 86       	std	Z+15, r2	; 0x0f
      a6:	00 e0       	ldi	r16, 0x00	; 0
      a8:	27 a8       	ldd	r2, Z+55	; 0x37
      aa:	6e 40       	sbci	r22, 0x0E	; 14
      ac:	87 e2       	ldi	r24, 0x27	; 39
      ae:	6e 27       	eor	r22, r30
      b0:	87 e1       	ldi	r24, 0x17	; 23
      b2:	68 34       	cpi	r22, 0x48	; 72
      b4:	69 18       	sub	r6, r9
      b6:	6a 70       	andi	r22, 0x0A	; 10
      b8:	6b 00       	.word	0x006b	; ????
      ba:	6c 04       	cpc	r6, r12
      bc:	6d 34       	cpi	r22, 0x4D	; 77
      be:	27 62       	ori	r18, 0x27	; 39
      c0:	a9 28       	or	r10, r9
      c2:	da b8       	out	0x0a, r13	; 10
      c4:	dc d8       	rcall	.-3656   	; 0xfffff27e <__eeprom_end+0xff7ef27e>
      c6:	23 e2       	ldi	r18, 0x23	; 35
      c8:	3e 00       	.word	0x003e	; ????
      ca:	12 7e       	andi	r17, 0xE2	; 226
      cc:	a8 e6       	ldi	r26, 0x68	; 104
      ce:	f0 65       	ori	r31, 0x50	; 80
      d0:	85 00       	.word	0x0085	; ????
      d2:	c4 ff       	sbrs	r28, 4
      d4:	84 52       	subi	r24, 0x24	; 36
      d6:	25 08       	sbc	r2, r5
      d8:	c4 ff       	sbrs	r28, 4
      da:	84 52       	subi	r24, 0x24	; 36
      dc:	26 30       	cpi	r18, 0x06	; 6
      de:	60 01       	movw	r12, r0
      e0:	e0 a1       	ldd	r30, Z+32	; 0x20
      e2:	27 f0       	brie	.+8      	; 0xec <__trampolines_end+0x76>
      e4:	36 f7       	brtc	.-52     	; 0xb2 <__trampolines_end+0x3c>
      e6:	12 50       	subi	r17, 0x02	; 2
      e8:	8e 60       	ori	r24, 0x0E	; 14
      ea:	28 94       	sen
      ec:	6e 64       	ori	r22, 0x4E	; 78
      ee:	28 94       	sen
      f0:	27 f0       	brie	.+8      	; 0xfa <__trampolines_end+0x84>
      f2:	12 2c       	mov	r1, r2
      f4:	f0 07       	cpc	r31, r16
      f6:	40 00       	.word	0x0040	; ????
      f8:	13 22       	and	r1, r19
      fa:	80 80       	ld	r8, Z
      fc:	80 06       	cpc	r8, r16
      fe:	80 06       	cpc	r8, r16
     100:	81 a0       	ldd	r8, Z+33	; 0x21
     102:	81 06       	cpc	r8, r17
     104:	81 06       	cpc	r8, r17
     106:	80 15       	cp	r24, r0
     108:	40 00       	.word	0x0040	; ????
     10a:	12 a0       	ldd	r1, Z+34	; 0x22
     10c:	40 01       	movw	r8, r0
     10e:	12 a0       	ldd	r1, Z+34	; 0x22
     110:	40 ff       	sbrs	r20, 0
     112:	12 a0       	ldd	r1, Z+34	; 0x22
     114:	12 d2       	rcall	.+1060   	; 0x53a <__trampolines_end+0x4c4>
     116:	80 90 80 06 	lds	r8, 0x0680
     11a:	80 06       	cpc	r8, r16
     11c:	81 b0       	in	r8, 0x01	; 1
     11e:	81 06       	cpc	r8, r17
     120:	81 06       	cpc	r8, r17
     122:	80 15       	cp	r24, r0
     124:	40 00       	.word	0x0040	; ????
     126:	12 bc       	out	0x22, r1	; 34
     128:	40 01       	movw	r8, r0
     12a:	12 bc       	out	0x22, r1	; 34
     12c:	40 ff       	sbrs	r20, 0
     12e:	12 bc       	out	0x22, r1	; 34
     130:	12 d2       	rcall	.+1060   	; 0x556 <__trampolines_end+0x4e0>
     132:	a9 28       	or	r10, r9
     134:	da b8       	out	0x0a, r13	; 10
     136:	6a 70       	andi	r22, 0x0A	; 10
     138:	6b 00       	.word	0x006b	; ????
     13a:	da b8       	out	0x0a, r13	; 10
     13c:	6e f3       	brts	.-38     	; 0x118 <__trampolines_end+0xa2>
     13e:	87 e2       	ldi	r24, 0x27	; 39
     140:	6e 04       	cpc	r6, r14
     142:	87 e1       	ldi	r24, 0x17	; 23
     144:	6e 32       	cpi	r22, 0x2E	; 46
     146:	28 94       	sen
     148:	80 80       	ld	r8, Z
     14a:	80 06       	cpc	r8, r16
     14c:	80 06       	cpc	r8, r16
     14e:	81 c0       	rjmp	.+258    	; 0x252 <__trampolines_end+0x1dc>
     150:	81 06       	cpc	r8, r17
     152:	81 06       	cpc	r8, r17
     154:	80 15       	cp	r24, r0
     156:	40 00       	.word	0x0040	; ????
     158:	12 ee       	ldi	r17, 0xE2	; 226
     15a:	40 01       	movw	r8, r0
     15c:	12 ee       	ldi	r17, 0xE2	; 226
     15e:	40 ff       	sbrs	r20, 0
     160:	12 ee       	ldi	r17, 0xE2	; 226
     162:	12 56       	subi	r17, 0x62	; 98
     164:	80 90 80 06 	lds	r8, 0x0680
     168:	80 06       	cpc	r8, r16
     16a:	81 d0       	rcall	.+258    	; 0x26e <__trampolines_end+0x1f8>
     16c:	81 06       	cpc	r8, r17
     16e:	81 06       	cpc	r8, r17
     170:	80 15       	cp	r24, r0
     172:	40 00       	.word	0x0040	; ????
     174:	13 0a       	sbc	r1, r19
     176:	40 01       	movw	r8, r0
     178:	13 0a       	sbc	r1, r19
     17a:	40 ff       	sbrs	r20, 0
     17c:	13 0a       	sbc	r1, r19
     17e:	12 56       	subi	r17, 0x62	; 98
     180:	a9 28       	or	r10, r9
     182:	dc d8       	rcall	.-3656   	; 0xfffff33c <__eeprom_end+0xff7ef33c>
     184:	6c 04       	cpc	r6, r12
     186:	6d 34       	cpi	r22, 0x4D	; 77
     188:	dc d8       	rcall	.-3656   	; 0xfffff342 <__eeprom_end+0xff7ef342>
     18a:	6e cf       	rjmp	.-292    	; 0x68 <__SREG__+0x29>
     18c:	87 e2       	ldi	r24, 0x27	; 39
     18e:	6e 20       	and	r6, r14
     190:	87 e1       	ldi	r24, 0x17	; 23
     192:	6e 19       	sub	r22, r14
     194:	28 94       	sen
     196:	12 56       	subi	r17, 0x62	; 98
     198:	60 3f       	cpi	r22, 0xF0	; 240
     19a:	28 c2       	rjmp	.+1104   	; 0x5ec <__trampolines_end+0x576>
     19c:	27 62       	ori	r18, 0x27	; 39
     19e:	a9 28       	or	r10, r9
     1a0:	da b8       	out	0x0a, r13	; 10
     1a2:	dc d8       	rcall	.-3656   	; 0xfffff35c <__eeprom_end+0xff7ef35c>
     1a4:	6e 40       	sbci	r22, 0x0E	; 14
     1a6:	87 e3       	ldi	r24, 0x37	; 55
     1a8:	80 70       	andi	r24, 0x00	; 0
     1aa:	80 e2       	ldi	r24, 0x20	; 32
     1ac:	30 00       	.word	0x0030	; ????
     1ae:	12 34       	cpi	r17, 0x42	; 66
     1b0:	8e 60       	ori	r24, 0x0E	; 14
     1b2:	28 94       	sen
     1b4:	28 a4       	ldd	r2, Y+40	; 0x28
     1b6:	00 e0       	ldi	r16, 0x00	; 0
     1b8:	66 24       	eor	r6, r6
     1ba:	67 14       	cp	r6, r7
     1bc:	a8 e4       	ldi	r26, 0x48	; 72
     1be:	28 00       	.word	0x0028	; ????
     1c0:	66 24       	eor	r6, r6
     1c2:	67 20       	and	r6, r7
     1c4:	a8 e2       	ldi	r26, 0x28	; 40
     1c6:	28 00       	.word	0x0028	; ????
     1c8:	64 00       	.word	0x0064	; ????
     1ca:	65 10       	cpse	r6, r5
     1cc:	66 01       	movw	r12, r12
     1ce:	67 0f       	add	r22, r23
     1d0:	ab 80       	ldd	r10, Y+3	; 0x03
     1d2:	d4 60       	ori	r29, 0x04	; 4
     1d4:	ab a0       	ldd	r10, Y+35	; 0x23
     1d6:	d5 60       	ori	r29, 0x05	; 5
     1d8:	60 03       	mulsu	r22, r16
     1da:	28 c2       	rjmp	.+1104   	; 0x62c <__trampolines_end+0x5b6>
     1dc:	3e 00       	.word	0x003e	; ????
     1de:	13 d8       	rcall	.-4058   	; 0xfffff206 <__eeprom_end+0xff7ef206>
     1e0:	ab 80       	ldd	r10, Y+3	; 0x03
     1e2:	d4 60       	ori	r29, 0x04	; 4
     1e4:	ab a0       	ldd	r10, Y+35	; 0x23
     1e6:	d5 60       	ori	r29, 0x05	; 5
     1e8:	74 04       	cpc	r7, r4
     1ea:	75 04       	cpc	r7, r5
     1ec:	34 60       	ori	r19, 0x04	; 4
     1ee:	13 5a       	subi	r17, 0xA3	; 163
     1f0:	ab 80       	ldd	r10, Y+3	; 0x03
     1f2:	d4 60       	ori	r29, 0x04	; 4
     1f4:	ab a0       	ldd	r10, Y+35	; 0x23
     1f6:	d5 60       	ori	r29, 0x05	; 5
     1f8:	60 03       	mulsu	r22, r16
     1fa:	28 c2       	rjmp	.+1104   	; 0x64c <__trampolines_end+0x5d6>
     1fc:	3e 00       	.word	0x003e	; ????
     1fe:	13 d8       	rcall	.-4058   	; 0xfffff226 <__eeprom_end+0xff7ef226>
     200:	ab 80       	ldd	r10, Y+3	; 0x03
     202:	d4 60       	ori	r29, 0x04	; 4
     204:	ab a0       	ldd	r10, Y+35	; 0x23
     206:	d5 60       	ori	r29, 0x05	; 5
     208:	76 04       	cpc	r7, r6
     20a:	36 2d       	mov	r19, r6
     20c:	13 7a       	andi	r17, 0xA3	; 163
     20e:	ab 80       	ldd	r10, Y+3	; 0x03
     210:	d4 60       	ori	r29, 0x04	; 4
     212:	ab a0       	ldd	r10, Y+35	; 0x23
     214:	d5 60       	ori	r29, 0x05	; 5
     216:	60 03       	mulsu	r22, r16
     218:	28 c2       	rjmp	.+1104   	; 0x66a <__trampolines_end+0x5f4>
     21a:	3e 00       	.word	0x003e	; ????
     21c:	13 d8       	rcall	.-4058   	; 0xfffff244 <__eeprom_end+0xff7ef244>
     21e:	ab 80       	ldd	r10, Y+3	; 0x03
     220:	d4 60       	ori	r29, 0x04	; 4
     222:	ab a0       	ldd	r10, Y+35	; 0x23
     224:	d5 60       	ori	r29, 0x05	; 5
     226:	74 fc       	sbrc	r7, 4
     228:	75 fc       	sbrc	r7, 5
     22a:	34 00       	.word	0x0034	; ????
     22c:	13 98       	cbi	0x02, 3	; 2
     22e:	ab 80       	ldd	r10, Y+3	; 0x03
     230:	d4 60       	ori	r29, 0x04	; 4
     232:	ab a0       	ldd	r10, Y+35	; 0x23
     234:	d5 60       	ori	r29, 0x05	; 5
     236:	60 03       	mulsu	r22, r16
     238:	28 c2       	rjmp	.+1104   	; 0x68a <__trampolines_end+0x614>
     23a:	3e 00       	.word	0x003e	; ????
     23c:	13 d8       	rcall	.-4058   	; 0xfffff264 <__eeprom_end+0xff7ef264>
     23e:	ab 80       	ldd	r10, Y+3	; 0x03
     240:	d4 60       	ori	r29, 0x04	; 4
     242:	ab a0       	ldd	r10, Y+35	; 0x23
     244:	d5 60       	ori	r29, 0x05	; 5
     246:	76 fc       	sbrc	r7, 6
     248:	36 01       	movw	r6, r12
     24a:	13 b8       	out	0x03, r1	; 3
     24c:	13 5a       	subi	r17, 0xA3	; 163
     24e:	ab a0       	ldd	r10, Y+35	; 0x23
     250:	d5 60       	ori	r29, 0x05	; 5
     252:	ab c0       	rjmp	.+342    	; 0x3aa <__trampolines_end+0x334>
     254:	d5 60       	ori	r29, 0x05	; 5
     256:	12 1a       	sub	r1, r18
     258:	83 70       	andi	r24, 0x03	; 3
     25a:	6e 03       	fmul	r22, r22
     25c:	83 e2       	ldi	r24, 0x23	; 35
     25e:	84 80       	ldd	r8, Z+4	; 0x04
     260:	85 90       	lpm	r8, Z+
     262:	6e 06       	cpc	r6, r30
     264:	ee a1       	ldd	r30, Y+38	; 0x26
     266:	14 44       	sbci	r17, 0x44	; 68
     268:	6e 03       	fmul	r22, r22
     26a:	ee a1       	ldd	r30, Y+38	; 0x26
     26c:	14 5c       	subi	r17, 0xC4	; 196
     26e:	6e 08       	sbc	r6, r14
     270:	ee a1       	ldd	r30, Y+38	; 0x26
     272:	14 74       	andi	r17, 0x44	; 68
     274:	6e 07       	cpc	r22, r30
     276:	ee a1       	ldd	r30, Y+38	; 0x26
     278:	14 8c       	ldd	r1, Z+28	; 0x1c
     27a:	43 03       	mulsu	r20, r19
     27c:	75 04       	cpc	r7, r5
     27e:	43 00       	.word	0x0043	; ????
     280:	75 fc       	sbrc	r7, 5
     282:	43 02       	muls	r20, r19
     284:	74 04       	cpc	r7, r4
     286:	43 01       	movw	r8, r6
     288:	74 fc       	sbrc	r7, 4
     28a:	80 40       	sbci	r24, 0x00	; 0
     28c:	81 50       	subi	r24, 0x01	; 1
     28e:	27 d0       	rcall	.+78     	; 0x2de <__trampolines_end+0x268>
     290:	82 00       	.word	0x0082	; ????
     292:	6e 08       	sbc	r6, r14
     294:	80 e2       	ldi	r24, 0x20	; 32
     296:	30 00       	.word	0x0030	; ????
     298:	14 a4       	ldd	r1, Z+44	; 0x2c
     29a:	6e 07       	cpc	r22, r30
     29c:	80 20       	and	r8, r0
     29e:	82 e2       	ldi	r24, 0x22	; 34
     2a0:	42 05       	cpc	r20, r2
     2a2:	14 ac       	ldd	r1, Z+60	; 0x3c
     2a4:	42 06       	cpc	r4, r18
     2a6:	14 c4       	rjmp	.+2088   	; 0xad0 <__c.2477+0x2>
     2a8:	42 07       	cpc	r20, r18
     2aa:	14 fe       	sbrs	r1, 4
     2ac:	27 62       	ori	r18, 0x27	; 39
     2ae:	6e fc       	.word	0xfc6e	; ????
     2b0:	87 e2       	ldi	r24, 0x27	; 39
     2b2:	87 31       	cpi	r24, 0x17	; 23
     2b4:	88 40       	sbci	r24, 0x08	; 8
     2b6:	89 50       	subi	r24, 0x09	; 9
     2b8:	17 62       	ori	r17, 0x27	; 39
     2ba:	80 40       	sbci	r24, 0x00	; 0
     2bc:	81 50       	subi	r24, 0x01	; 1
     2be:	71 04       	cpc	r7, r1
     2c0:	27 d0       	rcall	.+78     	; 0x310 <__trampolines_end+0x29a>
     2c2:	82 00       	.word	0x0082	; ????
     2c4:	6e 08       	sbc	r6, r14
     2c6:	80 e2       	ldi	r24, 0x20	; 32
     2c8:	30 00       	.word	0x0030	; ????
     2ca:	14 04       	cpc	r1, r4
     2cc:	63 03       	mulsu	r22, r19
     2ce:	75 04       	cpc	r7, r5
     2d0:	14 20       	and	r1, r4
     2d2:	80 40       	sbci	r24, 0x00	; 0
     2d4:	81 50       	subi	r24, 0x01	; 1
     2d6:	71 fc       	sbrc	r7, 1
     2d8:	27 d0       	rcall	.+78     	; 0x328 <__trampolines_end+0x2b2>
     2da:	82 00       	.word	0x0082	; ????
     2dc:	6e 08       	sbc	r6, r14
     2de:	80 e2       	ldi	r24, 0x20	; 32
     2e0:	30 00       	.word	0x0030	; ????
     2e2:	14 04       	cpc	r1, r4
     2e4:	63 00       	.word	0x0063	; ????
     2e6:	75 fc       	sbrc	r7, 5
     2e8:	14 20       	and	r1, r4
     2ea:	80 40       	sbci	r24, 0x00	; 0
     2ec:	81 50       	subi	r24, 0x01	; 1
     2ee:	70 04       	cpc	r7, r0
     2f0:	27 d0       	rcall	.+78     	; 0x340 <__trampolines_end+0x2ca>
     2f2:	82 00       	.word	0x0082	; ????
     2f4:	6e 08       	sbc	r6, r14
     2f6:	80 e2       	ldi	r24, 0x20	; 32
     2f8:	30 00       	.word	0x0030	; ????
     2fa:	14 04       	cpc	r1, r4
     2fc:	63 02       	muls	r22, r19
     2fe:	74 04       	cpc	r7, r4
     300:	14 20       	and	r1, r4
     302:	80 40       	sbci	r24, 0x00	; 0
     304:	81 50       	subi	r24, 0x01	; 1
     306:	70 fc       	sbrc	r7, 0
     308:	27 d0       	rcall	.+78     	; 0x358 <__trampolines_end+0x2e2>
     30a:	82 00       	.word	0x0082	; ????
     30c:	6e 08       	sbc	r6, r14
     30e:	80 e2       	ldi	r24, 0x20	; 32
     310:	30 00       	.word	0x0030	; ????
     312:	14 04       	cpc	r1, r4
     314:	63 01       	movw	r12, r6
     316:	74 fc       	sbrc	r7, 4
     318:	14 20       	and	r1, r4
     31a:	27 62       	ori	r18, 0x27	; 39
     31c:	d8 98       	cbi	0x1b, 0	; 27
     31e:	8e f0       	brts	.+34     	; 0x342 <__trampolines_end+0x2cc>
     320:	00 ee       	ldi	r16, 0xE0	; 224
     322:	6e f0       	brts	.+26     	; 0x33e <__trampolines_end+0x2c8>
     324:	80 e2       	ldi	r24, 0x20	; 32
     326:	80 31       	cpi	r24, 0x10	; 16
     328:	f0 55       	subi	r31, 0x50	; 80
     32a:	a9 30       	cpi	r26, 0x09	; 9
     32c:	d4 58       	subi	r29, 0x84	; 132
     32e:	76 01       	movw	r14, r12
     330:	61 05       	cpc	r22, r1
     332:	f0 07       	cpc	r31, r16
     334:	40 00       	.word	0x0040	; ????
     336:	f1 18       	sub	r15, r1
     338:	14 36       	cpi	r17, 0x64	; 100
     33a:	6e f0       	brts	.+26     	; 0x356 <__trampolines_end+0x2e0>
     33c:	80 e2       	ldi	r24, 0x20	; 32
     33e:	80 31       	cpi	r24, 0x10	; 16
     340:	f0 55       	subi	r31, 0x50	; 80
     342:	a9 38       	cpi	r26, 0x89	; 137
     344:	d4 58       	subi	r29, 0x84	; 132
     346:	76 04       	cpc	r7, r6
     348:	80 a0       	ldd	r8, Z+32	; 0x20
     34a:	81 b0       	in	r8, 0x01	; 1
     34c:	27 d0       	rcall	.+78     	; 0x39c <__trampolines_end+0x326>
     34e:	6e f0       	brts	.+26     	; 0x36a <__trampolines_end+0x2f4>
     350:	80 e2       	ldi	r24, 0x20	; 32
     352:	30 00       	.word	0x0030	; ????
     354:	14 e4       	ldi	r17, 0x44	; 68
     356:	6e 0c       	add	r6, r14
     358:	87 e3       	ldi	r24, 0x37	; 55
     35a:	80 c0       	rjmp	.+256    	; 0x45c <__trampolines_end+0x3e6>
     35c:	81 d0       	rcall	.+258    	; 0x460 <__trampolines_end+0x3ea>
     35e:	27 d0       	rcall	.+78     	; 0x3ae <__trampolines_end+0x338>
     360:	6e f0       	brts	.+26     	; 0x37c <__trampolines_end+0x306>
     362:	80 e2       	ldi	r24, 0x20	; 32
     364:	30 00       	.word	0x0030	; ????
     366:	14 f6       	brge	.-124    	; 0x2ec <__trampolines_end+0x276>
     368:	6e 30       	cpi	r22, 0x0E	; 14
     36a:	87 e3       	ldi	r24, 0x37	; 55
     36c:	60 ff       	sbrs	r22, 0
     36e:	f0 18       	sub	r15, r0
     370:	f0 15       	cp	r31, r0
     372:	14 36       	cpi	r17, 0x64	; 100
     374:	43 01       	movw	r8, r6
     376:	64 74       	andi	r22, 0x44	; 68
     378:	43 02       	muls	r20, r19
     37a:	64 00       	.word	0x0064	; ????
     37c:	14 36       	cpi	r17, 0x64	; 100
     37e:	82 70       	andi	r24, 0x02	; 2
     380:	83 70       	andi	r24, 0x03	; 3
     382:	6e 0c       	add	r6, r14
     384:	82 e2       	ldi	r24, 0x22	; 34
     386:	80 a0       	ldd	r8, Z+32	; 0x20
     388:	81 b0       	in	r8, 0x01	; 1
     38a:	27 d0       	rcall	.+78     	; 0x3da <__trampolines_end+0x364>
     38c:	a9 28       	or	r10, r9
     38e:	6e f0       	brts	.+26     	; 0x3aa <__trampolines_end+0x334>
     390:	80 e2       	ldi	r24, 0x20	; 32
     392:	30 00       	.word	0x0030	; ????
     394:	15 36       	cpi	r17, 0x65	; 101
     396:	da b8       	out	0x0a, r13	; 10
     398:	42 0c       	add	r4, r2
     39a:	7b 04       	cpc	r7, r11
     39c:	42 00       	.word	0x0042	; ????
     39e:	7b fc       	.word	0xfc7b	; ????
     3a0:	42 08       	sbc	r4, r2
     3a2:	7a 04       	cpc	r7, r10
     3a4:	42 04       	cpc	r4, r2
     3a6:	7a fc       	.word	0xfc7a	; ????
     3a8:	da b8       	out	0x0a, r13	; 10
     3aa:	00 ee       	ldi	r16, 0xE0	; 224
     3ac:	6e 80       	ldd	r6, Y+6	; 0x06
     3ae:	f1 07       	cpc	r31, r17
     3b0:	31 00       	.word	0x0031	; ????
     3b2:	15 e6       	ldi	r17, 0x65	; 101
     3b4:	34 00       	.word	0x0034	; ????
     3b6:	15 e6       	ldi	r17, 0x65	; 101
     3b8:	81 00       	.word	0x0081	; ????
     3ba:	83 0e       	add	r8, r19
     3bc:	3f 00       	.word	0x003f	; ????
     3be:	15 68       	ori	r17, 0x85	; 133
     3c0:	83 90       	.word	0x9083	; ????
     3c2:	83 b5       	in	r24, 0x23	; 35
     3c4:	4f 00       	.word	0x004f	; ????
     3c6:	15 9e       	mul	r1, r21
     3c8:	33 00       	.word	0x0033	; ????
     3ca:	15 86       	std	Z+13, r1	; 0x0d
     3cc:	87 e3       	ldi	r24, 0x37	; 55
     3ce:	83 80       	ldd	r8, Z+3	; 0x03
     3d0:	83 a5       	ldd	r24, Z+43	; 0x2b
     3d2:	4f 00       	.word	0x004f	; ????
     3d4:	15 ce       	rjmp	.-982    	; 0x0 <__vectors>
     3d6:	33 00       	.word	0x0033	; ????
     3d8:	15 b6       	in	r1, 0x35	; 53
     3da:	87 e3       	ldi	r24, 0x37	; 55
     3dc:	15 e6       	ldi	r17, 0x65	; 101
     3de:	83 80       	ldd	r8, Z+3	; 0x03
     3e0:	83 a5       	ldd	r24, Z+43	; 0x2b
     3e2:	4f 00       	.word	0x004f	; ????
     3e4:	15 ce       	rjmp	.-982    	; 0x10 <__zero_reg__+0xf>
     3e6:	33 00       	.word	0x0033	; ????
     3e8:	15 b6       	in	r1, 0x35	; 53
     3ea:	87 e3       	ldi	r24, 0x37	; 55
     3ec:	83 90       	.word	0x9083	; ????
     3ee:	83 b5       	in	r24, 0x23	; 35
     3f0:	4f 00       	.word	0x004f	; ????
     3f2:	15 9e       	mul	r1, r21
     3f4:	33 00       	.word	0x0033	; ????
     3f6:	15 86       	std	Z+13, r1	; 0x0d
     3f8:	87 e3       	ldi	r24, 0x37	; 55
     3fa:	15 e6       	ldi	r17, 0x65	; 101
     3fc:	63 40       	sbci	r22, 0x03	; 3
     3fe:	81 32       	cpi	r24, 0x21	; 33
     400:	41 00       	.word	0x0041	; ????
     402:	15 e6       	ldi	r17, 0x65	; 101
     404:	da b8       	out	0x0a, r13	; 10
     406:	7b 04       	cpc	r7, r11
     408:	da b8       	out	0x0a, r13	; 10
     40a:	6e f3       	brts	.-38     	; 0x3e6 <__trampolines_end+0x370>
     40c:	87 e2       	ldi	r24, 0x27	; 39
     40e:	62 0c       	add	r6, r2
     410:	87 21       	and	r24, r7
     412:	00 ee       	ldi	r16, 0xE0	; 224
     414:	63 10       	cpse	r6, r3
     416:	81 32       	cpi	r24, 0x21	; 33
     418:	41 00       	.word	0x0041	; ????
     41a:	15 e6       	ldi	r17, 0x65	; 101
     41c:	da b8       	out	0x0a, r13	; 10
     41e:	7b fc       	.word	0xfc7b	; ????
     420:	da b8       	out	0x0a, r13	; 10
     422:	6e f3       	brts	.-38     	; 0x3fe <__trampolines_end+0x388>
     424:	87 e2       	ldi	r24, 0x27	; 39
     426:	62 00       	.word	0x0062	; ????
     428:	87 21       	and	r24, r7
     42a:	00 ee       	ldi	r16, 0xE0	; 224
     42c:	63 20       	and	r6, r3
     42e:	81 32       	cpi	r24, 0x21	; 33
     430:	41 00       	.word	0x0041	; ????
     432:	15 e6       	ldi	r17, 0x65	; 101
     434:	da b8       	out	0x0a, r13	; 10
     436:	7a 04       	cpc	r7, r10
     438:	da b8       	out	0x0a, r13	; 10
     43a:	6e f3       	brts	.-38     	; 0x416 <__trampolines_end+0x3a0>
     43c:	87 e2       	ldi	r24, 0x27	; 39
     43e:	62 08       	sbc	r6, r2
     440:	87 21       	and	r24, r7
     442:	00 ee       	ldi	r16, 0xE0	; 224
     444:	63 80       	ldd	r6, Z+3	; 0x03
     446:	81 32       	cpi	r24, 0x21	; 33
     448:	41 00       	.word	0x0041	; ????
     44a:	15 e6       	ldi	r17, 0x65	; 101
     44c:	da b8       	out	0x0a, r13	; 10
     44e:	7a fc       	.word	0xfc7a	; ????
     450:	da b8       	out	0x0a, r13	; 10
     452:	6e f3       	brts	.-38     	; 0x42e <__trampolines_end+0x3b8>
     454:	87 e2       	ldi	r24, 0x27	; 39
     456:	62 04       	cpc	r6, r2
     458:	87 21       	and	r24, r7
     45a:	00 ee       	ldi	r16, 0xE0	; 224
     45c:	c1 f0       	breq	.+48     	; 0x48e <__trampolines_end+0x418>
     45e:	80 12       	cpse	r8, r16
     460:	30 00       	.word	0x0030	; ????
     462:	15 f6       	brhc	.-124    	; 0x3e8 <__trampolines_end+0x372>
     464:	6e 0c       	add	r6, r14
     466:	87 e3       	ldi	r24, 0x37	; 55
     468:	82 e3       	ldi	r24, 0x32	; 50
     46a:	15 20       	and	r1, r5
     46c:	da b8       	out	0x0a, r13	; 10
     46e:	80 0e       	add	r8, r16
     470:	4f 00       	.word	0x004f	; ????
     472:	16 04       	cpc	r1, r6
     474:	62 04       	cpc	r6, r2
     476:	7a fc       	.word	0xfc7a	; ????
     478:	16 26       	eor	r1, r22
     47a:	80 0e       	add	r8, r16
     47c:	4f 00       	.word	0x004f	; ????
     47e:	16 10       	cpse	r1, r6
     480:	62 0c       	add	r6, r2
     482:	7b 04       	cpc	r7, r11
     484:	16 26       	eor	r1, r22
     486:	80 0e       	add	r8, r16
     488:	4f 00       	.word	0x004f	; ????
     48a:	16 1c       	adc	r1, r6
     48c:	62 08       	sbc	r6, r2
     48e:	7a 04       	cpc	r7, r10
     490:	16 26       	eor	r1, r22
     492:	80 0e       	add	r8, r16
     494:	4f 00       	.word	0x004f	; ????
     496:	15 ee       	ldi	r17, 0xE5	; 229
     498:	62 00       	.word	0x0062	; ????
     49a:	7b fc       	.word	0xfc7b	; ????
     49c:	da b8       	out	0x0a, r13	; 10
     49e:	6e f3       	brts	.-38     	; 0x47a <__trampolines_end+0x404>
     4a0:	87 e2       	ldi	r24, 0x27	; 39
     4a2:	87 21       	and	r24, r7
     4a4:	00 ee       	ldi	r16, 0xE0	; 224
     4a6:	82 70       	andi	r24, 0x02	; 2
     4a8:	83 70       	andi	r24, 0x03	; 3
     4aa:	6e 30       	cpi	r22, 0x0E	; 14
     4ac:	82 e2       	ldi	r24, 0x22	; 34
     4ae:	80 c0       	rjmp	.+256    	; 0x5b0 <__trampolines_end+0x53a>
     4b0:	81 d0       	rcall	.+258    	; 0x5b4 <__trampolines_end+0x53e>
     4b2:	27 d0       	rcall	.+78     	; 0x502 <__trampolines_end+0x48c>
     4b4:	a9 28       	or	r10, r9
     4b6:	6e f0       	brts	.+26     	; 0x4d2 <__trampolines_end+0x45c>
     4b8:	80 e2       	ldi	r24, 0x20	; 32
     4ba:	30 00       	.word	0x0030	; ????
     4bc:	16 5e       	subi	r17, 0xE6	; 230
     4be:	dc d8       	rcall	.-3656   	; 0xfffff678 <__eeprom_end+0xff7ef678>
     4c0:	42 30       	cpi	r20, 0x02	; 2
     4c2:	7d 04       	cpc	r7, r13
     4c4:	42 00       	.word	0x0042	; ????
     4c6:	7d fc       	.word	0xfc7d	; ????
     4c8:	42 20       	and	r4, r2
     4ca:	7c 04       	cpc	r7, r12
     4cc:	42 10       	cpse	r4, r2
     4ce:	7c fc       	.word	0xfc7c	; ????
     4d0:	dc d8       	rcall	.-3656   	; 0xfffff68a <__eeprom_end+0xff7ef68a>
     4d2:	00 ee       	ldi	r16, 0xE0	; 224
     4d4:	6e 80       	ldd	r6, Y+6	; 0x06
     4d6:	f1 07       	cpc	r31, r17
     4d8:	31 00       	.word	0x0031	; ????
     4da:	17 16       	cp	r1, r23
     4dc:	34 00       	.word	0x0034	; ????
     4de:	17 16       	cp	r1, r23
     4e0:	81 00       	.word	0x0081	; ????
     4e2:	83 0e       	add	r8, r19
     4e4:	4f 00       	.word	0x004f	; ????
     4e6:	16 90       	elpm	r1, Z
     4e8:	83 90       	.word	0x9083	; ????
     4ea:	83 d5       	rcall	.+2822   	; 0xff2 <joust23+0x12>
     4ec:	4f 00       	.word	0x004f	; ????
     4ee:	16 c8       	rjmp	.-4052   	; 0xfffff51c <__eeprom_end+0xff7ef51c>
     4f0:	33 00       	.word	0x0033	; ????
     4f2:	16 ae       	std	Z+62, r1	; 0x3e
     4f4:	87 e3       	ldi	r24, 0x37	; 55
     4f6:	83 80       	ldd	r8, Z+3	; 0x03
     4f8:	83 c5       	rjmp	.+2822   	; 0x1000 <joust23+0x20>
     4fa:	4f 00       	.word	0x004f	; ????
     4fc:	16 fc       	sbrc	r1, 6
     4fe:	33 00       	.word	0x0033	; ????
     500:	16 e2       	ldi	r17, 0x26	; 38
     502:	87 e3       	ldi	r24, 0x37	; 55
     504:	17 16       	cp	r1, r23
     506:	83 80       	ldd	r8, Z+3	; 0x03
     508:	83 c5       	rjmp	.+2822   	; 0x1010 <joust23+0x30>
     50a:	4f 00       	.word	0x004f	; ????
     50c:	16 fc       	sbrc	r1, 6
     50e:	33 00       	.word	0x0033	; ????
     510:	16 e2       	ldi	r17, 0x26	; 38
     512:	87 e3       	ldi	r24, 0x37	; 55
     514:	83 90       	.word	0x9083	; ????
     516:	83 d5       	rcall	.+2822   	; 0x101e <joust23+0x3e>
     518:	4f 00       	.word	0x004f	; ????
     51a:	16 c8       	rjmp	.-4052   	; 0xfffff548 <__eeprom_end+0xff7ef548>
     51c:	33 00       	.word	0x0033	; ????
     51e:	16 ae       	std	Z+62, r1	; 0x3e
     520:	87 e3       	ldi	r24, 0x37	; 55
     522:	17 16       	cp	r1, r23
     524:	63 40       	sbci	r22, 0x03	; 3
     526:	81 32       	cpi	r24, 0x21	; 33
     528:	41 00       	.word	0x0041	; ????
     52a:	17 16       	cp	r1, r23
     52c:	dc d8       	rcall	.-3656   	; 0xfffff6e6 <__eeprom_end+0xff7ef6e6>
     52e:	7d 04       	cpc	r7, r13
     530:	dc d8       	rcall	.-3656   	; 0xfffff6ea <__eeprom_end+0xff7ef6ea>
     532:	87 e3       	ldi	r24, 0x37	; 55
     534:	6e cf       	rjmp	.-292    	; 0x412 <__trampolines_end+0x39c>
     536:	87 e2       	ldi	r24, 0x27	; 39
     538:	62 30       	cpi	r22, 0x02	; 2
     53a:	87 21       	and	r24, r7
     53c:	00 ee       	ldi	r16, 0xE0	; 224
     53e:	63 10       	cpse	r6, r3
     540:	81 32       	cpi	r24, 0x21	; 33
     542:	41 00       	.word	0x0041	; ????
     544:	17 16       	cp	r1, r23
     546:	dc d8       	rcall	.-3656   	; 0xfffff700 <__eeprom_end+0xff7ef700>
     548:	7d fc       	.word	0xfc7d	; ????
     54a:	dc d8       	rcall	.-3656   	; 0xfffff704 <__eeprom_end+0xff7ef704>
     54c:	87 e3       	ldi	r24, 0x37	; 55
     54e:	6e cf       	rjmp	.-292    	; 0x42c <__trampolines_end+0x3b6>
     550:	87 e2       	ldi	r24, 0x27	; 39
     552:	62 00       	.word	0x0062	; ????
     554:	87 21       	and	r24, r7
     556:	00 ee       	ldi	r16, 0xE0	; 224
     558:	63 20       	and	r6, r3
     55a:	81 32       	cpi	r24, 0x21	; 33
     55c:	41 00       	.word	0x0041	; ????
     55e:	17 16       	cp	r1, r23
     560:	dc d8       	rcall	.-3656   	; 0xfffff71a <__eeprom_end+0xff7ef71a>
     562:	7c 04       	cpc	r7, r12
     564:	dc d8       	rcall	.-3656   	; 0xfffff71e <__eeprom_end+0xff7ef71e>
     566:	87 e3       	ldi	r24, 0x37	; 55
     568:	6e cf       	rjmp	.-292    	; 0x446 <__trampolines_end+0x3d0>
     56a:	87 e2       	ldi	r24, 0x27	; 39
     56c:	62 20       	and	r6, r2
     56e:	87 21       	and	r24, r7
     570:	00 ee       	ldi	r16, 0xE0	; 224
     572:	63 80       	ldd	r6, Z+3	; 0x03
     574:	81 32       	cpi	r24, 0x21	; 33
     576:	41 00       	.word	0x0041	; ????
     578:	17 16       	cp	r1, r23
     57a:	dc d8       	rcall	.-3656   	; 0xfffff734 <__eeprom_end+0xff7ef734>
     57c:	7c fc       	.word	0xfc7c	; ????
     57e:	dc d8       	rcall	.-3656   	; 0xfffff738 <__eeprom_end+0xff7ef738>
     580:	87 e3       	ldi	r24, 0x37	; 55
     582:	6e cf       	rjmp	.-292    	; 0x460 <__trampolines_end+0x3ea>
     584:	87 e2       	ldi	r24, 0x27	; 39
     586:	62 10       	cpse	r6, r2
     588:	87 21       	and	r24, r7
     58a:	00 ee       	ldi	r16, 0xE0	; 224
     58c:	c1 f0       	breq	.+48     	; 0x5be <__trampolines_end+0x548>
     58e:	80 12       	cpse	r8, r16
     590:	30 00       	.word	0x0030	; ????
     592:	17 28       	or	r1, r7
     594:	87 e3       	ldi	r24, 0x37	; 55
     596:	6e 30       	cpi	r22, 0x0E	; 14
     598:	87 e3       	ldi	r24, 0x37	; 55
     59a:	82 e3       	ldi	r24, 0x32	; 50
     59c:	16 48       	sbci	r17, 0x86	; 134
     59e:	dc d8       	rcall	.-3656   	; 0xfffff758 <__eeprom_end+0xff7ef758>
     5a0:	80 0e       	add	r8, r16
     5a2:	4f 00       	.word	0x004f	; ????
     5a4:	17 36       	cpi	r17, 0x67	; 103
     5a6:	62 90       	ld	r6, -Z
     5a8:	7c fc       	.word	0xfc7c	; ????
     5aa:	17 58       	subi	r17, 0x87	; 135
     5ac:	80 0e       	add	r8, r16
     5ae:	4f 00       	.word	0x004f	; ????
     5b0:	17 42       	sbci	r17, 0x27	; 39
     5b2:	62 30       	cpi	r22, 0x02	; 2
     5b4:	7d 04       	cpc	r7, r13
     5b6:	17 58       	subi	r17, 0x87	; 135
     5b8:	80 0e       	add	r8, r16
     5ba:	4f 00       	.word	0x004f	; ????
     5bc:	17 4e       	sbci	r17, 0xE7	; 231
     5be:	62 a0       	ldd	r6, Z+34	; 0x22
     5c0:	7c 04       	cpc	r7, r12
     5c2:	17 58       	subi	r17, 0x87	; 135
     5c4:	80 0e       	add	r8, r16
     5c6:	4f 00       	.word	0x004f	; ????
     5c8:	17 1e       	adc	r1, r23
     5ca:	62 00       	.word	0x0062	; ????
     5cc:	7d fc       	.word	0xfc7d	; ????
     5ce:	dc d8       	rcall	.-3656   	; 0xfffff788 <__eeprom_end+0xff7ef788>
     5d0:	6e 4f       	sbci	r22, 0xFE	; 254
     5d2:	87 e2       	ldi	r24, 0x27	; 39
     5d4:	87 21       	and	r24, r7
     5d6:	00 ee       	ldi	r16, 0xE0	; 224
     5d8:	80 70       	andi	r24, 0x00	; 0
     5da:	6e 03       	fmul	r22, r22
     5dc:	80 e2       	ldi	r24, 0x20	; 32
     5de:	80 0e       	add	r8, r16
     5e0:	81 80       	ldd	r8, Z+1	; 0x01
     5e2:	81 94       	neg	r8
     5e4:	6e 04       	cpc	r6, r14
     5e6:	81 e2       	ldi	r24, 0x21	; 33
     5e8:	41 00       	.word	0x0041	; ????
     5ea:	70 01       	movw	r14, r0
     5ec:	80 0e       	add	r8, r16
     5ee:	80 0e       	add	r8, r16
     5f0:	80 0e       	add	r8, r16
     5f2:	a8 e8       	ldi	r26, 0x88	; 136
     5f4:	f0 1e       	adc	r15, r16
     5f6:	d8 98       	cbi	0x1b, 0	; 27
     5f8:	8e f0       	brts	.+34     	; 0x61c <__trampolines_end+0x5a6>
     5fa:	00 ee       	ldi	r16, 0xE0	; 224
     5fc:	6e 00       	.word	0x006e	; ????
     5fe:	a9 80       	ldd	r10, Y+1	; 0x01
     600:	fe 1e       	adc	r15, r30
     602:	fe 1e       	adc	r15, r30
     604:	fe 1e       	adc	r15, r30
     606:	fe 1e       	adc	r15, r30
     608:	f3 65       	ori	r31, 0x53	; 83
     60a:	ab e0       	ldi	r26, 0x0B	; 11
     60c:	fe 1e       	adc	r15, r30
     60e:	fe 1e       	adc	r15, r30
     610:	fe 1e       	adc	r15, r30
     612:	fe 1e       	adc	r15, r30
     614:	f3 55       	subi	r31, 0x53	; 83
     616:	7e 01       	movw	r14, r28
     618:	3e 80       	ldd	r3, Y+6	; 0x06
     61a:	17 88       	ldd	r1, Z+23	; 0x17
     61c:	00 ee       	ldi	r16, 0xE0	; 224
     61e:	82 23       	and	r24, r18
     620:	83 33       	cpi	r24, 0x33	; 51
     622:	6e 0f       	add	r22, r30
     624:	80 20       	and	r8, r0
     626:	81 30       	cpi	r24, 0x01	; 1
     628:	27 d4       	rcall	.+2126   	; 0xe78 <field+0x2ad>
     62a:	80 e2       	ldi	r24, 0x20	; 32
     62c:	80 0e       	add	r8, r16
     62e:	80 0e       	add	r8, r16
     630:	a9 40       	sbci	r26, 0x09	; 9
     632:	f0 1e       	adc	r15, r16
     634:	d2 34       	cpi	r29, 0x42	; 66
     636:	72 04       	cpc	r7, r2
     638:	32 80       	ldd	r3, Z+2	; 0x02
     63a:	17 ae       	std	Z+63, r1	; 0x3f
     63c:	82 23       	and	r24, r18
     63e:	73 04       	cpc	r7, r3
     640:	43 40       	sbci	r20, 0x03	; 3
     642:	00 ee       	ldi	r16, 0xE0	; 224
     644:	17 ae       	std	Z+63, r1	; 0x3f
     646:	70 04       	cpc	r7, r0
     648:	71 04       	cpc	r7, r1
     64a:	80 06       	cpc	r8, r16
     64c:	80 06       	cpc	r8, r16
     64e:	81 06       	cpc	r8, r17
     650:	81 06       	cpc	r8, r17
     652:	81 0e       	add	r8, r17
     654:	81 0e       	add	r8, r17
     656:	81 0e       	add	r8, r17
     658:	81 0e       	add	r8, r17
     65a:	ab e0       	ldi	r26, 0x0B	; 11
     65c:	f1 1e       	adc	r15, r17
     65e:	f1 1e       	adc	r15, r17
     660:	f0 1e       	adc	r15, r16
     662:	f0 65       	ori	r31, 0x50	; 80
     664:	00 ee       	ldi	r16, 0xE0	; 224
     666:	a8 e6       	ldi	r26, 0x68	; 104
     668:	f0 65       	ori	r31, 0x50	; 80
     66a:	80 06       	cpc	r8, r16
     66c:	f0 55       	subi	r31, 0x50	; 80
     66e:	60 01       	movw	r12, r0
     670:	e0 a1       	ldd	r30, Z+32	; 0x20
     672:	17 fa       	bst	r1, 7
     674:	00 ee       	ldi	r16, 0xE0	; 224
     676:	f1 65       	ori	r31, 0x51	; 81
     678:	6e 01       	movw	r12, r28
     67a:	84 43       	sbci	r24, 0x34	; 52
     67c:	82 00       	.word	0x0082	; ????
     67e:	83 10       	cpse	r8, r3
     680:	65 10       	cpse	r6, r5
     682:	83 55       	subi	r24, 0x53	; 83
     684:	4f 00       	.word	0x004f	; ????
     686:	82 e5       	ldi	r24, 0x52	; 82
     688:	4f 00       	.word	0x004f	; ????
     68a:	18 26       	eor	r1, r24
     68c:	65 27       	eor	r22, r21
     68e:	82 55       	subi	r24, 0x52	; 82
     690:	4f 00       	.word	0x004f	; ????
     692:	18 26       	eor	r1, r24
     694:	80 20       	and	r8, r0
     696:	81 30       	cpi	r24, 0x01	; 1
     698:	84 e4       	ldi	r24, 0x44	; 68
     69a:	18 0a       	sbc	r1, r24
     69c:	f4 30       	cpi	r31, 0x04	; 4
     69e:	d6 7a       	andi	r29, 0xA6	; 166
     6a0:	76 0c       	add	r7, r6
     6a2:	84 43       	sbci	r24, 0x34	; 52
     6a4:	82 00       	.word	0x0082	; ????
     6a6:	83 10       	cpse	r8, r3
     6a8:	65 e8       	ldi	r22, 0x85	; 133
     6aa:	83 55       	subi	r24, 0x53	; 83
     6ac:	4f 00       	.word	0x004f	; ????
     6ae:	82 e5       	ldi	r24, 0x52	; 82
     6b0:	4f 00       	.word	0x004f	; ????
     6b2:	18 4e       	sbci	r17, 0xE8	; 232
     6b4:	65 03       	mulsu	r22, r21
     6b6:	82 55       	subi	r24, 0x52	; 82
     6b8:	4f 00       	.word	0x004f	; ????
     6ba:	18 4e       	sbci	r17, 0xE8	; 232
     6bc:	80 20       	and	r8, r0
     6be:	81 30       	cpi	r24, 0x01	; 1
     6c0:	84 e4       	ldi	r24, 0x44	; 68
     6c2:	18 32       	cpi	r17, 0x28	; 40
     6c4:	f4 30       	cpi	r31, 0x04	; 4
     6c6:	d6 7a       	andi	r29, 0xA6	; 166
     6c8:	76 0c       	add	r7, r6
     6ca:	84 43       	sbci	r24, 0x34	; 52
     6cc:	82 00       	.word	0x0082	; ????
     6ce:	83 10       	cpse	r8, r3
     6d0:	65 64       	ori	r22, 0x45	; 69
     6d2:	83 55       	subi	r24, 0x53	; 83
     6d4:	4f 00       	.word	0x004f	; ????
     6d6:	82 e5       	ldi	r24, 0x52	; 82
     6d8:	4f 00       	.word	0x004f	; ????
     6da:	18 6e       	ori	r17, 0xE8	; 232
     6dc:	80 20       	and	r8, r0
     6de:	81 30       	cpi	r24, 0x01	; 1
     6e0:	84 e4       	ldi	r24, 0x44	; 68
     6e2:	18 5a       	subi	r17, 0xA8	; 168
     6e4:	f4 30       	cpi	r31, 0x04	; 4
     6e6:	d6 7a       	andi	r29, 0xA6	; 166
     6e8:	76 0c       	add	r7, r6
     6ea:	84 43       	sbci	r24, 0x34	; 52
     6ec:	82 00       	.word	0x0082	; ????
     6ee:	83 10       	cpse	r8, r3
     6f0:	65 0a       	sbc	r6, r21
     6f2:	83 55       	subi	r24, 0x53	; 83
     6f4:	4f 00       	.word	0x004f	; ????
     6f6:	18 88       	ldd	r1, Y+16	; 0x10
     6f8:	81 30       	cpi	r24, 0x01	; 1
     6fa:	84 e4       	ldi	r24, 0x44	; 68
     6fc:	18 7a       	andi	r17, 0xA8	; 168
     6fe:	f4 30       	cpi	r31, 0x04	; 4
     700:	d6 7a       	andi	r29, 0xA6	; 166
     702:	76 0c       	add	r7, r6
     704:	f1 30       	cpi	r31, 0x01	; 1
     706:	d6 7a       	andi	r29, 0xA6	; 166
     708:	00 ee       	ldi	r16, 0xE0	; 224
     70a:	a8 e2       	ldi	r26, 0x28	; 40
     70c:	f1 65       	ori	r31, 0x51	; 81
     70e:	81 e4       	ldi	r24, 0x41	; 65
     710:	3f 00       	.word	0x003f	; ????
     712:	70 01       	movw	r14, r0
     714:	a8 e2       	ldi	r26, 0x28	; 40
     716:	f1 55       	subi	r31, 0x51	; 81
     718:	00 ee       	ldi	r16, 0xE0	; 224
     71a:	a8 e2       	ldi	r26, 0x28	; 40
     71c:	f3 65       	ori	r31, 0x53	; 83
     71e:	8e 00       	.word	0x008e	; ????
     720:	8e 25       	eor	r24, r14
     722:	4f 00       	.word	0x004f	; ????
     724:	00 ee       	ldi	r16, 0xE0	; 224
     726:	3e 00       	.word	0x003e	; ????
     728:	18 bc       	out	0x28, r1	; 40
     72a:	8e 10       	cpse	r8, r14
     72c:	8e 35       	cpi	r24, 0x5E	; 94
     72e:	4f 00       	.word	0x004f	; ????
     730:	00 ee       	ldi	r16, 0xE0	; 224
     732:	a8 e4       	ldi	r26, 0x48	; 72
     734:	f1 55       	subi	r31, 0x51	; 81
     736:	00 ee       	ldi	r16, 0xE0	; 224
     738:	8e e3       	ldi	r24, 0x3E	; 62
     73a:	62 0f       	add	r22, r18
     73c:	63 ff       	sbrs	r22, 3
     73e:	61 10       	cpse	r6, r1
     740:	e2 a1       	ldd	r30, Z+34	; 0x22
     742:	18 de       	rcall	.-976    	; 0x374 <__trampolines_end+0x2fe>
     744:	81 34       	cpi	r24, 0x41	; 65
     746:	31 00       	.word	0x0031	; ????
     748:	18 ca       	rjmp	.-3024   	; 0xfffffb7a <__eeprom_end+0xff7efb7a>
     74a:	61 10       	cpse	r6, r1
     74c:	80 34       	cpi	r24, 0x40	; 64
     74e:	30 00       	.word	0x0030	; ????
     750:	18 ca       	rjmp	.-3024   	; 0xfffffb82 <__eeprom_end+0xff7efb82>
     752:	00 ee       	ldi	r16, 0xE0	; 224
     754:	6e 01       	movw	r12, r28
     756:	00 ee       	ldi	r16, 0xE0	; 224
     758:	00 00       	nop
     75a:	00 00       	nop
     75c:	05 00       	.word	0x0005	; ????
     75e:	00 22       	and	r0, r16
     760:	63 63       	ori	r22, 0x33	; 51
     762:	77 7f       	andi	r23, 0xF7	; 247
     764:	3e 1c       	adc	r3, r14
     766:	00 1c       	adc	r0, r0
     768:	1e 5d       	subi	r17, 0xDE	; 222
     76a:	5d 6f       	ori	r21, 0xFD	; 253
     76c:	3e 1c       	adc	r3, r14
     76e:	00 3c       	cpi	r16, 0xC0	; 192
     770:	7e 0f       	add	r23, r30
     772:	07 0f       	add	r16, r23
     774:	7e 3c       	cpi	r23, 0xCE	; 206
     776:	00 1c       	adc	r0, r0
     778:	26 7f       	andi	r18, 0xF6	; 246
     77a:	7f 7b       	andi	r23, 0xBF	; 191
     77c:	06 1c       	adc	r0, r6
     77e:	00 1e       	adc	r0, r16
     780:	3f 78       	andi	r19, 0x8F	; 143
     782:	70 78       	andi	r23, 0x80	; 128
     784:	3f 1e       	adc	r3, r31
     786:	00 1c       	adc	r0, r0
     788:	32 7f       	andi	r19, 0xF2	; 242
     78a:	7f 6f       	ori	r23, 0xFF	; 255
     78c:	30 1c       	adc	r3, r0
     78e:	00 1c       	adc	r0, r0
     790:	3e 7f       	andi	r19, 0xFE	; 254
     792:	77 63       	ori	r23, 0x37	; 55
     794:	63 22       	and	r6, r19
     796:	00 1c       	adc	r0, r0
     798:	3e 6f       	ori	r19, 0xFE	; 254
     79a:	5d 5d       	subi	r21, 0xDD	; 221
     79c:	1e 1c       	adc	r1, r14
     79e:	00 1c       	adc	r0, r0
     7a0:	3e 49       	sbci	r19, 0x9E	; 158
     7a2:	77 7f       	andi	r23, 0xF7	; 247
     7a4:	63 7f       	andi	r22, 0xF3	; 243
     7a6:	00 00       	nop
     7a8:	00 00       	nop
     7aa:	08 00       	.word	0x0008	; ????
     7ac:	00 00       	nop
     7ae:	00 00       	nop
     7b0:	00 00       	nop
     7b2:	08 08       	sbc	r0, r8
	...
     7c8:	00 00       	nop
     7ca:	80 00       	.word	0x0080	; ????
     7cc:	00 00       	nop
     7ce:	80 80       	ld	r8, Z
     7d0:	00 00       	nop
     7d2:	00 00       	nop
     7d4:	00 00       	nop
     7d6:	f0 00       	.word	0x00f0	; ????
     7d8:	00 00       	nop
     7da:	00 00       	nop
     7dc:	00 00       	nop
     7de:	80 80       	ld	r8, Z
     7e0:	80 80       	ld	r8, Z
     7e2:	00 00       	nop
     7e4:	00 00       	nop
     7e6:	f0 80       	ld	r15, Z
     7e8:	80 80       	ld	r8, Z
     7ea:	80 80       	ld	r8, Z
     7ec:	80 80       	ld	r8, Z
     7ee:	f0 00       	.word	0x00f0	; ????
     7f0:	00 00       	nop
     7f2:	80 00       	.word	0x0080	; ????
     7f4:	00 00       	nop
     7f6:	0c 08       	sbc	r0, r12
     7f8:	08 08       	sbc	r0, r8
     7fa:	08 08       	sbc	r0, r8
     7fc:	08 08       	sbc	r0, r8
     7fe:	08 08       	sbc	r0, r8
     800:	08 08       	sbc	r0, r8
     802:	08 08       	sbc	r0, r8
     804:	08 0d       	add	r16, r8
     806:	0c 08       	sbc	r0, r12
     808:	08 08       	sbc	r0, r8
     80a:	08 08       	sbc	r0, r8
     80c:	08 08       	sbc	r0, r8
     80e:	08 08       	sbc	r0, r8
     810:	08 08       	sbc	r0, r8
     812:	08 08       	sbc	r0, r8
     814:	08 0d       	add	r16, r8
     816:	0a 65       	ori	r16, 0x5A	; 90
     818:	05 05       	cpc	r16, r5
     81a:	05 05       	cpc	r16, r5
     81c:	e5 05       	cpc	r30, r5
     81e:	05 e5       	ldi	r16, 0x55	; 85
     820:	05 05       	cpc	r16, r5
     822:	05 05       	cpc	r16, r5
     824:	c5 0a       	sbc	r12, r21
     826:	0a 65       	ori	r16, 0x5A	; 90
     828:	05 05       	cpc	r16, r5
     82a:	05 05       	cpc	r16, r5
     82c:	e5 05       	cpc	r30, r5
     82e:	05 e5       	ldi	r16, 0x55	; 85
     830:	05 05       	cpc	r16, r5
     832:	05 05       	cpc	r16, r5
     834:	c5 0a       	sbc	r12, r21
     836:	0a 05       	cpc	r16, r10
     838:	0c 08       	sbc	r0, r12
     83a:	08 0f       	add	r16, r24
     83c:	05 0c       	add	r0, r5
     83e:	0d 05       	cpc	r16, r13
     840:	08 08       	sbc	r0, r8
     842:	08 0d       	add	r16, r8
     844:	05 0e       	add	r0, r21
     846:	0f 05       	cpc	r16, r15
     848:	0c 08       	sbc	r0, r12
     84a:	08 0f       	add	r16, r24
     84c:	05 0c       	add	r0, r5
     84e:	0d 05       	cpc	r16, r13
     850:	08 08       	sbc	r0, r8
     852:	08 0d       	add	r16, r8
     854:	05 0a       	sbc	r0, r21
     856:	0a 05       	cpc	r16, r10
     858:	0a 65       	ori	r16, 0x5A	; 90
     85a:	06 05       	cpc	r16, r6
     85c:	95 0a       	sbc	r9, r21
     85e:	0a 35       	cpi	r16, 0x5A	; 90
     860:	05 05       	cpc	r16, r5
     862:	c5 0a       	sbc	r12, r21
     864:	35 05       	cpc	r19, r5
     866:	05 95       	asr	r16
     868:	0a 65       	ori	r16, 0x5A	; 90
     86a:	05 05       	cpc	r16, r5
     86c:	95 0a       	sbc	r9, r21
     86e:	0a 35       	cpi	r16, 0x5A	; 90
     870:	05 06       	cpc	r0, r21
     872:	c5 0a       	sbc	r12, r21
     874:	05 0a       	sbc	r0, r21
     876:	0a 05       	cpc	r16, r10
     878:	0f 05       	cpc	r16, r15
     87a:	08 08       	sbc	r0, r8
     87c:	08 08       	sbc	r0, r8
     87e:	08 0c       	add	r0, r8
     880:	08 0f       	add	r16, r24
     882:	05 08       	sbc	r0, r5
     884:	08 08       	sbc	r0, r8
     886:	08 08       	sbc	r0, r8
     888:	0f 05       	cpc	r16, r15
     88a:	08 08       	sbc	r0, r8
     88c:	0c 08       	sbc	r0, r12
     88e:	08 08       	sbc	r0, r8
     890:	08 0f       	add	r16, r24
     892:	05 0f       	add	r16, r21
     894:	05 0a       	sbc	r0, r21
     896:	0a 75       	andi	r16, 0x5A	; 90
     898:	05 b5       	in	r16, 0x25	; 37
     89a:	05 05       	cpc	r16, r5
     89c:	05 05       	cpc	r16, r5
     89e:	c5 0a       	sbc	r12, r21
     8a0:	65 05       	cpc	r22, r5
     8a2:	b5 05       	cpc	r27, r5
     8a4:	e5 05       	cpc	r30, r5
     8a6:	05 e5       	ldi	r16, 0x55	; 85
     8a8:	05 b5       	in	r16, 0x25	; 37
     8aa:	05 c5       	rjmp	.+2570   	; 0x12b6 <joust23+0x2d6>
     8ac:	0a 65       	ori	r16, 0x5A	; 90
     8ae:	05 05       	cpc	r16, r5
     8b0:	05 05       	cpc	r16, r5
     8b2:	b5 05       	cpc	r27, r5
     8b4:	d5 0a       	sbc	r13, r21
     8b6:	0a 05       	cpc	r16, r10
     8b8:	0c 08       	sbc	r0, r12
     8ba:	08 08       	sbc	r0, r8
     8bc:	08 0d       	add	r16, r8
     8be:	05 0f       	add	r16, r21
     8c0:	05 0c       	add	r0, r5
     8c2:	08 0f       	add	r16, r24
     8c4:	05 08       	sbc	r0, r5
     8c6:	0f 05       	cpc	r16, r15
     8c8:	08 08       	sbc	r0, r8
     8ca:	0d 05       	cpc	r16, r13
     8cc:	0f 05       	cpc	r16, r15
     8ce:	0c 08       	sbc	r0, r12
     8d0:	08 08       	sbc	r0, r8
     8d2:	08 0d       	add	r16, r8
     8d4:	05 0a       	sbc	r0, r21
     8d6:	0f 05       	cpc	r16, r15
     8d8:	0f 65       	ori	r16, 0x5F	; 95
     8da:	05 05       	cpc	r16, r5
     8dc:	c5 0a       	sbc	r12, r21
     8de:	35 e5       	ldi	r19, 0x55	; 85
     8e0:	95 0a       	sbc	r9, r21
     8e2:	65 05       	cpc	r22, r5
     8e4:	b0 05       	cpc	r27, r0
     8e6:	05 b5       	in	r16, 0x25	; 37
     8e8:	05 c5       	rjmp	.+2570   	; 0x12f4 <joust23+0x314>
     8ea:	0a 35       	cpi	r16, 0x5A	; 90
     8ec:	e5 95       	asr	r30
     8ee:	0a 65       	ori	r16, 0x5A	; 90
     8f0:	05 05       	cpc	r16, r5
     8f2:	c5 0f       	add	r28, r21
     8f4:	05 0f       	add	r16, r21
     8f6:	07 74       	andi	r16, 0x47	; 71
     8f8:	05 d5       	rcall	.+2570   	; 0x1304 <joust23+0x324>
     8fa:	08 0f       	add	r16, r24
     8fc:	05 0e       	add	r0, r21
     8fe:	0f 05       	cpc	r16, r15
     900:	08 0f       	add	r16, r24
     902:	05 0c       	add	r0, r5
     904:	08 08       	sbc	r0, r8
     906:	08 08       	sbc	r0, r8
     908:	0d 05       	cpc	r16, r13
     90a:	08 0f       	add	r16, r24
     90c:	05 08       	sbc	r0, r5
     90e:	0f 05       	cpc	r16, r15
     910:	08 0f       	add	r16, r24
     912:	75 05       	cpc	r23, r5
     914:	d4 07       	cpc	r29, r20
     916:	0a 05       	cpc	r16, r10
     918:	0a 35       	cpi	r16, 0x5A	; 90
     91a:	05 05       	cpc	r16, r5
     91c:	f5 05       	cpc	r31, r5
     91e:	05 b5       	in	r16, 0x25	; 37
     920:	05 05       	cpc	r16, r5
     922:	d5 08       	sbc	r13, r5
     924:	08 0d       	add	r16, r8
     926:	0c 08       	sbc	r0, r12
     928:	0f 75       	andi	r16, 0x5F	; 95
     92a:	05 05       	cpc	r16, r5
     92c:	b5 05       	cpc	r27, r5
     92e:	05 f5       	brhc	.+64     	; 0x970 <__stack+0x71>
     930:	05 05       	cpc	r16, r5
     932:	95 0a       	sbc	r9, r21
     934:	05 0a       	sbc	r0, r21
     936:	0a 05       	cpc	r16, r10
     938:	08 08       	sbc	r0, r8
     93a:	08 0d       	add	r16, r8
     93c:	05 0c       	add	r0, r5
     93e:	08 08       	sbc	r0, r8
     940:	08 0d       	add	r16, r8
     942:	35 05       	cpc	r19, r5
     944:	c5 0a       	sbc	r12, r21
     946:	0a 65       	ori	r16, 0x5A	; 90
     948:	05 95       	asr	r16
     94a:	0c 08       	sbc	r0, r12
     94c:	08 08       	sbc	r0, r8
     94e:	0d 05       	cpc	r16, r13
     950:	0c 08       	sbc	r0, r12
     952:	08 0f       	add	r16, r24
     954:	05 0a       	sbc	r0, r21
     956:	0a 75       	andi	r16, 0x5A	; 90
     958:	05 06       	cpc	r0, r21
     95a:	c5 0a       	sbc	r12, r21
     95c:	05 08       	sbc	r0, r5
     95e:	08 08       	sbc	r0, r8
     960:	08 08       	sbc	r0, r8
     962:	08 0f       	add	r16, r24
     964:	05 08       	sbc	r0, r5
     966:	0f 05       	cpc	r16, r15
     968:	08 08       	sbc	r0, r8
     96a:	08 08       	sbc	r0, r8
     96c:	08 08       	sbc	r0, r8
     96e:	0f 05       	cpc	r16, r15
     970:	0a 65       	ori	r16, 0x5A	; 90
     972:	06 05       	cpc	r16, r6
     974:	d5 0a       	sbc	r13, r21
     976:	0a 05       	cpc	r16, r10
     978:	0c 0d       	add	r16, r12
     97a:	05 0a       	sbc	r0, r21
     97c:	35 05       	cpc	r19, r5
     97e:	05 05       	cpc	r16, r5
     980:	05 e5       	ldi	r16, 0x55	; 85
     982:	05 05       	cpc	r16, r5
     984:	f5 05       	cpc	r31, r5
     986:	05 f5       	brhc	.+64     	; 0x9c8 <__stack+0xc9>
     988:	05 05       	cpc	r16, r5
     98a:	e5 05       	cpc	r30, r5
     98c:	05 05       	cpc	r16, r5
     98e:	05 95       	asr	r16
     990:	0a 05       	cpc	r16, r10
     992:	0c 0d       	add	r16, r12
     994:	05 0a       	sbc	r0, r21
     996:	0a 05       	cpc	r16, r10
     998:	08 0f       	add	r16, r24
     99a:	05 08       	sbc	r0, r5
     99c:	08 08       	sbc	r0, r8
     99e:	08 08       	sbc	r0, r8
     9a0:	0f 05       	cpc	r16, r15
     9a2:	0c 0d       	add	r16, r12
     9a4:	05 08       	sbc	r0, r5
     9a6:	0f 05       	cpc	r16, r15
     9a8:	0c 0d       	add	r16, r12
     9aa:	05 08       	sbc	r0, r5
     9ac:	08 08       	sbc	r0, r8
     9ae:	08 08       	sbc	r0, r8
     9b0:	0f 05       	cpc	r16, r15
     9b2:	08 0f       	add	r16, r24
     9b4:	05 0a       	sbc	r0, r21
     9b6:	0a 35       	cpi	r16, 0x5A	; 90
     9b8:	05 05       	cpc	r16, r5
     9ba:	b5 05       	cpc	r27, r5
     9bc:	05 05       	cpc	r16, r5
     9be:	05 05       	cpc	r16, r5
     9c0:	05 95       	asr	r16
     9c2:	0a 0a       	sbc	r0, r26
     9c4:	35 05       	cpc	r19, r5
     9c6:	05 95       	asr	r16
     9c8:	0a 0a       	sbc	r0, r26
     9ca:	35 05       	cpc	r19, r5
     9cc:	05 05       	cpc	r16, r5
     9ce:	05 05       	cpc	r16, r5
     9d0:	05 b5       	in	r16, 0x25	; 37
     9d2:	05 05       	cpc	r16, r5
     9d4:	95 0a       	sbc	r9, r21
     9d6:	08 08       	sbc	r0, r8
     9d8:	08 08       	sbc	r0, r8
     9da:	08 08       	sbc	r0, r8
     9dc:	08 08       	sbc	r0, r8
     9de:	08 08       	sbc	r0, r8
     9e0:	08 08       	sbc	r0, r8
     9e2:	0f 08       	sbc	r0, r15
     9e4:	08 08       	sbc	r0, r8
     9e6:	08 08       	sbc	r0, r8
     9e8:	0f 08       	sbc	r0, r15
     9ea:	08 08       	sbc	r0, r8
     9ec:	08 08       	sbc	r0, r8
     9ee:	08 08       	sbc	r0, r8
     9f0:	08 08       	sbc	r0, r8
     9f2:	08 08       	sbc	r0, r8
     9f4:	08 0f       	add	r16, r24
     9f6:	01 e0       	ldi	r16, 0x01	; 1
     9f8:	02 10       	cpse	r0, r2
     9fa:	04 c8       	rjmp	.-4088   	; 0xfffffa04 <__eeprom_end+0xff7efa04>
     9fc:	09 e4       	ldi	r16, 0x49	; 73
     9fe:	0b f4       	brvc	.+2      	; 0xa02 <__stack+0x103>
     a00:	0b b4       	in	r0, 0x2b	; 43
     a02:	09 e5       	ldi	r16, 0x59	; 89
     a04:	04 c9       	rjmp	.-3576   	; 0xfffffc0e <__eeprom_end+0xff7efc0e>
     a06:	02 13       	cpse	r16, r18
     a08:	01 e7       	ldi	r16, 0x71	; 113
     a0a:	00 07       	cpc	r16, r16
     a0c:	01 83       	std	Z+1, r16	; 0x01
     a0e:	03 f0       	brvs	.+0      	; 0xa10 <__stack+0x111>
     a10:	01 ff       	sbrs	r16, 1
     a12:	00 ff       	sbrs	r16, 0
     a14:	00 3f       	cpi	r16, 0xF0	; 240
     a16:	0f 00       	.word	0x000f	; ????
     a18:	10 80       	ld	r1, Z
     a1a:	26 40       	sbci	r18, 0x06	; 6
     a1c:	4f 20       	and	r4, r15
     a1e:	5f a0       	ldd	r5, Y+39	; 0x27
     a20:	5d a0       	ldd	r5, Y+37	; 0x25
     a22:	4f 20       	and	r4, r15
     a24:	26 40       	sbci	r18, 0x06	; 6
     a26:	90 80       	ld	r9, Z
     a28:	cf 00       	.word	0x00cf	; ????
     a2a:	c0 00       	.word	0x00c0	; ????
     a2c:	83 00       	.word	0x0083	; ????
     a2e:	1f 80       	ldd	r1, Y+7	; 0x07
     a30:	ff 00       	.word	0x00ff	; ????
     a32:	fe 00       	.word	0x00fe	; ????
     a34:	f8 00       	.word	0x00f8	; ????
     a36:	0f 00       	.word	0x000f	; ????
     a38:	1f 80       	ldd	r1, Y+7	; 0x07
     a3a:	3f c0       	rjmp	.+126    	; 0xaba <__c.2023+0x2>
     a3c:	7f e0       	ldi	r23, 0x0F	; 15
     a3e:	7f e0       	ldi	r23, 0x0F	; 15
     a40:	5f e0       	ldi	r21, 0x0F	; 15
     a42:	47 e0       	ldi	r20, 0x07	; 7
     a44:	20 c0       	rjmp	.+64     	; 0xa86 <blinky_info+0x2f>
     a46:	90 80       	ld	r9, Z
     a48:	cf 00       	.word	0x00cf	; ????
     a4a:	c0 80       	ld	r12, Z
     a4c:	83 c0       	rjmp	.+262    	; 0xb54 <credits+0x6>
     a4e:	1f 80       	ldd	r1, Y+7	; 0x07
     a50:	ff 00       	.word	0x00ff	; ????
     a52:	fe 00       	.word	0x00fe	; ????
     a54:	f8 00       	.word	0x00f8	; ????
     a56:	ff 42       	sbci	r31, 0x2F	; 47

00000a57 <blinky_info>:
     a57:	42 6c 69 6e 6b 79 20 56 32 2e 30 30 3a 0a 48 2e     Blinky V2.00:.H.
     a67:	43 2e 20 45 67 65 62 65 72 67 0a 0a 6b 65 79 73     C. Egeberg..keys
     a77:	3a 0a 33 20 75 70 0a 36 20 64 6f 77 6e 0a 37 20     :.3 up.6 down.7 
     a87:	6c 65 66 74 0a 38 20 72 69 67 68 74 0a 00           left.8 right..

00000a95 <__c.2035>:
     a95:	27 45 27 78 69 74 20 74 72 61 63 65 20 6f 72 20     'E'xit trace or 
     aa5:	61 6e 79 00                                         any.

00000aa9 <__c.2029>:
     aa9:	76 61 72 5b 5d 3a 00                                var[]:.

00000ab0 <__c.2027>:
     ab0:	20 53 50 3a 00                                       SP:.

00000ab5 <__c.2025>:
     ab5:	49 3a 00                                            I:.

00000ab8 <__c.2023>:
     ab8:	50 43 3a 00                                         PC:.

00000abc <__c.2499>:
     abc:	63 61 72 74 65 20 53 44 20 61 62 73 65 6e 74 65     carte SD absente
     acc:	21 00                                               !.

00000ace <__c.2477>:
     ace:	43 52 41 53 48 21 20 62 61 64 20 6f 70 63 6f 64     CRASH! bad opcod
     ade:	65 0a 00                                            e..

00000ae1 <__c.2445>:
     ae1:	43 52 41 53 48 21 20 62 61 64 20 6f 70 63 6f 64     CRASH! bad opcod
     af1:	65 0a 00                                            e..

00000af4 <__c.2417>:
     af4:	27 39 27 20 76 65 72 73 20 6c 65 20 62 61 73 0a     '9' vers le bas.
	...

00000b05 <__c.2415>:
     b05:	27 37 27 20 76 65 72 73 20 6c 65 20 68 61 75 74     '7' vers le haut
     b15:	0a 00                                               ..

00000b17 <__c.2413>:
     b17:	27 23 27 20 70 61 67 65 20 73 75 69 76 61 6e 74     '#' page suivant
     b27:	65 0a 00                                            e..

00000b2a <__c.2411>:
     b2a:	27 2a 27 20 70 61 67 65 20 70 72 65 63 65 64 61     '*' page preceda
     b3a:	6e 74 65 0a 00                                      nte..

00000b3f <__c.2409>:
     b3f:	27 41 27 20 73 65 6c 65 63 74 69 6f 6e 0a 00        'A' selection..

00000b4e <credits>:
     b4e:	46 41 54 20 64 72 69 76 65 72 0a 43 6f 70 79 72     FAT driver.Copyr
     b5e:	69 67 68 74 20 32 30 30 36 2d 32 30 31 32 0a 52     ight 2006-2012.R
     b6e:	6f 6c 61 6e 64 20 52 69 65 67 65 6c 0a 00           oland Riegel..

00000b7c <flash_games>:
     b7c:	73 6f 6b 6f 62 61 6e 0a 73 70 61 63 65 66 69 67     sokoban.spacefig
     b8c:	68 74 0a 62 6c 69 6e 6b 79 0a 6a 6f 75 73 74 20     ht.blinky.joust 
     b9c:	32 2e 33 0a 6d 69 6e 65 73 20 68 75 6e 74 65 72     2.3.mines hunter
     bac:	0a 6d 61 67 69 63 20 73 71 75 61 72 65 0a 61 73     .magic square.as
     bbc:	74 65 72 6f 69 64 73 20 66 69 65 6c 64 0a 00        teroids field..

00000bcb <field>:
     bcb:	00 ff 61 2a 62 01 a4 bc d1 20 61 3a a4 dc d1 20     ..a*b.... a:... 
     bdb:	61 4a a4 fc d1 20 61 40 62 30 a4 7c d1 20 61 30     aJ... a@b0.|. a0
     beb:	a4 5c d1 20 62 20 63 30 64 20 6e 01 6d 03 a3 9c     .\. b c0d n.m...
     bfb:	d1 20 a3 bc 61 40 d1 20 65 ff 85 e5 35 00 12 3a     . ..a@. e...5..:
     c0b:	65 ff 85 e5 35 00 12 42 61 30 a3 9c d1 20 a3 dc     e...5..Ba0... ..
     c1b:	d1 20 65 f0 85 e5 35 00 12 54 d1 20 a3 fc d1 20     . e...5..T. ... 
     c2b:	83 d5 84 d5 a4 3c d3 40 65 f0 85 e5 35 00 12 6a     .....<.@e...5..j
     c3b:	d3 40 83 d5 84 d5 a4 1c d3 40 65 f0 85 e5 35 00     .@.......@e...5.
     c4b:	12 7c d3 40 83 d5 84 d5 a4 3c d3 40 65 f0 85 e5     .|.@.....<.@e...
     c5b:	35 00 12 8e d3 40 62 00 e2 9e 12 72 00 e0 63 01     5....@b....r..c.
     c6b:	61 01 62 07 69 20 6a 0f 65 01 6b 7a 6e 01 6d 00     a.b.i j.e.kzn.m.
     c7b:	67 00 a3 98 77 01 47 c0 13 20 62 01 e2 a1 13 10     g...w.G.. b.....
     c8b:	62 02 e2 a1 13 14 62 04 e2 a1 13 18 62 05 e2 a1     b.....b.....b...
     c9b:	13 1c 62 07 e2 a1 13 74 62 08 e2 a1 13 82 62 0c     ..b....tb.....b.
     cab:	e2 a1 13 26 62 0d e2 a1 13 2c 4c 01 13 74 4c 02     ...&b....,L..tL.
     cbb:	13 82 62 70 82 35 32 00 12 f4 a3 90 c1 3a 6e 40     ..bp.52......:n@
     ccb:	8e 15 d5 e4 db e4 4c 01 13 32 4c 02 13 38 12 b4     ......L..2L..8..
     cdb:	63 01 12 ea 63 02 12 ea 63 04 12 ea 63 08 12 ea     c...c...c...c...
     ceb:	7d 01 67 00 12 ba 6e 01 8a e5 12 ea 6e 01 7a 01     }.g...n.....n.z.
     cfb:	12 ea a3 94 d9 a3 12 b4 a3 98 d9 a3 12 b4 65 08     ..............e.
     d0b:	89 55 8a 55 a5 1c d9 a0 65 f0 6e 01 85 e5 35 00     .U.U....e.n...5.
     d1b:	13 4c a5 3c d9 a0 65 ff 6e 01 85 e5 35 00 13 5a     .L.<..e.n...5..Z
     d2b:	00 e0 61 2c 62 10 a4 9c d1 20 61 32 62 25 fd 29     ..a,b.... a2b%.)
     d3b:	d1 25 12 02 00 fc a3 94 d9 a3 4f 01 13 3e 6c 01     .%........O..>l.
     d4b:	12 f2 00 fb a3 98 d9 a3 4f 01 13 3e 6c 02 12 f2     ........O..>l...
     d5b:	6e ff 7e 33 e0 7f e0 00 07 fe 07 99 00 00 20 83     n.~3.......... .
     d6b:	31 86 7f c7 4a 46 7b c6 3f 80 5f 43 ff e4 df 63     1...JF{.?._C...c
     d7b:	ff e0 db 60 aa a3 6a c0 ea ff d5 7f 00 00 c6 00     ...`..j.........
     d8b:	66 00 e6 00 66 00 67 c0 00 00 c0 60 00 84 8c 8e     f...f.g....`....
     d9b:	52 c4 52 84 8c 83 00 00 ff ff ff ff 04 00 1e 03     R.R.............
     dab:	37 86 7f 87 0f c6 07 76 0f f8 0f db 07 fc 03 ef     7......v........
     dbb:	01 df 00 9f 00 0f 01 07 ff ff ff 7f 00 00 00 03     ................
     dcb:	00 06 00 07 00 06 00 06 00 00 00 03 00 04 00 03     ................
     ddb:	00 00 00 00 00 03 00 00 ff ff ff 7f 04 00 1e 00     ................
     deb:	37 80 7f 80 0f c0 07 70 0f f8 0f d8 07 f8 03 ee     7......p........
     dfb:	01 df 00 9f 00 4f 00 67 00 03 00 00 10 00 3c 0e     .....O.g......<.
     e0b:	5e bf ff ff 3f ff 0f f7 07 fb 07 f9 03 f8 01 fc     ^...?...........
     e1b:	00 de 00 9e 00 5f 00 0f 00 0f 00 00 24 30 54 28     ....._......$0T(
     e2b:	54 30 74 29 54 2a 54 29 00 00 50 00 54 80 71 e0     T0t)T*T)..P.T.q.
     e3b:	54 80 54 83 54 43 00 00 00 00 00 00 20 02 20 02     T.T.TC...... . .
     e4b:	20 02 26 c6 aa aa 26 a6 00 00 70 60 20 a0 24 84      .&...&...p` .$.
     e5b:	2a aa 2a aa 24 64 00 00 00 00 00 00 14 00 14 00     *.*.$d..........
     e6b:	08 94 09 54 08 88 00 00 c4 ee aa 48 ce 4e aa 48     ...T.......H.N.H
     e7b:	aa 48 aa 4e 00 00 07 e0 03 c0 01 80 00 00 ff 7e     .H.N...........~
     e8b:	ff 7e e0 18 e0 18 e0 18 fc 18 fc 18 e0 18 e0 18     .~..............
     e9b:	e0 18 e0 18 e0 7e e0 7e 00 00 00 00 00 00 ff 70     .....~.~.......p
     eab:	ff 70 e0 70 e0 70 e0 70 fc 70 fc 70 e0 70 e0 70     .p.p.p.p.p.p.p.p
     ebb:	e0 70 e0 70 ff 7e ff 7e 00 00 00 00 00 00 f8 08     .p.p.~.~........
     ecb:	fe 1c e7 3e e7 3e e7 3e e7 3e e7 1c e7 1c e7 1c     ...>.>.>.>......
     edb:	e7 08 e7 00 fe 1c f8 1c 00 00 00 00 00 02 10 0c     ................
     eeb:	08 14 0e c0 05 a0 06 1c 1a 24 7a 90 c1 e8 02 18     .........$z.....
     efb:	05 08 0c 10 10 00 00 00 00 00 00 00 c3 02 31 8c     ..............1.
     f0b:	09 54 0e c4 75 b9 1e 1c 1a 3e 7a 93 e1 e9 22 19     .T..u....>z...".
     f1b:	05 08 4c 14 30 0a 1b 32 14 32 20 01                 ..L.0..2.2 .

00000f27 <field_info>:
     f27:	61 73 74 65 72 6f 69 64 73 20 66 69 65 6c 64 21     asteroids field!
     f37:	0a 62 79 20 41 6c 20 52 6f 6c 61 6e 64 0a 6b 65     .by Al Roland.ke
     f47:	79 73 3a 0a 31 20 73 6c 6f 77 65 73 74 0a 32 20     ys:.1 slowest.2 
     f57:	73 6c 6f 77 0a 34 20 66 61 73 74 0a 35 20 66 61     slow.4 fast.5 fa
     f67:	73 74 65 73 74 0a 37 20 72 69 67 68 74 0a 38 20     stest.7 right.8 
     f77:	6c 65 66 74 0a 43 20 75 70 0a 44 20 64 6f 77 6e     left.C up.D down
     f87:	0a 00                                               ..

00000f89 <__c.2079>:
     f89:	45 63 68 65 63 20 6f 75 76 65 72 74 2e 20 66 69     Echec ouvert. fi
     f99:	63 68 2e 0a 00                                      ch...

00000f9e <__c.2067>:
     f9e:	45 63 68 65 63 20 61 63 63 65 73 20 72 65 70 65     Echec acces repe
     fae:	72 74 2e 0a 00                                      rt...

00000fb3 <__c.2059>:
     fb3:	45 63 68 65 63 20 61 63 63 65 73 20 66 69 63 68     Echec acces fich
     fc3:	69 65 72 73 0a 00                                   iers..

00000fc9 <__c.2057>:
     fc9:	45 63 68 65 63 20 61 63 63 65 73 20 70 61 72 74     Echec acces part
     fd9:	69 74 69 6f 6e 0a 00                                ition..

00000fe0 <joust23>:
     fe0:	12 0e 20 4a 6f 75 73 74 20 76 32 2e 33 00 00 ff     .. Joust v2.3...
     ff0:	28 f0 60 00 aa 5a f0 55 68 00 69 03 6c 00 6d 0f     (.`..Z.Uh.i.l.m.
    1000:	22 9e 00 e0 6a 02 7c 01 6d 07 8d c5 4f 00 12 4e     "...j.|.m...O..N
    1010:	4c 04 68 01 8b c0 7b 01 27 48 6e 1b 6d 09 8d c5     L.h...{.'Hn.m...
    1020:	4f 00 12 54 fc 30 6d 3c dd ea 27 50 12 6a 6b 08     O..T.0m<..'P.jk.
    1030:	68 02 12 38 aa b0 fc 33 f2 65 6d 37 f1 30 dd ea     h..8...3.em7.0..
    1040:	6d 41 f2 30 dd ea 27 50 12 6a 6d 07 8d c2 4d 07     mA.0..'P.jm...M.
    1050:	19 50 28 4c 27 70 25 f8 3b 00 25 f0 6d 0f 22 9e     .P(L'p%.;.%.m.".
    1060:	22 a8 46 dd 16 b0 4a 00 12 1e 22 fa 38 00 24 bc     ".F...J...".8.$.
    1070:	6d 05 48 00 22 9e 6d 03 48 01 22 9e 12 80 fd 15     m.H.".m.H.".....
    1080:	fd 07 3d 00 12 a0 00 ee aa 82 f5 65 24 a0 62 00     ..=........e$.b.
    1090:	6d 0a ed a1 24 9c 6d 03 ed a1 24 90 6d 0c ed a1     m...$.m...$.m...
    10a0:	24 96 22 ce 46 dd 00 ee 3f 00 25 16 00 ee 27 82     $.".F...?.%...'.
    10b0:	27 ec 8d 00 8e 10 80 24 81 34 aa 62 f5 1e 65 7f     '......$.4.b..e.
    10c0:	80 52 85 40 86 00 87 10 dd e8 aa 62 f4 1e d0 18     .R.@.......b....
    10d0:	41 38 66 dd aa 82 f5 55 00 ee 4a 01 13 16 4a 02     A8f....U..J...J.
    10e0:	13 0e 4a 03 13 ae 4a 04 13 b4 4a 05 13 ba 23 16     ..J...J...J...#.
    10f0:	4a 02 23 68 00 ee aa 88 f5 65 cd 03 4d 00 24 a4     J.#h.....e..M.$.
    1100:	23 2a 23 7a 3f 00 14 e8 00 ee 8d 60 8d 05 4f 00     #*#z?......`..O.
    1110:	8d f7 6e 10 8e d5 4f 00 00 ee 8d 70 8d 15 4f 00     ..n...O....p..O.
    1120:	8d f7 6e 0c 8e d5 4f 00 00 ee 8d 60 8d 05 4f 00     ..n...O....`..O.
    1130:	24 90 3f 00 24 96 8d 70 8d 15 3f 00 24 a0 4f 00     $.?.$..p..?.$.O.
    1140:	24 9c 91 70 24 9c 00 ee aa 8e f5 65 cd 01 4d 00     $..p$......e..M.
    1150:	24 a4 23 82 3f 00 14 f0 00 ee 23 8a aa 88 f5 55     $.#.?.....#....U
    1160:	00 ee 23 8a aa 8e f5 55 00 ee 27 82 27 ec 41 34     ..#....U..'.'.A4
    1170:	24 9c 8d 00 8e 10 80 24 81 34 aa 72 f5 1e 65 7f     $......$.4.r..e.
    1180:	80 52 85 40 dd e8 aa 72 f4 1e d0 18 00 ee 23 16     .R.@...r......#.
    1190:	23 ba 00 ee 24 0e 23 ba 00 ee aa 94 f4 65 44 02     #...$.#......eD.
    11a0:	13 ce 62 00 24 40 24 7c aa 94 f4 55 00 ee 72 01     ..b.$@$|...U..r.
    11b0:	42 08 13 da aa 94 f4 55 00 ee aa c2 d0 14 4a 04     B......U......J.
    11c0:	13 ea 4a 03 14 00 6a 00 00 ee aa 9a f4 65 aa 94     ..J...j......e..
    11d0:	f4 55 4b 00 6a 05 4b 00 00 ee 25 f8 6a 03 00 ee     .UK.j.K...%.j...
    11e0:	4b 00 6a 01 4b 00 00 ee 25 f0 6a 02 00 ee aa 9a     K.j.K...%.j.....
    11f0:	f4 65 44 02 14 22 62 00 24 40 24 7c aa 9a f4 55     .eD.."b.$@$|...U
    1200:	00 ee 72 01 42 08 14 2e aa 9a f4 55 00 ee aa c2     ..r.B......U....
    1210:	d0 14 4b 00 14 3c 25 f8 6a 03 00 ee 6a 05 00 ee     ..K..<%.j...j...
    1220:	41 18 14 50 41 0c 14 66 41 24 14 66 63 01 00 ee     A..PA..fA$.fc...
    1230:	27 ac 33 00 00 ee 6d 01 fd 18 63 fd 44 00 62 fe     '.3...m...c.D.b.
    1240:	44 01 62 02 00 ee 27 be 33 00 00 ee 6d 01 fd 18     D.b...'.3...m...
    1250:	63 fd 44 00 62 fe 44 01 62 02 00 ee 8d 00 8e 10     c.D.b.D.b.......
    1260:	80 24 81 34 aa c2 dd e4 d0 14 41 38 64 02 00 ee     .$.4......A8d...
    1270:	64 08 62 fc 00 ee 64 00 62 04 00 ee 63 fe 00 ee     d.b...d.b...c...
    1280:	63 02 00 ee cd 01 fd 18 4d 00 24 90 4d 01 24 96     c.......M.$.M.$.
    1290:	cd 01 4d 00 24 a0 4d 01 24 9c 00 ee cd 03 3d 00     ..M.$.M.$.....=.
    12a0:	00 ee aa c0 f1 65 6d 3b aa ba d0 d5 80 14 40 08     .....em;......@.
    12b0:	24 dc 40 70 24 e2 aa c0 f1 55 00 ee 60 10 61 08     $.@p$....U..`.a.
    12c0:	00 ee 60 68 61 f8 00 ee 24 f8 4f 00 15 92 00 ee     ..`ha...$.O.....
    12d0:	24 f8 4f 00 15 ce 00 ee 8d 60 8d 05 4f 00 8d f7     $.O......`..O...
    12e0:	6e 08 8d e5 3f 00 00 ee 8d 70 8d 15 4f 00 8d f7     n...?....p..O...
    12f0:	6e 08 8d e5 00 ee 4a 02 15 64 4a 01 15 92 4a 04     n.....J..dJ...J.
    1300:	15 28 4a 05 15 3a 15 52 aa 94 f4 65 25 76 4f 00     .(J..:.R...e%vO.
    1310:	15 46 25 84 4f 00 15 46 15 3a 27 20 27 02 27 02     .F%.O..F.:' '.'.
    1320:	aa 94 f4 65 13 da 27 20 27 02 27 02 aa 9a f4 65     ...e..' '.'....e
    1330:	14 2e aa 88 f5 65 25 76 4f 00 15 3a 25 84 4f 00     .....e%vO..:%.O.
    1340:	15 3a 15 92 aa 88 f5 65 25 76 4f 00 15 ce 25 84     .:.....e%vO...%.
    1350:	4f 00 15 ce 15 92 8d 60 8d 05 4f 00 8d f7 6e 08     O......`..O...n.
    1360:	8e d5 00 ee 8d 70 8d 15 4f 00 8d f7 6e 08 8e d5     .....p..O...n...
    1370:	00 ee aa 88 f5 65 97 10 16 62 8d 70 8d 15 3f 00     .....e...b.p..?.
    1380:	15 ec 27 0c aa 72 f5 1e d0 18 4a 03 15 ba 4a 02     ..'..r....J...J.
    1390:	15 c0 4a 01 6a 05 26 40 00 ee 6a 04 26 48 00 ee     ..J.j.&@..j.&H..
    13a0:	26 40 aa 8e f5 65 aa 88 f5 55 6a 03 00 ee aa 8e     &@...e...Uj.....
    13b0:	f5 65 97 10 16 78 8d 70 8d 15 3f 00 15 ec 27 0c     .e...x.p..?...'.
    13c0:	aa 72 f5 1e d0 18 6a 03 26 40 00 ee 66 dd 00 ee     .r....j.&@..f...
    13d0:	26 00 aa 8e f5 55 00 ee 26 00 aa 88 f5 55 00 ee     &....U..&....U..
    13e0:	26 1a 7b ff 24 9c cd 01 3d 01 24 90 3d 00 24 96     &.{.$...=.$.=.$.
    13f0:	aa 72 f4 1e d0 18 85 40 00 ee cd 03 4d 00 16 3a     .r.....@....M..:
    1400:	4d 01 16 34 4d 02 16 2e 60 78 61 34 00 ee 60 40     M..4M...`xa4..`@
    1410:	61 20 00 ee 60 40 61 08 00 ee 60 08 61 14 00 ee     a ..`@a...`.a...
    1420:	26 50 aa 94 f4 55 00 ee 26 50 aa 9a f4 55 00 ee     &P...U..&P...U..
    1430:	71 08 6d 37 8d 15 4f 00 61 37 c4 01 aa c2 d0 14     q.m7..O.a7......
    1440:	00 ee 26 8e 3f 00 16 70 24 96 23 7a 23 7a 16 a4     ..&.?..p$.#z#z..
    1450:	24 90 23 7a 23 7a 16 98 26 8e 3f 00 16 86 24 96     $.#z#z..&.?...$.
    1460:	23 82 23 82 16 a4 24 90 23 82 23 82 16 98 6d 03     #.#...$.#.#...m.
    1470:	fd 18 8d 60 8d 05 00 ee aa 82 f5 65 24 96 22 ce     ...`.......e$.".
    1480:	22 ce 00 ee aa 82 f5 65 24 90 22 ce 22 ce 00 ee     "......e$."."...
    1490:	27 0c 27 02 27 16 6d 0a 22 9e 79 ff 49 00 16 da     '.'.'.m.".y.I...
    14a0:	4a 01 7b 01 4a 03 7b 01 4a 02 7b 02 6a 02 4b 00     J.{.J.{.J.{.j.K.
    14b0:	12 1e 6a 02 4b 01 6a 01 12 6a 26 e4 00 e0 27 2a     ..j.K.j..j&...'*
    14c0:	29 0c 12 12 6d 0c fd 18 6d 18 22 9e 27 0c 27 0c     )...m...m.".'.'.
    14d0:	27 16 27 16 6d 20 22 9e 27 16 27 16 6d 20 22 9e     '.'.m ".'.'.m ".
    14e0:	00 ee 6d 02 fd 18 6d 05 22 9e 00 ee 6d 04 fd 18     ..m...m."...m...
    14f0:	6d 0a 22 9e 00 ee 6d 08 fd 18 6d 14 22 9e 00 ee     m."...m...m."...
    1500:	aa 5a f0 65 70 01 f0 55 00 ee aa 5a f0 65 f0 33     .Z.ep..U...Z.e.3
    1510:	f2 65 6e 1b 6d 31 f0 30 dd ea 7d 0a f1 30 dd ea     .en.m1.0..}..0..
    1520:	7d 0a f2 30 dd ea 00 ee 63 00 64 00 65 7c 66 3e     }..0....c.d.e|f>
    1530:	aa 5e d3 43 d3 63 d5 43 d5 63 73 04 74 02 75 fc     .^.C.c.C.cs.t.u.
    1540:	76 fe 6d 04 22 9e 43 40 00 ee 43 80 00 ee 17 52     v.m.".C@..C....R
    1550:	64 00 65 00 60 70 61 14 aa 62 d0 18 aa 82 f5 55     d.e.`pa..b.....U
    1560:	00 ee 41 00 17 d0 41 34 17 d8 6d 02 53 d0 17 9e     ..A...A4..m.S...
    1570:	41 14 17 ac 41 08 17 be 41 20 17 be 00 ee 41 20     A...A...A ....A 
    1580:	17 ac 41 14 17 be 41 2c 17 be 00 ee 6d 10 8d 07     ..A...A,....m...
    1590:	4f 00 17 e8 6d 68 8d 05 4f 00 17 e8 00 ee 6d 29     O...mh..O.....m)
    15a0:	8d 07 4f 00 00 ee 6d 50 8d 07 4f 00 17 e8 00 ee     ..O...mP..O.....
    15b0:	6d fe 93 d0 24 a0 00 ee 6d 02 53 d0 00 ee 48 00     m...$...m.S...H.
    15c0:	17 e8 38 00 17 ac 00 ee 63 00 00 ee 42 00 00 ee     ..8.....c...B...
    15d0:	6d 04 52 d0 18 00 40 68 18 0a 40 28 18 1c 00 ee     m.R...@h..@(....
    15e0:	40 10 18 0a 40 50 18 1c 00 ee 6d 11 8d 17 4f 00     @...@P....m...O.
    15f0:	00 ee 6d 21 8d 17 4f 00 18 48 00 ee 6d 1c 8d 15     ..m!..O..H..m...
    1600:	4f 00 18 36 6d 05 8d 17 4f 00 00 ee 6d 15 8d 17     O..6m...O...m...
    1610:	4f 00 18 48 00 ee 6d 1d 8d 17 4f 00 00 ee 6d 2d     O..H..m...O...m-
    1620:	8d 17 4f 00 18 48 00 ee 62 00 00 ee 00 e0 6d 00     ..O..H..b.....m.
    1630:	6e 3c aa ac dd e4 6d 08 dd e4 aa a8 6d 10 48 00     n<....m.....m.H.
    1640:	28 a8 38 00 28 b2 aa a8 6e 1c 6d 78 dd e4 6d 00     (.8.(...n.mx..m.
    1650:	dd e4 6d 38 6e 10 dd e4 6d 40 dd e4 6e 28 dd e4     ..m8n...m@..n(..
    1660:	6d 38 dd e4 aa a0 6d 48 dd e4 6e 10 dd e4 6d 08     m8....mH..n...m.
    1670:	6e 1c dd e4 aa a4 6d 70 dd e4 6e 28 6d 30 dd e4     n.....mp..n(m0..
    1680:	6e 10 dd e4 28 d2 00 ee dd e4 7d 08 3d 80 18 a8     n...(.....}.=...
    1690:	00 ee 6d 70 dd e4 6d 78 dd e4 6d 10 aa b4 6e 3b     ..mp..mx..m...n;
    16a0:	dd e5 7d 08 3d 70 18 c0 60 68 61 f8 aa c0 f1 55     ..}.=p..`ha....U
    16b0:	00 ee 49 01 00 ee 6d 01 6e 3d aa 5e dd e3 7d 04     ..I...m.n=.^..}.
    16c0:	39 02 dd e3 7d 04 66 03 86 95 4f 00 dd e3 00 ee     9...}.f...O.....
    16d0:	aa c6 6d 24 6e 18 dd e0 60 20 f0 1e 7d 10 dd e0     ..m$n...` ..}...
    16e0:	f0 1e 7d 10 dd e0 f0 1e 7d 10 dd e0 68 00 6b 01     ..}.....}...h.k.
    16f0:	6a 00 25 f8 27 70 24 96 aa 82 f5 55 6d 0a 22 9e     j.%.'p$....Um.".
    1700:	aa 82 f5 65 29 40 22 d2 aa 82 f5 55 aa 88 f5 65     ...e)@"....U...e
    1710:	29 40 23 92 aa 88 f5 55 6d 0a ed 9e 19 1c 00 ee     )@#....Um.......
    1720:	cd 0f 4d 00 24 a4 41 02 63 02 41 36 63 fe 00 ee     ..M.$.A.c.A6c...
    1730:	28 4c 27 70 aa c2 6e 0c 6d 32 dd e4 7d 0c dd e4     (L'p..n.m2..}...
    1740:	7d 0c dd e4 6e 24 6d 32 dd e4 7d 0c dd e4 7d 0c     }...n$m2..}...}.
    1750:	dd e4 6e 18 6d 0a dd e4 6e 38 dd e4 6d 72 dd e4     ..n.m...n8..mr..
    1760:	66 00 67 00 77 01 47 6a 12 1e 6d 01 fd 18 6d 03     f.g.w.Gj..m...m.
    1770:	22 9e aa 82 f5 65 24 a0 62 00 6d 0a ed a1 24 9c     "....e$.b.m...$.
    1780:	6d 03 ed a1 24 90 6d 0c ed a1 24 96 27 82 27 ec     m...$.m...$.'.'.
    1790:	8d 00 8e 10 80 24 81 34 aa 62 f5 1e 65 7f 80 52     .....$.4.b..e..R
    17a0:	85 40 dd e8 aa 62 f4 1e d0 18 41 38 1a 38 aa 82     .@...b....A8.8..
    17b0:	f5 55 3f 00 29 dc 46 09 1a 48 19 84 6e 34 91 e0     .U?.).F..H..n4..
    17c0:	19 f6 6e 14 91 e0 1a 04 6e 08 91 e0 1a 0c 6e 20     ..n.....n.....n 
    17d0:	91 e0 1a 0c 00 ee 6d 70 90 d0 1a 20 6d 08 90 d0     ......mp... m...
    17e0:	1a 20 00 ee 6d 08 90 d0 1a 20 00 ee 6d 30 90 d0     . ..m.... ..m0..
    17f0:	1a 20 7d 0c 90 d0 1a 20 7d 0c 90 d0 1a 20 00 ee     . }.... }.... ..
    1800:	7d 02 7e 04 aa c2 dd e4 27 02 27 02 76 01 aa 5a     }.~.....'.'.v..Z
    1810:	f0 65 70 01 f0 55 00 ee 6d 08 fd 18 6d 14 22 9e     .ep..U..m...m.".
    1820:	79 ff 49 00 16 da 12 1e aa 5a f0 65 70 08 f0 55     y.I......Z.ep..U
    1830:	79 01 27 16 27 0c 27 16 12 1e 00 00 00 00 40 e0     y.'.'.'.......@.
    1840:	40 00 66 6f 4c ff 6c dc ec 78 66 f6 32 ff 36 3b     @.foL.l..xf.2.6;
    1850:	37 1e 6e 6f 4c ff 6c be 9e 7c 76 f6 32 ff 36 7d     7.noL.l..|v.2.6}
    1860:	79 3e 00 00 00 00 00 00 00 00 00 00 00 00 00 00     y>..............
	...
    1880:	ff ba e8 80 ff 6d 1b 02 ff ee bb b6 ff ff ff ff     .....m..........
    1890:	00 00 00 00 06 1c 28 4c fe 00 66 24 3c 6e 00 00     ......(L..f$<n..
    18a0:	00 00 60 b0 f0 60 00 c0 00 c0 00 c0 00 c0 00 c0     ..`..`..........
    18b0:	00 c0 00 c3 00 c7 00 cc 00 cc c0 cc c0 cc c0 cc     ................
    18c0:	c0 cc 7f 87 3f 03 00 00 00 00 00 00 00 00 00 00     ....?...........
    18d0:	00 00 f0 c0 f8 c0 0c c0 0c c0 0c c0 0c c0 0c c0     ................
    18e0:	0c c0 f8 7f f0 3f 00 00 00 00 00 00 00 00 00 00     .....?..........
    18f0:	00 00 c3 fc c7 fc cc 00 cc 00 c7 f0 c3 f8 c0 0c     ................
    1900:	c0 0c cf f8 cf f0 00 00 00 00 30 00 30 00 30 00     ..........0.0.0.
    1910:	30 00 fc 00 fc 00 30 00 30 00 30 00 30 00 33 00     0.....0.0.0.0.3.
    1920:	33 00 1e 00 0c 00                                   3.....

00001926 <joust23_info>:
    1926:	4a 6f 75 73 74 20 32 2e 33 0a 45 72 69 6e 20 53     Joust 2.3.Erin S
    1936:	20 43 61 74 74 6f 0a 6b 65 79 73 3a 0a 41 20 73      Catto.keys:.A s
    1946:	74 61 72 74 2c 72 65 70 6c 61 79 2c 75 70 0a 43     tart,replay,up.C
    1956:	20 72 69 67 68 74 0a 33 20 6c 65 66 74 0a 00         right.3 left..

00001965 <__c.1744>:
    1965:	75 6e 65 20 74 6f 75 63 68 65 2e 2e 2e 00           une touche....

00001973 <inputs>:
    1973:	20 10 08 04                                          ...

00001977 <outputs>:
    1977:	01 04 08 20                                         ... 

0000197b <key_matrix>:
    197b:	01 02 03 0a 04 05 06 0b 07 08 09 0c 0e 00 0f 0d     ................

0000198b <mines>:
    198b:	12 1d 4d 49 4e 45 53 21 20 31 2e 30 30 20 42 79     ..MINES! 1.00 By
    199b:	20 44 61 76 69 64 20 57 49 4e 54 45 52 00 ff 00      David WINTER...
    19ab:	e0 60 00 61 00 62 20 a5 26 d0 10 f2 1e 71 10 31     .`.a.b .&....q.1
    19bb:	40 12 29 61 00 70 10 30 80 12 29 6c 01 24 6f f3     @.)a.p.0..)l.$o.
    19cb:	0a 33 04 12 4f 24 6f 7c ff 4c 00 6c 05 24 6f 33     .3..O$o|.L.l.$o3
    19db:	06 12 5d 24 6f 7c 01 4c 06 6c 01 24 6f 33 05 12     ..]$o|.L.l.$o3..
    19eb:	3f 80 c0 8c c4 8c c4 8c c4 8c 04 8c 04 6a a2 8a     ?............j..
    19fb:	c5 00 e0 60 2a 61 1d 62 05 a5 08 d0 15 f2 1e 70     ...`*a.b.......p
    1a0b:	08 30 5a 12 7b a9 53 60 00 61 01 62 00 f0 55 f1     .0Z.{.S`.a.b..U.
    1a1b:	1e 72 01 32 a2 12 8d 63 00 a9 53 c1 ff 62 a1 82     .r.2...c..S..b..
    1a2b:	15 3f 01 12 99 f1 1e f0 65 30 00 12 99 60 01 f0     .?......e0...`..
    1a3b:	55 73 01 53 c0 12 99 00 e0 60 00 61 00 a4 87 d0     Us.S.....`.a....
    1a4b:	10 71 0e 31 38 12 bf d0 10 61 00 70 0e 30 7e 12     .q.18....a.p.0~.
    1a5b:	bf a4 a7 d0 18 71 08 31 40 12 d3 6d 00 6e 00 24     .....q.1@..m.n.$
    1a6b:	55 f2 0a 32 02 12 f1 24 55 7e ff 4e ff 6e 08 24     U..2...$U~.N.n.$
    1a7b:	55 32 04 12 ff 24 55 7d ff 4d ff 6d 11 24 55 32     U2...$U}.M.m.$U2
    1a8b:	06 13 0d 24 55 7d 01 4d 12 6d 00 24 55 32 08 13     ...$U}.M.m.$U2..
    1a9b:	1b 24 55 7e 01 4e 09 6e 00 24 55 32 0c 13 35 24     .$U~.N.n.$U2..5$
    1aab:	2d 81 00 62 02 81 22 41 02 13 35 61 04 80 13 f0     -..b.."A..5a....
    1abb:	55 24 51 24 4d 32 05 12 e1 24 2d 83 00 62 02 83     U$Q$M2...$-..b..
    1acb:	22 43 02 12 e1 80 21 f0 55 24 55 24 2d 83 00 62     "C....!.U$U$-..b
    1adb:	01 83 22 43 01 13 fb 24 2d 83 00 62 04 83 22 43     .."C...$-..b.."C
    1aeb:	04 24 4d 43 00 24 51 6b 00 4d 00 13 7b 4e 00 13     .$MC.$Qk.M..{N..
    1afb:	7b 7d ff 7e ff 24 2d 7d 01 7e 01 4e 00 13 85 7e     {}.~.$-}.~.N...~
    1b0b:	ff 24 2d 7e 01 4d 11 13 97 4e 00 13 97 7d 01 7e     .$-~.M...N...}.~
    1b1b:	ff 24 2d 7d ff 7e 01 4d 00 13 a1 7d ff 24 2d 7d     .$-}.~.M...}.$-}
    1b2b:	01 4d 11 13 ab 7d 01 24 2d 7d ff 4d 00 13 bd 4e     .M...}.$-}.M...N
    1b3b:	08 13 bd 7d ff 7e 01 24 2d 7d 01 7e ff 4e 08 13     ...}.~.$-}.~.N..
    1b4b:	c7 7e 01 24 2d 7e ff 4d 11 13 d9 4e 08 13 d9 7d     .~.$-~.M...N...}
    1b5b:	01 7e 01 24 2d 7d ff 7e ff 4b 00 13 ef 7b ff a4     .~.$-}.~.K...{..
    1b6b:	cf 80 b0 80 04 80 04 80 04 80 b5 f0 1e 24 57 24     .............$W$
    1b7b:	55 7a ff 3a 00 12 e1 24 55 14 2b 6d 00 6e 00 24     Uz.:...$U.+m.n.$
    1b8b:	2d 61 01 80 12 30 01 14 1d 24 2d 61 04 80 12 83     -a...0...$-a....
    1b9b:	00 40 04 24 4d 33 04 24 51 a4 bf 24 57 7d 01 3d     .@.$M3.$Q..$W}.=
    1bab:	12 13 ff 6d 00 7e 01 3e 09 13 ff 14 2b a9 53 80     ...m.~.>....+.S.
    1bbb:	e0 80 04 80 04 80 04 80 04 80 e4 80 e4 80 d4 f0     ................
    1bcb:	1e f0 65 81 00 64 01 81 42 8b 14 00 ee a4 b7 14     ..e..d..B.......
    1bdb:	57 a4 c7 14 57 a4 af 80 d0 81 e0 80 04 80 04 80     W...W...........
    1beb:	04 80 d5 81 14 81 14 81 14 81 e5 d0 18 00 ee 60     ...............`
    1bfb:	56 61 2f a9 26 82 c0 82 24 82 24 82 24 82 c4 72     Va/.&...$.$.$..r
    1c0b:	f7 f2 1e d0 19 00 ee ff fc d5 a8 ab 54 d5 a8 ab     ............T...
    1c1b:	54 d5 a8 ab 54 ff fc d5 a8 ab 54 d5 a8 ab 54 d5     T...T.....T...T.
    1c2b:	a8 ab 54 00 00 00 00 80 80 80 80 80 80 80 80 ff     ..T.............
    1c3b:	ff ff ff ff ff ff ff 00 00 18 3c 3c 18 00 00 00     ..........<<....
    1c4b:	18 3c 7e 7e 3c 18 00 00 54 2a 54 2a 54 2a 00 00     .<~~<...T*T*T*..
    1c5b:	76 66 56 76 76 42 00 66 5a 7a 66 5e 42 00 46 7a     vfVvvB.fZzf^B.Fz
    1c6b:	7a 46 7a 46 00 5a 5a 5a 62 7a 7a 00 42 5e 46 7a     zFzF.ZZZbzz.B^Fz
    1c7b:	7a 46 00 62 5e 46 5a 5a 66 00 42 7a 72 66 6e 6e     zF.b^FZZf.Bzrfnn
    1c8b:	00 66 5a 5a 66 5a 66 00 e8 a8 e8 88 8e ee 8a ce     .fZZfZf.........
    1c9b:	8a ea ee 88 ec 28 ee 11 11 15 1b 11 77 52 72 52     .....(......wRrR
    1cab:	57 70 20 20 20 20 00 00 00 00 00 00 00 00 00 fe     Wp    ..........
    1cbb:	00 3e 00 1e 00 1f 00 17 00 17 00 13 00 13 00 13     .>..............
    1ccb:	00 11 00 11 00 10 00 10 00 10 00 10 00 10 00 10     ................
    1cdb:	00 10 00 10 00 10 00 38 00 fe 00 00 00 00 00 00     .......8........
    1ceb:	00 00 00 7e 00 18 00 18 00 18 00 18 00 18 00 18     ...~............
    1cfb:	00 18 00 18 00 00 00 00 00 00 00 00 00 00 00 00     ................
	...
    1d37:	00 00 00 0f 00 0f 00 1e 00 1e 00 1e 80 3e 80 3e     .............>.>
    1d47:	80 4e c0 4e c0 4e e0 8e e0 8e e1 0e f1 0e 71 0e     .N.N.N........q.
    1d57:	7a 0e 3a 0e 3c 0e 1c 0e 1c 0e 08 1f 08 7f 00 00     z.:.<...........
    1d67:	00 00 00 00 00 00 60 00 60 00 7c 3c 66 66 66 66     ......`.`.|<ffff
    1d77:	66 7e 66 60 66 60 66 3c 00 00 00 00 00 00 00 00     f~f`f`f<........
    1d87:	00 00 00 1f 00 10 00 10 00 17 00 11 00 11 00 11     ................
    1d97:	00 11 00 11 00 11 00 11 00 17 00 10 00 10 00 1f     ................
	...
    1db7:	00 00 cf f9 03 e0 01 c0 01 c0 01 c0 01 c0 01 c0     ................
    1dc7:	01 c0 01 c0 01 c0 01 c0 01 c0 01 c0 01 c0 01 c0     ................
    1dd7:	01 c0 01 c0 01 c0 01 c0 01 c0 03 e0 cf f9 00 00     ................
	...
    1def:	00 00 00 7e 00 6b 00 6b 00 6b 00 6b 00 6b 00 63     ...~.k.k.k.k.k.c
	...
    1e07:	00 00 ff ff 00 00 00 00 c7 f7 02 12 02 02 02 42     ...............B
    1e17:	03 c1 02 41 02 01 12 10 f7 f0 00 00 00 00 ff ff     ...A............
	...
    1e37:	00 00 f0 07 78 01 3c 00 3c 00 3e 00 2f 00 27 80     ....x.<.<.>./.'.
    1e47:	27 80 23 c0 21 e0 20 f0 20 f0 20 78 20 3c 20 1e     '.#.!. . . x < .
    1e57:	20 1e 20 0f 20 07 20 03 20 03 70 01 fc 00 00 00      . . . . .p.....
    1e67:	00 00 00 00 18 00 18 00 00 00 78 7c 18 66 18 66     ..........x|.f.f
    1e77:	18 66 18 66 18 66 7e 66 00 00 00 00 00 00 00 00     .f.f.f~f........
    1e87:	00 00 ff ff 00 00 00 00 77 f7 22 11 22 01 22 41     ........w."."."A
    1e97:	43 c1 42 41 42 01 82 11 87 f7 00 00 00 00 ff ff     C.BAB...........
	...
    1eb7:	00 00 f3 ff c0 f8 80 70 80 70 80 70 80 70 80 70     .......p.p.p.p.p
    1ec7:	80 70 80 70 80 70 80 7f 80 70 80 70 80 70 80 70     .p.p.p...p.p.p.p
    1ed7:	80 70 80 70 80 70 80 70 80 70 80 f8 83 ff 00 00     .p.p.p.p.p......
    1ee7:	00 00 00 00 00 00 00 60 00 60 3c 7c 66 66 66 66     .......`.`<|ffff
    1ef7:	7e 66 60 66 60 66 3c 66 00 00 00 00 00 00 00 00     ~f`f`f<f........
    1f07:	00 00 ff ff 00 00 00 00 c0 00 00 00 00 00 00 80     ................
    1f17:	00 00 00 00 00 00 10 00 f0 80 00 00 00 00 ff ff     ................
	...
    1f37:	00 00 fc 01 0c 07 04 0e 04 0e 00 1e 00 1e 00 1e     ................
    1f47:	10 0f 10 0f 30 07 f0 03 30 00 10 00 10 00 00 00     ....0...0.......
    1f57:	00 00 00 10 00 10 01 18 03 1c 0e 1e fe 13 00 00     ................
	...
    1f6f:	00 00 66 7c 66 66 66 66 66 66 66 66 66 66 3e 66     ..f|ffffffffff>f
	...
    1f87:	00 00 ff ff 00 00 00 00 00 01 00 02 00 02 00 02     ................
    1f97:	00 02 00 02 00 02 00 02 00 01 00 00 00 00 ff ff     ................
	...
    1fb7:	00 00 f9 00 0f 00 03 00 01 00 01 00 00 00 00 00     ................
    1fc7:	00 00 c0 00 f0 00 f8 00 fe 00 7f 00 1f 00 0f 80     ................
    1fd7:	07 80 07 80 07 80 07 00 07 00 0e 00 f8 00 00 00     ................
    1fe7:	00 00 00 00 00 00 30 00 30 00 7e 3c 30 66 30 66     ......0.0.~<0f0f
    1ff7:	30 7e 30 60 30 60 1e 3c 00 00 00 00 00 00 00 00     0~0`0`.<........
    2007:	00 00 f8 00 08 00 08 00 c8 00 28 00 28 00 28 00     ..........(.(.(.
    2017:	28 00 28 00 28 00 28 00 c8 00 08 00 08 00 f8 00     (.(.(.(.........
	...
    2037:	02 00 07 00 07 00 07 00 07 00 07 00 07 00 07 00     ................
    2047:	07 00 07 00 02 00 02 00 02 00 02 00 02 00 00 00     ................
    2057:	00 00 00 00 00 00 02 00 07 00 07 00 02 00 00 00     ................
	...
    206f:	00 00 66 00 6e 00 70 00 60 00 60 00 60 00 60 00     ..f.n.p.`.`.`.`.
	...
    20af:	00 00 20 e0 20 20 20 20 20 20 f8 70 88 08 08 10     .. .      .p....
    20bf:	20 40 80 f8 70 88 08 08 30 08 08 88 70 10 30 30      @..p...0...p.00
    20cf:	50 50 90 f8 10 38 f8 80 80 80 f0 08 08 88 70        PP...8........p

000020de <mines_info>:
    20de:	4d 69 6e 65 73 20 68 75 6e 74 65 72 0a 44 61 76     Mines hunter.Dav
    20ee:	69 64 20 57 69 6e 74 65 72 0a 6b 65 79 73 3a 0a     id Winter.keys:.
    20fe:	32 20 75 70 0a 38 20 64 6f 77 6e 0a 34 20 6c 65     2 up.8 down.4 le
    210e:	66 74 0a 36 20 72 69 67 68 74 0a 35 20 73 65 6c     ft.6 right.5 sel
    211e:	65 63 74 0a 00                                      ect..

00002123 <sokoban>:
    2123:	00 ff 22 1b 6e 05 22 2f ec a1 12 37 ed a1 12 7f     ..".n."/...7....
    2133:	4a 32 12 04 eb a1 22 3f 12 04 80 00 e0 a4 88 fe     J2...."?........
    2143:	65 a4 64 4a 00 14 58 22 69 f6 29 d9 95 00 ee f1     e.dJ..X"i.).....
    2153:	07 31 00 12 2f 00 ee 4a 01 12 04 6e 08 12 16 f7     .1../..J...n....
    2163:	15 60 01 f0 18 af c8 fa 1e f5 65 a2 f3 f1 65 4e     .`........e...eN
    2173:	05 12 5f 81 35 4f 00 70 ff 7a ff 85 30 12 65 81     .._.5O.p.z..0.e.
    2183:	44 80 f4 7a 01 f1 55 22 6d a4 4c fa 33 a4 4c f2     D..z..U"m.L.3.L.
    2193:	65 f1 29 dd 95 f2 29 d6 95 a4 88 fa 55 00 ee 22     e.)...).....U.."
    21a3:	1b 6d 00 6c 00 62 02 f2 18 61 40 22 d5 87 60 61     .m.l.b...a@"..`a
    21b3:	80 22 d5 84 e0 81 e0 81 64 22 a7 4c 00 13 2d 43     ."......d".L..-C
    21c3:	18 12 bb 23 0f 12 99 6e 00 23 01 4e 01 23 01 23     ...#...n.#.N.#.#
    21d3:	01 83 e0 83 23 83 0e 83 0e 00 ee 22 a7 43 18 12     ....#......".C..
    21e3:	cf 22 e5 7e 04 23 0f 7e ff 3e 00 12 c5 12 99 a4     .".~.#.~.>......
    21f3:	85 f7 55 12 a3 22 e5 7e 05 8e 0e 8e 0e 86 e0 86     ..U..".~........
    2203:	17 86 06 00 ee 6e 00 23 01 23 01 23 01 23 01 00     .....n.#.#.#.#..
    2213:	ee 6d 08 a4 b4 fc 1e f0 65 8b 00 9c 50 6c ff 7c     .m......e...Pl.|
    2223:	01 4d 00 12 f1 7d ff 8e 0e 8b 0e 8e f1 00 ee 43     .M...}.........C
    2233:	10 13 19 33 14 13 1b 78 01 79 01 a4 94 f3 1e d6     ...3...x.y......
    2243:	74 76 04 56 10 00 ee 86 45 77 04 00 ee a4 85 f7     tv.V....Ew......
    2253:	65 6a 00 22 2f 6b 01 a4 93 f5 65 98 90 14 17 e1     ej."/k....e.....
    2263:	a1 14 3c e0 a1 14 40 e3 a1 14 44 e4 a1 14 48 e5     ..<...@...D...H.
    2273:	a1 14 29 e2 9e 13 35 4c 00 13 35 6b 00 7c ff a4     ..)...5L..5k.|..
    2283:	ac d6 74 7d ff 4d ff 6d 38 a4 4c fd 1e f0 65 8a     ..t}.M.m8.L...e.
    2293:	00 f4 15 81 a2 a4 93 f1 1e f5 65 4b 00 23 f3 80     ..........eK.#..
    22a3:	60 81 70 80 44 81 54 4b 00 13 93 a4 3a 24 07 4e     `.p.D.TK....:$.N
    22b3:	01 13 33 a2 1a 24 07 4e 00 13 c3 82 00 83 10 82     ..3..$.N........
    22c3:	44 83 54 4b 00 13 e5 a2 1a 24 0f 4e 01 13 33 7a     D.TK.....$.N..3z
    22d3:	80 a4 a4 24 07 88 e5 24 0f 88 e4 a4 b0 d0 14 fb     ...$...$........
    22e3:	18 d2 34 4b 00 13 eb 3c 39 7c 01 80 a0 a4 4c fd     ..4K...<9|....L.
    22f3:	1e 7d 01 4d 39 6d 00 f0 55 a4 ac d6 74 86 44 87     .}.M9m..U...t.D.
    2303:	54 d6 74 13 33 8a 0e 4f 01 13 b1 a4 85 f7 65 a4     T.t.3..O......e.
    2313:	ac 13 dd a4 85 f7 55 86 44 87 54 86 44 87 54 85     ......U.D.T.D.T.
    2323:	b7 84 b7 f5 55 00 ee d0 12 8e f0 d0 12 00 ee d2     ....U...........
    2333:	32 8e f0 d2 32 00 ee f3 18 60 32 f0 15 22 2f 22     2...2....`2.."/"
    2343:	1b 4a 32 12 02 22 3f 12 81 f1 18 60 1e f0 15 22     .J2.."?....`..."
    2353:	2f e5 9e 13 35 3a 00 12 7f 12 00 20 6a 02 13 71     /...5:..... j..q
    2363:	6a 04 13 71 6a 01 13 71 6a 03 13 71 00 c1 d5 61     j..qj..qj..q...a
    2373:	f1 1e 75 08 35 58 14 4e 65 28 83 15 33 fe 14 4c     ..u.5X.Ne(..3..L
    2383:	6a 01 12 27 fe 79 99 e7 c7 db 0e cd f3 36 6c db     j..'.y.......6l.
    2393:	1c cd e3 36 6c db 38 cd b3 36 67 db 70 cd 9b 37     ...6l.8..6g.p..7
    23a3:	c0 db e0 79 81 e6 07 9e fe 01 80 06 00 00 0f 07     ...y............
    23b3:	02 02 00 09 07 0a 05 08 00 fc 00 04 00 00 00 00     ................
    23c3:	f0 f0 f0 f0 00 40 20 00 f0 d0 b0 f0 60 f0 f0 60     .....@ .....`..`
    23d3:	f0 90 90 f0 6e 00 88 c2 90 18 53 41 84 2a 15 60     ....n.....SA.*.`
    23e3:	e8 52 8c 15 51 14 40 89 80 8a 44 43 65 28 58 36     .R..Q.@...DCe(X6
    23f3:	d1 21 51 91 43 64 01 80 c5 40 22 60 59 8c 03 b0     .!Q.Cd...@"`Y...
    2403:	30 15 5d 81 28 50 5d 81 aa a0 bb 00 48 28 2e c0     0.].(P].....H(..
    2413:	88 52 28 2d 28 82 50 a5 28 82 00 c0 50 8c 00 5c     .R(-(.P.(...P..\
    2423:	82 45 20 ac 06 46 0a 95 a2 c1 52 85 60 cb 4a 21     .E ..F....R.`.J!
    2433:	15 28 8a b3 00 29 42 82 bb 60 0a 14 05 98 02 3c     .(...)B..`.....<
    2443:	9e 83 c5 20 e8 4c 11 90 98 14 01 0a 50 26 05 2d     ... .L......P&.-
    2453:	ad 0a 21 30 28 58 0d 10 98 14 b4 69 4b 15 0a 30     ..!0(X.....iK..0
    2463:	16 06 a4 56 06 80 20 0b 03 60 34 05 81 a1 6b 68     ...V.. ..`4...kh
    2473:	48 c0 d0 04 01 60 71 70 8c 82 44 61 08 11 18 22     H....`qp..Da..."
    2483:	35 41 82 30 1a 45 85 40 59 80 14 a1 55 66 00 0a     5A.0.E.@Y...Uf..
    2493:	5a 28 cc 00 b4 29 22 45 42 82 c1 52 94 18 2a a2     Z(...)"EB..R..*.
    24a3:	8c 1d 00 60 f1 20 67 89 02 a3 b0 22 c8 ae c0 a8     ...`. g...."....
    24b3:	0b b4 06 d1 76 04 4a 2e ca 89 48 89 46 82 02 15     ....v.J...H.F...
    24c3:	28 80 94 28 20 20 a0 20 45 40 78 81 c4 42 26 02     (..(  . E@x..B&.
    24d3:	a8 92 29 68 a0 16 04 a1 41 50 15 48 8d 55 28 2a     ..)h....AP.H.U(*
    24e3:	6c 89 4a 53 6c 88 02 bb 64 4b 44 76 c8 82 a4 44     l.JSl...dKDv...D
    24f3:	55 00 bb 05 58 42 11 70 40 28 14 a2 09 52 88 50     U...XB.p@(...R.P
    2503:	41 0a 50 40 15 4a 88 2a 8b 23 4a 50 50 14 02 8d     A.P@.J.*.#JPP...
    2513:	40 45 02 80 52 94 89 04 54 18 13 04 60 4c 11 98     @E..R...T...`L..
    2523:	98 23 31 30 46 62 60 91 40 9c 83 44 e0 c8 6d 98     .#10Fb`.@..D..m.
    2533:	14 44 36 cc 09 81 63 30 24 14 36 cc 09 45 0d b3     .D6...c0$.6..E..
    2543:	01 54 8a 40 52 da 2c 06 22 14 a4 4c 06 94 04 05     .T.@R.,."..L....
    2553:	90 a1 40 28 52 26 5a 52 23 01 60 4c 16 28 be 15     ..@(R&ZR#.`L.(..
    2563:	08 dc 8a b0 34 05 2d 02 d0 a5 36 ca 16 d4 02 83     ....4.-...6.....
    2573:	b6 52 80 96 96 8e d9 54 04 28 03 b6 58 0a 52 94     .R.....T.(..X.R.
    2583:	76 ca 01 12 15 db 2a 20 85 28 3b 65 05 12 d2 95     v.....* .(;e....
    2593:	76 53 64 42 c0 9c a6 c8 96 d2 da 3a 24 30 34 72     vSdB.......:$04r
    25a3:	00 91 51 c8 03 07 72 01 1b 00 ae 83 2a c1 95 44     ..Q...r.....*..D
    25b3:	18 22 a0 ad 18 1a 81 20 50 60 4a 14 b5 45 81 20     ."..... P`J..E. 
    25c3:	d5 80 b0 24 4a 5a 22 b0 14 0a 20 94 8a 80 21 68     ...$JZ"... ...!h
    25d3:	81 11 14 b0 55 c0 0a 84 57 63 64 55 81 bb 67 30     ....U...WcdU..g0
    25e3:	86 61 61 11 30 8c 8e 0c 29 11 22 50 14 44 29 4a     .aa.0...)."P.D)J
    25f3:	54 11 10 2c 94 05 15 11 a5 2a bb 65 10 29 41 76     T..,.....*.e.)Av
    2603:	ca 2b 6d 28 bb 65 80 a2 8b b6 89 00 a2 ed 90 08     .+m(.e..........
    2613:	8c 05 58 23 01 60 d1 30 8e 02 2b 05 50 14 22 40     ..X#.`.0..+.P."@
    2623:	ac 05 04 01 54 28 d1 04 36 c2 89 59 2a 88 e7 0a     ....T(..6..Y*...
    2633:	08 d0 40 31 85 28 05 11 1c e1 40 50 5a 53 18 52     ..@1.(....@PZS.R
    2643:	88 08 35 ce 15 28 50 28 5d b0 8d 22 40 0a 08 82     ..5..(P(].."@...
    2653:	01 16 15 40 bd 81 c4 e0 31 38 0b 01 60 29 64 a3     ...@....18..`)d.
    2663:	01 6d 10 22 a2 2b 31 28 08 81 66 25 11 11 59 8a     .m.".+1(..f%..Y.
    2673:	02 a8 0a a2 a3 55 06 80 85 04 44 29 6d 04 aa 22     .....U....D)m.."
    2683:	05 28 ad a2 24 46 03 40 46 02 a8 a8 08 c0 d8 0a     .(..$F.@F.......
    2693:	03 03 8a 03 0a 55 00 bc 02 29 05 40 41 82 a1 40     .....U...).@A..@
    26a3:	60 6a 8d 01 54 01 0a 0b 40 40 10 49 0a 25 40 10     `j..T...@@.I.%@.
    26b3:	60 54 55 14 55 ab 01 44 ac c2 88 08 85 db fc 54     `TU.U..D.......T
    26c3:	88 83 30 a0 20 80 a9 13 04 b4 10 60 68 30 16 07     ..0. ......`h0..
    26d3:	12 01 84 44 40 a9 88 c1 50 16 08 80 20 aa 09 41     ...D@...P... ..A
    26e3:	54 10 42 d2 81 50 56 41 a0 0a 08 28 52 8a 25 05     T.B..PVA...(R.%.
    26f3:	14 c8 83 56 83 91 50 2e cb 90 40 1d f6 c8 25 a3     ...V..P...@...%.
    2703:	30 a0 84 54 10 60 ca a0 9b 02 2d 02 76 04 06 04     0..T.`....-.v...
    2713:	ed 02 60 4e c0 82 a8 11 30 41 41 84 20 82 0a 08     ..`N....0AA. ...
    2723:	44 45 05 51 50 a1 11 10 51 28 50 4a 0a 49 42 80     DE.QP...Q(PJ.IB.
    2733:	81 12 14 89 80 20 0c 1a 24 8e 80 c5 e0 88 60 40     ..... ..$.....`@
    2743:	60 88 e0 09 04 02 22 2e c8 aa 0a 09 b2 b0 15 52     `....."........R
    2753:	8e d8 0a 21 45 00 d8 50 51 48 8d 5a 94 40 44 14     ...!E..PQH.Z.@D.
    2763:	40 1a 5a 22 08 51 10 4a a2 0c 2d 04 22 e0 82 ac     @.Z".Q.J..-."...
    2773:	15 54 be 08 94 25 02 45 58 24 44 a0 30 44 05 00     .T...%.EX$D.0D..
    2783:	55 80 a5 10 50 06 02 94 42 22 30 15 28 50 04 60     U...P...B"0.(P.`
    2793:	2a 52 8a 88 c0 54 42 82 23 01 51 1a 80 8c 05 45     *R...TB.#.Q....E
    27a3:	40 44 89 85 05 51 19 81 40 28 05 03 67 44 68 54     @D...Q..@(..gDhT
    27b3:	a0 4c 0b 03 41 49 81 8f 80 be 00 8b 40 62 30 45     .L..AI......@b0E
    27c3:	50 60 28 14 19 04 12 27 55 41 54 40 14 41 a6 ca     P`(....'UAT@.A..
    27d3:	25 0a 08 20 e5 12 83 01 69 b2 88 2a 2c 05 ca 2a     %.. ....i..*,..*
    27e3:	08 20 d3 65 10 04 aa a0 e5 1a 05 0a 0f 36 50 0a     . .e.........6P.
    27f3:	25 28 83 a2 25 54 01 e6 c8 08 05 a2 b3 02 03 02     %(..%T..........
    2803:	52 24 04 50 aa 8a c0 98 1b 02 60 6a a0 28 aa 20     R$.P......`j.(. 
    2813:	80 a3 22 80 20 25 b4 a1 6a 02 08 a5 04 04 11 42     ..". %..j......B
    2823:	91 40 b6 95 04 40 50 26 04 44 04 76 32 20 22 2e     .@...@P&.D.v2 ".
    2833:	d9 22 25 07 6c c0 54 08 8c 0a 22 be 89 40 55 40     ."%.l.T..."..@U@
    2843:	10 08 98 44 80 a8 21 41 01 42 85 0a 25 28 2b 4a     ...D..!A.B..%(+J
    2853:	02 48 94 01 42 91 71 51 01 98 d2 a2 28 24 c4 82     .H..B.qQ....($..
    2863:	22 05 99 28 88 94 66 03 64 11 0a 55 5a aa 54 4a     "..(..f.d..UZ.TJ
    2873:	02 a5 02 82 a5 80 d2 85 00 54 89 14 88 8b 05 60     .........T.....`
    2883:	6c 7c 9e 00 89 c2 10 41 56 03 11 2b 44 14 01 d8     l|.....AV..+D...
    2893:	41 04 04 01 d8 4a d1 0a aa 38 18 0b 41 04 76 02     A....J...8..A.v.
    28a3:	a0 94 01 1d a4 41 a3 41 04 76 12 b0 1a 82 3b 08     .....A.A.v....;.
    28b3:	36 b4 10 57 61 2a 08 56 82 ec 20 82 02 02 b8 55     6..Wa*.V.. ....U
    28c3:	08 88 08 aa 0a a0 44 40 be 8d 80 33 30 65 51 99     ......D@...30eQ.
    28d3:	ad c8 24 5e 88 0a c0 a8 58 0d 15 15 40 42 88 2c     ..$^....X...@B.,
    28e3:	09 01 41 15 0a 82 28 2a 2a 51 aa 80 2a 44 42 88     ..A...(**Q..*DB.
    28f3:	20 a9 11 00 a2 88 22 89 41 0a 14 a0 22 14 2b 6d      .....".A...".+m
    2903:	04 04 41 0b 02 88 89 22 82 08 30 18 d0 be 55 85     ..A...."..0...U.
    2913:	a1 1a 04 10 36 66 24 10 44 88 9b 64 16 a0 13 22     ....6f$.D..d..."
    2923:	08 0b 62 41 11 28 c0 62 52 0a d1 28 11 20 50 a3     ..bA.(.bR..(. P.
    2933:	6d 58 1a c0 90 06 b5 54 55 19 44 01 11 00 b0 14     mX.....TU.D.....
    2943:	04 44 05 16 02 aa 44 ac 48 a2 c1 10 04 08 b8 04     .D....D.H.......
    2953:	44 7a 22 70 44 10 88 80 a0 83 b6 54 42 a0 ed 81     Dz"pD......TB...
    2963:	12 8d a6 d8 11 0a 83 b6 32 20 25 8b 58 1d 28 a8     ........2 %.X.(.
    2973:	21 68 80 91 20 5b 64 60 4c 09 60 51 40 8e 23 a0     !h.. [d`L.`Q@.#.
    2983:	ed 80 40 10 15 66 10 aa 23 45 98 90 a0 80 2c c4     ..@..f..#E....,.
    2993:	82 08 84 58 a1 4a 08 30 16 ad 16 a8 a0 50 04 a0     ...X.J.0.....P..
    29a3:	08 82 8a 88 2d 11 29 6c 06 85 04 4a 01 56 91 22     ....-.)l...J.V."
    29b3:	26 12 0b 08 89 00 ac 82 c4 60 91 10 18 1a 94 28     &........`.....(
    29c3:	45 4a 14 a2 e5 81 da 0b b2 84 48 57 61 51 04 01     EJ........HWaQ..
    29d3:	db 0a 50 10 07 6c 2c 83 45 15 76 d1 10 a5 a0 bb     ..P..l,.E.v.....
    29e3:	20 28 52 85 db 20 09 68 51 0c 80 20 52 82 a8 04      (R.. .hQ.. R...
    29f3:	48 06 11 11 00 8e 88 c2 90 16 12 94 22 b0 15 11     H..........."...
    2a03:	81 c5 04 0a d6 40 40 50 60 54 40 a2 82 a4 54 54     .....@@P`T@...TT
    2a13:	14 db cc 22 2a 8a 7d f6 fb 88 a9 62 c2 d1 42 81     ..."*.}....b..B.
    2a23:	42 80 50 50 40 40 40 41 8f 80 9e 81 c5 e0 88 0c     B.PP@@@A........
    2a33:	05 22 20 c0 69 44 40 88 95 44 51 28 a0 22 94 11     ." .iD@..DQ(."..
    2a43:	28 49 68 8b 6d 11 45 40 45 00 45 10 15 22 35 14     (Ih.m.E@E.E.."5.
    2a53:	60 34 19 81 10 54 52 8c c0 a9 40 a2 03 b5 c2 82     `4...TR...@.....
    2a63:	94 41 66 02 24 04 4b 6c a0 11 10 08 88 bd 05 58     .Af.$.Kl.......X
    2a73:	52 11 58 0a 82 82 03 01 42 a5 92 80 aa 0d 0a 09     R.X.....B.......
    2a83:	4a 82 a8 55 1a 58 0a 82 08 81 6d 05 28 05 0a a4     J..U.X....m.(...
    2a93:	44 a5 1a 82 08 0a 0a 82 b4 40 10 66 08 0a 00 ab     D........@.f....
    2aa3:	31 2a c0 99 81 56 0a ed 96 10 ed 98 4c 44 a8 81     1*...V......LD..
    2ab3:	2a c0 62 20 80 2c 06 a0 29 41 45 46 4a 51 28 22     *.b .,..)AEFJQ("
    2ac3:	a8 a0 54 19 81 a5 10 66 04 0a 83 30 05 a2 8e d8     ..T....f...0....
    2ad3:	4a 02 44 a9 41 81 20 2b 02 68 ac 0d 06 0a aa a7     J.D.A. +.h......
    2ae3:	8d 40 54 15 02 81 48 88 a5 a2 81 44 01 4b 68 91     .@T...H....D.Kh.
    2af3:	10 11 28 a8 20 85 14 a9 50 05 03 64 8a 6c 51 91     ..(. ...P..d.lQ.
    2b03:	66 14 a8 ac c0 85 15 76 50 08 c8 a9 22 b0 16 60     f......vP..."..`
    2b13:	01 40 1c e4 28 a0 b3 02 24 8a 24 c0 82 0a c0 5a     .@..(...$.$....Z
    2b23:	2d 15 15 0a 00 8d 0a 52 a0 88 85 28 a2 20 a8 28     -......R...(. .(
    2b33:	22 00 a2 8a 21 44 28 20 ad 28 0a 80 21 11 81 2a     "...!D( .(..!..*
    2b43:	80 be 8c 11 30 10 04 56 60 50 2d 40 90 26 15 01     ....0..V`P-@.&..
    2b53:	15 01 26 05 45 15 04 26 04 4a 58 0a 22 a8 85 2a     ..&.E..&.JX."..*
    2b63:	83 02 88 88 2a 88 a2 82 34 05 10 05 28 50 45 10     ....*...4...(PE.
    2b73:	15 12 94 01 10 11 0a 28 a2 44 44 b6 03 68 30 15     .......(.DD..h0.
    2b83:	14 54 a0 c0 90 04 40 18 14 48 89 00 be 84 44 42     .T....@..H....DB
    2b93:	22 11 20 10 40 55 0a 52 88 25 01 45 14 14 40 a5     ". .@U.R.%.E..@.
    2ba3:	80 d0 a2 2a 50 51 60 2a 09 11 22 36 88 b6 22 48     ...*PQ`*.."6.."H
    2bb3:	b0 14 4a 0a d5 4a 0a 25 04 05 41 50 4b 4a 20 5a     ..J..J.%..APKJ Z
    2bc3:	20 0c 05 01 41 00 89 ec 65 58 1b 32 b0 46 65 60      ...A...eX.2.Fe`
    2bd3:	91 70 ae 8b c1 19 88 08 b4 c4 02 0a 02 ec a9 40     .p.............@
    2be3:	2c 05 76 c5 28 80 a0 2e d9 b1 10 04 15 40 10 1a     ,.v.(........@..
    2bf3:	0d 10 42 d2 94 2a 82 08 50 1a d1 68 82 a2 88 02     ..B..*..P..h....
    2c03:	82 02 14 a2 91 20 10 0a 14 18 1a 80 88 0c 12 23     ..... .........#
    2c13:	24 46 10 a8 66 81 2a 91 32 44 60 34 11 02 a9 51     $F..f.*.2D`4...Q
    2c23:	6b b6 44 12 ed 81 04 71 91 44 04 68 8d 0a 00 88     k.D....q.D.h....
    2c33:	44 c5 50 be 84 c4 88 cc c0 a8 0b 01 59 81 42 d5     D.P.........Y.B.
    2c43:	0a 48 b3 02 c0 ad 2a 13 02 85 14 b4 44 db 28 51     .H....*.....D.(Q
    2c53:	4a 08 4c 0a 91 11 51 74 44 0a 14 50 30 29 55 04     J.L...QtD..P0)U.
    2c63:	88 8a a0 50 18 1a 08 51 a5 2a a0 82 5b 52 80 8a     ...P...Q.*..[R..
    2c73:	a0 80 21 68 c0 e2 40 2b 08 88 80 bc 00 8c 40 58     ..!h..@+......@X
    2c83:	32 80 20 8d a5 04 01 a3 50 52 44 05 14 4a 22 80     2. .....PRD..J".
    2c93:	81 46 82 20 08 09 40 44 01 4a 50 14 40 10 41 42     .F. ..@D.JP.@.AB
    2ca3:	88 02 00 a5 a8 91 2b 40 40 46 60 42 28 39 db 0b     ......+@@F`B(9..
    2cb3:	04 66 00 18 23 30 00 c1 22 a0 ae 83 c4 61 2a 02     .f..#0.."....a*.
    2cc3:	c1 d6 02 c1 94 2d 06 0a a5 a1 46 0a 94 02 88 2a     .....-....F....*
    2cd3:	80 81 69 12 08 a0 a0 0b a1 16 d9 17 24 4c 50 15     ..i.........$LP.
    2ce3:	c9 13 c3 4a ac ce 20 11 b0 a3 09 50 58 52 a8 8d     ...J.. ....PXR..
    2cf3:	80 c5 20 6a b0 28 90 20 0a 52 81 22 08 a2 d6 94     .. j.(. .R."....
    2d03:	b1 12 62 42 d1 50 26 24 10 14 49 89 a1 41 46 cc     ..bB.P&$..I..AF.
    2d13:	45 a9 45 01 51 5a 14 88 85 0a 14 28 80 85 0a 14     E.E.QZ.....(....
    2d23:	28 81 12 02 25 04 88 80 6e 82 44 e0 91 10 41 56     (...%...n.D...AV
    2d33:	02 80 81 40 10 55 1b 45 14 11 60 48 82 8a a0 a9     ...@.U.E..`H....
    2d43:	5a 14 28 2e d8 01 14 10 17 6c 80 48 22 a2 bb 64     Z.(......l.H"..d
    2d53:	15 0a 14 22 a2 80 80 c1 a2 a0 ae 22 30 a4 06 14     ..."......."0...
    2d63:	89 13 82 30 2b 24 48 01 28 b4 54 04 01 15 4a 01     ...0+$H.(.T...J.
    2d73:	44 01 22 22 0d 22 40 aa 2d 81 28 54 28 22 8a 2c     D.""."@.-.(T(".,
    2d83:	15 1d b2 44 c1 50 db 03 01 55 11 db 23 06 45 44     ...D.P...U..#.ED
    2d93:	60 cc 0d 83 45 40 9b 88 8a b0 27 6c 88 2a 80 ed     `...E@....'l.*..
    2da3:	95 0a 08 0c c0 a5 0a a8 b3 02 81 41 15 db 0a 52     ...........A...R
    2db3:	88 8a 00 85 04 41 44 54 88 94 46 85 00 50 a4 85     .....ADT..F..P..
    2dc3:	00 a0 a0 25 2d 28 aa 11 20 54 11 40 15 40 15 00     ...%-(.. T.@.@..
    2dd3:	b9 8b 00 30 45 51 22 42 0a 89 4a 50 a2 c0 da 02     ...0EQ"B..JP....
    2de3:	ad 0b 50 54 10 51 2a 80 b5 02 92 20 08 52 8a 80     ..PT.Q*.... .R..
    2df3:	22 05 04 01 14 04 40 50 88 88 0c 15 01 98 d5 01     ".....@P........
    2e03:	98 d8 0c 54 6d 82 aa c0 a2 a0 a0 0a 16 05 48 90     ...Tm.........H.
    2e13:	0a 28 0b b6 51 b4 a5 ad 5d b2 88 04 80 81 b6 50     .(..Q...]......P
    2e23:	a8 ad a0 6d 94 a1 68 51 66 05 5b 03 89 82 11 38     ...m..hQf.[....8
    2e33:	22 a8 b8 08 a8 03 f7 7e e8 03 be fb e4 01 fb ef     "......~........
    2e43:	ba 00 ef be f9 00 7e fb ee 80 2a 02 b0 24 04 02     ......~...*..$..
    2e53:	24 44 e0 ea 52 94 a5 15 29 4a 51 46 94 a5 2a 08     $D..R...)JQF..*.
    2e63:	16 4a 02 08 44 41 05 50 15 40 ab 81 aa c2 10 58     .J..DA.P.@.....X
    2e73:	3a 02 c1 92 d1 60 6a d0 a2 80 aa 01 40 45 41 22     :....`j.....@EA"
    2e83:	20 88 02 33 05 11 10 29 30 22 21 44 77 d9 11 50      ..3...)0"!Dw..P
    2e93:	55 15 10 15 49 28 2d 58 0a a5 80 b0 34 14 06 07     U...I(-X....4...
    2ea3:	15 00 be 81 46 20 4b b0 02 03 01 5d b9 40 28 80     ....F K....].@(.
    2eb3:	2e df 22 34 50 07 6f 91 12 82 2a ed 90 40 11 10     .."4P.o...*..@..
    2ec3:	51 83 22 49 4a 2a 08 8a 25 02 80 88 08 2b 68 08     Q."IJ*..%....+h.
    2ed3:	88 88 02 05 01 12 22 09 52 23 02 41 a0 20 20 20     ......".R#.A.   
    2ee3:	82 0a 80 b0 14 10 60 48 02 82 ac 0a 24 28 23 21     ......`H....$(#!
    2ef3:	38 2e 24 28 37 35 4c 3b 33 3c 43 3e 33 31 39 47     8.$(75L;3<C>319G
    2f03:	4b 37 47 46 45 44 2c 39 3f 35 43 41 31 2c 36 4b     K7GFED,9?5CA1,6K
    2f13:	46 42 1f 48 3f 35 39 32 3c 3a 34 2e 38 38 4b ff     FB.H?592<:4.88K.

00002f23 <sokoban_info>:
    2f23:	53 6f 6b 6f 62 61 6e 20 62 79 20 48 61 70 0a 6b     Sokoban by Hap.k
    2f33:	65 79 73 3a 0a 35 20 75 70 0a 38 20 64 6f 77 6e     eys:.5 up.8 down
    2f43:	0a 37 20 6c 65 66 74 0a 39 20 72 69 67 68 74 0a     .7 left.9 right.
    2f53:	41 20 73 65 6c 65 63 74 0a 00                       A select..

00002f5d <spacefig>:
    2f5d:	12 24 53 70 61 63 65 46 69 67 68 74 32 30 39 31     .$SpaceFight2091
    2f6d:	20 62 79 20 53 6c 61 6d 6d 65 72 2f 41 6e 61 72      by Slammer/Anar
    2f7d:	63 68 79 21 00 ff 00 e0 27 86 22 2e 12 26 ac 40     chy!....'."..&.@
    2f8d:	60 00 f0 55 68 00 a8 6f f8 1e f7 65 ac 57 f8 1e     `..Uh..o...e.W..
    2f9d:	f7 55 78 08 38 c0 12 36 ac 40 60 00 61 03 62 00     .Ux.8..6.@`.a.b.
    2fad:	f2 55 22 9e ac 3f f0 65 40 00 12 60 70 ff f0 55     .U"..?.e@..`p..U
    2fbd:	28 3e 26 1e 25 66 24 7e 23 50 ac 48 f4 65 30 00     (>&.%f$~#P.H.e0.
    2fcd:	12 94 31 00 12 94 32 00 12 94 33 00 12 94 34 00     ..1...2...3...4.
    2fdd:	12 94 22 ea ac 40 f0 65 70 20 f0 55 40 c0 00 ee     .."..@.ep .U@...
    2fed:	22 9e 12 54 ac 41 f0 65 30 00 12 54 00 ee 26 ea     "..T.A.e0..T..&.
    2ffd:	ac 43 60 38 61 00 62 00 f2 55 ac 46 60 00 61 00     .C`8a.b..U.F`.a.
    300d:	62 01 63 01 64 01 65 01 66 01 67 05 68 00 69 00     b.c.d.e.f.g.h.i.
    301d:	6a 00 6b 00 6c 05 fc 55 ac 3f 60 ff f0 55 00 e0     j.k.l..U.?`..U..
    302d:	26 a6 26 8c 26 be 26 6e 26 58 26 c6 65 00 15 18     &.&.&.&n&X&.e...
    303d:	73 01 33 05 13 7e 63 00 13 7e ac 3f f0 65 80 56     s.3..~c..~.?.e.V
    304d:	80 56 80 56 f0 55 27 78 26 a6 26 8c 26 be 26 6e     .V.V.U'x&.&.&.&n
    305d:	60 20 61 19 a9 af 62 08 63 00 d0 18 70 08 f2 1e     ` a...b.c...p...
    306d:	73 01 33 08 13 0a 26 64 28 36 28 36 ac 3f f0 65     s.3...&d(6(6.?.e
    307d:	40 00 00 ee 26 64 26 6e ac 3f f0 65 70 ff f0 55     @...&d&n.?.ep..U
    308d:	ac 42 f0 65 70 01 f0 55 26 64 26 6e 60 01 f0 18     .B.ep..U&d&n`...
    309d:	28 3e ac 3f f0 65 30 00 13 24 28 36 28 36 00 ee     (>.?.e0..$(6(6..
    30ad:	ac 50 f2 65 30 00 13 a4 72 ff f2 55 32 00 00 ee     .P.e0...r..U2...
    30bd:	ac 40 f0 65 62 c0 82 05 82 56 82 56 82 56 82 56     .@.eb....V.V.V.V
    30cd:	82 56 80 20 ac 52 f0 55 c3 03 c4 01 83 44 ac 48     .V. .R.U.....D.H
    30dd:	f3 1e f0 65 40 00 12 e0 a8 6a f3 1e f0 65 83 00     ...e@....j...e..
    30ed:	ac 46 f1 65 80 34 70 07 71 19 ac 50 f2 55 60 02     .F.e.4p.q..P.U`.
    30fd:	f0 18 14 74 24 74 71 04 ac 50 f1 55 24 74 41 40     ...t$tq..P.U$tA@
    310d:	14 4e 41 3f 14 4e 41 3e 14 4e 41 3d 14 4e 41 2b     .NA?.NA>.NA=.NA+
    311d:	14 0e 41 2a 14 0e 41 29 14 0e 41 28 14 0e 41 27     ..A*..A)..A(..A'
    312d:	14 0e 4f 00 00 ee 82 00 83 10 ac 44 f1 65 40 00     ..O........D.e@.
    313d:	13 fe 50 20 13 fe ac 42 f0 65 70 01 f0 55 60 01     ..P ...B.ep..U`.
    314d:	f0 18 25 e6 ac 44 60 00 61 00 f1 55 14 4e 6a 00     ..%..D`.a..U.Nj.
    315d:	24 5e 24 5a 7a 01 3a 05 14 00 24 5e 14 4e 82 00     $^$Zz.:...$^.N..
    316d:	83 00 82 56 82 56 82 56 ac 40 f0 65 ac 57 f0 1e     ...V.V.V.@.e.W..
    317d:	f2 1e f0 65 40 00 00 ee f0 65 70 ff 82 00 60 00     ...e@....ep...`.
    318d:	f0 55 42 00 14 44 80 20 f0 55 62 10 f2 1e 60 00     .UB..D. .Ub...`.
    319d:	f0 55 14 4e 60 f8 80 32 61 2c ac 3a d0 14 24 74     .U.N`..2a,.:..$t
    31ad:	ac 50 60 00 61 00 f1 55 00 ee 69 01 14 62 69 ff     .P`.a..U..i..bi.
    31bd:	14 62 26 8c 60 01 f0 18 ac 41 f0 65 80 94 f0 55     .b&.`....A.e...U
    31cd:	26 8c 18 3a ac 50 f1 65 aa f6 d0 13 00 ee ac 4d     &..:.P.e.......M
    31dd:	f0 65 70 ff f0 55 30 00 00 ee 60 05 f0 55 65 00     .ep..U0...`..Ue.
    31ed:	25 18 24 98 65 01 15 18 ac 4e f1 65 40 00 15 04     %.$.e....N.e@...
    31fd:	40 01 14 cc 40 02 14 f0 60 0a f0 18 ac 47 f0 65     @...@...`....G.e
    320d:	30 0c 70 01 f0 55 71 01 ac 4f 80 10 f0 55 31 04     0.p..Uq..O...U1.
    321d:	00 ee ac 4e 60 00 61 00 f1 55 00 ee 60 0a f0 18     ...N`.a..U..`...
    322d:	ac 47 f0 65 30 0c 70 01 f0 55 71 01 ac 4f 80 10     .G.e0.p..Uq..O..
    323d:	f0 55 31 04 00 ee ac 4e 60 02 61 00 f1 55 00 ee     .U1....N`.a..U..
    324d:	ac 46 f0 65 70 fc f0 55 30 00 00 ee ac 4e 60 03     .F.ep..U0....N`.
    325d:	f0 55 00 ee ac 46 f0 65 70 04 f0 55 30 28 00 ee     .U...F.ep..U0(..
    326d:	ac 4e 60 01 f0 55 00 ee ac 46 f1 65 87 10 86 00     .N`..U...F.e....
    327d:	77 09 68 00 ac 40 f0 65 89 00 ac 48 f8 1e f0 65     w.h..@.e...H...e
    328d:	aa 0f f9 1e 30 00 d6 70 3f 00 25 46 76 12 78 01     ....0..p?.%Fv.x.
    329d:	38 05 15 2a 00 ee 45 00 00 ee d6 70 ac 48 f8 1e     8..*..E....p.H..
    32ad:	60 00 f0 55 26 6e ac 42 f0 65 70 02 f0 55 26 6e     `..U&n.B.ep..U&n
    32bd:	25 e6 ac 44 16 16 ac 44 f1 65 40 00 00 ee 41 2c     %..D...D.e@...A,
    32cd:	15 7e 41 2d 15 7e 41 2e 15 7e 31 2f 00 ee 82 00     .~A-.~A..~1/....
    32dd:	83 00 82 56 82 56 82 56 ac 40 f0 65 ac 57 f0 1e     ...V.V.V.@.e.W..
    32ed:	f2 1e f0 65 40 00 00 ee f0 65 70 ff 82 00 60 00     ...e@....ep...`.
    32fd:	f0 55 42 00 15 b4 80 20 f0 55 62 10 f2 1e 60 00     .UB.... .Ub...`.
    330d:	f0 55 15 be 60 f8 80 32 61 2c ac 3a d0 14 25 e6     .U..`..2a,.:..%.
    331d:	ac 44 16 16 60 0a e0 9e 00 ee ac 44 f0 65 30 00     .D..`......D.e0.
    332d:	00 ee ac 43 f0 65 70 07 ac 44 61 2e f1 55 25 e6     ...C.ep..Da..U%.
    333d:	60 01 f0 18 00 ee ac 44 f1 65 aa f6 30 00 d0 13     `......D.e..0...
    334d:	00 ee 25 e6 ac 44 f1 65 71 fe 41 08 16 16 41 09     ..%..D.eq.A...A.
    335d:	16 16 f1 55 25 e6 30 00 4f 00 00 ee 65 00 25 18     ...U%.0.O...e.%.
    336d:	65 01 25 18 00 ee 60 00 61 00 f1 55 00 ee 25 c4     e.%...`.a..U..%.
    337d:	25 f2 60 03 e0 a1 16 44 60 0c e0 a1 16 30 00 ee     %.`....D`....0..
    338d:	ac 43 f0 65 40 70 00 ee 26 58 70 01 ac 43 f0 55     .C.e@p..&Xp..C.U
    339d:	26 58 00 ee ac 43 f0 65 40 00 00 ee 26 58 70 ff     &X...C.e@...&Xp.
    33ad:	ac 43 f0 55 26 58 00 ee ac 43 f0 65 61 31 aa cf     .C.U&X...C.ea1..
    33bd:	d0 10 00 ee ac 3f f0 65 63 39 64 22 16 76 ac 42     .....?.ec9d".v.B
    33cd:	f0 65 63 22 64 03 ac 53 f0 33 f2 65 f0 29 26 86     .ec"d..S.3.e.)&.
    33dd:	f1 29 26 86 f2 29 d3 45 73 05 00 ee ac 41 f0 65     .)&..).Es....A.e
    33ed:	40 00 00 ee 61 4d 62 01 aa ef d1 27 71 08 70 ff     @...aMb....'q.p.
    33fd:	30 00 16 9a 00 ee 60 65 61 00 ab 19 62 08 63 00     0.....`ea...b.c.
    340d:	d0 18 70 08 f2 1e 73 01 33 04 16 b0 00 ee 60 00     ..p...s.3.....`.
    341d:	61 00 aa f9 16 ac 61 00 62 2c 63 00 ac 40 f0 65     a.....a.b,c..@.e
    342d:	84 00 ac 67 f4 1e f3 1e f0 65 ac 3a 30 00 d1 24     ...g.....e.:0..$
    343d:	71 08 73 01 33 10 16 d2 00 ee 27 5c 27 14 27 2c     q.s.3.....'\'.',
    344d:	26 f6 27 6a 00 ee 27 0e 28 36 27 0e 28 3a 27 0e     &.'j..'.(6'.(:'.
    345d:	28 3a 27 0e 28 36 27 0e 28 36 27 0e 18 36 60 03     (:'.(6'.(6'..6`.
    346d:	f0 18 00 ee 60 20 61 0c ab f9 62 08 63 00 d0 18     ....` a...b.c...
    347d:	70 08 f2 1e 73 01 33 08 17 1e 00 ee 60 30 61 20     p...s.3.....`0a 
    348d:	a9 ef 62 08 63 00 d0 18 70 08 f2 1e 73 01 33 04     ..b.c...p...s.3.
    349d:	17 36 ac 40 f0 65 80 56 80 56 80 56 80 56 80 56     .6.@.e.V.V.V.V.V
    34ad:	70 01 f0 30 60 3b 61 29 d0 1a 00 ee 61 00 28 3e     p..0`;a)....a.(>
    34bd:	00 fc 71 01 31 20 17 5e 00 ee 61 00 28 3e 00 fb     ..q.1 .^..a.(>..
    34cd:	71 01 31 20 17 6c 00 ee 61 00 28 3e 00 c4 71 01     q.1 .l..a.(>..q.
    34dd:	31 10 17 7a 00 ee ac 3e 60 64 f0 55 27 d0 26 a6     1..z...>`d.U'.&.
    34ed:	26 8c 26 be 26 6e 27 e8 28 3e 28 00 27 a6 60 0a     &.&.&n'.(>(.'.`.
    34fd:	e0 9e 17 98 00 ee ac 3e f0 65 70 ff f0 55 30 00     .......>.ep..U0.
    350d:	00 ee 60 64 f0 55 27 d0 ab 39 60 10 61 18 62 20     ..`d.U'..9`.a.b 
    351d:	63 00 d0 10 70 10 f2 1e 73 01 33 06 17 c2 00 ee     c...p...s.3.....
    352d:	a9 2f 60 20 61 18 62 20 63 00 d0 10 70 10 f2 1e     ./` a.b c...p...
    353d:	73 01 33 04 17 da 00 ee ac 56 60 00 f0 55 82 00     s.3......V`..U..
    354d:	64 00 28 28 72 01 80 20 74 01 34 10 17 f2 00 ee     d.((r.. t.4.....
    355d:	ac 56 f0 65 82 00 84 00 28 28 a8 4a 82 5e f2 1e     .V.e....((.J.^..
    356d:	c0 7f c1 3f f1 55 ac 39 d0 11 63 0f 74 01 84 32     ...?.U.9..c.t..2
    357d:	80 40 ac 56 f0 55 00 ee a8 4a 80 5e f0 1e f1 65     .@.V.U...J.^...e
    358d:	ac 39 d0 11 00 ee 60 0c 18 40 60 06 18 40 60 01     .9....`..@`..@`.
    359d:	f0 15 f0 07 30 00 18 42 00 ee 0a 11 5b 22 5b 29     ....0..B....["[)
    35ad:	75 38 54 11 0c 09 34 13 78 34 26 04 06 1a 0c 22     u8T...4.x4&...."
    35bd:	20 0a 00 16 06 05 3f 07 00 1e 00 12 24 36 48 00      .....?.....$6H.
	...
    35f1:	00 01 01 01 01 00 00 00 00 00 00 00 00 00 00 00     ................
    3601:	00 01 01 01 01 00 00 00 00 00 00 00 00 00 02 02     ................
    3611:	02 00 00 00 00 01 01 01 00 00 00 00 00 00 01 01     ................
    3621:	01 00 00 00 00 01 01 01 00 00 00 00 05 05 00 00     ................
    3631:	00 05 00 00 05 00 00 00 05 05 00 00 01 01 00 00     ................
    3641:	00 01 00 00 01 00 00 00 01 01 00 0a 0a 00 00 0a     ................
    3651:	0a 00 00 00 00 0a 0a 00 00 0a 0a 01 01 00 00 01     ................
    3661:	01 00 00 00 00 01 01 00 00 01 01 14 14 14 14 14     ................
    3671:	14 14 14 14 14 14 14 14 14 14 14 01 01 01 01 01     ................
    3681:	01 01 01 01 01 01 01 01 01 01 01 3c 00 7c 00 e0     ...........<.|..
    3691:	00 c0 00 cc 71 cc fb cd db cd 9b cd 9b fd fb 7c     ....q..........|
    36a1:	fb 00 00 00 00 00 00 ff ff ff ff 00 00 00 00 00     ................
    36b1:	00 00 00 f0 e0 f9 f0 7d 98 6d f8 6d 80 6d f8 6c     .......}.m.m.m.l
    36c1:	f8 00 00 00 00 00 00 ff ff ff ff 38 00 7c 00 ec     ...........8.|..
    36d1:	00 cc 00 cd 99 cd 9b cd 9b cd 9b cd 9b fc f3 78     ...............x
    36e1:	61 00 00 00 00 00 00 ff ff ff ff 00 07 00 07 00     a...............
    36f1:	06 00 06 c1 cc e3 cc 37 08 f6 08 06 00 f6 18 f6     .......7........
    3701:	18 00 00 00 00 00 00 ff ff ff ff fd fd 11 31 31     ..............11
    3711:	31 31 31 a1 b3 bf bf b3 b3 b3 b3 1c 3c 70 60 78     111.........<p`x
    3721:	60 7c 3c 0e 1f 1b 19 1f 19 1f 1f 0e 1f bb b3 33     `|<............3
    3731:	b3 bf 1e 66 76 7e 6e 66 66 66 66 cc cc cd cd cc     ...fv~nffff.....
    3741:	ec 7d 3d 70 f3 83 e0 f0 33 f3 e0 c0 c1 c3 c3 c3     .}=p....3.......
    3751:	e3 7b 39 ec ec 8c 0c cc 0f e7 e3 c7 cf dc d8 de     .{9.............
    3761:	d8 9f 0f 60 60 60 60 60 70 3c 1c 00 00 97 d2 03     ...`````p<......
    3771:	80 01 00 0f e0 3f f8 55 54 ab ba ff 6e ba ba 55     .....?.UT...n..U
    3781:	54 3f f8 4f e4 00 00 80 02 00 00 03 c0 06 60 04     T?.O..........`.
    3791:	a0 03 c0 04 20 0b 30 14 58 14 28 10 58 12 a8 0d     .... .0.X.(.X...
    37a1:	50 16 a8 23 c4 7f fe 40 02 00 00 4a aa 15 50 4a     P..#...@...J..PJ
    37b1:	aa d5 53 e4 27 7f fe 39 9c 0c 30 06 60 07 e0 33     ..S.'..9..0.`..3
    37c1:	cc 2b d4 07 e0 03 c0 01 80 00 00 03 c0 05 60 06     .+............`.
    37d1:	a0 03 c0 1b d8 2d 74 5e ba a5 65 c6 a3 c7 e3 cd     .....-t^..e.....
    37e1:	b3 da 5b 54 2a 18 18 18 18 30 0c 30 0c 48 12 a4     ..[T*....0.0.H..
    37f1:	25 84 21 4c 32 32 4c 02 40 1f f8 20 ac 28 54 20     %.!L22L.@.. .(T 
    3801:	ac 1f f8 7f fe 92 49 92 49 92 49 3f fc 40 02 5a     ......I.I.I?.@.Z
    3811:	fa 50 0a 43 ea 52 4a 47 ca 50 0a 5f fa 40 02 3f     .P.C.RJG.P._.@.?
    3821:	fc 0f f0 38 1c 54 36 ac 2b f8 1f 01 00 01 00 01     ...8.T6.+.......
    3831:	00 01 00 01 00 03 80 03 80 03 80 07 c0 c6 c6 7d     ...............}
    3841:	7c 3f f8 7f fc c3 86 01 00 00 00 10 10 10 28 7c     |?............(|
    3851:	d6 fe 80 80 80 38 79 c3 f3 7b 1b fb f1 e3 e7 8e     .....8y..{......
    3861:	0c 0c 0c ef e7 8e df db d9 df df db 99 0e 1e b8     ................
    3871:	b0 bc 30 be 9e c3 c3 c3 c3 c3 e3 7b 3b 66 66 66     ..0........{;fff
    3881:	66 66 7e 3c 18 38 79 e3 c3 f1 c0 fb 7b e0 e0 00     ff~<.8y.....{...
    3891:	c0 e0 60 e0 c0 3c 00 7c 00 e0 00 c0 00 f1 e0 79     ..`..<.|.......y
    38a1:	f1 1d bb 0d 9b 0d 9b fd fb f9 f1 01 80 01 80 01     ................
    38b1:	80 fc 3f ff ff 00 00 00 00 00 00 00 00 e1 ce f3     ..?.............
    38c1:	df b7 19 36 1f 36 18 f7 df f3 cf 00 00 00 00 00     ...6.6..........
    38d1:	00 ff ff ff ff 0f 00 1f 00 38 00 30 00 3e c7 3e     .........8.0.>.>
    38e1:	cf b0 1d b0 d9 30 d9 b0 df b0 cf 00 01 00 0f 00     .....0..........
    38f1:	0f ff e0 ff ff 30 60 30 60 30 60 30 60 3c 78 be     .....0`0`0`0`<x.
    3901:	78 b7 60 b3 60 b3 70 b3 3c b3 1c 80 00 80 00 00     x.`.`.p.<.......
    3911:	00 7f ff ff ff 3c 3c 7e 7e e6 e6 c6 c6 0e c6 1c     .....<<~~.......
    3921:	c6 38 c6 70 c6 e0 c6 fe fe fe 7c 00 00 00 00 00     .8.p......|.....
    3931:	00 ff ff ff ff 3c c7 7e c7 e6 c6 c6 c6 c6 cc fe     .....<.~........
    3941:	cc 7e c8 06 c8 06 c0 fe d8 fc d8 00 00 00 00 00     .~..............
    3951:	00 ff ff ff ff 3c 7c e1 c1 cd cd fd 7c 77 f7 c0     .....<|.....|w..
    3961:	81 e1 81 f1 f1 e0 e0 80 80 80 80 80 80 f0 f8 dd     ................
    3971:	cd fd f9 dd cc 71 f3 c7 86 e7 86 f6 f6 c7 ef 6d     .....q.........m
    3981:	6c ec 6c 6f 6f 19 99 d9 df cf c6 c6 86 98 98 98     l.loo...........
    3991:	98 18 00 18 18 80 ff aa 55 ff 00 00 00 00 00 00     ........U.......
	...
    3a71:	00 00 00 ff                                         ....

00003a75 <spacefig_info>:
    3a75:	73 70 61 63 65 66 69 67 68 74 20 32 30 39 31 0a     spacefight 2091.
    3a85:	43 61 72 73 74 65 6e 20 53 6f 65 72 65 6e 73 65     Carsten Soerense
    3a95:	6e 0a 0a 6b 65 79 73 3a 0a 41 20 73 74 61 72 74     n..keys:.A start
    3aa5:	2c 20 66 69 72 65 0a 33 20 6c 65 66 74 0a 43 20     , fire.3 left.C 
    3ab5:	72 69 67 68 74 0a 00                                right..

00003abc <splash>:
    3abc:	ff ff ff ff ff ff ff ff ff ff ff ff ff ff ff ff     ................
    3acc:	ff ff ff ff ff ff ff ff ff ff ff ff ff ff ff ff     ................
    3adc:	ff ff ff ff ff ff ff ff ff ff ff ff ff ff ff ff     ................
    3aec:	ff ff ff ff ff ff ff ff ff ff ff ff ff ff ff ff     ................
    3afc:	ff ff ff ff ff ff ff ff ff ff ff ff ff ff ff ff     ................
    3b0c:	ff ff ff ff ff ff ff ff ff ff ff ff ff ff ff ff     ................
    3b1c:	ff ff ff ff ff ff ff ff ff ff ff ff ff ff ff ff     ................
    3b2c:	ff ff ff ff ff ff ff ff ff ff ff ff ff ff ff ff     ................
    3b3c:	ff ff ff ff ff ff ff ff ff ff ff ff ff ff ff ff     ................
    3b4c:	ff ff ff ff ff ff ff ff ff ff ff ff ff ff ff ff     ................
    3b5c:	ff ff ff ff ff ff ff ff ff ff ff ff ff ff ff ff     ................
    3b6c:	ff ff ff ff ff ff ff ff ff ff ff ff ff ff ff ff     ................
    3b7c:	ff ff ff ff ff ff ff ff ff ff ff ff ff ff ff ff     ................
    3b8c:	ff ff c1 cf 99 81 ff ff ff ff ff ff ff ff ff ff     ................
    3b9c:	ff ff 80 cf 99 80 ff ff ff ff ff ff ff ff ff ff     ................
    3bac:	ff ff 1c 4f 99 9c 7f ff ff ff ff ff ff ff ff ff     ...O............
    3bbc:	ff ff 3e cf 99 9e 7f ff ff ff ff fb fe 7f ff ff     ..>.............
    3bcc:	ff fe 7f cf 99 9e 78 7c 3c 87 ff fb fd bf ff ff     ......x|<.......
    3bdc:	ff fe 7f cf 99 9e 70 38 1c 03 ff f3 fb df ff ff     ......p8........
    3bec:	ff fe 7f c0 19 9c 63 11 8c 73 ef ab fb df ff ff     ......c..s......
    3bfc:	ff fe 7f c0 19 80 e7 93 cc f3 f7 7b fb df ff ff     ...........{....
    3c0c:	ff fe 7f cf 99 81 e7 f3 cc f3 f7 7b fb df ff ff     ...........{....
    3c1c:	ff fe 7e cf 99 9f e7 f3 cc f3 f7 7b fb df ff ff     ..~........{....
    3c2c:	ff ff 3c 4f 99 9f e7 93 cc f3 fa fb fb df ff ff     ..<O............
    3c3c:	ff ff 1c cf 99 9f e3 11 8c f3 fa fb fb df ff ff     ................
    3c4c:	ff ff 80 cf 99 9f f0 38 1c f3 fa fb fd bf ff ff     .......8........
    3c5c:	ff ff c1 cf 99 9f f8 7c 3c f3 fd fb de 7f ff ff     .......|<.......
    3c6c:	ff ff ff ff ff ff ff ff ff ff ff ff ff ff ff ff     ................
    3c7c:	ff ff ff ff ff ff ff ff ff ff ff ff ff ff ff ff     ................
    3c8c:	ff ff ff ff ff ff ff ff ff ff ff ff ff ff ff ff     ................
    3c9c:	ff ff ff ff ff ff ff ff ff ff ff ff ff ff ff ff     ................
    3cac:	ff ff ff ff ff ff ff ff ff ff ff ff ff ff ff ff     ................
    3cbc:	ff ff ff ff ff ff ff ff ff ff ff ff ff ff ff ff     ................
    3ccc:	ff ff ff ff ff ff ff ff ff ff ff ff ff ff ff ff     ................
    3cdc:	ff ff ff ff ff ff ff ff ff ff ff ff ff ff ff ff     ................
    3cec:	ff ff 8f ff ff f7 f7 df 3e fb f7 fb fc 3f ff ff     ........>....?..
    3cfc:	ff ff 77 ff ff ff f7 de dd 73 e7 fb fd df ff ff     ..w......s......
    3d0c:	ff fe f6 34 dd 56 54 8e eb ab e7 fb 1d ec 7f ff     ...4.VT.........
    3d1c:	ff fe fd d3 5d 35 93 5f eb bb d7 fa ed eb bf ff     ....]5._........
    3d2c:	ff fe fd d7 6b 75 d7 5f db bb d7 fb ed eb bf ff     ....ku._........
    3d3c:	ff fe fd d7 6b 75 d7 5f bb bb b7 fb 0d e8 3f ff     ....ku._......?.
    3d4c:	ff fe f5 d7 6b 75 d7 5f 7b bb 83 da ed eb ff ff     ....ku._{.......
    3d5c:	ff ff 75 d3 77 75 97 5e fd 7b f7 da ed db bf ff     ..u.wu.^.{......
    3d6c:	ff ff 8e 34 f7 76 57 4e 0e fb f7 e7 0c 3c 7f ff     ...4.vWN.....<..
    3d7c:	ff ff ff f7 f7 ff df ff ff ff ff ff ff ff ff ff     ................
    3d8c:	ff ff ff f7 f7 fd df ff ff ff ff ff ff ff ff ff     ................
    3d9c:	ff ff ff f7 cf fe 3f ff ff ff ff ff ff ff ff ff     ......?.........
    3dac:	ff ff ff ff ff ff ff ff ff ff ff ff ff ff ff ff     ................
    3dbc:	ff ff ff ff ff ff ff ff ff ff ff ff ff ff ff ff     ................
    3dcc:	ff ff ff ff ff ff ff ff ff ff ff ff ff ff ff ff     ................
    3ddc:	ff ff ff ff ff ff ff ff ff ff ff ff ff ff ff ff     ................
    3dec:	ff ff ff ff ff ff ff ff ff ff ff ff ff ff ff ff     ................
    3dfc:	ff ff ff ff ff ff ff ff ff ff ff ff ff ff ff ff     ................
    3e0c:	ff ff ff ff ff ff ff ff ff ff ff ff ff ff ff ff     ................
    3e1c:	ff ff ff ff ff ff ff ff ff ff ff ff ff ff ff ff     ................
    3e2c:	ff ff ff ff ff ff ff ff ff ff ff ff ff ff ff ff     ................
    3e3c:	ff ff ff ff ff ff ff ff ff ff ff ff ff ff ff ff     ................
    3e4c:	ff ff ff ff ff ff ff ff ff ff ff ff ff ff ff ff     ................
    3e5c:	ff ff ff ff ff ff ff ff ff ff ff ff ff ff ff ff     ................
    3e6c:	ff ff ff ff ff ff ff ff ff ff ff ff ff ff ff ff     ................
    3e7c:	ff ff ff ff ff ff ff ff ff ff ff ff ff ff ff ff     ................
    3e8c:	ff ff ff ff ff ff ff ff ff ff ff ff ff ff ff ff     ................
    3e9c:	ff ff ff ff ff ff ff ff ff ff ff ff ff ff ff ff     ................
    3eac:	ff ff ff ff ff ff ff ff ff ff ff ff ff ff ff ff     ................

00003ebc <magic_square>:
    3ebc:	12 23 4d 61 67 69 63 20 53 71 75 61 72 65 20 76     .#Magic Square v
    3ecc:	31 2e 30 20 62 79 20 44 61 76 69 64 20 57 49 4e     1.0 by David WIN
    3edc:	54 45 52 00 fe 00 e0 a4 7d 60 00 61 00 62 01 67     TER.....}`.a.b.g
    3eec:	00 68 00 f0 55 f2 1e 71 01 31 40 12 33 a3 ff 61     .h..U..q.1@.3..a
    3efc:	06 60 01 62 0b 63 07 d1 0b f2 1e 70 0d d1 07 f3     .`.b.c.....p....
    3f0c:	1e 70 f3 71 08 31 3e 12 47 60 0d 61 1a 62 05 6e     .p.q.1>.G`.a.b.n
    3f1c:	03 a3 d0 d0 15 f2 1e 70 06 30 31 12 63 23 5f f2     .......p.01.c#_.
    3f2c:	0a 32 04 12 7f 4e 03 12 8d 23 5f 7e ff 23 5f 32     .2...N...#_~.#_2
    3f3c:	06 12 8d 4e 08 12 8d 23 5f 7e 01 23 5f 32 05 12     ...N...#_~.#_2..
    3f4c:	6f 00 ff 00 e0 61 00 88 e4 71 01 51 e0 12 97 8a     o....a...q.Q....
    3f5c:	e0 8a a4 8a a4 8a a4 60 80 8a 07 8a 06 8b e0 8b     .......`........
    3f6c:	b4 8b b4 8b b4 60 40 8b 07 8b 06 80 a0 81 b0 62     .....`@........b
    3f7c:	00 63 00 a3 f8 d0 17 70 08 72 01 52 e0 12 c5 80     .c.....p.r.R....
    3f8c:	a0 71 08 62 00 73 01 53 e0 12 c5 6c 00 6d 00 23     .q.b.s.S...l.m.#
    3f9c:	65 f0 0a 30 02 12 ef 23 65 3d 00 7d ff 23 65 30     e..0...#e=.}.#e0
    3fac:	04 12 fb 23 65 3c 00 7c ff 23 65 30 06 13 09 23     ...#e<.|.#e0...#
    3fbc:	65 7c 01 9c e0 7c ff 23 65 30 08 13 17 23 65 7d     e|...|.#e0...#e}
    3fcc:	01 9d e0 7d ff 23 65 30 05 12 e1 23 a3 23 7f 4d     ...}.#e0...#.#.M
    3fdc:	00 13 29 7d ff 23 7f 7d 01 4c 00 13 33 7c ff 23     ..)}.#.}.L..3|.#
    3fec:	7f 7c 01 80 c0 70 01 90 e0 13 41 7c 01 23 7f 7c     .|...p....A|.#.|
    3ffc:	ff 80 d0 70 01 90 e0 13 4f 7d 01 23 7f 7d ff 23     ...p....O}.#.}.#
    400c:	a3 57 80 12 e1 23 65 60 20 61 00 23 a3 13 5b fe     .W...#e` a.#..[.
    401c:	29 d0 15 00 ee a3 f2 82 c0 83 d0 82 24 82 24 82     )...........$.$.
    402c:	24 82 a4 83 34 83 34 83 34 83 b4 d2 36 00 ee 81     $...4.4.4...6...
    403c:	c0 82 d0 82 24 82 24 82 24 81 24 a4 7d f1 1e f0     ....$.$.$.$.}...
    404c:	65 69 01 80 93 30 01 77 ff 30 00 77 01 f0 55 a3     ei...0.w.0.w..U.
    405c:	ed 13 67 63 18 a3 b1 61 08 d1 30 61 67 d1 30 00     ..gc...a..0ag.0.
    406c:	ee 04 20 02 40 82 41 40 02 23 c4 04 20 08 10 10     .. .@.A@.#.. ...
    407c:	08 d2 4b 12 48 09 90 05 a0 03 c0 03 c0 03 c0 01     ..K.H...........
    408c:	80 80 80 80 f8 f8 80 e0 80 f8 88 88 88 50 20 f8     .............P .
    409c:	80 e0 80 f8 80 80 80 80 f8 00 20 00 20 00 00 38     .......... . ..8
    40ac:	38 38 00 7c 44 44 44 7c fe 82 82 82 82 82 fe c1     88.|DDD|........
    40bc:	e3 f7 dd c9 c1 c1 c1 c1 c1 c1 fe 00 c0 fe 02 02     ................
    40cc:	fe 8f 9f b8 b0 b0 bf bf b0 b0 b0 b0 7f 01 61 61     ..............aa
    40dc:	65 62 7d 83 c7 ee 6c 6c ec ec 6c 6e 67 63 30 00     eb}...ll..lngc0.
    40ec:	30 30 30 30 3f f3 fb 03 03 03 73 fb 1b 3b f3 e3     0000?.....s..;..
    40fc:	9f 80 98 9f 98 98 98 1f 3f 70 60 60 60 60 60 70     ........?p`````p
    410c:	3f 1f cf 40 4c cf 4c 4c 4c 80 c0 00 00 00 00 00     ?..@L.LLL.......
    411c:	00 00 ff ff e7 20 26 e7 86 46 27 00 00 00 00 00     ..... &..F'.....
    412c:	00 00 00 00 f0 e0 f0 00 00 80 00 00 f0              .............

00004139 <magic_square_info>:
    4139:	73 71 75 61 72 65 0a 44 61 76 69 64 20 57 69 6e     square.David Win
    4149:	74 65 72 0a 6b 65 79 73 3a 0a 32 20 75 70 0a 38     ter.keys:.2 up.8
    4159:	20 64 6f 77 6e 0a 34 20 6c 65 66 74 0a 36 20 72      down.4 left.6 r
    4169:	69 67 68 74 0a 35 20 69 6e 76 65 72 74 20 73 71     ight.5 invert sq
    4179:	75 61 72 65 0a 00                                   uare..

0000417f <font_6x8>:
	...
    4187:	20 20 20 20 20 00 20 00 50 50 50 00 00 00 00 00          . .PPP.....
    4197:	50 50 f8 50 f8 50 50 00 20 78 a0 70 28 f0 20 00     PP.P.PP. x.p(. .
    41a7:	c0 c8 10 20 40 98 18 00 60 90 a0 40 a8 90 68 00     ... @...`..@..h.
    41b7:	60 20 40 00 00 00 00 00 10 20 40 40 40 20 10 00     ` @...... @@@ ..
    41c7:	40 20 10 10 10 20 40 00 00 20 a8 70 a8 20 00 00     @ ... @.. .p. ..
    41d7:	00 20 20 f8 20 20 00 00 00 00 00 00 60 20 40 00     .  .  ......` @.
    41e7:	00 00 00 f0 00 00 00 00 00 00 00 00 00 60 60 00     .............``.
    41f7:	00 08 10 20 40 80 00 00 70 88 98 a8 c8 88 70 00     ... @...p.....p.
    4207:	20 60 20 20 20 20 f8 00 70 88 10 20 40 80 f8 00      `    ..p.. @...
    4217:	f0 08 08 f0 08 08 f0 00 10 30 50 90 f8 10 10 00     .........0P.....
    4227:	f8 80 80 f0 08 08 f0 00 30 40 80 f0 88 88 70 00     ........0@....p.
    4237:	f8 08 10 20 40 40 40 00 70 88 88 70 88 88 70 00     ... @@@.p..p..p.
    4247:	70 88 88 70 08 08 70 00 00 60 60 00 60 60 00 00     p..p..p..``.``..
    4257:	00 60 60 00 60 20 40 00 10 20 40 80 40 20 10 00     .``.` @.. @.@ ..
    4267:	00 00 f8 00 f8 00 00 00 40 20 10 08 10 20 40 00     ........@ ... @.
    4277:	70 88 08 10 20 00 20 00 70 88 08 68 a8 a8 70 00     p... . .p..h..p.
    4287:	70 88 88 f8 88 88 88 00 f0 88 88 f0 88 88 f0 00     p...............
    4297:	78 80 80 80 80 80 78 00 f0 88 88 88 88 88 f0 00     x.....x.........
    42a7:	f8 80 80 f8 80 80 f8 00 f8 80 80 f8 80 80 80 00     ................
    42b7:	78 80 80 b0 88 88 70 00 88 88 88 f8 88 88 88 00     x.....p.........
    42c7:	70 20 20 20 20 20 70 00 78 08 08 08 08 90 60 00     p     p.x.....`.
    42d7:	88 90 a0 c0 a0 90 88 00 80 80 80 80 80 80 f8 00     ................
    42e7:	88 d8 a8 88 88 88 88 00 88 88 c8 a8 98 88 88 00     ................
    42f7:	70 88 88 88 88 88 70 00 f0 88 88 f0 80 80 80 00     p.....p.........
    4307:	70 88 88 88 a8 98 78 00 f0 88 88 f0 a0 90 88 00     p.....x.........
    4317:	78 80 80 70 08 08 f0 00 f8 20 20 20 20 20 20 00     x..p.....      .
    4327:	88 88 88 88 88 88 70 00 88 88 88 88 88 50 20 00     ......p......P .
    4337:	88 88 88 a8 a8 d8 88 00 88 88 50 20 50 88 88 00     ..........P P...
    4347:	88 88 88 50 20 20 20 00 f8 10 20 40 80 80 f8 00     ...P   ... @....
    4357:	60 40 40 40 40 40 60 00 00 80 40 20 10 08 00 00     `@@@@@`...@ ....
    4367:	18 08 08 08 08 08 18 00 20 50 88 00 00 00 00 00     ........ P......
    4377:	00 00 00 00 00 00 f8 00 40 20 10 00 00 00 00 00     ........@ ......
    4387:	00 00 70 08 78 88 78 00 80 80 80 b0 c8 88 f0 00     ..p.x.x.........
    4397:	00 00 70 80 80 88 70 00 08 08 08 68 98 88 78 00     ..p...p....h..x.
    43a7:	00 00 70 88 f8 80 70 00 30 48 40 e0 40 40 40 00     ..p...p.0H@.@@@.
    43b7:	00 00 78 88 88 78 08 70 80 80 b0 c8 88 88 88 00     ..x..x.p........
    43c7:	00 20 00 20 20 20 20 00 10 00 30 10 10 90 60 00     . .    ...0...`.
    43d7:	80 80 90 a0 c0 a0 90 00 60 20 20 20 20 20 70 00     ........`     p.
    43e7:	00 00 d0 a8 a8 88 88 00 00 00 b0 c8 88 88 88 00     ................
    43f7:	00 00 70 88 88 88 70 00 00 00 f0 88 88 f0 80 80     ..p...p.........
    4407:	00 00 68 90 90 b0 50 18 00 00 b0 c8 80 80 80 00     ..h...P.........
    4417:	00 00 70 80 70 08 f0 00 40 40 e0 40 40 48 30 00     ..p.p...@@.@@H0.
    4427:	00 00 88 88 88 98 68 00 00 00 88 88 88 50 20 00     ......h......P .
    4437:	00 00 88 88 a8 a8 50 00 00 00 88 50 20 50 88 00     ......P....P P..
    4447:	00 00 88 88 88 78 08 70 00 00 f8 10 20 40 f8 00     .....x.p.... @..
    4457:	20 40 40 80 40 40 20 00 20 20 20 20 20 20 20 00      @@.@@ .       .
    4467:	40 20 20 10 20 20 40 00 00 00 40 a8 10 00 00 00     @  .  @...@.....
    4477:	fc fc fc fc fc fc fc fc 40 20 10 f8 10 20 40 00     ........@ ... @.
    4487:	10 20 40 f8 40 20 10 00 20 70 a8 20 20 20 00 00     . @.@ .. p.   ..
    4497:	00 20 20 20 a8 70 20 00 00 70 f8 f8 f8 70 00 00     .   .p ..p...p..

000044a7 <font_hex_8x10>:
    44a7:	7c 82 86 8a 92 a2 c2 82 7c 00 08 18 28 08 08 08     |.......|...(...
    44b7:	08 08 3e 00 38 44 82 04 08 10 20 40 fe 00 38 44     ..>.8D.... @..8D
    44c7:	82 02 3c 02 82 44 38 00 84 84 84 84 7e 04 04 04     ..<..D8.....~...
    44d7:	04 00 7e 80 80 80 7c 02 02 02 fe 00 78 84 80 80     ..~...|.....x...
    44e7:	fc 82 82 82 7c 00 7e 82 04 08 08 08 08 08 08 00     ....|.~.........
    44f7:	38 44 82 82 7c 82 82 44 38 00 38 44 82 82 46 3a     8D..|..D8.8D..F:
    4507:	02 04 38 00 38 44 82 82 fe 82 82 82 82 00 fc 82     ..8.8D..........
    4517:	82 82 fc 82 82 82 fc 00 3e 40 80 80 80 80 80 40     ........>@.....@
    4527:	3e 00 f8 84 82 82 82 82 82 84 f8 00 fe 80 80 80     >...............
    4537:	fe 80 80 80 fe 00 fe 80 80 80 fe 80 80 80 80 00     ................

00004547 <font_hex_4x6>:
    4547:	e0 a0 a0 a0 e0 00 c0 40 40 40 e0 00 e0 20 e0 80     .......@@@... ..
    4557:	e0 00 e0 20 e0 20 e0 00 a0 a0 e0 20 20 00 e0 80     ... . .....  ...
    4567:	e0 20 e0 00 80 80 e0 a0 e0 00 e0 20 20 20 20 00     . .........    .
    4577:	e0 a0 e0 a0 e0 00 e0 a0 e0 20 20 00 e0 a0 e0 a0     .........  .....
    4587:	a0 00 c0 a0 c0 a0 c0 00 e0 80 80 80 e0 00 c0 a0     ................
    4597:	a0 a0 c0 00 e0 80 e0 80 e0 00 e0 80 e0 80 80 00     ................

000045a7 <SCALE>:
    45a7:	0b 02 2a 02 4b 02 6e 02 93 02 ba 02 e4 02 10 03     ..*.K.n.........
    45b7:	3f 03 70 03 a4 03 dc 03 17 04 55 04 97 04 dd 04     ?.p.......U.....
	...

000045c8 <__ctors_end>:
    45c8:	11 24       	eor	r1, r1
    45ca:	1f be       	out	0x3f, r1	; 63
    45cc:	cf ef       	ldi	r28, 0xFF	; 255
    45ce:	d8 e0       	ldi	r29, 0x08	; 8
    45d0:	de bf       	out	0x3e, r29	; 62
    45d2:	cd bf       	out	0x3d, r28	; 61

000045d4 <__do_copy_data>:
    45d4:	11 e0       	ldi	r17, 0x01	; 1
    45d6:	a0 e0       	ldi	r26, 0x00	; 0
    45d8:	b1 e0       	ldi	r27, 0x01	; 1
    45da:	ee e6       	ldi	r30, 0x6E	; 110
    45dc:	fa e7       	ldi	r31, 0x7A	; 122
    45de:	02 c0       	rjmp	.+4      	; 0x45e4 <__do_copy_data+0x10>
    45e0:	05 90       	lpm	r0, Z+
    45e2:	0d 92       	st	X+, r0
    45e4:	a8 30       	cpi	r26, 0x08	; 8
    45e6:	b1 07       	cpc	r27, r17
    45e8:	d9 f7       	brne	.-10     	; 0x45e0 <__do_copy_data+0xc>

000045ea <__do_clear_bss>:
    45ea:	28 e0       	ldi	r18, 0x08	; 8
    45ec:	a8 e0       	ldi	r26, 0x08	; 8
    45ee:	b1 e0       	ldi	r27, 0x01	; 1
    45f0:	01 c0       	rjmp	.+2      	; 0x45f4 <.do_clear_bss_start>

000045f2 <.do_clear_bss_loop>:
    45f2:	1d 92       	st	X+, r1

000045f4 <.do_clear_bss_start>:
    45f4:	a9 34       	cpi	r26, 0x49	; 73
    45f6:	b2 07       	cpc	r27, r18
    45f8:	e1 f7       	brne	.-8      	; 0x45f2 <.do_clear_bss_loop>
    45fa:	0e 94 43 2a 	call	0x5486	; 0x5486 <main>
    45fe:	0c 94 35 3d 	jmp	0x7a6a	; 0x7a6a <_exit>

00004602 <__bad_interrupt>:
    4602:	0c 94 00 00 	jmp	0	; 0x0 <__vectors>

00004606 <read16>:
    4606:	fc 01       	movw	r30, r24
    4608:	81 81       	ldd	r24, Z+1	; 0x01
    460a:	90 e0       	ldi	r25, 0x00	; 0
    460c:	98 2f       	mov	r25, r24
    460e:	88 27       	eor	r24, r24
    4610:	20 81       	ld	r18, Z
    4612:	82 2b       	or	r24, r18
    4614:	08 95       	ret

00004616 <read32>:
    4616:	fc 01       	movw	r30, r24
    4618:	23 81       	ldd	r18, Z+3	; 0x03
    461a:	62 81       	ldd	r22, Z+2	; 0x02
    461c:	86 2f       	mov	r24, r22
    461e:	90 e0       	ldi	r25, 0x00	; 0
    4620:	a0 e0       	ldi	r26, 0x00	; 0
    4622:	b0 e0       	ldi	r27, 0x00	; 0
    4624:	77 27       	eor	r23, r23
    4626:	66 27       	eor	r22, r22
    4628:	92 2b       	or	r25, r18
    462a:	20 81       	ld	r18, Z
    462c:	62 2b       	or	r22, r18
    462e:	21 81       	ldd	r18, Z+1	; 0x01
    4630:	72 2b       	or	r23, r18
    4632:	08 95       	ret

00004634 <print_vms>:
    4634:	cf 93       	push	r28
    4636:	df 93       	push	r29
    4638:	ec 01       	movw	r28, r24
    463a:	0e 94 3a 3b 	call	0x7674	; 0x7674 <screen_save>
    463e:	0e 94 85 3a 	call	0x750a	; 0x750a <cls>
    4642:	82 e0       	ldi	r24, 0x02	; 2
    4644:	0e 94 c0 35 	call	0x6b80	; 0x6b80 <select_font>
    4648:	ce 01       	movw	r24, r28
    464a:	0e 94 68 36 	call	0x6cd0	; 0x6cd0 <prt_pstr>
    464e:	88 eb       	ldi	r24, 0xB8	; 184
    4650:	9a e0       	ldi	r25, 0x0A	; 10
    4652:	0e 94 68 36 	call	0x6cd0	; 0x6cd0 <prt_pstr>
    4656:	80 91 28 01 	lds	r24, 0x0128
    465a:	90 91 29 01 	lds	r25, 0x0129
    465e:	64 e0       	ldi	r22, 0x04	; 4
    4660:	02 97       	sbiw	r24, 0x02	; 2
    4662:	0e 94 7a 36 	call	0x6cf4	; 0x6cf4 <print_hex>
    4666:	80 91 4d 01 	lds	r24, 0x014D
    466a:	62 e0       	ldi	r22, 0x02	; 2
    466c:	90 e0       	ldi	r25, 0x00	; 0
    466e:	0e 94 7a 36 	call	0x6cf4	; 0x6cf4 <print_hex>
    4672:	80 91 4e 01 	lds	r24, 0x014E
    4676:	62 e0       	ldi	r22, 0x02	; 2
    4678:	90 e0       	ldi	r25, 0x00	; 0
    467a:	0e 94 7a 36 	call	0x6cf4	; 0x6cf4 <print_hex>
    467e:	0e 94 c3 35 	call	0x6b86	; 0x6b86 <new_line>
    4682:	85 eb       	ldi	r24, 0xB5	; 181
    4684:	9a e0       	ldi	r25, 0x0A	; 10
    4686:	0e 94 68 36 	call	0x6cd0	; 0x6cd0 <prt_pstr>
    468a:	64 e0       	ldi	r22, 0x04	; 4
    468c:	80 91 2a 01 	lds	r24, 0x012A
    4690:	90 91 2b 01 	lds	r25, 0x012B
    4694:	0e 94 7a 36 	call	0x6cf4	; 0x6cf4 <print_hex>
    4698:	80 eb       	ldi	r24, 0xB0	; 176
    469a:	9a e0       	ldi	r25, 0x0A	; 10
    469c:	0e 94 68 36 	call	0x6cd0	; 0x6cd0 <prt_pstr>
    46a0:	80 91 2c 01 	lds	r24, 0x012C
    46a4:	62 e0       	ldi	r22, 0x02	; 2
    46a6:	90 e0       	ldi	r25, 0x00	; 0
    46a8:	0e 94 7a 36 	call	0x6cf4	; 0x6cf4 <print_hex>
    46ac:	0e 94 c3 35 	call	0x6b86	; 0x6b86 <new_line>
    46b0:	89 ea       	ldi	r24, 0xA9	; 169
    46b2:	9a e0       	ldi	r25, 0x0A	; 10
    46b4:	0e 94 68 36 	call	0x6cd0	; 0x6cd0 <prt_pstr>
    46b8:	cd e2       	ldi	r28, 0x2D	; 45
    46ba:	d1 e0       	ldi	r29, 0x01	; 1
    46bc:	89 91       	ld	r24, Y+
    46be:	62 e0       	ldi	r22, 0x02	; 2
    46c0:	90 e0       	ldi	r25, 0x00	; 0
    46c2:	0e 94 7a 36 	call	0x6cf4	; 0x6cf4 <print_hex>
    46c6:	81 e0       	ldi	r24, 0x01	; 1
    46c8:	cd 33       	cpi	r28, 0x3D	; 61
    46ca:	d8 07       	cpc	r29, r24
    46cc:	b9 f7       	brne	.-18     	; 0x46bc <print_vms+0x88>
    46ce:	0e 94 c3 35 	call	0x6b86	; 0x6b86 <new_line>
    46d2:	85 e9       	ldi	r24, 0x95	; 149
    46d4:	9a e0       	ldi	r25, 0x0A	; 10
    46d6:	0e 94 68 36 	call	0x6cd0	; 0x6cd0 <prt_pstr>
    46da:	0e 94 dc 31 	call	0x63b8	; 0x63b8 <wait_key>
    46de:	8e 30       	cpi	r24, 0x0E	; 14
    46e0:	41 f0       	breq	.+16     	; 0x46f2 <print_vms+0xbe>
    46e2:	0e 94 8e 31 	call	0x631c	; 0x631c <keypad_read>
    46e6:	8f 3f       	cpi	r24, 0xFF	; 255
    46e8:	e1 f7       	brne	.-8      	; 0x46e2 <print_vms+0xae>
    46ea:	df 91       	pop	r29
    46ec:	cf 91       	pop	r28
    46ee:	0c 94 42 3b 	jmp	0x7684	; 0x7684 <screen_restore>
    46f2:	80 91 8f 01 	lds	r24, 0x018F
    46f6:	8b 7f       	andi	r24, 0xFB	; 251
    46f8:	80 93 8f 01 	sts	0x018F, r24
    46fc:	f2 cf       	rjmp	.-28     	; 0x46e2 <print_vms+0xae>

000046fe <schip>:
    46fe:	ff 92       	push	r15
    4700:	0f 93       	push	r16
    4702:	1f 93       	push	r17
    4704:	cf 93       	push	r28
    4706:	df 93       	push	r29
    4708:	81 ff       	sbrs	r24, 1
    470a:	0c c0       	rjmp	.+24     	; 0x4724 <schip+0x26>
    470c:	80 e0       	ldi	r24, 0x00	; 0
    470e:	92 e0       	ldi	r25, 0x02	; 2
    4710:	90 93 29 01 	sts	0x0129, r25
    4714:	80 93 28 01 	sts	0x0128, r24
    4718:	10 92 2c 01 	sts	0x012C, r1
    471c:	10 92 2b 01 	sts	0x012B, r1
    4720:	10 92 2a 01 	sts	0x012A, r1
    4724:	81 e0       	ldi	r24, 0x01	; 1
    4726:	80 93 c4 02 	sts	0x02C4, r24
    472a:	ce ef       	ldi	r28, 0xFE	; 254
    472c:	dd ec       	ldi	r29, 0xCD	; 205
    472e:	0e 94 fd 31 	call	0x63fa	; 0x63fa <keypad_break>
    4732:	81 11       	cpse	r24, r1
    4734:	6d c0       	rjmp	.+218    	; 0x4810 <schip+0x112>
    4736:	80 91 28 01 	lds	r24, 0x0128
    473a:	90 91 29 01 	lds	r25, 0x0129
    473e:	0e 94 ad 37 	call	0x6f5a	; 0x6f5a <sram_read_word>
    4742:	80 93 4d 01 	sts	0x014D, r24
    4746:	90 93 4e 01 	sts	0x014E, r25
    474a:	40 91 28 01 	lds	r20, 0x0128
    474e:	50 91 29 01 	lds	r21, 0x0129
    4752:	ba 01       	movw	r22, r20
    4754:	6e 5f       	subi	r22, 0xFE	; 254
    4756:	7f 4f       	sbci	r23, 0xFF	; 255
    4758:	70 93 29 01 	sts	0x0129, r23
    475c:	60 93 28 01 	sts	0x0128, r22
    4760:	18 2f       	mov	r17, r24
    4762:	1f 70       	andi	r17, 0x0F	; 15
    4764:	09 2f       	mov	r16, r25
    4766:	02 95       	swap	r16
    4768:	0f 70       	andi	r16, 0x0F	; 15
    476a:	80 7f       	andi	r24, 0xF0	; 240
    476c:	e0 e1       	ldi	r30, 0x10	; 16
    476e:	8e 9f       	mul	r24, r30
    4770:	90 01       	movw	r18, r0
    4772:	11 24       	eor	r1, r1
    4774:	21 15       	cp	r18, r1
    4776:	89 e0       	ldi	r24, 0x09	; 9
    4778:	38 07       	cpc	r19, r24
    477a:	51 f0       	breq	.+20     	; 0x4790 <schip+0x92>
    477c:	08 f0       	brcs	.+2      	; 0x4780 <schip+0x82>
    477e:	7c c0       	rjmp	.+248    	; 0x4878 <schip+0x17a>
    4780:	21 15       	cp	r18, r1
    4782:	31 05       	cpc	r19, r1
    4784:	09 f4       	brne	.+2      	; 0x4788 <schip+0x8a>
    4786:	95 c0       	rjmp	.+298    	; 0x48b2 <schip+0x1b4>
    4788:	21 15       	cp	r18, r1
    478a:	88 e0       	ldi	r24, 0x08	; 8
    478c:	38 07       	cpc	r19, r24
    478e:	19 f4       	brne	.+6      	; 0x4796 <schip+0x98>
    4790:	89 2f       	mov	r24, r25
    4792:	8f 70       	andi	r24, 0x0F	; 15
    4794:	28 2b       	or	r18, r24
    4796:	2e 30       	cpi	r18, 0x0E	; 14
    4798:	e8 e0       	ldi	r30, 0x08	; 8
    479a:	3e 07       	cpc	r19, r30
    479c:	09 f4       	brne	.+2      	; 0x47a0 <schip+0xa2>
    479e:	7b c0       	rjmp	.+246    	; 0x4896 <schip+0x198>
    47a0:	2f 30       	cpi	r18, 0x0F	; 15
    47a2:	88 e0       	ldi	r24, 0x08	; 8
    47a4:	38 07       	cpc	r19, r24
    47a6:	d8 f5       	brcc	.+118    	; 0x481e <schip+0x120>
    47a8:	21 15       	cp	r18, r1
    47aa:	e4 e0       	ldi	r30, 0x04	; 4
    47ac:	3e 07       	cpc	r19, r30
    47ae:	09 f4       	brne	.+2      	; 0x47b2 <schip+0xb4>
    47b0:	7f c3       	rjmp	.+1790   	; 0x4eb0 <schip+0x7b2>
    47b2:	08 f4       	brcc	.+2      	; 0x47b6 <schip+0xb8>
    47b4:	a5 c0       	rjmp	.+330    	; 0x4900 <schip+0x202>
    47b6:	22 30       	cpi	r18, 0x02	; 2
    47b8:	e8 e0       	ldi	r30, 0x08	; 8
    47ba:	3e 07       	cpc	r19, r30
    47bc:	09 f4       	brne	.+2      	; 0x47c0 <schip+0xc2>
    47be:	6a c3       	rjmp	.+1748   	; 0x4e94 <schip+0x796>
    47c0:	08 f0       	brcs	.+2      	; 0x47c4 <schip+0xc6>
    47c2:	d0 c0       	rjmp	.+416    	; 0x4964 <schip+0x266>
    47c4:	21 15       	cp	r18, r1
    47c6:	e7 e0       	ldi	r30, 0x07	; 7
    47c8:	3e 07       	cpc	r19, r30
    47ca:	09 f4       	brne	.+2      	; 0x47ce <schip+0xd0>
    47cc:	5b c3       	rjmp	.+1718   	; 0x4e84 <schip+0x786>
    47ce:	08 f0       	brcs	.+2      	; 0x47d2 <schip+0xd4>
    47d0:	7c c1       	rjmp	.+760    	; 0x4aca <schip+0x3cc>
    47d2:	21 15       	cp	r18, r1
    47d4:	e5 e0       	ldi	r30, 0x05	; 5
    47d6:	3e 07       	cpc	r19, r30
    47d8:	09 f4       	brne	.+2      	; 0x47dc <schip+0xde>
    47da:	59 c2       	rjmp	.+1202   	; 0x4c8e <schip+0x590>
    47dc:	21 15       	cp	r18, r1
    47de:	36 40       	sbci	r19, 0x06	; 6
    47e0:	09 f0       	breq	.+2      	; 0x47e4 <schip+0xe6>
    47e2:	6e c3       	rjmp	.+1756   	; 0x4ec0 <schip+0x7c2>
    47e4:	e1 2f       	mov	r30, r17
    47e6:	f0 e0       	ldi	r31, 0x00	; 0
    47e8:	e8 5d       	subi	r30, 0xD8	; 216
    47ea:	fe 4f       	sbci	r31, 0xFE	; 254
    47ec:	95 83       	std	Z+5, r25	; 0x05
    47ee:	c1 50       	subi	r28, 0x01	; 1
    47f0:	09 f0       	breq	.+2      	; 0x47f4 <schip+0xf6>
    47f2:	9d cf       	rjmp	.-198    	; 0x472e <schip+0x30>
    47f4:	80 91 c4 02 	lds	r24, 0x02C4
    47f8:	81 11       	cpse	r24, r1
    47fa:	fc cf       	rjmp	.-8      	; 0x47f4 <schip+0xf6>
    47fc:	81 e0       	ldi	r24, 0x01	; 1
    47fe:	80 93 c4 02 	sts	0x02C4, r24
    4802:	c0 91 79 00 	lds	r28, 0x0079
    4806:	0e 94 fd 31 	call	0x63fa	; 0x63fa <keypad_break>
    480a:	88 23       	and	r24, r24
    480c:	09 f4       	brne	.+2      	; 0x4810 <schip+0x112>
    480e:	93 cf       	rjmp	.-218    	; 0x4736 <schip+0x38>
    4810:	81 e0       	ldi	r24, 0x01	; 1
    4812:	df 91       	pop	r29
    4814:	cf 91       	pop	r28
    4816:	1f 91       	pop	r17
    4818:	0f 91       	pop	r16
    481a:	ff 90       	pop	r15
    481c:	08 95       	ret
    481e:	27 30       	cpi	r18, 0x07	; 7
    4820:	ef e0       	ldi	r30, 0x0F	; 15
    4822:	3e 07       	cpc	r19, r30
    4824:	09 f4       	brne	.+2      	; 0x4828 <schip+0x12a>
    4826:	26 c3       	rjmp	.+1612   	; 0x4e74 <schip+0x776>
    4828:	08 f0       	brcs	.+2      	; 0x482c <schip+0x12e>
    482a:	4b c0       	rjmp	.+150    	; 0x48c2 <schip+0x1c4>
    482c:	21 15       	cp	r18, r1
    482e:	ea e0       	ldi	r30, 0x0A	; 10
    4830:	3e 07       	cpc	r19, r30
    4832:	09 f4       	brne	.+2      	; 0x4836 <schip+0x138>
    4834:	0f c3       	rjmp	.+1566   	; 0x4e54 <schip+0x756>
    4836:	08 f0       	brcs	.+2      	; 0x483a <schip+0x13c>
    4838:	7a c0       	rjmp	.+244    	; 0x492e <schip+0x230>
    483a:	22 30       	cpi	r18, 0x02	; 2
    483c:	e9 e0       	ldi	r30, 0x09	; 9
    483e:	3e 07       	cpc	r19, r30
    4840:	09 f4       	brne	.+2      	; 0x4844 <schip+0x146>
    4842:	90 c2       	rjmp	.+1312   	; 0x4d64 <schip+0x666>
    4844:	08 f0       	brcs	.+2      	; 0x4848 <schip+0x14a>
    4846:	74 c1       	rjmp	.+744    	; 0x4b30 <schip+0x432>
    4848:	21 15       	cp	r18, r1
    484a:	e9 e0       	ldi	r30, 0x09	; 9
    484c:	3e 07       	cpc	r19, r30
    484e:	09 f4       	brne	.+2      	; 0x4852 <schip+0x154>
    4850:	bf c1       	rjmp	.+894    	; 0x4bd0 <schip+0x4d2>
    4852:	21 30       	cpi	r18, 0x01	; 1
    4854:	39 40       	sbci	r19, 0x09	; 9
    4856:	09 f0       	breq	.+2      	; 0x485a <schip+0x15c>
    4858:	33 c3       	rjmp	.+1638   	; 0x4ec0 <schip+0x7c2>
    485a:	a0 2f       	mov	r26, r16
    485c:	b0 e0       	ldi	r27, 0x00	; 0
    485e:	a8 5d       	subi	r26, 0xD8	; 216
    4860:	be 4f       	sbci	r27, 0xFE	; 254
    4862:	e1 2f       	mov	r30, r17
    4864:	f0 e0       	ldi	r31, 0x00	; 0
    4866:	e8 5d       	subi	r30, 0xD8	; 216
    4868:	fe 4f       	sbci	r31, 0xFE	; 254
    486a:	40 e0       	ldi	r20, 0x00	; 0
    486c:	15 96       	adiw	r26, 0x05	; 5
    486e:	6c 91       	ld	r22, X
    4870:	85 81       	ldd	r24, Z+5	; 0x05
    4872:	0e 94 45 38 	call	0x708a	; 0x708a <key_tone>
    4876:	bb cf       	rjmp	.-138    	; 0x47ee <schip+0xf0>
    4878:	21 15       	cp	r18, r1
    487a:	ee e0       	ldi	r30, 0x0E	; 14
    487c:	3e 07       	cpc	r19, r30
    487e:	29 f0       	breq	.+10     	; 0x488a <schip+0x18c>
    4880:	21 15       	cp	r18, r1
    4882:	8f e0       	ldi	r24, 0x0F	; 15
    4884:	38 07       	cpc	r19, r24
    4886:	09 f0       	breq	.+2      	; 0x488a <schip+0x18c>
    4888:	86 cf       	rjmp	.-244    	; 0x4796 <schip+0x98>
    488a:	29 2b       	or	r18, r25
    488c:	2e 30       	cpi	r18, 0x0E	; 14
    488e:	e8 e0       	ldi	r30, 0x08	; 8
    4890:	3e 07       	cpc	r19, r30
    4892:	09 f0       	breq	.+2      	; 0x4896 <schip+0x198>
    4894:	85 cf       	rjmp	.-246    	; 0x47a0 <schip+0xa2>
    4896:	e1 2f       	mov	r30, r17
    4898:	f0 e0       	ldi	r31, 0x00	; 0
    489a:	e8 5d       	subi	r30, 0xD8	; 216
    489c:	fe 4f       	sbci	r31, 0xFE	; 254
    489e:	85 81       	ldd	r24, Z+5	; 0x05
    48a0:	98 2f       	mov	r25, r24
    48a2:	99 0f       	add	r25, r25
    48a4:	95 83       	std	Z+5, r25	; 0x05
    48a6:	88 1f       	adc	r24, r24
    48a8:	88 27       	eor	r24, r24
    48aa:	88 1f       	adc	r24, r24
    48ac:	80 93 3c 01 	sts	0x013C, r24
    48b0:	9e cf       	rjmp	.-196    	; 0x47ee <schip+0xf0>
    48b2:	89 2f       	mov	r24, r25
    48b4:	80 7f       	andi	r24, 0xF0	; 240
    48b6:	80 3c       	cpi	r24, 0xC0	; 192
    48b8:	09 f4       	brne	.+2      	; 0x48bc <schip+0x1be>
    48ba:	4f c2       	rjmp	.+1182   	; 0x4d5a <schip+0x65c>
    48bc:	29 2f       	mov	r18, r25
    48be:	30 e0       	ldi	r19, 0x00	; 0
    48c0:	6a cf       	rjmp	.-300    	; 0x4796 <schip+0x98>
    48c2:	20 33       	cpi	r18, 0x30	; 48
    48c4:	ef e0       	ldi	r30, 0x0F	; 15
    48c6:	3e 07       	cpc	r19, r30
    48c8:	09 f4       	brne	.+2      	; 0x48cc <schip+0x1ce>
    48ca:	79 c2       	rjmp	.+1266   	; 0x4dbe <schip+0x6c0>
    48cc:	08 f0       	brcs	.+2      	; 0x48d0 <schip+0x1d2>
    48ce:	74 c0       	rjmp	.+232    	; 0x49b8 <schip+0x2ba>
    48d0:	28 31       	cpi	r18, 0x18	; 24
    48d2:	ef e0       	ldi	r30, 0x0F	; 15
    48d4:	3e 07       	cpc	r19, r30
    48d6:	09 f4       	brne	.+2      	; 0x48da <schip+0x1dc>
    48d8:	68 c2       	rjmp	.+1232   	; 0x4daa <schip+0x6ac>
    48da:	08 f0       	brcs	.+2      	; 0x48de <schip+0x1e0>
    48dc:	b7 c0       	rjmp	.+366    	; 0x4a4c <schip+0x34e>
    48de:	2a 30       	cpi	r18, 0x0A	; 10
    48e0:	ef e0       	ldi	r30, 0x0F	; 15
    48e2:	3e 07       	cpc	r19, r30
    48e4:	09 f4       	brne	.+2      	; 0x48e8 <schip+0x1ea>
    48e6:	6c c1       	rjmp	.+728    	; 0x4bc0 <schip+0x4c2>
    48e8:	25 31       	cpi	r18, 0x15	; 21
    48ea:	3f 40       	sbci	r19, 0x0F	; 15
    48ec:	09 f0       	breq	.+2      	; 0x48f0 <schip+0x1f2>
    48ee:	e8 c2       	rjmp	.+1488   	; 0x4ec0 <schip+0x7c2>
    48f0:	e1 2f       	mov	r30, r17
    48f2:	f0 e0       	ldi	r31, 0x00	; 0
    48f4:	e8 5d       	subi	r30, 0xD8	; 216
    48f6:	fe 4f       	sbci	r31, 0xFE	; 254
    48f8:	85 81       	ldd	r24, Z+5	; 0x05
    48fa:	80 93 c6 02 	sts	0x02C6, r24
    48fe:	77 cf       	rjmp	.-274    	; 0x47ee <schip+0xf0>
    4900:	2d 3f       	cpi	r18, 0xFD	; 253
    4902:	31 05       	cpc	r19, r1
    4904:	09 f4       	brne	.+2      	; 0x4908 <schip+0x20a>
    4906:	84 cf       	rjmp	.-248    	; 0x4810 <schip+0x112>
    4908:	08 f0       	brcs	.+2      	; 0x490c <schip+0x20e>
    490a:	73 c0       	rjmp	.+230    	; 0x49f2 <schip+0x2f4>
    490c:	2e 3e       	cpi	r18, 0xEE	; 238
    490e:	31 05       	cpc	r19, r1
    4910:	09 f4       	brne	.+2      	; 0x4914 <schip+0x216>
    4912:	05 c2       	rjmp	.+1034   	; 0x4d1e <schip+0x620>
    4914:	08 f4       	brcc	.+2      	; 0x4918 <schip+0x21a>
    4916:	f9 c1       	rjmp	.+1010   	; 0x4d0a <schip+0x60c>
    4918:	2b 3f       	cpi	r18, 0xFB	; 251
    491a:	31 05       	cpc	r19, r1
    491c:	09 f4       	brne	.+2      	; 0x4920 <schip+0x222>
    491e:	7b c1       	rjmp	.+758    	; 0x4c16 <schip+0x518>
    4920:	2c 3f       	cpi	r18, 0xFC	; 252
    4922:	31 05       	cpc	r19, r1
    4924:	09 f0       	breq	.+2      	; 0x4928 <schip+0x22a>
    4926:	cc c2       	rjmp	.+1432   	; 0x4ec0 <schip+0x7c2>
    4928:	0e 94 1b 3b 	call	0x7636	; 0x7636 <chip_scroll_left>
    492c:	60 cf       	rjmp	.-320    	; 0x47ee <schip+0xf0>
    492e:	21 15       	cp	r18, r1
    4930:	ed e0       	ldi	r30, 0x0D	; 13
    4932:	3e 07       	cpc	r19, r30
    4934:	09 f4       	brne	.+2      	; 0x4938 <schip+0x23a>
    4936:	5b c2       	rjmp	.+1206   	; 0x4dee <schip+0x6f0>
    4938:	08 f0       	brcs	.+2      	; 0x493c <schip+0x23e>
    493a:	de c0       	rjmp	.+444    	; 0x4af8 <schip+0x3fa>
    493c:	21 15       	cp	r18, r1
    493e:	eb e0       	ldi	r30, 0x0B	; 11
    4940:	3e 07       	cpc	r19, r30
    4942:	09 f4       	brne	.+2      	; 0x4946 <schip+0x248>
    4944:	6b c1       	rjmp	.+726    	; 0x4c1c <schip+0x51e>
    4946:	21 15       	cp	r18, r1
    4948:	3c 40       	sbci	r19, 0x0C	; 12
    494a:	09 f0       	breq	.+2      	; 0x494e <schip+0x250>
    494c:	b9 c2       	rjmp	.+1394   	; 0x4ec0 <schip+0x7c2>
    494e:	0e 94 d2 3c 	call	0x79a4	; 0x79a4 <rand>
    4952:	e1 2f       	mov	r30, r17
    4954:	f0 e0       	ldi	r31, 0x00	; 0
    4956:	e8 5d       	subi	r30, 0xD8	; 216
    4958:	fe 4f       	sbci	r31, 0xFE	; 254
    495a:	90 91 4e 01 	lds	r25, 0x014E
    495e:	98 23       	and	r25, r24
    4960:	95 83       	std	Z+5, r25	; 0x05
    4962:	45 cf       	rjmp	.-374    	; 0x47ee <schip+0xf0>
    4964:	25 30       	cpi	r18, 0x05	; 5
    4966:	e8 e0       	ldi	r30, 0x08	; 8
    4968:	3e 07       	cpc	r19, r30
    496a:	09 f4       	brne	.+2      	; 0x496e <schip+0x270>
    496c:	ea c1       	rjmp	.+980    	; 0x4d42 <schip+0x644>
    496e:	08 f0       	brcs	.+2      	; 0x4972 <schip+0x274>
    4970:	8e c0       	rjmp	.+284    	; 0x4a8e <schip+0x390>
    4972:	23 30       	cpi	r18, 0x03	; 3
    4974:	e8 e0       	ldi	r30, 0x08	; 8
    4976:	3e 07       	cpc	r19, r30
    4978:	09 f4       	brne	.+2      	; 0x497c <schip+0x27e>
    497a:	3f c1       	rjmp	.+638    	; 0x4bfa <schip+0x4fc>
    497c:	24 30       	cpi	r18, 0x04	; 4
    497e:	38 40       	sbci	r19, 0x08	; 8
    4980:	09 f0       	breq	.+2      	; 0x4984 <schip+0x286>
    4982:	9e c2       	rjmp	.+1340   	; 0x4ec0 <schip+0x7c2>
    4984:	e1 2f       	mov	r30, r17
    4986:	f0 e0       	ldi	r31, 0x00	; 0
    4988:	e8 5d       	subi	r30, 0xD8	; 216
    498a:	fe 4f       	sbci	r31, 0xFE	; 254
    498c:	25 81       	ldd	r18, Z+5	; 0x05
    498e:	a0 2f       	mov	r26, r16
    4990:	b0 e0       	ldi	r27, 0x00	; 0
    4992:	a8 5d       	subi	r26, 0xD8	; 216
    4994:	be 4f       	sbci	r27, 0xFE	; 254
    4996:	15 96       	adiw	r26, 0x05	; 5
    4998:	8c 91       	ld	r24, X
    499a:	98 2f       	mov	r25, r24
    499c:	92 0f       	add	r25, r18
    499e:	95 83       	std	Z+5, r25	; 0x05
    49a0:	90 e0       	ldi	r25, 0x00	; 0
    49a2:	82 0f       	add	r24, r18
    49a4:	91 1d       	adc	r25, r1
    49a6:	21 e0       	ldi	r18, 0x01	; 1
    49a8:	8f 3f       	cpi	r24, 0xFF	; 255
    49aa:	91 05       	cpc	r25, r1
    49ac:	09 f0       	breq	.+2      	; 0x49b0 <schip+0x2b2>
    49ae:	0c f4       	brge	.+2      	; 0x49b2 <schip+0x2b4>
    49b0:	88 c0       	rjmp	.+272    	; 0x4ac2 <schip+0x3c4>
    49b2:	20 93 3c 01 	sts	0x013C, r18
    49b6:	1b cf       	rjmp	.-458    	; 0x47ee <schip+0xf0>
    49b8:	25 36       	cpi	r18, 0x65	; 101
    49ba:	ef e0       	ldi	r30, 0x0F	; 15
    49bc:	3e 07       	cpc	r19, r30
    49be:	09 f4       	brne	.+2      	; 0x49c2 <schip+0x2c4>
    49c0:	3c c2       	rjmp	.+1144   	; 0x4e3a <schip+0x73c>
    49c2:	08 f0       	brcs	.+2      	; 0x49c6 <schip+0x2c8>
    49c4:	cd c0       	rjmp	.+410    	; 0x4b60 <schip+0x462>
    49c6:	23 33       	cpi	r18, 0x33	; 51
    49c8:	ef e0       	ldi	r30, 0x0F	; 15
    49ca:	3e 07       	cpc	r19, r30
    49cc:	09 f4       	brne	.+2      	; 0x49d0 <schip+0x2d2>
    49ce:	35 c1       	rjmp	.+618    	; 0x4c3a <schip+0x53c>
    49d0:	25 35       	cpi	r18, 0x55	; 85
    49d2:	3f 40       	sbci	r19, 0x0F	; 15
    49d4:	09 f0       	breq	.+2      	; 0x49d8 <schip+0x2da>
    49d6:	74 c2       	rjmp	.+1256   	; 0x4ec0 <schip+0x7c2>
    49d8:	61 2f       	mov	r22, r17
    49da:	70 e0       	ldi	r23, 0x00	; 0
    49dc:	6f 5f       	subi	r22, 0xFF	; 255
    49de:	7f 4f       	sbci	r23, 0xFF	; 255
    49e0:	4d e2       	ldi	r20, 0x2D	; 45
    49e2:	51 e0       	ldi	r21, 0x01	; 1
    49e4:	80 91 2a 01 	lds	r24, 0x012A
    49e8:	90 91 2b 01 	lds	r25, 0x012B
    49ec:	0e 94 03 38 	call	0x7006	; 0x7006 <sram_store_block>
    49f0:	fe ce       	rjmp	.-516    	; 0x47ee <schip+0xf0>
    49f2:	21 15       	cp	r18, r1
    49f4:	e1 e0       	ldi	r30, 0x01	; 1
    49f6:	3e 07       	cpc	r19, r30
    49f8:	f1 f0       	breq	.+60     	; 0x4a36 <schip+0x338>
    49fa:	08 f4       	brcc	.+2      	; 0x49fe <schip+0x300>
    49fc:	f8 ce       	rjmp	.-528    	; 0x47ee <schip+0xf0>
    49fe:	21 15       	cp	r18, r1
    4a00:	e2 e0       	ldi	r30, 0x02	; 2
    4a02:	3e 07       	cpc	r19, r30
    4a04:	61 f0       	breq	.+24     	; 0x4a1e <schip+0x320>
    4a06:	21 15       	cp	r18, r1
    4a08:	33 40       	sbci	r19, 0x03	; 3
    4a0a:	09 f0       	breq	.+2      	; 0x4a0e <schip+0x310>
    4a0c:	59 c2       	rjmp	.+1202   	; 0x4ec0 <schip+0x7c2>
    4a0e:	e1 2f       	mov	r30, r17
    4a10:	f0 e0       	ldi	r31, 0x00	; 0
    4a12:	e8 5d       	subi	r30, 0xD8	; 216
    4a14:	fe 4f       	sbci	r31, 0xFE	; 254
    4a16:	85 81       	ldd	r24, Z+5	; 0x05
    4a18:	98 13       	cpse	r25, r24
    4a1a:	e9 ce       	rjmp	.-558    	; 0x47ee <schip+0xf0>
    4a1c:	e7 c0       	rjmp	.+462    	; 0x4bec <schip+0x4ee>
    4a1e:	e0 91 2c 01 	lds	r30, 0x012C
    4a22:	ef 5f       	subi	r30, 0xFF	; 255
    4a24:	e0 93 2c 01 	sts	0x012C, r30
    4a28:	f0 e0       	ldi	r31, 0x00	; 0
    4a2a:	ee 0f       	add	r30, r30
    4a2c:	ff 1f       	adc	r31, r31
    4a2e:	e8 5d       	subi	r30, 0xD8	; 216
    4a30:	fe 4f       	sbci	r31, 0xFE	; 254
    4a32:	70 a7       	std	Z+40, r23	; 0x28
    4a34:	67 a3       	std	Z+39, r22	; 0x27
    4a36:	21 2f       	mov	r18, r17
    4a38:	30 e0       	ldi	r19, 0x00	; 0
    4a3a:	32 2f       	mov	r19, r18
    4a3c:	22 27       	eor	r18, r18
    4a3e:	29 0f       	add	r18, r25
    4a40:	31 1d       	adc	r19, r1
    4a42:	30 93 29 01 	sts	0x0129, r19
    4a46:	20 93 28 01 	sts	0x0128, r18
    4a4a:	d1 ce       	rjmp	.-606    	; 0x47ee <schip+0xf0>
    4a4c:	2e 31       	cpi	r18, 0x1E	; 30
    4a4e:	ef e0       	ldi	r30, 0x0F	; 15
    4a50:	3e 07       	cpc	r19, r30
    4a52:	09 f4       	brne	.+2      	; 0x4a56 <schip+0x358>
    4a54:	a5 c0       	rjmp	.+330    	; 0x4ba0 <schip+0x4a2>
    4a56:	29 32       	cpi	r18, 0x29	; 41
    4a58:	3f 40       	sbci	r19, 0x0F	; 15
    4a5a:	09 f0       	breq	.+2      	; 0x4a5e <schip+0x360>
    4a5c:	31 c2       	rjmp	.+1122   	; 0x4ec0 <schip+0x7c2>
    4a5e:	e1 2f       	mov	r30, r17
    4a60:	f0 e0       	ldi	r31, 0x00	; 0
    4a62:	e8 5d       	subi	r30, 0xD8	; 216
    4a64:	fe 4f       	sbci	r31, 0xFE	; 254
    4a66:	85 81       	ldd	r24, Z+5	; 0x05
    4a68:	e6 e0       	ldi	r30, 0x06	; 6
    4a6a:	8e 9f       	mul	r24, r30
    4a6c:	c0 01       	movw	r24, r0
    4a6e:	11 24       	eor	r1, r1
    4a70:	89 5b       	subi	r24, 0xB9	; 185
    4a72:	9a 4b       	sbci	r25, 0xBA	; 186
    4a74:	90 93 2b 01 	sts	0x012B, r25
    4a78:	80 93 2a 01 	sts	0x012A, r24
    4a7c:	80 e0       	ldi	r24, 0x00	; 0
    4a7e:	0e 94 c0 35 	call	0x6b80	; 0x6b80 <select_font>
    4a82:	80 91 8f 01 	lds	r24, 0x018F
    4a86:	8e 7f       	andi	r24, 0xFE	; 254
    4a88:	80 93 8f 01 	sts	0x018F, r24
    4a8c:	b0 ce       	rjmp	.-672    	; 0x47ee <schip+0xf0>
    4a8e:	26 30       	cpi	r18, 0x06	; 6
    4a90:	e8 e0       	ldi	r30, 0x08	; 8
    4a92:	3e 07       	cpc	r19, r30
    4a94:	09 f4       	brne	.+2      	; 0x4a98 <schip+0x39a>
    4a96:	78 c0       	rjmp	.+240    	; 0x4b88 <schip+0x48a>
    4a98:	27 30       	cpi	r18, 0x07	; 7
    4a9a:	38 40       	sbci	r19, 0x08	; 8
    4a9c:	09 f0       	breq	.+2      	; 0x4aa0 <schip+0x3a2>
    4a9e:	10 c2       	rjmp	.+1056   	; 0x4ec0 <schip+0x7c2>
    4aa0:	e0 2f       	mov	r30, r16
    4aa2:	f0 e0       	ldi	r31, 0x00	; 0
    4aa4:	e8 5d       	subi	r30, 0xD8	; 216
    4aa6:	fe 4f       	sbci	r31, 0xFE	; 254
    4aa8:	95 81       	ldd	r25, Z+5	; 0x05
    4aaa:	e1 2f       	mov	r30, r17
    4aac:	f0 e0       	ldi	r31, 0x00	; 0
    4aae:	e8 5d       	subi	r30, 0xD8	; 216
    4ab0:	fe 4f       	sbci	r31, 0xFE	; 254
    4ab2:	85 81       	ldd	r24, Z+5	; 0x05
    4ab4:	29 2f       	mov	r18, r25
    4ab6:	28 1b       	sub	r18, r24
    4ab8:	25 83       	std	Z+5, r18	; 0x05
    4aba:	21 e0       	ldi	r18, 0x01	; 1
    4abc:	98 17       	cp	r25, r24
    4abe:	08 f0       	brcs	.+2      	; 0x4ac2 <schip+0x3c4>
    4ac0:	78 cf       	rjmp	.-272    	; 0x49b2 <schip+0x2b4>
    4ac2:	20 e0       	ldi	r18, 0x00	; 0
    4ac4:	20 93 3c 01 	sts	0x013C, r18
    4ac8:	92 ce       	rjmp	.-732    	; 0x47ee <schip+0xf0>
    4aca:	21 15       	cp	r18, r1
    4acc:	e8 e0       	ldi	r30, 0x08	; 8
    4ace:	3e 07       	cpc	r19, r30
    4ad0:	09 f4       	brne	.+2      	; 0x4ad4 <schip+0x3d6>
    4ad2:	05 c1       	rjmp	.+522    	; 0x4cde <schip+0x5e0>
    4ad4:	21 30       	cpi	r18, 0x01	; 1
    4ad6:	38 40       	sbci	r19, 0x08	; 8
    4ad8:	09 f0       	breq	.+2      	; 0x4adc <schip+0x3de>
    4ada:	f2 c1       	rjmp	.+996    	; 0x4ec0 <schip+0x7c2>
    4adc:	e1 2f       	mov	r30, r17
    4ade:	f0 e0       	ldi	r31, 0x00	; 0
    4ae0:	e8 5d       	subi	r30, 0xD8	; 216
    4ae2:	fe 4f       	sbci	r31, 0xFE	; 254
    4ae4:	a0 2f       	mov	r26, r16
    4ae6:	b0 e0       	ldi	r27, 0x00	; 0
    4ae8:	a8 5d       	subi	r26, 0xD8	; 216
    4aea:	be 4f       	sbci	r27, 0xFE	; 254
    4aec:	15 96       	adiw	r26, 0x05	; 5
    4aee:	8c 91       	ld	r24, X
    4af0:	95 81       	ldd	r25, Z+5	; 0x05
    4af2:	89 2b       	or	r24, r25
    4af4:	85 83       	std	Z+5, r24	; 0x05
    4af6:	7b ce       	rjmp	.-778    	; 0x47ee <schip+0xf0>
    4af8:	2e 39       	cpi	r18, 0x9E	; 158
    4afa:	ee e0       	ldi	r30, 0x0E	; 14
    4afc:	3e 07       	cpc	r19, r30
    4afe:	09 f4       	brne	.+2      	; 0x4b02 <schip+0x404>
    4b00:	e3 c0       	rjmp	.+454    	; 0x4cc8 <schip+0x5ca>
    4b02:	21 3a       	cpi	r18, 0xA1	; 161
    4b04:	3e 40       	sbci	r19, 0x0E	; 14
    4b06:	09 f0       	breq	.+2      	; 0x4b0a <schip+0x40c>
    4b08:	db c1       	rjmp	.+950    	; 0x4ec0 <schip+0x7c2>
    4b0a:	e1 2f       	mov	r30, r17
    4b0c:	f0 e0       	ldi	r31, 0x00	; 0
    4b0e:	e8 5d       	subi	r30, 0xD8	; 216
    4b10:	fe 4f       	sbci	r31, 0xFE	; 254
    4b12:	85 81       	ldd	r24, Z+5	; 0x05
    4b14:	0e 94 1d 32 	call	0x643a	; 0x643a <key_down>
    4b18:	81 11       	cpse	r24, r1
    4b1a:	69 ce       	rjmp	.-814    	; 0x47ee <schip+0xf0>
    4b1c:	80 91 28 01 	lds	r24, 0x0128
    4b20:	90 91 29 01 	lds	r25, 0x0129
    4b24:	02 96       	adiw	r24, 0x02	; 2
    4b26:	90 93 29 01 	sts	0x0129, r25
    4b2a:	80 93 28 01 	sts	0x0128, r24
    4b2e:	5f ce       	rjmp	.-834    	; 0x47ee <schip+0xf0>
    4b30:	23 30       	cpi	r18, 0x03	; 3
    4b32:	e9 e0       	ldi	r30, 0x09	; 9
    4b34:	3e 07       	cpc	r19, r30
    4b36:	09 f4       	brne	.+2      	; 0x4b3a <schip+0x43c>
    4b38:	b8 c0       	rjmp	.+368    	; 0x4caa <schip+0x5ac>
    4b3a:	25 30       	cpi	r18, 0x05	; 5
    4b3c:	39 40       	sbci	r19, 0x09	; 9
    4b3e:	09 f0       	breq	.+2      	; 0x4b42 <schip+0x444>
    4b40:	bf c1       	rjmp	.+894    	; 0x4ec0 <schip+0x7c2>
    4b42:	a0 2f       	mov	r26, r16
    4b44:	b0 e0       	ldi	r27, 0x00	; 0
    4b46:	a8 5d       	subi	r26, 0xD8	; 216
    4b48:	be 4f       	sbci	r27, 0xFE	; 254
    4b4a:	e1 2f       	mov	r30, r17
    4b4c:	f0 e0       	ldi	r31, 0x00	; 0
    4b4e:	e8 5d       	subi	r30, 0xD8	; 216
    4b50:	fe 4f       	sbci	r31, 0xFE	; 254
    4b52:	41 e0       	ldi	r20, 0x01	; 1
    4b54:	15 96       	adiw	r26, 0x05	; 5
    4b56:	6c 91       	ld	r22, X
    4b58:	85 81       	ldd	r24, Z+5	; 0x05
    4b5a:	0e 94 45 38 	call	0x708a	; 0x708a <key_tone>
    4b5e:	47 ce       	rjmp	.-882    	; 0x47ee <schip+0xf0>
    4b60:	25 37       	cpi	r18, 0x75	; 117
    4b62:	ef e0       	ldi	r30, 0x0F	; 15
    4b64:	3e 07       	cpc	r19, r30
    4b66:	09 f4       	brne	.+2      	; 0x4b6a <schip+0x46c>
    4b68:	c5 c0       	rjmp	.+394    	; 0x4cf4 <schip+0x5f6>
    4b6a:	25 38       	cpi	r18, 0x85	; 133
    4b6c:	3f 40       	sbci	r19, 0x0F	; 15
    4b6e:	09 f0       	breq	.+2      	; 0x4b72 <schip+0x474>
    4b70:	a7 c1       	rjmp	.+846    	; 0x4ec0 <schip+0x7c2>
    4b72:	80 e0       	ldi	r24, 0x00	; 0
    4b74:	e8 2f       	mov	r30, r24
    4b76:	f0 e0       	ldi	r31, 0x00	; 0
    4b78:	e8 5d       	subi	r30, 0xD8	; 216
    4b7a:	fe 4f       	sbci	r31, 0xFE	; 254
    4b7c:	95 89       	ldd	r25, Z+21	; 0x15
    4b7e:	95 83       	std	Z+5, r25	; 0x05
    4b80:	8f 5f       	subi	r24, 0xFF	; 255
    4b82:	18 17       	cp	r17, r24
    4b84:	b8 f7       	brcc	.-18     	; 0x4b74 <schip+0x476>
    4b86:	33 ce       	rjmp	.-922    	; 0x47ee <schip+0xf0>
    4b88:	e1 2f       	mov	r30, r17
    4b8a:	f0 e0       	ldi	r31, 0x00	; 0
    4b8c:	e8 5d       	subi	r30, 0xD8	; 216
    4b8e:	fe 4f       	sbci	r31, 0xFE	; 254
    4b90:	85 81       	ldd	r24, Z+5	; 0x05
    4b92:	98 2f       	mov	r25, r24
    4b94:	96 95       	lsr	r25
    4b96:	95 83       	std	Z+5, r25	; 0x05
    4b98:	81 70       	andi	r24, 0x01	; 1
    4b9a:	80 93 3c 01 	sts	0x013C, r24
    4b9e:	27 ce       	rjmp	.-946    	; 0x47ee <schip+0xf0>
    4ba0:	e1 2f       	mov	r30, r17
    4ba2:	f0 e0       	ldi	r31, 0x00	; 0
    4ba4:	e8 5d       	subi	r30, 0xD8	; 216
    4ba6:	fe 4f       	sbci	r31, 0xFE	; 254
    4ba8:	25 81       	ldd	r18, Z+5	; 0x05
    4baa:	80 91 2a 01 	lds	r24, 0x012A
    4bae:	90 91 2b 01 	lds	r25, 0x012B
    4bb2:	82 0f       	add	r24, r18
    4bb4:	91 1d       	adc	r25, r1
    4bb6:	90 93 2b 01 	sts	0x012B, r25
    4bba:	80 93 2a 01 	sts	0x012A, r24
    4bbe:	17 ce       	rjmp	.-978    	; 0x47ee <schip+0xf0>
    4bc0:	0e 94 dc 31 	call	0x63b8	; 0x63b8 <wait_key>
    4bc4:	e1 2f       	mov	r30, r17
    4bc6:	f0 e0       	ldi	r31, 0x00	; 0
    4bc8:	e8 5d       	subi	r30, 0xD8	; 216
    4bca:	fe 4f       	sbci	r31, 0xFE	; 254
    4bcc:	85 83       	std	Z+5, r24	; 0x05
    4bce:	0f ce       	rjmp	.-994    	; 0x47ee <schip+0xf0>
    4bd0:	a1 2f       	mov	r26, r17
    4bd2:	b0 e0       	ldi	r27, 0x00	; 0
    4bd4:	a8 5d       	subi	r26, 0xD8	; 216
    4bd6:	be 4f       	sbci	r27, 0xFE	; 254
    4bd8:	e0 2f       	mov	r30, r16
    4bda:	f0 e0       	ldi	r31, 0x00	; 0
    4bdc:	e8 5d       	subi	r30, 0xD8	; 216
    4bde:	fe 4f       	sbci	r31, 0xFE	; 254
    4be0:	15 96       	adiw	r26, 0x05	; 5
    4be2:	9c 91       	ld	r25, X
    4be4:	85 81       	ldd	r24, Z+5	; 0x05
    4be6:	98 17       	cp	r25, r24
    4be8:	09 f4       	brne	.+2      	; 0x4bec <schip+0x4ee>
    4bea:	01 ce       	rjmp	.-1022   	; 0x47ee <schip+0xf0>
    4bec:	4c 5f       	subi	r20, 0xFC	; 252
    4bee:	5f 4f       	sbci	r21, 0xFF	; 255
    4bf0:	50 93 29 01 	sts	0x0129, r21
    4bf4:	40 93 28 01 	sts	0x0128, r20
    4bf8:	fa cd       	rjmp	.-1036   	; 0x47ee <schip+0xf0>
    4bfa:	e1 2f       	mov	r30, r17
    4bfc:	f0 e0       	ldi	r31, 0x00	; 0
    4bfe:	e8 5d       	subi	r30, 0xD8	; 216
    4c00:	fe 4f       	sbci	r31, 0xFE	; 254
    4c02:	a0 2f       	mov	r26, r16
    4c04:	b0 e0       	ldi	r27, 0x00	; 0
    4c06:	a8 5d       	subi	r26, 0xD8	; 216
    4c08:	be 4f       	sbci	r27, 0xFE	; 254
    4c0a:	15 96       	adiw	r26, 0x05	; 5
    4c0c:	8c 91       	ld	r24, X
    4c0e:	95 81       	ldd	r25, Z+5	; 0x05
    4c10:	89 27       	eor	r24, r25
    4c12:	85 83       	std	Z+5, r24	; 0x05
    4c14:	ec cd       	rjmp	.-1064   	; 0x47ee <schip+0xf0>
    4c16:	0e 94 f4 3a 	call	0x75e8	; 0x75e8 <chip_scroll_right>
    4c1a:	e9 cd       	rjmp	.-1070   	; 0x47ee <schip+0xf0>
    4c1c:	80 91 2d 01 	lds	r24, 0x012D
    4c20:	21 2f       	mov	r18, r17
    4c22:	30 e0       	ldi	r19, 0x00	; 0
    4c24:	32 2f       	mov	r19, r18
    4c26:	22 27       	eor	r18, r18
    4c28:	29 0f       	add	r18, r25
    4c2a:	31 1d       	adc	r19, r1
    4c2c:	28 0f       	add	r18, r24
    4c2e:	31 1d       	adc	r19, r1
    4c30:	30 93 29 01 	sts	0x0129, r19
    4c34:	20 93 28 01 	sts	0x0128, r18
    4c38:	da cd       	rjmp	.-1100   	; 0x47ee <schip+0xf0>
    4c3a:	e1 2f       	mov	r30, r17
    4c3c:	f0 e0       	ldi	r31, 0x00	; 0
    4c3e:	e8 5d       	subi	r30, 0xD8	; 216
    4c40:	fe 4f       	sbci	r31, 0xFE	; 254
    4c42:	95 81       	ldd	r25, Z+5	; 0x05
    4c44:	9d 9f       	mul	r25, r29
    4c46:	81 2d       	mov	r24, r1
    4c48:	11 24       	eor	r1, r1
    4c4a:	86 95       	lsr	r24
    4c4c:	86 95       	lsr	r24
    4c4e:	86 95       	lsr	r24
    4c50:	ea e0       	ldi	r30, 0x0A	; 10
    4c52:	8e 9f       	mul	r24, r30
    4c54:	90 19       	sub	r25, r0
    4c56:	11 24       	eor	r1, r1
    4c58:	90 93 0a 01 	sts	0x010A, r25
    4c5c:	8d 9f       	mul	r24, r29
    4c5e:	91 2d       	mov	r25, r1
    4c60:	11 24       	eor	r1, r1
    4c62:	96 95       	lsr	r25
    4c64:	96 95       	lsr	r25
    4c66:	96 95       	lsr	r25
    4c68:	2a e0       	ldi	r18, 0x0A	; 10
    4c6a:	92 9f       	mul	r25, r18
    4c6c:	80 19       	sub	r24, r0
    4c6e:	11 24       	eor	r1, r1
    4c70:	80 93 09 01 	sts	0x0109, r24
    4c74:	90 93 08 01 	sts	0x0108, r25
    4c78:	48 e0       	ldi	r20, 0x08	; 8
    4c7a:	51 e0       	ldi	r21, 0x01	; 1
    4c7c:	63 e0       	ldi	r22, 0x03	; 3
    4c7e:	70 e0       	ldi	r23, 0x00	; 0
    4c80:	80 91 2a 01 	lds	r24, 0x012A
    4c84:	90 91 2b 01 	lds	r25, 0x012B
    4c88:	0e 94 03 38 	call	0x7006	; 0x7006 <sram_store_block>
    4c8c:	b0 cd       	rjmp	.-1184   	; 0x47ee <schip+0xf0>
    4c8e:	a1 2f       	mov	r26, r17
    4c90:	b0 e0       	ldi	r27, 0x00	; 0
    4c92:	a8 5d       	subi	r26, 0xD8	; 216
    4c94:	be 4f       	sbci	r27, 0xFE	; 254
    4c96:	e0 2f       	mov	r30, r16
    4c98:	f0 e0       	ldi	r31, 0x00	; 0
    4c9a:	e8 5d       	subi	r30, 0xD8	; 216
    4c9c:	fe 4f       	sbci	r31, 0xFE	; 254
    4c9e:	15 96       	adiw	r26, 0x05	; 5
    4ca0:	9c 91       	ld	r25, X
    4ca2:	85 81       	ldd	r24, Z+5	; 0x05
    4ca4:	98 13       	cpse	r25, r24
    4ca6:	a3 cd       	rjmp	.-1210   	; 0x47ee <schip+0xf0>
    4ca8:	a1 cf       	rjmp	.-190    	; 0x4bec <schip+0x4ee>
    4caa:	a0 2f       	mov	r26, r16
    4cac:	b0 e0       	ldi	r27, 0x00	; 0
    4cae:	a8 5d       	subi	r26, 0xD8	; 216
    4cb0:	be 4f       	sbci	r27, 0xFE	; 254
    4cb2:	e1 2f       	mov	r30, r17
    4cb4:	f0 e0       	ldi	r31, 0x00	; 0
    4cb6:	e8 5d       	subi	r30, 0xD8	; 216
    4cb8:	fe 4f       	sbci	r31, 0xFE	; 254
    4cba:	42 e0       	ldi	r20, 0x02	; 2
    4cbc:	15 96       	adiw	r26, 0x05	; 5
    4cbe:	6c 91       	ld	r22, X
    4cc0:	85 81       	ldd	r24, Z+5	; 0x05
    4cc2:	0e 94 82 38 	call	0x7104	; 0x7104 <plot>
    4cc6:	93 cd       	rjmp	.-1242   	; 0x47ee <schip+0xf0>
    4cc8:	e1 2f       	mov	r30, r17
    4cca:	f0 e0       	ldi	r31, 0x00	; 0
    4ccc:	e8 5d       	subi	r30, 0xD8	; 216
    4cce:	fe 4f       	sbci	r31, 0xFE	; 254
    4cd0:	85 81       	ldd	r24, Z+5	; 0x05
    4cd2:	0e 94 1d 32 	call	0x643a	; 0x643a <key_down>
    4cd6:	88 23       	and	r24, r24
    4cd8:	09 f4       	brne	.+2      	; 0x4cdc <schip+0x5de>
    4cda:	89 cd       	rjmp	.-1262   	; 0x47ee <schip+0xf0>
    4cdc:	1f cf       	rjmp	.-450    	; 0x4b1c <schip+0x41e>
    4cde:	e0 2f       	mov	r30, r16
    4ce0:	f0 e0       	ldi	r31, 0x00	; 0
    4ce2:	e8 5d       	subi	r30, 0xD8	; 216
    4ce4:	fe 4f       	sbci	r31, 0xFE	; 254
    4ce6:	85 81       	ldd	r24, Z+5	; 0x05
    4ce8:	e1 2f       	mov	r30, r17
    4cea:	f0 e0       	ldi	r31, 0x00	; 0
    4cec:	e8 5d       	subi	r30, 0xD8	; 216
    4cee:	fe 4f       	sbci	r31, 0xFE	; 254
    4cf0:	85 83       	std	Z+5, r24	; 0x05
    4cf2:	7d cd       	rjmp	.-1286   	; 0x47ee <schip+0xf0>
    4cf4:	80 e0       	ldi	r24, 0x00	; 0
    4cf6:	e8 2f       	mov	r30, r24
    4cf8:	f0 e0       	ldi	r31, 0x00	; 0
    4cfa:	e8 5d       	subi	r30, 0xD8	; 216
    4cfc:	fe 4f       	sbci	r31, 0xFE	; 254
    4cfe:	95 81       	ldd	r25, Z+5	; 0x05
    4d00:	95 8b       	std	Z+21, r25	; 0x15
    4d02:	8f 5f       	subi	r24, 0xFF	; 255
    4d04:	18 17       	cp	r17, r24
    4d06:	b8 f7       	brcc	.-18     	; 0x4cf6 <schip+0x5f8>
    4d08:	72 cd       	rjmp	.-1308   	; 0x47ee <schip+0xf0>
    4d0a:	20 3c       	cpi	r18, 0xC0	; 192
    4d0c:	31 05       	cpc	r19, r1
    4d0e:	29 f1       	breq	.+74     	; 0x4d5a <schip+0x65c>
    4d10:	20 3e       	cpi	r18, 0xE0	; 224
    4d12:	31 05       	cpc	r19, r1
    4d14:	09 f0       	breq	.+2      	; 0x4d18 <schip+0x61a>
    4d16:	d4 c0       	rjmp	.+424    	; 0x4ec0 <schip+0x7c2>
    4d18:	0e 94 85 3a 	call	0x750a	; 0x750a <cls>
    4d1c:	68 cd       	rjmp	.-1328   	; 0x47ee <schip+0xf0>
    4d1e:	e0 91 2c 01 	lds	r30, 0x012C
    4d22:	8f ef       	ldi	r24, 0xFF	; 255
    4d24:	8e 0f       	add	r24, r30
    4d26:	80 93 2c 01 	sts	0x012C, r24
    4d2a:	f0 e0       	ldi	r31, 0x00	; 0
    4d2c:	ee 0f       	add	r30, r30
    4d2e:	ff 1f       	adc	r31, r31
    4d30:	e8 5d       	subi	r30, 0xD8	; 216
    4d32:	fe 4f       	sbci	r31, 0xFE	; 254
    4d34:	87 a1       	ldd	r24, Z+39	; 0x27
    4d36:	90 a5       	ldd	r25, Z+40	; 0x28
    4d38:	90 93 29 01 	sts	0x0129, r25
    4d3c:	80 93 28 01 	sts	0x0128, r24
    4d40:	56 cd       	rjmp	.-1364   	; 0x47ee <schip+0xf0>
    4d42:	e1 2f       	mov	r30, r17
    4d44:	f0 e0       	ldi	r31, 0x00	; 0
    4d46:	e8 5d       	subi	r30, 0xD8	; 216
    4d48:	fe 4f       	sbci	r31, 0xFE	; 254
    4d4a:	95 81       	ldd	r25, Z+5	; 0x05
    4d4c:	a0 2f       	mov	r26, r16
    4d4e:	b0 e0       	ldi	r27, 0x00	; 0
    4d50:	a8 5d       	subi	r26, 0xD8	; 216
    4d52:	be 4f       	sbci	r27, 0xFE	; 254
    4d54:	15 96       	adiw	r26, 0x05	; 5
    4d56:	8c 91       	ld	r24, X
    4d58:	ad ce       	rjmp	.-678    	; 0x4ab4 <schip+0x3b6>
    4d5a:	89 2f       	mov	r24, r25
    4d5c:	8f 70       	andi	r24, 0x0F	; 15
    4d5e:	0e 94 93 3a 	call	0x7526	; 0x7526 <scroll_down>
    4d62:	45 cd       	rjmp	.-1398   	; 0x47ee <schip+0xf0>
    4d64:	82 e0       	ldi	r24, 0x02	; 2
    4d66:	0e 94 c0 35 	call	0x6b80	; 0x6b80 <select_font>
    4d6a:	a0 2f       	mov	r26, r16
    4d6c:	b0 e0       	ldi	r27, 0x00	; 0
    4d6e:	a8 5d       	subi	r26, 0xD8	; 216
    4d70:	be 4f       	sbci	r27, 0xFE	; 254
    4d72:	e1 2f       	mov	r30, r17
    4d74:	f0 e0       	ldi	r31, 0x00	; 0
    4d76:	e8 5d       	subi	r30, 0xD8	; 216
    4d78:	fe 4f       	sbci	r31, 0xFE	; 254
    4d7a:	15 96       	adiw	r26, 0x05	; 5
    4d7c:	6c 91       	ld	r22, X
    4d7e:	85 81       	ldd	r24, Z+5	; 0x05
    4d80:	0e 94 54 36 	call	0x6ca8	; 0x6ca8 <set_cursor>
    4d84:	02 c0       	rjmp	.+4      	; 0x4d8a <schip+0x68c>
    4d86:	0e 94 f7 35 	call	0x6bee	; 0x6bee <put_char>
    4d8a:	80 91 2a 01 	lds	r24, 0x012A
    4d8e:	90 91 2b 01 	lds	r25, 0x012B
    4d92:	9c 01       	movw	r18, r24
    4d94:	2f 5f       	subi	r18, 0xFF	; 255
    4d96:	3f 4f       	sbci	r19, 0xFF	; 255
    4d98:	30 93 2b 01 	sts	0x012B, r19
    4d9c:	20 93 2a 01 	sts	0x012A, r18
    4da0:	0e 94 8c 37 	call	0x6f18	; 0x6f18 <sram_read_byte>
    4da4:	81 11       	cpse	r24, r1
    4da6:	ef cf       	rjmp	.-34     	; 0x4d86 <schip+0x688>
    4da8:	22 cd       	rjmp	.-1468   	; 0x47ee <schip+0xf0>
    4daa:	e1 2f       	mov	r30, r17
    4dac:	f0 e0       	ldi	r31, 0x00	; 0
    4dae:	e8 5d       	subi	r30, 0xD8	; 216
    4db0:	fe 4f       	sbci	r31, 0xFE	; 254
    4db2:	65 81       	ldd	r22, Z+5	; 0x05
    4db4:	8b e0       	ldi	r24, 0x0B	; 11
    4db6:	92 e0       	ldi	r25, 0x02	; 2
    4db8:	0e 94 33 38 	call	0x7066	; 0x7066 <tone>
    4dbc:	18 cd       	rjmp	.-1488   	; 0x47ee <schip+0xf0>
    4dbe:	e1 2f       	mov	r30, r17
    4dc0:	f0 e0       	ldi	r31, 0x00	; 0
    4dc2:	e8 5d       	subi	r30, 0xD8	; 216
    4dc4:	fe 4f       	sbci	r31, 0xFE	; 254
    4dc6:	85 81       	ldd	r24, Z+5	; 0x05
    4dc8:	2a e0       	ldi	r18, 0x0A	; 10
    4dca:	82 9f       	mul	r24, r18
    4dcc:	c0 01       	movw	r24, r0
    4dce:	11 24       	eor	r1, r1
    4dd0:	89 55       	subi	r24, 0x59	; 89
    4dd2:	9b 4b       	sbci	r25, 0xBB	; 187
    4dd4:	90 93 2b 01 	sts	0x012B, r25
    4dd8:	80 93 2a 01 	sts	0x012A, r24
    4ddc:	81 e0       	ldi	r24, 0x01	; 1
    4dde:	0e 94 c0 35 	call	0x6b80	; 0x6b80 <select_font>
    4de2:	80 91 8f 01 	lds	r24, 0x018F
    4de6:	8e 7f       	andi	r24, 0xFE	; 254
    4de8:	80 93 8f 01 	sts	0x018F, r24
    4dec:	00 cd       	rjmp	.-1536   	; 0x47ee <schip+0xf0>
    4dee:	9f 70       	andi	r25, 0x0F	; 15
    4df0:	f9 2e       	mov	r15, r25
    4df2:	09 f4       	brne	.+2      	; 0x4df6 <schip+0x6f8>
    4df4:	7a c0       	rjmp	.+244    	; 0x4eea <schip+0x7ec>
    4df6:	80 91 8f 01 	lds	r24, 0x018F
    4dfa:	80 ff       	sbrs	r24, 0
    4dfc:	68 c0       	rjmp	.+208    	; 0x4ece <schip+0x7d0>
    4dfe:	69 2f       	mov	r22, r25
    4e00:	70 e0       	ldi	r23, 0x00	; 0
    4e02:	48 e0       	ldi	r20, 0x08	; 8
    4e04:	51 e0       	ldi	r21, 0x01	; 1
    4e06:	80 91 2a 01 	lds	r24, 0x012A
    4e0a:	90 91 2b 01 	lds	r25, 0x012B
    4e0e:	0e 94 d8 37 	call	0x6fb0	; 0x6fb0 <sram_load_block>
    4e12:	a0 2f       	mov	r26, r16
    4e14:	b0 e0       	ldi	r27, 0x00	; 0
    4e16:	a8 5d       	subi	r26, 0xD8	; 216
    4e18:	be 4f       	sbci	r27, 0xFE	; 254
    4e1a:	e1 2f       	mov	r30, r17
    4e1c:	f0 e0       	ldi	r31, 0x00	; 0
    4e1e:	e8 5d       	subi	r30, 0xD8	; 216
    4e20:	fe 4f       	sbci	r31, 0xFE	; 254
    4e22:	01 e0       	ldi	r16, 0x01	; 1
    4e24:	28 e0       	ldi	r18, 0x08	; 8
    4e26:	31 e0       	ldi	r19, 0x01	; 1
    4e28:	4f 2d       	mov	r20, r15
    4e2a:	15 96       	adiw	r26, 0x05	; 5
    4e2c:	6c 91       	ld	r22, X
    4e2e:	85 81       	ldd	r24, Z+5	; 0x05
    4e30:	0e 94 cf 38 	call	0x719e	; 0x719e <put_sprite>
    4e34:	80 93 3c 01 	sts	0x013C, r24
    4e38:	da cc       	rjmp	.-1612   	; 0x47ee <schip+0xf0>
    4e3a:	61 2f       	mov	r22, r17
    4e3c:	70 e0       	ldi	r23, 0x00	; 0
    4e3e:	6f 5f       	subi	r22, 0xFF	; 255
    4e40:	7f 4f       	sbci	r23, 0xFF	; 255
    4e42:	4d e2       	ldi	r20, 0x2D	; 45
    4e44:	51 e0       	ldi	r21, 0x01	; 1
    4e46:	80 91 2a 01 	lds	r24, 0x012A
    4e4a:	90 91 2b 01 	lds	r25, 0x012B
    4e4e:	0e 94 d8 37 	call	0x6fb0	; 0x6fb0 <sram_load_block>
    4e52:	cd cc       	rjmp	.-1638   	; 0x47ee <schip+0xf0>
    4e54:	21 2f       	mov	r18, r17
    4e56:	30 e0       	ldi	r19, 0x00	; 0
    4e58:	32 2f       	mov	r19, r18
    4e5a:	22 27       	eor	r18, r18
    4e5c:	29 0f       	add	r18, r25
    4e5e:	31 1d       	adc	r19, r1
    4e60:	30 93 2b 01 	sts	0x012B, r19
    4e64:	20 93 2a 01 	sts	0x012A, r18
    4e68:	80 91 8f 01 	lds	r24, 0x018F
    4e6c:	81 60       	ori	r24, 0x01	; 1
    4e6e:	80 93 8f 01 	sts	0x018F, r24
    4e72:	bd cc       	rjmp	.-1670   	; 0x47ee <schip+0xf0>
    4e74:	80 91 c6 02 	lds	r24, 0x02C6
    4e78:	e1 2f       	mov	r30, r17
    4e7a:	f0 e0       	ldi	r31, 0x00	; 0
    4e7c:	e8 5d       	subi	r30, 0xD8	; 216
    4e7e:	fe 4f       	sbci	r31, 0xFE	; 254
    4e80:	85 83       	std	Z+5, r24	; 0x05
    4e82:	b5 cc       	rjmp	.-1686   	; 0x47ee <schip+0xf0>
    4e84:	e1 2f       	mov	r30, r17
    4e86:	f0 e0       	ldi	r31, 0x00	; 0
    4e88:	e8 5d       	subi	r30, 0xD8	; 216
    4e8a:	fe 4f       	sbci	r31, 0xFE	; 254
    4e8c:	85 81       	ldd	r24, Z+5	; 0x05
    4e8e:	89 0f       	add	r24, r25
    4e90:	85 83       	std	Z+5, r24	; 0x05
    4e92:	ad cc       	rjmp	.-1702   	; 0x47ee <schip+0xf0>
    4e94:	e1 2f       	mov	r30, r17
    4e96:	f0 e0       	ldi	r31, 0x00	; 0
    4e98:	e8 5d       	subi	r30, 0xD8	; 216
    4e9a:	fe 4f       	sbci	r31, 0xFE	; 254
    4e9c:	a0 2f       	mov	r26, r16
    4e9e:	b0 e0       	ldi	r27, 0x00	; 0
    4ea0:	a8 5d       	subi	r26, 0xD8	; 216
    4ea2:	be 4f       	sbci	r27, 0xFE	; 254
    4ea4:	15 96       	adiw	r26, 0x05	; 5
    4ea6:	8c 91       	ld	r24, X
    4ea8:	95 81       	ldd	r25, Z+5	; 0x05
    4eaa:	89 23       	and	r24, r25
    4eac:	85 83       	std	Z+5, r24	; 0x05
    4eae:	9f cc       	rjmp	.-1730   	; 0x47ee <schip+0xf0>
    4eb0:	e1 2f       	mov	r30, r17
    4eb2:	f0 e0       	ldi	r31, 0x00	; 0
    4eb4:	e8 5d       	subi	r30, 0xD8	; 216
    4eb6:	fe 4f       	sbci	r31, 0xFE	; 254
    4eb8:	85 81       	ldd	r24, Z+5	; 0x05
    4eba:	98 13       	cpse	r25, r24
    4ebc:	97 ce       	rjmp	.-722    	; 0x4bec <schip+0x4ee>
    4ebe:	97 cc       	rjmp	.-1746   	; 0x47ee <schip+0xf0>
    4ec0:	82 e0       	ldi	r24, 0x02	; 2
    4ec2:	df 91       	pop	r29
    4ec4:	cf 91       	pop	r28
    4ec6:	1f 91       	pop	r17
    4ec8:	0f 91       	pop	r16
    4eca:	ff 90       	pop	r15
    4ecc:	08 95       	ret
    4ece:	20 91 2a 01 	lds	r18, 0x012A
    4ed2:	30 91 2b 01 	lds	r19, 0x012B
    4ed6:	a0 2f       	mov	r26, r16
    4ed8:	b0 e0       	ldi	r27, 0x00	; 0
    4eda:	a8 5d       	subi	r26, 0xD8	; 216
    4edc:	be 4f       	sbci	r27, 0xFE	; 254
    4ede:	e1 2f       	mov	r30, r17
    4ee0:	f0 e0       	ldi	r31, 0x00	; 0
    4ee2:	e8 5d       	subi	r30, 0xD8	; 216
    4ee4:	fe 4f       	sbci	r31, 0xFE	; 254
    4ee6:	00 e0       	ldi	r16, 0x00	; 0
    4ee8:	9f cf       	rjmp	.-194    	; 0x4e28 <schip+0x72a>
    4eea:	48 e0       	ldi	r20, 0x08	; 8
    4eec:	51 e0       	ldi	r21, 0x01	; 1
    4eee:	60 e2       	ldi	r22, 0x20	; 32
    4ef0:	70 e0       	ldi	r23, 0x00	; 0
    4ef2:	80 91 2a 01 	lds	r24, 0x012A
    4ef6:	90 91 2b 01 	lds	r25, 0x012B
    4efa:	0e 94 d8 37 	call	0x6fb0	; 0x6fb0 <sram_load_block>
    4efe:	a0 2f       	mov	r26, r16
    4f00:	b0 e0       	ldi	r27, 0x00	; 0
    4f02:	a8 5d       	subi	r26, 0xD8	; 216
    4f04:	be 4f       	sbci	r27, 0xFE	; 254
    4f06:	e1 2f       	mov	r30, r17
    4f08:	f0 e0       	ldi	r31, 0x00	; 0
    4f0a:	e8 5d       	subi	r30, 0xD8	; 216
    4f0c:	fe 4f       	sbci	r31, 0xFE	; 254
    4f0e:	48 e0       	ldi	r20, 0x08	; 8
    4f10:	51 e0       	ldi	r21, 0x01	; 1
    4f12:	15 96       	adiw	r26, 0x05	; 5
    4f14:	6c 91       	ld	r22, X
    4f16:	85 81       	ldd	r24, Z+5	; 0x05
    4f18:	0e 94 7d 39 	call	0x72fa	; 0x72fa <put_big_sprite>
    4f1c:	80 93 3c 01 	sts	0x013C, r24
    4f20:	66 cc       	rjmp	.-1844   	; 0x47ee <schip+0xf0>

00004f22 <load_flash_game>:
    4f22:	ef 92       	push	r14
    4f24:	ff 92       	push	r15
    4f26:	0f 93       	push	r16
    4f28:	1f 93       	push	r17
    4f2a:	cf 93       	push	r28
    4f2c:	df 93       	push	r29
    4f2e:	61 15       	cp	r22, r1
    4f30:	71 05       	cpc	r23, r1
    4f32:	89 f0       	breq	.+34     	; 0x4f56 <load_flash_game+0x34>
    4f34:	8c 01       	movw	r16, r24
    4f36:	7b 01       	movw	r14, r22
    4f38:	8e ef       	ldi	r24, 0xFE	; 254
    4f3a:	f8 1a       	sub	r15, r24
    4f3c:	c0 e0       	ldi	r28, 0x00	; 0
    4f3e:	d2 e0       	ldi	r29, 0x02	; 2
    4f40:	f8 01       	movw	r30, r16
    4f42:	64 91       	lpm	r22, Z
    4f44:	ce 01       	movw	r24, r28
    4f46:	0e 94 6c 37 	call	0x6ed8	; 0x6ed8 <sram_write_byte>
    4f4a:	0f 5f       	subi	r16, 0xFF	; 255
    4f4c:	1f 4f       	sbci	r17, 0xFF	; 255
    4f4e:	21 96       	adiw	r28, 0x01	; 1
    4f50:	ce 15       	cp	r28, r14
    4f52:	df 05       	cpc	r29, r15
    4f54:	a9 f7       	brne	.-22     	; 0x4f40 <load_flash_game+0x1e>
    4f56:	df 91       	pop	r29
    4f58:	cf 91       	pop	r28
    4f5a:	1f 91       	pop	r17
    4f5c:	0f 91       	pop	r16
    4f5e:	ff 90       	pop	r15
    4f60:	ef 90       	pop	r14
    4f62:	08 95       	ret

00004f64 <display_page>:
    4f64:	ff 92       	push	r15
    4f66:	0f 93       	push	r16
    4f68:	1f 93       	push	r17
    4f6a:	cf 93       	push	r28
    4f6c:	df 93       	push	r29
    4f6e:	cd b7       	in	r28, 0x3d	; 61
    4f70:	de b7       	in	r29, 0x3e	; 62
    4f72:	a0 97       	sbiw	r28, 0x20	; 32
    4f74:	0f b6       	in	r0, 0x3f	; 63
    4f76:	f8 94       	cli
    4f78:	de bf       	out	0x3e, r29	; 62
    4f7a:	0f be       	out	0x3f, r0	; 63
    4f7c:	cd bf       	out	0x3d, r28	; 61
    4f7e:	18 2f       	mov	r17, r24
    4f80:	00 27       	eor	r16, r16
    4f82:	f1 2c       	mov	r15, r1
    4f84:	ae 01       	movw	r20, r28
    4f86:	4f 5f       	subi	r20, 0xFF	; 255
    4f88:	5f 4f       	sbci	r21, 0xFF	; 255
    4f8a:	60 e2       	ldi	r22, 0x20	; 32
    4f8c:	70 e0       	ldi	r23, 0x00	; 0
    4f8e:	c8 01       	movw	r24, r16
    4f90:	0e 94 d8 37 	call	0x6fb0	; 0x6fb0 <sram_load_block>
    4f94:	89 81       	ldd	r24, Y+1	; 0x01
    4f96:	88 23       	and	r24, r24
    4f98:	91 f0       	breq	.+36     	; 0x4fbe <display_page+0x5a>
    4f9a:	80 e2       	ldi	r24, 0x20	; 32
    4f9c:	0e 94 f7 35 	call	0x6bee	; 0x6bee <put_char>
    4fa0:	ce 01       	movw	r24, r28
    4fa2:	01 96       	adiw	r24, 0x01	; 1
    4fa4:	0e 94 59 36 	call	0x6cb2	; 0x6cb2 <print>
    4fa8:	87 e0       	ldi	r24, 0x07	; 7
    4faa:	f8 16       	cp	r15, r24
    4fac:	31 f0       	breq	.+12     	; 0x4fba <display_page+0x56>
    4fae:	0e 94 c3 35 	call	0x6b86	; 0x6b86 <new_line>
    4fb2:	f3 94       	inc	r15
    4fb4:	00 5e       	subi	r16, 0xE0	; 224
    4fb6:	1f 4f       	sbci	r17, 0xFF	; 255
    4fb8:	e5 cf       	rjmp	.-54     	; 0x4f84 <display_page+0x20>
    4fba:	88 e0       	ldi	r24, 0x08	; 8
    4fbc:	f8 2e       	mov	r15, r24
    4fbe:	8f 2d       	mov	r24, r15
    4fc0:	a0 96       	adiw	r28, 0x20	; 32
    4fc2:	0f b6       	in	r0, 0x3f	; 63
    4fc4:	f8 94       	cli
    4fc6:	de bf       	out	0x3e, r29	; 62
    4fc8:	0f be       	out	0x3f, r0	; 63
    4fca:	cd bf       	out	0x3d, r28	; 61
    4fcc:	df 91       	pop	r29
    4fce:	cf 91       	pop	r28
    4fd0:	1f 91       	pop	r17
    4fd2:	0f 91       	pop	r16
    4fd4:	ff 90       	pop	r15
    4fd6:	08 95       	ret

00004fd8 <select_file>:
    4fd8:	6f 92       	push	r6
    4fda:	7f 92       	push	r7
    4fdc:	9f 92       	push	r9
    4fde:	af 92       	push	r10
    4fe0:	cf 92       	push	r12
    4fe2:	df 92       	push	r13
    4fe4:	ef 92       	push	r14
    4fe6:	ff 92       	push	r15
    4fe8:	0f 93       	push	r16
    4fea:	1f 93       	push	r17
    4fec:	cf 93       	push	r28
    4fee:	df 93       	push	r29
    4ff0:	6c 01       	movw	r12, r24
    4ff2:	8f e3       	ldi	r24, 0x3F	; 63
    4ff4:	9b e0       	ldi	r25, 0x0B	; 11
    4ff6:	0e 94 68 36 	call	0x6cd0	; 0x6cd0 <prt_pstr>
    4ffa:	8a e2       	ldi	r24, 0x2A	; 42
    4ffc:	9b e0       	ldi	r25, 0x0B	; 11
    4ffe:	0e 94 68 36 	call	0x6cd0	; 0x6cd0 <prt_pstr>
    5002:	87 e1       	ldi	r24, 0x17	; 23
    5004:	9b e0       	ldi	r25, 0x0B	; 11
    5006:	0e 94 68 36 	call	0x6cd0	; 0x6cd0 <prt_pstr>
    500a:	85 e0       	ldi	r24, 0x05	; 5
    500c:	9b e0       	ldi	r25, 0x0B	; 11
    500e:	0e 94 68 36 	call	0x6cd0	; 0x6cd0 <prt_pstr>
    5012:	84 ef       	ldi	r24, 0xF4	; 244
    5014:	9a e0       	ldi	r25, 0x0A	; 10
    5016:	0e 94 68 36 	call	0x6cd0	; 0x6cd0 <prt_pstr>
    501a:	0e 94 e1 31 	call	0x63c2	; 0x63c2 <prompt_key>
    501e:	0e 94 85 3a 	call	0x750a	; 0x750a <cls>
    5022:	82 e0       	ldi	r24, 0x02	; 2
    5024:	80 93 c6 02 	sts	0x02C6, r24
    5028:	80 91 c6 02 	lds	r24, 0x02C6
    502c:	81 11       	cpse	r24, r1
    502e:	fc cf       	rjmp	.-8      	; 0x5028 <select_file+0x50>
    5030:	80 e0       	ldi	r24, 0x00	; 0
    5032:	90 e0       	ldi	r25, 0x00	; 0
    5034:	0e 94 b2 27 	call	0x4f64	; 0x4f64 <display_page>
    5038:	a8 2e       	mov	r10, r24
    503a:	c0 e0       	ldi	r28, 0x00	; 0
    503c:	d0 e0       	ldi	r29, 0x00	; 0
    503e:	e1 2c       	mov	r14, r1
    5040:	f1 2c       	mov	r15, r1
    5042:	91 2c       	mov	r9, r1
    5044:	00 e0       	ldi	r16, 0x00	; 0
    5046:	2f e7       	ldi	r18, 0x7F	; 127
    5048:	34 e4       	ldi	r19, 0x44	; 68
    504a:	48 e0       	ldi	r20, 0x08	; 8
    504c:	69 2d       	mov	r22, r9
    504e:	80 e0       	ldi	r24, 0x00	; 0
    5050:	0e 94 cf 38 	call	0x719e	; 0x719e <put_sprite>
    5054:	0e 94 dc 31 	call	0x63b8	; 0x63b8 <wait_key>
    5058:	18 2f       	mov	r17, r24
    505a:	40 e0       	ldi	r20, 0x00	; 0
    505c:	66 e0       	ldi	r22, 0x06	; 6
    505e:	0e 94 45 38 	call	0x708a	; 0x708a <key_tone>
    5062:	2f e7       	ldi	r18, 0x7F	; 127
    5064:	34 e4       	ldi	r19, 0x44	; 68
    5066:	48 e0       	ldi	r20, 0x08	; 8
    5068:	69 2d       	mov	r22, r9
    506a:	80 e0       	ldi	r24, 0x00	; 0
    506c:	0e 94 cf 38 	call	0x719e	; 0x719e <put_sprite>
    5070:	1a 30       	cpi	r17, 0x0A	; 10
    5072:	09 f4       	brne	.+2      	; 0x5076 <select_file+0x9e>
    5074:	44 c0       	rjmp	.+136    	; 0x50fe <select_file+0x126>
    5076:	d8 f4       	brcc	.+54     	; 0x50ae <select_file+0xd6>
    5078:	17 30       	cpi	r17, 0x07	; 7
    507a:	91 f1       	breq	.+100    	; 0x50e0 <select_file+0x108>
    507c:	19 30       	cpi	r17, 0x09	; 9
    507e:	69 f4       	brne	.+26     	; 0x509a <select_file+0xc2>
    5080:	2a 2d       	mov	r18, r10
    5082:	30 e0       	ldi	r19, 0x00	; 0
    5084:	21 50       	subi	r18, 0x01	; 1
    5086:	31 09       	sbc	r19, r1
    5088:	c2 17       	cp	r28, r18
    508a:	d3 07       	cpc	r29, r19
    508c:	0c f0       	brlt	.+2      	; 0x5090 <select_file+0xb8>
    508e:	5f c0       	rjmp	.+190    	; 0x514e <select_file+0x176>
    5090:	21 96       	adiw	r28, 0x01	; 1
    5092:	9c 2e       	mov	r9, r28
    5094:	99 0c       	add	r9, r9
    5096:	99 0c       	add	r9, r9
    5098:	99 0c       	add	r9, r9
    509a:	0e 94 8e 31 	call	0x631c	; 0x631c <keypad_read>
    509e:	8f 3f       	cpi	r24, 0xFF	; 255
    50a0:	89 f2       	breq	.-94     	; 0x5044 <select_file+0x6c>
    50a2:	40 e0       	ldi	r20, 0x00	; 0
    50a4:	62 e0       	ldi	r22, 0x02	; 2
    50a6:	81 2f       	mov	r24, r17
    50a8:	0e 94 45 38 	call	0x708a	; 0x708a <key_tone>
    50ac:	f6 cf       	rjmp	.-20     	; 0x509a <select_file+0xc2>
    50ae:	1e 30       	cpi	r17, 0x0E	; 14
    50b0:	f9 f0       	breq	.+62     	; 0x50f0 <select_file+0x118>
    50b2:	1f 30       	cpi	r17, 0x0F	; 15
    50b4:	91 f7       	brne	.-28     	; 0x509a <select_file+0xc2>
    50b6:	e7 01       	movw	r28, r14
    50b8:	21 96       	adiw	r28, 0x01	; 1
    50ba:	9e 01       	movw	r18, r28
    50bc:	22 0f       	add	r18, r18
    50be:	33 1f       	adc	r19, r19
    50c0:	22 0f       	add	r18, r18
    50c2:	33 1f       	adc	r19, r19
    50c4:	22 0f       	add	r18, r18
    50c6:	33 1f       	adc	r19, r19
    50c8:	2c 15       	cp	r18, r12
    50ca:	3d 05       	cpc	r19, r13
    50cc:	0c f4       	brge	.+2      	; 0x50d0 <select_file+0xf8>
    50ce:	56 c0       	rjmp	.+172    	; 0x517c <select_file+0x1a4>
    50d0:	ca 2d       	mov	r28, r10
    50d2:	d0 e0       	ldi	r29, 0x00	; 0
    50d4:	21 97       	sbiw	r28, 0x01	; 1
    50d6:	9c 2e       	mov	r9, r28
    50d8:	99 0c       	add	r9, r9
    50da:	99 0c       	add	r9, r9
    50dc:	99 0c       	add	r9, r9
    50de:	dd cf       	rjmp	.-70     	; 0x509a <select_file+0xc2>
    50e0:	20 97       	sbiw	r28, 0x00	; 0
    50e2:	19 f1       	breq	.+70     	; 0x512a <select_file+0x152>
    50e4:	21 97       	sbiw	r28, 0x01	; 1
    50e6:	9c 2e       	mov	r9, r28
    50e8:	99 0c       	add	r9, r9
    50ea:	99 0c       	add	r9, r9
    50ec:	99 0c       	add	r9, r9
    50ee:	d5 cf       	rjmp	.-86     	; 0x509a <select_file+0xc2>
    50f0:	e1 14       	cp	r14, r1
    50f2:	f1 04       	cpc	r15, r1
    50f4:	f1 f4       	brne	.+60     	; 0x5132 <select_file+0x15a>
    50f6:	c0 e0       	ldi	r28, 0x00	; 0
    50f8:	d0 e0       	ldi	r29, 0x00	; 0
    50fa:	91 2c       	mov	r9, r1
    50fc:	ce cf       	rjmp	.-100    	; 0x509a <select_file+0xc2>
    50fe:	c7 01       	movw	r24, r14
    5100:	88 0f       	add	r24, r24
    5102:	99 1f       	adc	r25, r25
    5104:	88 0f       	add	r24, r24
    5106:	99 1f       	adc	r25, r25
    5108:	88 0f       	add	r24, r24
    510a:	99 1f       	adc	r25, r25
    510c:	8c 0f       	add	r24, r28
    510e:	9d 1f       	adc	r25, r29
    5110:	df 91       	pop	r29
    5112:	cf 91       	pop	r28
    5114:	1f 91       	pop	r17
    5116:	0f 91       	pop	r16
    5118:	ff 90       	pop	r15
    511a:	ef 90       	pop	r14
    511c:	df 90       	pop	r13
    511e:	cf 90       	pop	r12
    5120:	af 90       	pop	r10
    5122:	9f 90       	pop	r9
    5124:	7f 90       	pop	r7
    5126:	6f 90       	pop	r6
    5128:	08 95       	ret
    512a:	e1 14       	cp	r14, r1
    512c:	f1 04       	cpc	r15, r1
    512e:	09 f4       	brne	.+2      	; 0x5132 <select_file+0x15a>
    5130:	b4 cf       	rjmp	.-152    	; 0x509a <select_file+0xc2>
    5132:	81 e0       	ldi	r24, 0x01	; 1
    5134:	e8 1a       	sub	r14, r24
    5136:	f1 08       	sbc	r15, r1
    5138:	0e 94 85 3a 	call	0x750a	; 0x750a <cls>
    513c:	c7 01       	movw	r24, r14
    513e:	0e 94 b2 27 	call	0x4f64	; 0x4f64 <display_page>
    5142:	a8 2e       	mov	r10, r24
    5144:	c7 e0       	ldi	r28, 0x07	; 7
    5146:	d0 e0       	ldi	r29, 0x00	; 0
    5148:	48 e3       	ldi	r20, 0x38	; 56
    514a:	94 2e       	mov	r9, r20
    514c:	a6 cf       	rjmp	.-180    	; 0x509a <select_file+0xc2>
    514e:	37 01       	movw	r6, r14
    5150:	8f ef       	ldi	r24, 0xFF	; 255
    5152:	68 1a       	sub	r6, r24
    5154:	78 0a       	sbc	r7, r24
    5156:	c3 01       	movw	r24, r6
    5158:	88 0f       	add	r24, r24
    515a:	99 1f       	adc	r25, r25
    515c:	88 0f       	add	r24, r24
    515e:	99 1f       	adc	r25, r25
    5160:	88 0f       	add	r24, r24
    5162:	99 1f       	adc	r25, r25
    5164:	8c 15       	cp	r24, r12
    5166:	9d 05       	cpc	r25, r13
    5168:	0c f0       	brlt	.+2      	; 0x516c <select_file+0x194>
    516a:	97 cf       	rjmp	.-210    	; 0x509a <select_file+0xc2>
    516c:	0e 94 85 3a 	call	0x750a	; 0x750a <cls>
    5170:	c3 01       	movw	r24, r6
    5172:	0e 94 b2 27 	call	0x4f64	; 0x4f64 <display_page>
    5176:	a8 2e       	mov	r10, r24
    5178:	73 01       	movw	r14, r6
    517a:	bd cf       	rjmp	.-134    	; 0x50f6 <select_file+0x11e>
    517c:	0e 94 85 3a 	call	0x750a	; 0x750a <cls>
    5180:	ce 01       	movw	r24, r28
    5182:	0e 94 b2 27 	call	0x4f64	; 0x4f64 <display_page>
    5186:	a8 2e       	mov	r10, r24
    5188:	7e 01       	movw	r14, r28
    518a:	c0 e0       	ldi	r28, 0x00	; 0
    518c:	d0 e0       	ldi	r29, 0x00	; 0
    518e:	91 2c       	mov	r9, r1
    5190:	84 cf       	rjmp	.-248    	; 0x509a <select_file+0xc2>

00005192 <sdc_files>:
    5192:	ef 92       	push	r14
    5194:	ff 92       	push	r15
    5196:	0f 93       	push	r16
    5198:	1f 93       	push	r17
    519a:	cf 93       	push	r28
    519c:	df 93       	push	r29
    519e:	cd b7       	in	r28, 0x3d	; 61
    51a0:	de b7       	in	r29, 0x3e	; 62
    51a2:	cb 54       	subi	r28, 0x4B	; 75
    51a4:	d1 09       	sbc	r29, r1
    51a6:	0f b6       	in	r0, 0x3f	; 63
    51a8:	f8 94       	cli
    51aa:	de bf       	out	0x3e, r29	; 62
    51ac:	0f be       	out	0x3f, r0	; 63
    51ae:	cd bf       	out	0x3d, r28	; 61
    51b0:	2c 96       	adiw	r28, 0x0c	; 12
    51b2:	1f ae       	std	Y+63, r1	; 0x3f
    51b4:	2c 97       	sbiw	r28, 0x0c	; 12
    51b6:	e1 2c       	mov	r14, r1
    51b8:	f1 2c       	mov	r15, r1
    51ba:	00 e0       	ldi	r16, 0x00	; 0
    51bc:	10 e0       	ldi	r17, 0x00	; 0
    51be:	03 c0       	rjmp	.+6      	; 0x51c6 <sdc_files+0x34>
    51c0:	89 a1       	ldd	r24, Y+33	; 0x21
    51c2:	84 ff       	sbrs	r24, 4
    51c4:	26 c0       	rjmp	.+76     	; 0x5212 <sdc_files+0x80>
    51c6:	ce 01       	movw	r24, r28
    51c8:	01 96       	adiw	r24, 0x01	; 1
    51ca:	0e 94 77 31 	call	0x62ee	; 0x62ee <fs_read_dir>
    51ce:	81 11       	cpse	r24, r1
    51d0:	f7 cf       	rjmp	.-18     	; 0x51c0 <sdc_files+0x2e>
    51d2:	1c a6       	std	Y+44, r1	; 0x2c
    51d4:	ae 01       	movw	r20, r28
    51d6:	44 5d       	subi	r20, 0xD4	; 212
    51d8:	5f 4f       	sbci	r21, 0xFF	; 255
    51da:	60 e2       	ldi	r22, 0x20	; 32
    51dc:	70 e0       	ldi	r23, 0x00	; 0
    51de:	c8 01       	movw	r24, r16
    51e0:	88 0f       	add	r24, r24
    51e2:	99 1f       	adc	r25, r25
    51e4:	82 95       	swap	r24
    51e6:	92 95       	swap	r25
    51e8:	90 7f       	andi	r25, 0xF0	; 240
    51ea:	98 27       	eor	r25, r24
    51ec:	80 7f       	andi	r24, 0xF0	; 240
    51ee:	98 27       	eor	r25, r24
    51f0:	0e 94 03 38 	call	0x7006	; 0x7006 <sram_store_block>
    51f4:	c8 01       	movw	r24, r16
    51f6:	c5 5b       	subi	r28, 0xB5	; 181
    51f8:	df 4f       	sbci	r29, 0xFF	; 255
    51fa:	0f b6       	in	r0, 0x3f	; 63
    51fc:	f8 94       	cli
    51fe:	de bf       	out	0x3e, r29	; 62
    5200:	0f be       	out	0x3f, r0	; 63
    5202:	cd bf       	out	0x3d, r28	; 61
    5204:	df 91       	pop	r29
    5206:	cf 91       	pop	r28
    5208:	1f 91       	pop	r17
    520a:	0f 91       	pop	r16
    520c:	ff 90       	pop	r15
    520e:	ef 90       	pop	r14
    5210:	08 95       	ret
    5212:	be 01       	movw	r22, r28
    5214:	6f 5f       	subi	r22, 0xFF	; 255
    5216:	7f 4f       	sbci	r23, 0xFF	; 255
    5218:	ce 01       	movw	r24, r28
    521a:	8c 96       	adiw	r24, 0x2c	; 44
    521c:	0e 94 0f 3d 	call	0x7a1e	; 0x7a1e <strcpy>
    5220:	ae 01       	movw	r20, r28
    5222:	44 5d       	subi	r20, 0xD4	; 212
    5224:	5f 4f       	sbci	r21, 0xFF	; 255
    5226:	60 e2       	ldi	r22, 0x20	; 32
    5228:	70 e0       	ldi	r23, 0x00	; 0
    522a:	c7 01       	movw	r24, r14
    522c:	0e 94 03 38 	call	0x7006	; 0x7006 <sram_store_block>
    5230:	0f 5f       	subi	r16, 0xFF	; 255
    5232:	1f 4f       	sbci	r17, 0xFF	; 255
    5234:	80 e2       	ldi	r24, 0x20	; 32
    5236:	e8 0e       	add	r14, r24
    5238:	f1 1c       	adc	r15, r1
    523a:	c5 cf       	rjmp	.-118    	; 0x51c6 <sdc_files+0x34>

0000523c <games_on_sdcard>:
    523c:	0e 94 c9 28 	call	0x5192	; 0x5192 <sdc_files>
    5240:	00 97       	sbiw	r24, 0x00	; 0
    5242:	09 f4       	brne	.+2      	; 0x5246 <games_on_sdcard+0xa>
    5244:	08 95       	ret
    5246:	0e 94 ec 27 	call	0x4fd8	; 0x4fd8 <select_file>
    524a:	97 fd       	sbrc	r25, 7
    524c:	fb cf       	rjmp	.-10     	; 0x5244 <games_on_sdcard+0x8>
    524e:	0e 94 22 31 	call	0x6244	; 0x6244 <fs_load_file>
    5252:	88 23       	and	r24, r24
    5254:	b9 f3       	breq	.-18     	; 0x5244 <games_on_sdcard+0x8>
    5256:	0e 94 85 3a 	call	0x750a	; 0x750a <cls>
    525a:	82 e0       	ldi	r24, 0x02	; 2
    525c:	0e 94 7f 23 	call	0x46fe	; 0x46fe <schip>
    5260:	82 30       	cpi	r24, 0x02	; 2
    5262:	81 f7       	brne	.-32     	; 0x5244 <games_on_sdcard+0x8>
    5264:	81 ee       	ldi	r24, 0xE1	; 225
    5266:	9a e0       	ldi	r25, 0x0A	; 10
    5268:	0c 94 1a 23 	jmp	0x4634	; 0x4634 <print_vms>

0000526c <games_in_flash>:
    526c:	af 92       	push	r10
    526e:	bf 92       	push	r11
    5270:	cf 92       	push	r12
    5272:	df 92       	push	r13
    5274:	ef 92       	push	r14
    5276:	ff 92       	push	r15
    5278:	0f 93       	push	r16
    527a:	1f 93       	push	r17
    527c:	cf 93       	push	r28
    527e:	df 93       	push	r29
    5280:	cd b7       	in	r28, 0x3d	; 61
    5282:	de b7       	in	r29, 0x3e	; 62
    5284:	a2 97       	sbiw	r28, 0x22	; 34
    5286:	0f b6       	in	r0, 0x3f	; 63
    5288:	f8 94       	cli
    528a:	de bf       	out	0x3e, r29	; 62
    528c:	0f be       	out	0x3f, r0	; 63
    528e:	cd bf       	out	0x3d, r28	; 61
    5290:	ec e7       	ldi	r30, 0x7C	; 124
    5292:	fb e0       	ldi	r31, 0x0B	; 11
    5294:	94 91       	lpm	r25, Z
    5296:	99 23       	and	r25, r25
    5298:	09 f4       	brne	.+2      	; 0x529c <games_in_flash+0x30>
    529a:	bd c0       	rjmp	.+378    	; 0x5416 <games_in_flash+0x1aa>
    529c:	c1 2c       	mov	r12, r1
    529e:	d1 2c       	mov	r13, r1
    52a0:	a1 2c       	mov	r10, r1
    52a2:	b1 2c       	mov	r11, r1
    52a4:	01 e0       	ldi	r16, 0x01	; 1
    52a6:	10 e0       	ldi	r17, 0x00	; 0
    52a8:	9a 30       	cpi	r25, 0x0A	; 10
    52aa:	09 f4       	brne	.+2      	; 0x52ae <games_in_flash+0x42>
    52ac:	65 c0       	rjmp	.+202    	; 0x5378 <games_in_flash+0x10c>
    52ae:	de 01       	movw	r26, r28
    52b0:	11 96       	adiw	r26, 0x01	; 1
    52b2:	20 e0       	ldi	r18, 0x00	; 0
    52b4:	30 e0       	ldi	r19, 0x00	; 0
    52b6:	2f 5f       	subi	r18, 0xFF	; 255
    52b8:	3f 4f       	sbci	r19, 0xFF	; 255
    52ba:	9d 93       	st	X+, r25
    52bc:	0f 5f       	subi	r16, 0xFF	; 255
    52be:	1f 4f       	sbci	r17, 0xFF	; 255
    52c0:	c8 01       	movw	r24, r16
    52c2:	84 58       	subi	r24, 0x84	; 132
    52c4:	94 4f       	sbci	r25, 0xF4	; 244
    52c6:	7c 01       	movw	r14, r24
    52c8:	fc 01       	movw	r30, r24
    52ca:	31 97       	sbiw	r30, 0x01	; 1
    52cc:	94 91       	lpm	r25, Z
    52ce:	9a 30       	cpi	r25, 0x0A	; 10
    52d0:	91 f7       	brne	.-28     	; 0x52b6 <games_in_flash+0x4a>
    52d2:	e1 e0       	ldi	r30, 0x01	; 1
    52d4:	f0 e0       	ldi	r31, 0x00	; 0
    52d6:	ec 0f       	add	r30, r28
    52d8:	fd 1f       	adc	r31, r29
    52da:	e2 0f       	add	r30, r18
    52dc:	f3 1f       	adc	r31, r19
    52de:	10 82       	st	Z, r1
    52e0:	ae 01       	movw	r20, r28
    52e2:	4f 5f       	subi	r20, 0xFF	; 255
    52e4:	5f 4f       	sbci	r21, 0xFF	; 255
    52e6:	60 e2       	ldi	r22, 0x20	; 32
    52e8:	70 e0       	ldi	r23, 0x00	; 0
    52ea:	c6 01       	movw	r24, r12
    52ec:	0e 94 03 38 	call	0x7006	; 0x7006 <sram_store_block>
    52f0:	ff ef       	ldi	r31, 0xFF	; 255
    52f2:	af 1a       	sub	r10, r31
    52f4:	bf 0a       	sbc	r11, r31
    52f6:	0f 5f       	subi	r16, 0xFF	; 255
    52f8:	1f 4f       	sbci	r17, 0xFF	; 255
    52fa:	f7 01       	movw	r30, r14
    52fc:	94 91       	lpm	r25, Z
    52fe:	f0 e2       	ldi	r31, 0x20	; 32
    5300:	cf 0e       	add	r12, r31
    5302:	d1 1c       	adc	r13, r1
    5304:	91 11       	cpse	r25, r1
    5306:	d0 cf       	rjmp	.-96     	; 0x52a8 <games_in_flash+0x3c>
    5308:	c5 01       	movw	r24, r10
    530a:	89 a3       	std	Y+33, r24	; 0x21
    530c:	9a a3       	std	Y+34, r25	; 0x22
    530e:	0e 94 85 3a 	call	0x750a	; 0x750a <cls>
    5312:	89 a1       	ldd	r24, Y+33	; 0x21
    5314:	9a a1       	ldd	r25, Y+34	; 0x22
    5316:	0e 94 ec 27 	call	0x4fd8	; 0x4fd8 <select_file>
    531a:	87 30       	cpi	r24, 0x07	; 7
    531c:	91 05       	cpc	r25, r1
    531e:	d8 f4       	brcc	.+54     	; 0x5356 <games_in_flash+0xea>
    5320:	fc 01       	movw	r30, r24
    5322:	ec 5c       	subi	r30, 0xCC	; 204
    5324:	ff 4f       	sbci	r31, 0xFF	; 255
    5326:	0c 94 64 3c 	jmp	0x78c8	; 0x78c8 <__tablejump2__>
    532a:	6d e7       	ldi	r22, 0x7D	; 125
    532c:	72 e0       	ldi	r23, 0x02	; 2
    532e:	8c eb       	ldi	r24, 0xBC	; 188
    5330:	9e e3       	ldi	r25, 0x3E	; 62
    5332:	0e 94 91 27 	call	0x4f22	; 0x4f22 <load_flash_game>
    5336:	64 e0       	ldi	r22, 0x04	; 4
    5338:	89 e3       	ldi	r24, 0x39	; 57
    533a:	91 e4       	ldi	r25, 0x41	; 65
    533c:	0e 94 cf 36 	call	0x6d9e	; 0x6d9e <text_scroller>
    5340:	0e 94 85 3a 	call	0x750a	; 0x750a <cls>
    5344:	82 e0       	ldi	r24, 0x02	; 2
    5346:	0e 94 7f 23 	call	0x46fe	; 0x46fe <schip>
    534a:	82 30       	cpi	r24, 0x02	; 2
    534c:	21 f4       	brne	.+8      	; 0x5356 <games_in_flash+0xea>
    534e:	8e ec       	ldi	r24, 0xCE	; 206
    5350:	9a e0       	ldi	r25, 0x0A	; 10
    5352:	0e 94 1a 23 	call	0x4634	; 0x4634 <print_vms>
    5356:	a2 96       	adiw	r28, 0x22	; 34
    5358:	0f b6       	in	r0, 0x3f	; 63
    535a:	f8 94       	cli
    535c:	de bf       	out	0x3e, r29	; 62
    535e:	0f be       	out	0x3f, r0	; 63
    5360:	cd bf       	out	0x3d, r28	; 61
    5362:	df 91       	pop	r29
    5364:	cf 91       	pop	r28
    5366:	1f 91       	pop	r17
    5368:	0f 91       	pop	r16
    536a:	ff 90       	pop	r15
    536c:	ef 90       	pop	r14
    536e:	df 90       	pop	r13
    5370:	cf 90       	pop	r12
    5372:	bf 90       	pop	r11
    5374:	af 90       	pop	r10
    5376:	08 95       	ret
    5378:	20 e0       	ldi	r18, 0x00	; 0
    537a:	30 e0       	ldi	r19, 0x00	; 0
    537c:	f8 01       	movw	r30, r16
    537e:	e4 58       	subi	r30, 0x84	; 132
    5380:	f4 4f       	sbci	r31, 0xF4	; 244
    5382:	7f 01       	movw	r14, r30
    5384:	a6 cf       	rjmp	.-180    	; 0x52d2 <games_in_flash+0x66>
    5386:	6c e5       	ldi	r22, 0x5C	; 92
    5388:	73 e0       	ldi	r23, 0x03	; 3
    538a:	8b ec       	ldi	r24, 0xCB	; 203
    538c:	9b e0       	ldi	r25, 0x0B	; 11
    538e:	0e 94 91 27 	call	0x4f22	; 0x4f22 <load_flash_game>
    5392:	64 e0       	ldi	r22, 0x04	; 4
    5394:	87 e2       	ldi	r24, 0x27	; 39
    5396:	9f e0       	ldi	r25, 0x0F	; 15
    5398:	0e 94 cf 36 	call	0x6d9e	; 0x6d9e <text_scroller>
    539c:	d1 cf       	rjmp	.-94     	; 0x5340 <games_in_flash+0xd4>
    539e:	60 e0       	ldi	r22, 0x00	; 0
    53a0:	7e e0       	ldi	r23, 0x0E	; 14
    53a2:	83 e2       	ldi	r24, 0x23	; 35
    53a4:	91 e2       	ldi	r25, 0x21	; 33
    53a6:	0e 94 91 27 	call	0x4f22	; 0x4f22 <load_flash_game>
    53aa:	64 e0       	ldi	r22, 0x04	; 4
    53ac:	83 e2       	ldi	r24, 0x23	; 35
    53ae:	9f e2       	ldi	r25, 0x2F	; 47
    53b0:	0e 94 cf 36 	call	0x6d9e	; 0x6d9e <text_scroller>
    53b4:	c5 cf       	rjmp	.-118    	; 0x5340 <games_in_flash+0xd4>
    53b6:	68 e1       	ldi	r22, 0x18	; 24
    53b8:	7b e0       	ldi	r23, 0x0B	; 11
    53ba:	8d e5       	ldi	r24, 0x5D	; 93
    53bc:	9f e2       	ldi	r25, 0x2F	; 47
    53be:	0e 94 91 27 	call	0x4f22	; 0x4f22 <load_flash_game>
    53c2:	64 e0       	ldi	r22, 0x04	; 4
    53c4:	85 e7       	ldi	r24, 0x75	; 117
    53c6:	9a e3       	ldi	r25, 0x3A	; 58
    53c8:	0e 94 cf 36 	call	0x6d9e	; 0x6d9e <text_scroller>
    53cc:	b9 cf       	rjmp	.-142    	; 0x5340 <games_in_flash+0xd4>
    53ce:	61 ee       	ldi	r22, 0xE1	; 225
    53d0:	79 e0       	ldi	r23, 0x09	; 9
    53d2:	86 e7       	ldi	r24, 0x76	; 118
    53d4:	90 e0       	ldi	r25, 0x00	; 0
    53d6:	0e 94 91 27 	call	0x4f22	; 0x4f22 <load_flash_game>
    53da:	64 e0       	ldi	r22, 0x04	; 4
    53dc:	87 e5       	ldi	r24, 0x57	; 87
    53de:	9a e0       	ldi	r25, 0x0A	; 10
    53e0:	0e 94 cf 36 	call	0x6d9e	; 0x6d9e <text_scroller>
    53e4:	ad cf       	rjmp	.-166    	; 0x5340 <games_in_flash+0xd4>
    53e6:	66 e4       	ldi	r22, 0x46	; 70
    53e8:	79 e0       	ldi	r23, 0x09	; 9
    53ea:	80 ee       	ldi	r24, 0xE0	; 224
    53ec:	9f e0       	ldi	r25, 0x0F	; 15
    53ee:	0e 94 91 27 	call	0x4f22	; 0x4f22 <load_flash_game>
    53f2:	64 e0       	ldi	r22, 0x04	; 4
    53f4:	86 e2       	ldi	r24, 0x26	; 38
    53f6:	99 e1       	ldi	r25, 0x19	; 25
    53f8:	0e 94 cf 36 	call	0x6d9e	; 0x6d9e <text_scroller>
    53fc:	a1 cf       	rjmp	.-190    	; 0x5340 <games_in_flash+0xd4>
    53fe:	63 e5       	ldi	r22, 0x53	; 83
    5400:	77 e0       	ldi	r23, 0x07	; 7
    5402:	8b e8       	ldi	r24, 0x8B	; 139
    5404:	99 e1       	ldi	r25, 0x19	; 25
    5406:	0e 94 91 27 	call	0x4f22	; 0x4f22 <load_flash_game>
    540a:	64 e0       	ldi	r22, 0x04	; 4
    540c:	8e ed       	ldi	r24, 0xDE	; 222
    540e:	90 e2       	ldi	r25, 0x20	; 32
    5410:	0e 94 cf 36 	call	0x6d9e	; 0x6d9e <text_scroller>
    5414:	95 cf       	rjmp	.-214    	; 0x5340 <games_in_flash+0xd4>
    5416:	80 e0       	ldi	r24, 0x00	; 0
    5418:	90 e0       	ldi	r25, 0x00	; 0
    541a:	77 cf       	rjmp	.-274    	; 0x530a <games_in_flash+0x9e>

0000541c <splash_screen>:
    541c:	0f 93       	push	r16
    541e:	1f 93       	push	r17
    5420:	cf 93       	push	r28
    5422:	df 93       	push	r29
    5424:	cc eb       	ldi	r28, 0xBC	; 188
    5426:	da e3       	ldi	r29, 0x3A	; 58
    5428:	00 e0       	ldi	r16, 0x00	; 0
    542a:	10 e8       	ldi	r17, 0x80	; 128
    542c:	0c 5b       	subi	r16, 0xBC	; 188
    542e:	1a 43       	sbci	r17, 0x3A	; 58
    5430:	fe 01       	movw	r30, r28
    5432:	64 91       	lpm	r22, Z
    5434:	c8 01       	movw	r24, r16
    5436:	8c 0f       	add	r24, r28
    5438:	9d 1f       	adc	r25, r29
    543a:	0e 94 6c 37 	call	0x6ed8	; 0x6ed8 <sram_write_byte>
    543e:	21 96       	adiw	r28, 0x01	; 1
    5440:	fe e3       	ldi	r31, 0x3E	; 62
    5442:	cc 3b       	cpi	r28, 0xBC	; 188
    5444:	df 07       	cpc	r29, r31
    5446:	a1 f7       	brne	.-24     	; 0x5430 <splash_screen+0x14>
    5448:	0e 94 42 3b 	call	0x7684	; 0x7684 <screen_restore>
    544c:	88 e7       	ldi	r24, 0x78	; 120
    544e:	80 93 c6 02 	sts	0x02C6, r24
    5452:	04 c0       	rjmp	.+8      	; 0x545c <splash_screen+0x40>
    5454:	0e 94 8e 31 	call	0x631c	; 0x631c <keypad_read>
    5458:	8f 3f       	cpi	r24, 0xFF	; 255
    545a:	69 f4       	brne	.+26     	; 0x5476 <splash_screen+0x5a>
    545c:	80 91 c6 02 	lds	r24, 0x02C6
    5460:	81 11       	cpse	r24, r1
    5462:	f8 cf       	rjmp	.-16     	; 0x5454 <splash_screen+0x38>
    5464:	0e 94 8e 31 	call	0x631c	; 0x631c <keypad_read>
    5468:	8f 3f       	cpi	r24, 0xFF	; 255
    546a:	e1 f7       	brne	.-8      	; 0x5464 <splash_screen+0x48>
    546c:	df 91       	pop	r29
    546e:	cf 91       	pop	r28
    5470:	1f 91       	pop	r17
    5472:	0f 91       	pop	r16
    5474:	08 95       	ret
    5476:	62 e0       	ldi	r22, 0x02	; 2
    5478:	88 ee       	ldi	r24, 0xE8	; 232
    547a:	93 e0       	ldi	r25, 0x03	; 3
    547c:	0e 94 33 38 	call	0x7066	; 0x7066 <tone>
    5480:	10 92 c6 02 	sts	0x02C6, r1
    5484:	eb cf       	rjmp	.-42     	; 0x545c <splash_screen+0x40>

00005486 <main>:
    5486:	80 e8       	ldi	r24, 0x80	; 128
    5488:	80 93 61 00 	sts	0x0061, r24
    548c:	10 92 61 00 	sts	0x0061, r1
    5490:	0e 94 66 38 	call	0x70cc	; 0x70cc <tvout_init>
    5494:	84 b1       	in	r24, 0x04	; 4
    5496:	88 62       	ori	r24, 0x28	; 40
    5498:	84 b9       	out	0x04, r24	; 4
    549a:	80 e5       	ldi	r24, 0x50	; 80
    549c:	8c bd       	out	0x2c, r24	; 44
    549e:	8d b5       	in	r24, 0x2d	; 45
    54a0:	81 60       	ori	r24, 0x01	; 1
    54a2:	8d bd       	out	0x2d, r24	; 45
    54a4:	81 e6       	ldi	r24, 0x61	; 97
    54a6:	80 93 7c 00 	sts	0x007C, r24
    54aa:	87 ec       	ldi	r24, 0xC7	; 199
    54ac:	80 93 7a 00 	sts	0x007A, r24
    54b0:	10 92 7b 00 	sts	0x007B, r1
    54b4:	81 e0       	ldi	r24, 0x01	; 1
    54b6:	80 93 7e 00 	sts	0x007E, r24
    54ba:	0e 94 7e 31 	call	0x62fc	; 0x62fc <keypad_init>
    54be:	0e 94 2d 38 	call	0x705a	; 0x705a <tone_init>
    54c2:	0e 94 65 37 	call	0x6eca	; 0x6eca <sram_init>
    54c6:	78 94       	sei
    54c8:	80 91 84 00 	lds	r24, 0x0084
    54cc:	90 91 85 00 	lds	r25, 0x0085
    54d0:	0e 94 d7 3c 	call	0x79ae	; 0x79ae <srand>
    54d4:	0e 94 80 33 	call	0x6700	; 0x6700 <sd_raw_init>
    54d8:	0e 94 48 30 	call	0x6090	; 0x6090 <fs_mount>
    54dc:	81 11       	cpse	r24, r1
    54de:	23 c0       	rjmp	.+70     	; 0x5526 <main+0xa0>
    54e0:	c0 e0       	ldi	r28, 0x00	; 0
    54e2:	0e 94 0e 2a 	call	0x541c	; 0x541c <splash_screen>
    54e6:	64 e0       	ldi	r22, 0x04	; 4
    54e8:	8e e4       	ldi	r24, 0x4E	; 78
    54ea:	9b e0       	ldi	r25, 0x0B	; 11
    54ec:	0e 94 cf 36 	call	0x6d9e	; 0x6d9e <text_scroller>
    54f0:	0e 94 85 3a 	call	0x750a	; 0x750a <cls>
    54f4:	82 e0       	ldi	r24, 0x02	; 2
    54f6:	0e 94 c0 35 	call	0x6b80	; 0x6b80 <select_font>
    54fa:	c1 11       	cpse	r28, r1
    54fc:	11 c0       	rjmp	.+34     	; 0x5520 <main+0x9a>
    54fe:	8c eb       	ldi	r24, 0xBC	; 188
    5500:	9a e0       	ldi	r25, 0x0A	; 10
    5502:	0e 94 68 36 	call	0x6cd0	; 0x6cd0 <prt_pstr>
    5506:	0e 94 c3 35 	call	0x6b86	; 0x6b86 <new_line>
    550a:	0e 94 e1 31 	call	0x63c2	; 0x63c2 <prompt_key>
    550e:	0e 94 36 29 	call	0x526c	; 0x526c <games_in_flash>
    5512:	0e 94 85 3a 	call	0x750a	; 0x750a <cls>
    5516:	82 e0       	ldi	r24, 0x02	; 2
    5518:	0e 94 c0 35 	call	0x6b80	; 0x6b80 <select_font>
    551c:	cc 23       	and	r28, r28
    551e:	79 f3       	breq	.-34     	; 0x54fe <main+0x78>
    5520:	0e 94 1e 29 	call	0x523c	; 0x523c <games_on_sdcard>
    5524:	e5 cf       	rjmp	.-54     	; 0x54f0 <main+0x6a>
    5526:	85 e0       	ldi	r24, 0x05	; 5
    5528:	91 e0       	ldi	r25, 0x01	; 1
    552a:	0e 94 a5 30 	call	0x614a	; 0x614a <fs_open_dir>
    552e:	c8 2f       	mov	r28, r24
    5530:	d8 cf       	rjmp	.-80     	; 0x54e2 <main+0x5c>

00005532 <fat_dir_entry_read_callback>:
    5532:	cf 92       	push	r12
    5534:	df 92       	push	r13
    5536:	ef 92       	push	r14
    5538:	ff 92       	push	r15
    553a:	0f 93       	push	r16
    553c:	1f 93       	push	r17
    553e:	cf 93       	push	r28
    5540:	df 93       	push	r29
    5542:	7c 01       	movw	r14, r24
    5544:	69 01       	movw	r12, r18
    5546:	e9 01       	movw	r28, r18
    5548:	08 81       	ld	r16, Y
    554a:	19 81       	ldd	r17, Y+1	; 0x01
    554c:	8a 81       	ldd	r24, Y+2	; 0x02
    554e:	9b 81       	ldd	r25, Y+3	; 0x03
    5550:	80 96       	adiw	r24, 0x20	; 32
    5552:	9b 83       	std	Y+3, r25	; 0x03
    5554:	8a 83       	std	Y+2, r24	; 0x02
    5556:	f7 01       	movw	r30, r14
    5558:	80 81       	ld	r24, Z
    555a:	85 3e       	cpi	r24, 0xE5	; 229
    555c:	09 f4       	brne	.+2      	; 0x5560 <fat_dir_entry_read_callback+0x2e>
    555e:	73 c0       	rjmp	.+230    	; 0x5646 <fat_dir_entry_read_callback+0x114>
    5560:	88 23       	and	r24, r24
    5562:	09 f4       	brne	.+2      	; 0x5566 <fat_dir_entry_read_callback+0x34>
    5564:	70 c0       	rjmp	.+224    	; 0x5646 <fat_dir_entry_read_callback+0x114>
    5566:	83 85       	ldd	r24, Z+11	; 0x0b
    5568:	8f 30       	cpi	r24, 0x0F	; 15
    556a:	09 f4       	brne	.+2      	; 0x556e <fat_dir_entry_read_callback+0x3c>
    556c:	6c c0       	rjmp	.+216    	; 0x5646 <fat_dir_entry_read_callback+0x114>
    556e:	8b e2       	ldi	r24, 0x2B	; 43
    5570:	e8 01       	movw	r28, r16
    5572:	19 92       	st	Y+, r1
    5574:	8a 95       	dec	r24
    5576:	e9 f7       	brne	.-6      	; 0x5572 <fat_dir_entry_read_callback+0x40>
    5578:	f8 01       	movw	r30, r16
    557a:	47 a3       	std	Z+39, r20	; 0x27
    557c:	50 a7       	std	Z+40, r21	; 0x28
    557e:	61 a7       	std	Z+41, r22	; 0x29
    5580:	72 a7       	std	Z+42, r23	; 0x2a
    5582:	f7 01       	movw	r30, r14
    5584:	d8 01       	movw	r26, r16
    5586:	80 e0       	ldi	r24, 0x00	; 0
    5588:	90 e0       	ldi	r25, 0x00	; 0
    558a:	58 2f       	mov	r21, r24
    558c:	9c 01       	movw	r18, r24
    558e:	40 81       	ld	r20, Z
    5590:	40 32       	cpi	r20, 0x20	; 32
    5592:	a1 f0       	breq	.+40     	; 0x55bc <fat_dir_entry_read_callback+0x8a>
    5594:	4c 93       	st	X, r20
    5596:	e7 01       	movw	r28, r14
    5598:	2c 85       	ldd	r18, Y+12	; 0x0c
    559a:	23 ff       	sbrs	r18, 3
    559c:	06 c0       	rjmp	.+12     	; 0x55aa <fat_dir_entry_read_callback+0x78>
    559e:	20 81       	ld	r18, Z
    55a0:	21 54       	subi	r18, 0x41	; 65
    55a2:	2a 31       	cpi	r18, 0x1A	; 26
    55a4:	10 f4       	brcc	.+4      	; 0x55aa <fat_dir_entry_read_callback+0x78>
    55a6:	40 5e       	subi	r20, 0xE0	; 224
    55a8:	4c 93       	st	X, r20
    55aa:	01 96       	adiw	r24, 0x01	; 1
    55ac:	31 96       	adiw	r30, 0x01	; 1
    55ae:	11 96       	adiw	r26, 0x01	; 1
    55b0:	88 30       	cpi	r24, 0x08	; 8
    55b2:	91 05       	cpc	r25, r1
    55b4:	51 f7       	brne	.-44     	; 0x558a <fat_dir_entry_read_callback+0x58>
    55b6:	28 e0       	ldi	r18, 0x08	; 8
    55b8:	30 e0       	ldi	r19, 0x00	; 0
    55ba:	58 e0       	ldi	r21, 0x08	; 8
    55bc:	f8 01       	movw	r30, r16
    55be:	80 81       	ld	r24, Z
    55c0:	85 30       	cpi	r24, 0x05	; 5
    55c2:	09 f4       	brne	.+2      	; 0x55c6 <fat_dir_entry_read_callback+0x94>
    55c4:	4a c0       	rjmp	.+148    	; 0x565a <fat_dir_entry_read_callback+0x128>
    55c6:	e7 01       	movw	r28, r14
    55c8:	88 85       	ldd	r24, Y+8	; 0x08
    55ca:	80 32       	cpi	r24, 0x20	; 32
    55cc:	09 f1       	breq	.+66     	; 0x5610 <fat_dir_entry_read_callback+0xde>
    55ce:	81 e0       	ldi	r24, 0x01	; 1
    55d0:	85 0f       	add	r24, r21
    55d2:	f8 01       	movw	r30, r16
    55d4:	e2 0f       	add	r30, r18
    55d6:	f3 1f       	adc	r31, r19
    55d8:	9e e2       	ldi	r25, 0x2E	; 46
    55da:	90 83       	st	Z, r25
    55dc:	f7 01       	movw	r30, r14
    55de:	38 96       	adiw	r30, 0x08	; 8
    55e0:	5c 5f       	subi	r21, 0xFC	; 252
    55e2:	90 81       	ld	r25, Z
    55e4:	90 32       	cpi	r25, 0x20	; 32
    55e6:	91 f0       	breq	.+36     	; 0x560c <fat_dir_entry_read_callback+0xda>
    55e8:	d8 01       	movw	r26, r16
    55ea:	a8 0f       	add	r26, r24
    55ec:	b1 1d       	adc	r27, r1
    55ee:	9c 93       	st	X, r25
    55f0:	e7 01       	movw	r28, r14
    55f2:	2c 85       	ldd	r18, Y+12	; 0x0c
    55f4:	24 ff       	sbrs	r18, 4
    55f6:	06 c0       	rjmp	.+12     	; 0x5604 <fat_dir_entry_read_callback+0xd2>
    55f8:	20 81       	ld	r18, Z
    55fa:	21 54       	subi	r18, 0x41	; 65
    55fc:	2a 31       	cpi	r18, 0x1A	; 26
    55fe:	10 f4       	brcc	.+4      	; 0x5604 <fat_dir_entry_read_callback+0xd2>
    5600:	90 5e       	subi	r25, 0xE0	; 224
    5602:	9c 93       	st	X, r25
    5604:	8f 5f       	subi	r24, 0xFF	; 255
    5606:	31 96       	adiw	r30, 0x01	; 1
    5608:	85 13       	cpse	r24, r21
    560a:	eb cf       	rjmp	.-42     	; 0x55e2 <fat_dir_entry_read_callback+0xb0>
    560c:	28 2f       	mov	r18, r24
    560e:	30 e0       	ldi	r19, 0x00	; 0
    5610:	f8 01       	movw	r30, r16
    5612:	e2 0f       	add	r30, r18
    5614:	f3 1f       	adc	r31, r19
    5616:	10 82       	st	Z, r1
    5618:	f7 01       	movw	r30, r14
    561a:	83 85       	ldd	r24, Z+11	; 0x0b
    561c:	e8 01       	movw	r28, r16
    561e:	88 a3       	std	Y+32, r24	; 0x20
    5620:	c7 01       	movw	r24, r14
    5622:	4a 96       	adiw	r24, 0x1a	; 26
    5624:	0e 94 03 23 	call	0x4606	; 0x4606 <read16>
    5628:	9a a3       	std	Y+34, r25	; 0x22
    562a:	89 a3       	std	Y+33, r24	; 0x21
    562c:	c7 01       	movw	r24, r14
    562e:	4c 96       	adiw	r24, 0x1c	; 28
    5630:	0e 94 0b 23 	call	0x4616	; 0x4616 <read32>
    5634:	6b a3       	std	Y+35, r22	; 0x23
    5636:	7c a3       	std	Y+36, r23	; 0x24
    5638:	8d a3       	std	Y+37, r24	; 0x25
    563a:	9e a3       	std	Y+38, r25	; 0x26
    563c:	81 e0       	ldi	r24, 0x01	; 1
    563e:	e6 01       	movw	r28, r12
    5640:	8c 83       	std	Y+4, r24	; 0x04
    5642:	80 e0       	ldi	r24, 0x00	; 0
    5644:	01 c0       	rjmp	.+2      	; 0x5648 <fat_dir_entry_read_callback+0x116>
    5646:	81 e0       	ldi	r24, 0x01	; 1
    5648:	df 91       	pop	r29
    564a:	cf 91       	pop	r28
    564c:	1f 91       	pop	r17
    564e:	0f 91       	pop	r16
    5650:	ff 90       	pop	r15
    5652:	ef 90       	pop	r14
    5654:	df 90       	pop	r13
    5656:	cf 90       	pop	r12
    5658:	08 95       	ret
    565a:	85 ee       	ldi	r24, 0xE5	; 229
    565c:	80 83       	st	Z, r24
    565e:	b3 cf       	rjmp	.-154    	; 0x55c6 <fat_dir_entry_read_callback+0x94>

00005660 <fat_get_next_cluster.part.0>:
    5660:	0f 93       	push	r16
    5662:	1f 93       	push	r17
    5664:	cf 93       	push	r28
    5666:	df 93       	push	r29
    5668:	00 d0       	rcall	.+0      	; 0x566a <fat_get_next_cluster.part.0+0xa>
    566a:	cd b7       	in	r28, 0x3d	; 61
    566c:	de b7       	in	r29, 0x3e	; 62
    566e:	fc 01       	movw	r30, r24
    5670:	a0 81       	ld	r26, Z
    5672:	b1 81       	ldd	r27, Z+1	; 0x01
    5674:	80 e0       	ldi	r24, 0x00	; 0
    5676:	90 e0       	ldi	r25, 0x00	; 0
    5678:	66 0f       	add	r22, r22
    567a:	77 1f       	adc	r23, r23
    567c:	88 1f       	adc	r24, r24
    567e:	99 1f       	adc	r25, r25
    5680:	06 81       	ldd	r16, Z+6	; 0x06
    5682:	17 81       	ldd	r17, Z+7	; 0x07
    5684:	20 85       	ldd	r18, Z+8	; 0x08
    5686:	31 85       	ldd	r19, Z+9	; 0x09
    5688:	60 0f       	add	r22, r16
    568a:	71 1f       	adc	r23, r17
    568c:	82 1f       	adc	r24, r18
    568e:	93 1f       	adc	r25, r19
    5690:	ed 91       	ld	r30, X+
    5692:	fc 91       	ld	r31, X
    5694:	22 e0       	ldi	r18, 0x02	; 2
    5696:	30 e0       	ldi	r19, 0x00	; 0
    5698:	ae 01       	movw	r20, r28
    569a:	4f 5f       	subi	r20, 0xFF	; 255
    569c:	5f 4f       	sbci	r21, 0xFF	; 255
    569e:	09 95       	icall
    56a0:	88 23       	and	r24, r24
    56a2:	39 f0       	breq	.+14     	; 0x56b2 <fat_get_next_cluster.part.0+0x52>
    56a4:	29 81       	ldd	r18, Y+1	; 0x01
    56a6:	3a 81       	ldd	r19, Y+2	; 0x02
    56a8:	c9 01       	movw	r24, r18
    56aa:	01 97       	sbiw	r24, 0x01	; 1
    56ac:	8f 3e       	cpi	r24, 0xEF	; 239
    56ae:	9f 4f       	sbci	r25, 0xFF	; 255
    56b0:	48 f0       	brcs	.+18     	; 0x56c4 <fat_get_next_cluster.part.0+0x64>
    56b2:	80 e0       	ldi	r24, 0x00	; 0
    56b4:	90 e0       	ldi	r25, 0x00	; 0
    56b6:	0f 90       	pop	r0
    56b8:	0f 90       	pop	r0
    56ba:	df 91       	pop	r29
    56bc:	cf 91       	pop	r28
    56be:	1f 91       	pop	r17
    56c0:	0f 91       	pop	r16
    56c2:	08 95       	ret
    56c4:	c9 01       	movw	r24, r18
    56c6:	0f 90       	pop	r0
    56c8:	0f 90       	pop	r0
    56ca:	df 91       	pop	r29
    56cc:	cf 91       	pop	r28
    56ce:	1f 91       	pop	r17
    56d0:	0f 91       	pop	r16
    56d2:	08 95       	ret

000056d4 <fat_open>:
    56d4:	2f 92       	push	r2
    56d6:	3f 92       	push	r3
    56d8:	4f 92       	push	r4
    56da:	5f 92       	push	r5
    56dc:	6f 92       	push	r6
    56de:	7f 92       	push	r7
    56e0:	8f 92       	push	r8
    56e2:	9f 92       	push	r9
    56e4:	af 92       	push	r10
    56e6:	bf 92       	push	r11
    56e8:	cf 92       	push	r12
    56ea:	df 92       	push	r13
    56ec:	ef 92       	push	r14
    56ee:	ff 92       	push	r15
    56f0:	0f 93       	push	r16
    56f2:	1f 93       	push	r17
    56f4:	cf 93       	push	r28
    56f6:	df 93       	push	r29
    56f8:	cd b7       	in	r28, 0x3d	; 61
    56fa:	de b7       	in	r29, 0x3e	; 62
    56fc:	a6 97       	sbiw	r28, 0x26	; 38
    56fe:	0f b6       	in	r0, 0x3f	; 63
    5700:	f8 94       	cli
    5702:	de bf       	out	0x3e, r29	; 62
    5704:	0f be       	out	0x3f, r0	; 63
    5706:	cd bf       	out	0x3d, r28	; 61
    5708:	8c 01       	movw	r16, r24
    570a:	00 97       	sbiw	r24, 0x00	; 0
    570c:	31 f0       	breq	.+12     	; 0x571a <fat_open+0x46>
    570e:	80 91 89 02 	lds	r24, 0x0289
    5712:	90 91 8a 02 	lds	r25, 0x028A
    5716:	89 2b       	or	r24, r25
    5718:	d9 f0       	breq	.+54     	; 0x5750 <fat_open+0x7c>
    571a:	80 e0       	ldi	r24, 0x00	; 0
    571c:	90 e0       	ldi	r25, 0x00	; 0
    571e:	a6 96       	adiw	r28, 0x26	; 38
    5720:	0f b6       	in	r0, 0x3f	; 63
    5722:	f8 94       	cli
    5724:	de bf       	out	0x3e, r29	; 62
    5726:	0f be       	out	0x3f, r0	; 63
    5728:	cd bf       	out	0x3d, r28	; 61
    572a:	df 91       	pop	r29
    572c:	cf 91       	pop	r28
    572e:	1f 91       	pop	r17
    5730:	0f 91       	pop	r16
    5732:	ff 90       	pop	r15
    5734:	ef 90       	pop	r14
    5736:	df 90       	pop	r13
    5738:	cf 90       	pop	r12
    573a:	bf 90       	pop	r11
    573c:	af 90       	pop	r10
    573e:	9f 90       	pop	r9
    5740:	8f 90       	pop	r8
    5742:	7f 90       	pop	r7
    5744:	6f 90       	pop	r6
    5746:	5f 90       	pop	r5
    5748:	4f 90       	pop	r4
    574a:	3f 90       	pop	r3
    574c:	2f 90       	pop	r2
    574e:	08 95       	ret
    5750:	e9 e8       	ldi	r30, 0x89	; 137
    5752:	f2 e0       	ldi	r31, 0x02	; 2
    5754:	8c e1       	ldi	r24, 0x1C	; 28
    5756:	df 01       	movw	r26, r30
    5758:	1d 92       	st	X+, r1
    575a:	8a 95       	dec	r24
    575c:	e9 f7       	brne	.-6      	; 0x5758 <fat_open+0x84>
    575e:	10 93 8a 02 	sts	0x028A, r17
    5762:	00 93 89 02 	sts	0x0289, r16
    5766:	f8 01       	movw	r30, r16
    5768:	41 84       	ldd	r4, Z+9	; 0x09
    576a:	52 84       	ldd	r5, Z+10	; 0x0a
    576c:	63 84       	ldd	r6, Z+11	; 0x0b
    576e:	74 84       	ldd	r7, Z+12	; 0x0c
    5770:	39 e0       	ldi	r19, 0x09	; 9
    5772:	44 0c       	add	r4, r4
    5774:	55 1c       	adc	r5, r5
    5776:	66 1c       	adc	r6, r6
    5778:	77 1c       	adc	r7, r7
    577a:	3a 95       	dec	r19
    577c:	d1 f7       	brne	.-12     	; 0x5772 <fat_open+0x9e>
    577e:	c3 01       	movw	r24, r6
    5780:	b2 01       	movw	r22, r4
    5782:	65 5f       	subi	r22, 0xF5	; 245
    5784:	7f 4f       	sbci	r23, 0xFF	; 255
    5786:	8f 4f       	sbci	r24, 0xFF	; 255
    5788:	9f 4f       	sbci	r25, 0xFF	; 255
    578a:	01 90       	ld	r0, Z+
    578c:	f0 81       	ld	r31, Z
    578e:	e0 2d       	mov	r30, r0
    5790:	29 e1       	ldi	r18, 0x19	; 25
    5792:	30 e0       	ldi	r19, 0x00	; 0
    5794:	ae 01       	movw	r20, r28
    5796:	4f 5f       	subi	r20, 0xFF	; 255
    5798:	5f 4f       	sbci	r21, 0xFF	; 255
    579a:	09 95       	icall
    579c:	81 11       	cpse	r24, r1
    579e:	07 c0       	rjmp	.+14     	; 0x57ae <fat_open+0xda>
    57a0:	10 92 8a 02 	sts	0x028A, r1
    57a4:	10 92 89 02 	sts	0x0289, r1
    57a8:	80 e0       	ldi	r24, 0x00	; 0
    57aa:	90 e0       	ldi	r25, 0x00	; 0
    57ac:	b8 cf       	rjmp	.-144    	; 0x571e <fat_open+0x4a>
    57ae:	ce 01       	movw	r24, r28
    57b0:	01 96       	adiw	r24, 0x01	; 1
    57b2:	0e 94 03 23 	call	0x4606	; 0x4606 <read16>
    57b6:	1c 01       	movw	r2, r24
    57b8:	ce 01       	movw	r24, r28
    57ba:	04 96       	adiw	r24, 0x04	; 4
    57bc:	0e 94 03 23 	call	0x4606	; 0x4606 <read16>
    57c0:	9f 8f       	std	Y+31, r25	; 0x1f
    57c2:	8e 8f       	std	Y+30, r24	; 0x1e
    57c4:	2b 81       	ldd	r18, Y+3	; 0x03
    57c6:	28 a3       	std	Y+32, r18	; 0x20
    57c8:	4e 81       	ldd	r20, Y+6	; 0x06
    57ca:	4a 8f       	std	Y+26, r20	; 0x1a
    57cc:	ce 01       	movw	r24, r28
    57ce:	07 96       	adiw	r24, 0x07	; 7
    57d0:	0e 94 03 23 	call	0x4606	; 0x4606 <read16>
    57d4:	9a a3       	std	Y+34, r25	; 0x22
    57d6:	89 a3       	std	Y+33, r24	; 0x21
    57d8:	ce 01       	movw	r24, r28
    57da:	09 96       	adiw	r24, 0x09	; 9
    57dc:	0e 94 03 23 	call	0x4606	; 0x4606 <read16>
    57e0:	4c 01       	movw	r8, r24
    57e2:	ce 01       	movw	r24, r28
    57e4:	0c 96       	adiw	r24, 0x0c	; 12
    57e6:	0e 94 03 23 	call	0x4606	; 0x4606 <read16>
    57ea:	5c 01       	movw	r10, r24
    57ec:	ce 01       	movw	r24, r28
    57ee:	46 96       	adiw	r24, 0x16	; 22
    57f0:	0e 94 0b 23 	call	0x4616	; 0x4616 <read32>
    57f4:	6b 01       	movw	r12, r22
    57f6:	7c 01       	movw	r14, r24
    57f8:	61 15       	cp	r22, r1
    57fa:	71 05       	cpc	r23, r1
    57fc:	81 05       	cpc	r24, r1
    57fe:	91 05       	cpc	r25, r1
    5800:	09 f4       	brne	.+2      	; 0x5804 <fat_open+0x130>
    5802:	e4 c0       	rjmp	.+456    	; 0x59cc <fat_open+0x2f8>
    5804:	a1 14       	cp	r10, r1
    5806:	b1 04       	cpc	r11, r1
    5808:	59 f2       	breq	.-106    	; 0x57a0 <fat_open+0xcc>
    580a:	95 01       	movw	r18, r10
    580c:	5a 8d       	ldd	r21, Y+26	; 0x1a
    580e:	a5 2f       	mov	r26, r21
    5810:	b0 e0       	ldi	r27, 0x00	; 0
    5812:	0e 94 6a 3c 	call	0x78d4	; 0x78d4 <__umulhisi3>
    5816:	6a 8f       	std	Y+26, r22	; 0x1a
    5818:	7b 8f       	std	Y+27, r23	; 0x1b
    581a:	8c 8f       	std	Y+28, r24	; 0x1c
    581c:	9d 8f       	std	Y+29, r25	; 0x1d
    581e:	46 01       	movw	r8, r12
    5820:	57 01       	movw	r10, r14
    5822:	8e 8d       	ldd	r24, Y+30	; 0x1e
    5824:	9f 8d       	ldd	r25, Y+31	; 0x1f
    5826:	88 1a       	sub	r8, r24
    5828:	99 0a       	sbc	r9, r25
    582a:	a1 08       	sbc	r10, r1
    582c:	b1 08       	sbc	r11, r1
    582e:	8a 8d       	ldd	r24, Y+26	; 0x1a
    5830:	9b 8d       	ldd	r25, Y+27	; 0x1b
    5832:	ac 8d       	ldd	r26, Y+28	; 0x1c
    5834:	bd 8d       	ldd	r27, Y+29	; 0x1d
    5836:	88 1a       	sub	r8, r24
    5838:	99 0a       	sbc	r9, r25
    583a:	aa 0a       	sbc	r10, r26
    583c:	bb 0a       	sbc	r11, r27
    583e:	c1 01       	movw	r24, r2
    5840:	01 97       	sbiw	r24, 0x01	; 1
    5842:	29 a1       	ldd	r18, Y+33	; 0x21
    5844:	3a a1       	ldd	r19, Y+34	; 0x22
    5846:	22 0f       	add	r18, r18
    5848:	33 1f       	adc	r19, r19
    584a:	22 95       	swap	r18
    584c:	32 95       	swap	r19
    584e:	30 7f       	andi	r19, 0xF0	; 240
    5850:	32 27       	eor	r19, r18
    5852:	20 7f       	andi	r18, 0xF0	; 240
    5854:	32 27       	eor	r19, r18
    5856:	82 0f       	add	r24, r18
    5858:	93 1f       	adc	r25, r19
    585a:	b1 01       	movw	r22, r2
    585c:	0e 94 0f 3c 	call	0x781e	; 0x781e <__udivmodhi4>
    5860:	86 1a       	sub	r8, r22
    5862:	97 0a       	sbc	r9, r23
    5864:	a1 08       	sbc	r10, r1
    5866:	b1 08       	sbc	r11, r1
    5868:	98 a1       	ldd	r25, Y+32	; 0x20
    586a:	29 2f       	mov	r18, r25
    586c:	30 e0       	ldi	r19, 0x00	; 0
    586e:	40 e0       	ldi	r20, 0x00	; 0
    5870:	50 e0       	ldi	r21, 0x00	; 0
    5872:	c5 01       	movw	r24, r10
    5874:	b4 01       	movw	r22, r8
    5876:	0e 94 23 3c 	call	0x7846	; 0x7846 <__udivmodsi4>
    587a:	49 01       	movw	r8, r18
    587c:	5a 01       	movw	r10, r20
    587e:	25 3f       	cpi	r18, 0xF5	; 245
    5880:	af e0       	ldi	r26, 0x0F	; 15
    5882:	3a 07       	cpc	r19, r26
    5884:	41 05       	cpc	r20, r1
    5886:	51 05       	cpc	r21, r1
    5888:	08 f4       	brcc	.+2      	; 0x588c <fat_open+0x1b8>
    588a:	8a cf       	rjmp	.-236    	; 0x57a0 <fat_open+0xcc>
    588c:	25 3f       	cpi	r18, 0xF5	; 245
    588e:	bf ef       	ldi	r27, 0xFF	; 255
    5890:	3b 07       	cpc	r19, r27
    5892:	41 05       	cpc	r20, r1
    5894:	51 05       	cpc	r21, r1
    5896:	08 f4       	brcc	.+2      	; 0x589a <fat_open+0x1c6>
    5898:	a1 c0       	rjmp	.+322    	; 0x59dc <fat_open+0x308>
    589a:	8b e0       	ldi	r24, 0x0B	; 11
    589c:	d8 01       	movw	r26, r16
    589e:	18 96       	adiw	r26, 0x08	; 8
    58a0:	8c 93       	st	X, r24
    58a2:	88 e1       	ldi	r24, 0x18	; 24
    58a4:	eb e8       	ldi	r30, 0x8B	; 139
    58a6:	f2 e0       	ldi	r31, 0x02	; 2
    58a8:	df 01       	movw	r26, r30
    58aa:	1d 92       	st	X+, r1
    58ac:	8a 95       	dec	r24
    58ae:	e9 f7       	brne	.-6      	; 0x58aa <fat_open+0x1d6>
    58b0:	c1 01       	movw	r24, r2
    58b2:	a0 e0       	ldi	r26, 0x00	; 0
    58b4:	b0 e0       	ldi	r27, 0x00	; 0
    58b6:	8b a3       	std	Y+35, r24	; 0x23
    58b8:	9c a3       	std	Y+36, r25	; 0x24
    58ba:	ad a3       	std	Y+37, r26	; 0x25
    58bc:	be a3       	std	Y+38, r27	; 0x26
    58be:	a7 01       	movw	r20, r14
    58c0:	96 01       	movw	r18, r12
    58c2:	bc 01       	movw	r22, r24
    58c4:	cd 01       	movw	r24, r26
    58c6:	0e 94 ff 3b 	call	0x77fe	; 0x77fe <__mulsi3>
    58ca:	60 93 8b 02 	sts	0x028B, r22
    58ce:	70 93 8c 02 	sts	0x028C, r23
    58d2:	80 93 8d 02 	sts	0x028D, r24
    58d6:	90 93 8e 02 	sts	0x028E, r25
    58da:	91 01       	movw	r18, r2
    58dc:	ae 8d       	ldd	r26, Y+30	; 0x1e
    58de:	bf 8d       	ldd	r27, Y+31	; 0x1f
    58e0:	0e 94 6a 3c 	call	0x78d4	; 0x78d4 <__umulhisi3>
    58e4:	6b 01       	movw	r12, r22
    58e6:	7c 01       	movw	r14, r24
    58e8:	c4 0c       	add	r12, r4
    58ea:	d5 1c       	adc	r13, r5
    58ec:	e6 1c       	adc	r14, r6
    58ee:	f7 1c       	adc	r15, r7
    58f0:	c0 92 8f 02 	sts	0x028F, r12
    58f4:	d0 92 90 02 	sts	0x0290, r13
    58f8:	e0 92 91 02 	sts	0x0291, r14
    58fc:	f0 92 92 02 	sts	0x0292, r15
    5900:	c5 01       	movw	r24, r10
    5902:	b4 01       	movw	r22, r8
    5904:	6e 5f       	subi	r22, 0xFE	; 254
    5906:	7f 4f       	sbci	r23, 0xFF	; 255
    5908:	8f 4f       	sbci	r24, 0xFF	; 255
    590a:	9f 4f       	sbci	r25, 0xFF	; 255
    590c:	d8 01       	movw	r26, r16
    590e:	18 96       	adiw	r26, 0x08	; 8
    5910:	2c 91       	ld	r18, X
    5912:	26 30       	cpi	r18, 0x06	; 6
    5914:	09 f4       	brne	.+2      	; 0x5918 <fat_open+0x244>
    5916:	66 c0       	rjmp	.+204    	; 0x59e4 <fat_open+0x310>
    5918:	24 e0       	ldi	r18, 0x04	; 4
    591a:	30 e0       	ldi	r19, 0x00	; 0
    591c:	40 e0       	ldi	r20, 0x00	; 0
    591e:	50 e0       	ldi	r21, 0x00	; 0
    5920:	0e 94 ff 3b 	call	0x77fe	; 0x77fe <__mulsi3>
    5924:	60 93 93 02 	sts	0x0293, r22
    5928:	70 93 94 02 	sts	0x0294, r23
    592c:	80 93 95 02 	sts	0x0295, r24
    5930:	90 93 96 02 	sts	0x0296, r25
    5934:	30 92 98 02 	sts	0x0298, r3
    5938:	20 92 97 02 	sts	0x0297, r2
    593c:	b8 a1       	ldd	r27, Y+32	; 0x20
    593e:	b2 9d       	mul	r27, r2
    5940:	c0 01       	movw	r24, r0
    5942:	b3 9d       	mul	r27, r3
    5944:	90 0d       	add	r25, r0
    5946:	11 24       	eor	r1, r1
    5948:	90 93 9a 02 	sts	0x029A, r25
    594c:	80 93 99 02 	sts	0x0299, r24
    5950:	2a 8d       	ldd	r18, Y+26	; 0x1a
    5952:	3b 8d       	ldd	r19, Y+27	; 0x1b
    5954:	4c 8d       	ldd	r20, Y+28	; 0x1c
    5956:	5d 8d       	ldd	r21, Y+29	; 0x1d
    5958:	6b a1       	ldd	r22, Y+35	; 0x23
    595a:	7c a1       	ldd	r23, Y+36	; 0x24
    595c:	8d a1       	ldd	r24, Y+37	; 0x25
    595e:	9e a1       	ldd	r25, Y+38	; 0x26
    5960:	0e 94 ff 3b 	call	0x77fe	; 0x77fe <__mulsi3>
    5964:	6c 0d       	add	r22, r12
    5966:	7d 1d       	adc	r23, r13
    5968:	8e 1d       	adc	r24, r14
    596a:	9f 1d       	adc	r25, r15
    596c:	60 93 9f 02 	sts	0x029F, r22
    5970:	70 93 a0 02 	sts	0x02A0, r23
    5974:	80 93 a1 02 	sts	0x02A1, r24
    5978:	90 93 a2 02 	sts	0x02A2, r25
    597c:	e9 a1       	ldd	r30, Y+33	; 0x21
    597e:	fa a1       	ldd	r31, Y+34	; 0x22
    5980:	8f 01       	movw	r16, r30
    5982:	20 e0       	ldi	r18, 0x00	; 0
    5984:	30 e0       	ldi	r19, 0x00	; 0
    5986:	00 0f       	add	r16, r16
    5988:	11 1f       	adc	r17, r17
    598a:	22 1f       	adc	r18, r18
    598c:	33 1f       	adc	r19, r19
    598e:	00 0f       	add	r16, r16
    5990:	11 1f       	adc	r17, r17
    5992:	22 1f       	adc	r18, r18
    5994:	33 1f       	adc	r19, r19
    5996:	00 0f       	add	r16, r16
    5998:	11 1f       	adc	r17, r17
    599a:	22 1f       	adc	r18, r18
    599c:	33 1f       	adc	r19, r19
    599e:	00 0f       	add	r16, r16
    59a0:	11 1f       	adc	r17, r17
    59a2:	22 1f       	adc	r18, r18
    59a4:	33 1f       	adc	r19, r19
    59a6:	00 0f       	add	r16, r16
    59a8:	11 1f       	adc	r17, r17
    59aa:	22 1f       	adc	r18, r18
    59ac:	33 1f       	adc	r19, r19
    59ae:	06 0f       	add	r16, r22
    59b0:	17 1f       	adc	r17, r23
    59b2:	28 1f       	adc	r18, r24
    59b4:	39 1f       	adc	r19, r25
    59b6:	00 93 9b 02 	sts	0x029B, r16
    59ba:	10 93 9c 02 	sts	0x029C, r17
    59be:	20 93 9d 02 	sts	0x029D, r18
    59c2:	30 93 9e 02 	sts	0x029E, r19
    59c6:	89 e8       	ldi	r24, 0x89	; 137
    59c8:	92 e0       	ldi	r25, 0x02	; 2
    59ca:	a9 ce       	rjmp	.-686    	; 0x571e <fat_open+0x4a>
    59cc:	81 14       	cp	r8, r1
    59ce:	91 04       	cpc	r9, r1
    59d0:	09 f4       	brne	.+2      	; 0x59d4 <fat_open+0x300>
    59d2:	e6 ce       	rjmp	.-564    	; 0x57a0 <fat_open+0xcc>
    59d4:	64 01       	movw	r12, r8
    59d6:	e1 2c       	mov	r14, r1
    59d8:	f1 2c       	mov	r15, r1
    59da:	14 cf       	rjmp	.-472    	; 0x5804 <fat_open+0x130>
    59dc:	86 e0       	ldi	r24, 0x06	; 6
    59de:	f8 01       	movw	r30, r16
    59e0:	80 87       	std	Z+8, r24	; 0x08
    59e2:	5f cf       	rjmp	.-322    	; 0x58a2 <fat_open+0x1ce>
    59e4:	22 e0       	ldi	r18, 0x02	; 2
    59e6:	30 e0       	ldi	r19, 0x00	; 0
    59e8:	40 e0       	ldi	r20, 0x00	; 0
    59ea:	50 e0       	ldi	r21, 0x00	; 0
    59ec:	99 cf       	rjmp	.-206    	; 0x5920 <fat_open+0x24c>

000059ee <fat_close>:
    59ee:	00 97       	sbiw	r24, 0x00	; 0
    59f0:	19 f0       	breq	.+6      	; 0x59f8 <fat_close+0xa>
    59f2:	fc 01       	movw	r30, r24
    59f4:	11 82       	std	Z+1, r1	; 0x01
    59f6:	10 82       	st	Z, r1
    59f8:	08 95       	ret

000059fa <fat_open_file>:
    59fa:	cf 93       	push	r28
    59fc:	df 93       	push	r29
    59fe:	00 97       	sbiw	r24, 0x00	; 0
    5a00:	99 f0       	breq	.+38     	; 0x5a28 <fat_open_file+0x2e>
    5a02:	61 15       	cp	r22, r1
    5a04:	71 05       	cpc	r23, r1
    5a06:	81 f0       	breq	.+32     	; 0x5a28 <fat_open_file+0x2e>
    5a08:	fb 01       	movw	r30, r22
    5a0a:	20 a1       	ldd	r18, Z+32	; 0x20
    5a0c:	24 fd       	sbrc	r18, 4
    5a0e:	0c c0       	rjmp	.+24     	; 0x5a28 <fat_open_file+0x2e>
    5a10:	20 91 23 02 	lds	r18, 0x0223
    5a14:	30 91 24 02 	lds	r19, 0x0224
    5a18:	23 2b       	or	r18, r19
    5a1a:	59 f0       	breq	.+22     	; 0x5a32 <fat_open_file+0x38>
    5a1c:	20 91 56 02 	lds	r18, 0x0256
    5a20:	30 91 57 02 	lds	r19, 0x0257
    5a24:	23 2b       	or	r18, r19
    5a26:	e1 f0       	breq	.+56     	; 0x5a60 <fat_open_file+0x66>
    5a28:	80 e0       	ldi	r24, 0x00	; 0
    5a2a:	90 e0       	ldi	r25, 0x00	; 0
    5a2c:	df 91       	pop	r29
    5a2e:	cf 91       	pop	r28
    5a30:	08 95       	ret
    5a32:	c3 e2       	ldi	r28, 0x23	; 35
    5a34:	d2 e0       	ldi	r29, 0x02	; 2
    5a36:	de 01       	movw	r26, r28
    5a38:	12 96       	adiw	r26, 0x02	; 2
    5a3a:	2b e2       	ldi	r18, 0x2B	; 43
    5a3c:	fb 01       	movw	r30, r22
    5a3e:	01 90       	ld	r0, Z+
    5a40:	0d 92       	st	X+, r0
    5a42:	2a 95       	dec	r18
    5a44:	e1 f7       	brne	.-8      	; 0x5a3e <fat_open_file+0x44>
    5a46:	99 83       	std	Y+1, r25	; 0x01
    5a48:	88 83       	st	Y, r24
    5a4a:	1d a6       	std	Y+45, r1	; 0x2d
    5a4c:	1e a6       	std	Y+46, r1	; 0x2e
    5a4e:	1f a6       	std	Y+47, r1	; 0x2f
    5a50:	18 aa       	std	Y+48, r1	; 0x30
    5a52:	fb 01       	movw	r30, r22
    5a54:	81 a1       	ldd	r24, Z+33	; 0x21
    5a56:	92 a1       	ldd	r25, Z+34	; 0x22
    5a58:	9a ab       	std	Y+50, r25	; 0x32
    5a5a:	89 ab       	std	Y+49, r24	; 0x31
    5a5c:	ce 01       	movw	r24, r28
    5a5e:	e6 cf       	rjmp	.-52     	; 0x5a2c <fat_open_file+0x32>
    5a60:	c6 e5       	ldi	r28, 0x56	; 86
    5a62:	d2 e0       	ldi	r29, 0x02	; 2
    5a64:	e8 cf       	rjmp	.-48     	; 0x5a36 <fat_open_file+0x3c>

00005a66 <fat_close_file>:
    5a66:	00 97       	sbiw	r24, 0x00	; 0
    5a68:	19 f0       	breq	.+6      	; 0x5a70 <fat_close_file+0xa>
    5a6a:	fc 01       	movw	r30, r24
    5a6c:	11 82       	std	Z+1, r1	; 0x01
    5a6e:	10 82       	st	Z, r1
    5a70:	08 95       	ret

00005a72 <fat_read_file>:
    5a72:	2f 92       	push	r2
    5a74:	3f 92       	push	r3
    5a76:	4f 92       	push	r4
    5a78:	5f 92       	push	r5
    5a7a:	6f 92       	push	r6
    5a7c:	7f 92       	push	r7
    5a7e:	8f 92       	push	r8
    5a80:	9f 92       	push	r9
    5a82:	af 92       	push	r10
    5a84:	bf 92       	push	r11
    5a86:	cf 92       	push	r12
    5a88:	df 92       	push	r13
    5a8a:	ef 92       	push	r14
    5a8c:	ff 92       	push	r15
    5a8e:	0f 93       	push	r16
    5a90:	1f 93       	push	r17
    5a92:	cf 93       	push	r28
    5a94:	df 93       	push	r29
    5a96:	00 d0       	rcall	.+0      	; 0x5a98 <fat_read_file+0x26>
    5a98:	00 d0       	rcall	.+0      	; 0x5a9a <fat_read_file+0x28>
    5a9a:	cd b7       	in	r28, 0x3d	; 61
    5a9c:	de b7       	in	r29, 0x3e	; 62
    5a9e:	8c 01       	movw	r16, r24
    5aa0:	4b 01       	movw	r8, r22
    5aa2:	2a 01       	movw	r4, r20
    5aa4:	00 97       	sbiw	r24, 0x00	; 0
    5aa6:	09 f4       	brne	.+2      	; 0x5aaa <fat_read_file+0x38>
    5aa8:	05 c1       	rjmp	.+522    	; 0x5cb4 <fat_read_file+0x242>
    5aaa:	61 15       	cp	r22, r1
    5aac:	71 05       	cpc	r23, r1
    5aae:	09 f4       	brne	.+2      	; 0x5ab2 <fat_read_file+0x40>
    5ab0:	01 c1       	rjmp	.+514    	; 0x5cb4 <fat_read_file+0x242>
    5ab2:	41 15       	cp	r20, r1
    5ab4:	51 05       	cpc	r21, r1
    5ab6:	09 f4       	brne	.+2      	; 0x5aba <fat_read_file+0x48>
    5ab8:	fd c0       	rjmp	.+506    	; 0x5cb4 <fat_read_file+0x242>
    5aba:	dc 01       	movw	r26, r24
    5abc:	9d 96       	adiw	r26, 0x2d	; 45
    5abe:	ad 90       	ld	r10, X+
    5ac0:	bd 90       	ld	r11, X+
    5ac2:	cd 90       	ld	r12, X+
    5ac4:	dc 90       	ld	r13, X
    5ac6:	d0 97       	sbiw	r26, 0x30	; 48
    5ac8:	95 96       	adiw	r26, 0x25	; 37
    5aca:	8d 91       	ld	r24, X+
    5acc:	9d 91       	ld	r25, X+
    5ace:	0d 90       	ld	r0, X+
    5ad0:	bc 91       	ld	r27, X
    5ad2:	a0 2d       	mov	r26, r0
    5ad4:	b6 01       	movw	r22, r12
    5ad6:	a5 01       	movw	r20, r10
    5ad8:	44 0d       	add	r20, r4
    5ada:	55 1d       	adc	r21, r5
    5adc:	61 1d       	adc	r22, r1
    5ade:	71 1d       	adc	r23, r1
    5ae0:	15 01       	movw	r2, r10
    5ae2:	84 17       	cp	r24, r20
    5ae4:	95 07       	cpc	r25, r21
    5ae6:	a6 07       	cpc	r26, r22
    5ae8:	b7 07       	cpc	r27, r23
    5aea:	e8 f4       	brcc	.+58     	; 0x5b26 <fat_read_file+0xb4>
    5aec:	2c 01       	movw	r4, r24
    5aee:	4a 18       	sub	r4, r10
    5af0:	5b 08       	sbc	r5, r11
    5af2:	c9 f4       	brne	.+50     	; 0x5b26 <fat_read_file+0xb4>
    5af4:	80 e0       	ldi	r24, 0x00	; 0
    5af6:	90 e0       	ldi	r25, 0x00	; 0
    5af8:	0f 90       	pop	r0
    5afa:	0f 90       	pop	r0
    5afc:	0f 90       	pop	r0
    5afe:	0f 90       	pop	r0
    5b00:	df 91       	pop	r29
    5b02:	cf 91       	pop	r28
    5b04:	1f 91       	pop	r17
    5b06:	0f 91       	pop	r16
    5b08:	ff 90       	pop	r15
    5b0a:	ef 90       	pop	r14
    5b0c:	df 90       	pop	r13
    5b0e:	cf 90       	pop	r12
    5b10:	bf 90       	pop	r11
    5b12:	af 90       	pop	r10
    5b14:	9f 90       	pop	r9
    5b16:	8f 90       	pop	r8
    5b18:	7f 90       	pop	r7
    5b1a:	6f 90       	pop	r6
    5b1c:	5f 90       	pop	r5
    5b1e:	4f 90       	pop	r4
    5b20:	3f 90       	pop	r3
    5b22:	2f 90       	pop	r2
    5b24:	08 95       	ret
    5b26:	d8 01       	movw	r26, r16
    5b28:	ed 91       	ld	r30, X+
    5b2a:	fc 91       	ld	r31, X
    5b2c:	11 97       	sbiw	r26, 0x01	; 1
    5b2e:	60 88       	ldd	r6, Z+16	; 0x10
    5b30:	71 88       	ldd	r7, Z+17	; 0x11
    5b32:	d1 96       	adiw	r26, 0x31	; 49
    5b34:	ed 90       	ld	r14, X+
    5b36:	fc 90       	ld	r15, X
    5b38:	d2 97       	sbiw	r26, 0x32	; 50
    5b3a:	e1 14       	cp	r14, r1
    5b3c:	f1 04       	cpc	r15, r1
    5b3e:	09 f4       	brne	.+2      	; 0x5b42 <fat_read_file+0xd0>
    5b40:	6c c0       	rjmp	.+216    	; 0x5c1a <fat_read_file+0x1a8>
    5b42:	53 01       	movw	r10, r6
    5b44:	b1 e0       	ldi	r27, 0x01	; 1
    5b46:	ab 1a       	sub	r10, r27
    5b48:	b1 08       	sbc	r11, r1
    5b4a:	a2 20       	and	r10, r2
    5b4c:	b3 20       	and	r11, r3
    5b4e:	62 01       	movw	r12, r4
    5b50:	59 c0       	rjmp	.+178    	; 0x5c04 <fat_read_file+0x192>
    5b52:	a0 89       	ldd	r26, Z+16	; 0x10
    5b54:	b1 89       	ldd	r27, Z+17	; 0x11
    5b56:	97 01       	movw	r18, r14
    5b58:	22 50       	subi	r18, 0x02	; 2
    5b5a:	31 09       	sbc	r19, r1
    5b5c:	0e 94 6a 3c 	call	0x78d4	; 0x78d4 <__umulhisi3>
    5b60:	22 89       	ldd	r18, Z+18	; 0x12
    5b62:	33 89       	ldd	r19, Z+19	; 0x13
    5b64:	44 89       	ldd	r20, Z+20	; 0x14
    5b66:	55 89       	ldd	r21, Z+21	; 0x15
    5b68:	62 0f       	add	r22, r18
    5b6a:	73 1f       	adc	r23, r19
    5b6c:	84 1f       	adc	r24, r20
    5b6e:	95 1f       	adc	r25, r21
    5b70:	13 01       	movw	r2, r6
    5b72:	2a 18       	sub	r2, r10
    5b74:	3b 08       	sbc	r3, r11
    5b76:	c2 14       	cp	r12, r2
    5b78:	d3 04       	cpc	r13, r3
    5b7a:	08 f4       	brcc	.+2      	; 0x5b7e <fat_read_file+0x10c>
    5b7c:	16 01       	movw	r2, r12
    5b7e:	01 90       	ld	r0, Z+
    5b80:	f0 81       	ld	r31, Z
    5b82:	e0 2d       	mov	r30, r0
    5b84:	6a 0d       	add	r22, r10
    5b86:	7b 1d       	adc	r23, r11
    5b88:	81 1d       	adc	r24, r1
    5b8a:	91 1d       	adc	r25, r1
    5b8c:	01 90       	ld	r0, Z+
    5b8e:	f0 81       	ld	r31, Z
    5b90:	e0 2d       	mov	r30, r0
    5b92:	91 01       	movw	r18, r2
    5b94:	a4 01       	movw	r20, r8
    5b96:	09 95       	icall
    5b98:	88 23       	and	r24, r24
    5b9a:	09 f4       	brne	.+2      	; 0x5b9e <fat_read_file+0x12c>
    5b9c:	7b c0       	rjmp	.+246    	; 0x5c94 <fat_read_file+0x222>
    5b9e:	82 0c       	add	r8, r2
    5ba0:	93 1c       	adc	r9, r3
    5ba2:	c2 18       	sub	r12, r2
    5ba4:	d3 08       	sbc	r13, r3
    5ba6:	f8 01       	movw	r30, r16
    5ba8:	85 a5       	ldd	r24, Z+45	; 0x2d
    5baa:	96 a5       	ldd	r25, Z+46	; 0x2e
    5bac:	a7 a5       	ldd	r26, Z+47	; 0x2f
    5bae:	b0 a9       	ldd	r27, Z+48	; 0x30
    5bb0:	82 0d       	add	r24, r2
    5bb2:	93 1d       	adc	r25, r3
    5bb4:	a1 1d       	adc	r26, r1
    5bb6:	b1 1d       	adc	r27, r1
    5bb8:	85 a7       	std	Z+45, r24	; 0x2d
    5bba:	96 a7       	std	Z+46, r25	; 0x2e
    5bbc:	a7 a7       	std	Z+47, r26	; 0x2f
    5bbe:	b0 ab       	std	Z+48, r27	; 0x30
    5bc0:	2a 0c       	add	r2, r10
    5bc2:	3b 1c       	adc	r3, r11
    5bc4:	26 14       	cp	r2, r6
    5bc6:	37 04       	cpc	r3, r7
    5bc8:	98 f0       	brcs	.+38     	; 0x5bf0 <fat_read_file+0x17e>
    5bca:	80 81       	ld	r24, Z
    5bcc:	91 81       	ldd	r25, Z+1	; 0x01
    5bce:	00 97       	sbiw	r24, 0x00	; 0
    5bd0:	09 f4       	brne	.+2      	; 0x5bd4 <fat_read_file+0x162>
    5bd2:	5b c0       	rjmp	.+182    	; 0x5c8a <fat_read_file+0x218>
    5bd4:	b2 e0       	ldi	r27, 0x02	; 2
    5bd6:	eb 16       	cp	r14, r27
    5bd8:	f1 04       	cpc	r15, r1
    5bda:	08 f4       	brcc	.+2      	; 0x5bde <fat_read_file+0x16c>
    5bdc:	56 c0       	rjmp	.+172    	; 0x5c8a <fat_read_file+0x218>
    5bde:	b7 01       	movw	r22, r14
    5be0:	0e 94 30 2b 	call	0x5660	; 0x5660 <fat_get_next_cluster.part.0>
    5be4:	7c 01       	movw	r14, r24
    5be6:	00 97       	sbiw	r24, 0x00	; 0
    5be8:	09 f4       	brne	.+2      	; 0x5bec <fat_read_file+0x17a>
    5bea:	4f c0       	rjmp	.+158    	; 0x5c8a <fat_read_file+0x218>
    5bec:	a1 2c       	mov	r10, r1
    5bee:	b1 2c       	mov	r11, r1
    5bf0:	f8 01       	movw	r30, r16
    5bf2:	f2 aa       	std	Z+50, r15	; 0x32
    5bf4:	e1 aa       	std	Z+49, r14	; 0x31
    5bf6:	c1 14       	cp	r12, r1
    5bf8:	d1 04       	cpc	r13, r1
    5bfa:	09 f4       	brne	.+2      	; 0x5bfe <fat_read_file+0x18c>
    5bfc:	5e c0       	rjmp	.+188    	; 0x5cba <fat_read_file+0x248>
    5bfe:	01 90       	ld	r0, Z+
    5c00:	f0 81       	ld	r31, Z
    5c02:	e0 2d       	mov	r30, r0
    5c04:	30 97       	sbiw	r30, 0x00	; 0
    5c06:	29 f0       	breq	.+10     	; 0x5c12 <fat_read_file+0x1a0>
    5c08:	22 e0       	ldi	r18, 0x02	; 2
    5c0a:	e2 16       	cp	r14, r18
    5c0c:	f1 04       	cpc	r15, r1
    5c0e:	08 f0       	brcs	.+2      	; 0x5c12 <fat_read_file+0x1a0>
    5c10:	a0 cf       	rjmp	.-192    	; 0x5b52 <fat_read_file+0xe0>
    5c12:	60 e0       	ldi	r22, 0x00	; 0
    5c14:	70 e0       	ldi	r23, 0x00	; 0
    5c16:	cb 01       	movw	r24, r22
    5c18:	ab cf       	rjmp	.-170    	; 0x5b70 <fat_read_file+0xfe>
    5c1a:	93 96       	adiw	r26, 0x23	; 35
    5c1c:	ed 90       	ld	r14, X+
    5c1e:	fc 90       	ld	r15, X
    5c20:	94 97       	sbiw	r26, 0x24	; 36
    5c22:	e1 14       	cp	r14, r1
    5c24:	f1 04       	cpc	r15, r1
    5c26:	d1 f1       	breq	.+116    	; 0x5c9c <fat_read_file+0x22a>
    5c28:	a1 14       	cp	r10, r1
    5c2a:	b1 04       	cpc	r11, r1
    5c2c:	c1 04       	cpc	r12, r1
    5c2e:	d1 04       	cpc	r13, r1
    5c30:	09 f4       	brne	.+2      	; 0x5c34 <fat_read_file+0x1c2>
    5c32:	87 cf       	rjmp	.-242    	; 0x5b42 <fat_read_file+0xd0>
    5c34:	93 01       	movw	r18, r6
    5c36:	40 e0       	ldi	r20, 0x00	; 0
    5c38:	50 e0       	ldi	r21, 0x00	; 0
    5c3a:	a2 16       	cp	r10, r18
    5c3c:	b3 06       	cpc	r11, r19
    5c3e:	c4 06       	cpc	r12, r20
    5c40:	d5 06       	cpc	r13, r21
    5c42:	08 f4       	brcc	.+2      	; 0x5c46 <fat_read_file+0x1d4>
    5c44:	7e cf       	rjmp	.-260    	; 0x5b42 <fat_read_file+0xd0>
    5c46:	a2 1a       	sub	r10, r18
    5c48:	b3 0a       	sbc	r11, r19
    5c4a:	c4 0a       	sbc	r12, r20
    5c4c:	d5 0a       	sbc	r13, r21
    5c4e:	30 97       	sbiw	r30, 0x00	; 0
    5c50:	89 f1       	breq	.+98     	; 0x5cb4 <fat_read_file+0x242>
    5c52:	b2 e0       	ldi	r27, 0x02	; 2
    5c54:	eb 16       	cp	r14, r27
    5c56:	f1 04       	cpc	r15, r1
    5c58:	68 f1       	brcs	.+90     	; 0x5cb4 <fat_read_file+0x242>
    5c5a:	b7 01       	movw	r22, r14
    5c5c:	cf 01       	movw	r24, r30
    5c5e:	29 83       	std	Y+1, r18	; 0x01
    5c60:	3a 83       	std	Y+2, r19	; 0x02
    5c62:	4b 83       	std	Y+3, r20	; 0x03
    5c64:	5c 83       	std	Y+4, r21	; 0x04
    5c66:	0e 94 30 2b 	call	0x5660	; 0x5660 <fat_get_next_cluster.part.0>
    5c6a:	7c 01       	movw	r14, r24
    5c6c:	29 81       	ldd	r18, Y+1	; 0x01
    5c6e:	3a 81       	ldd	r19, Y+2	; 0x02
    5c70:	4b 81       	ldd	r20, Y+3	; 0x03
    5c72:	5c 81       	ldd	r21, Y+4	; 0x04
    5c74:	00 97       	sbiw	r24, 0x00	; 0
    5c76:	f1 f0       	breq	.+60     	; 0x5cb4 <fat_read_file+0x242>
    5c78:	d8 01       	movw	r26, r16
    5c7a:	ed 91       	ld	r30, X+
    5c7c:	fc 91       	ld	r31, X
    5c7e:	a2 16       	cp	r10, r18
    5c80:	b3 06       	cpc	r11, r19
    5c82:	c4 06       	cpc	r12, r20
    5c84:	d5 06       	cpc	r13, r21
    5c86:	f8 f6       	brcc	.-66     	; 0x5c46 <fat_read_file+0x1d4>
    5c88:	5c cf       	rjmp	.-328    	; 0x5b42 <fat_read_file+0xd0>
    5c8a:	d8 01       	movw	r26, r16
    5c8c:	d2 96       	adiw	r26, 0x32	; 50
    5c8e:	1c 92       	st	X, r1
    5c90:	1e 92       	st	-X, r1
    5c92:	d1 97       	sbiw	r26, 0x31	; 49
    5c94:	c2 01       	movw	r24, r4
    5c96:	8c 19       	sub	r24, r12
    5c98:	9d 09       	sbc	r25, r13
    5c9a:	2e cf       	rjmp	.-420    	; 0x5af8 <fat_read_file+0x86>
    5c9c:	81 e0       	ldi	r24, 0x01	; 1
    5c9e:	90 e0       	ldi	r25, 0x00	; 0
    5ca0:	ab 28       	or	r10, r11
    5ca2:	ac 28       	or	r10, r12
    5ca4:	ad 28       	or	r10, r13
    5ca6:	11 f4       	brne	.+4      	; 0x5cac <fat_read_file+0x23a>
    5ca8:	80 e0       	ldi	r24, 0x00	; 0
    5caa:	90 e0       	ldi	r25, 0x00	; 0
    5cac:	91 95       	neg	r25
    5cae:	81 95       	neg	r24
    5cb0:	91 09       	sbc	r25, r1
    5cb2:	22 cf       	rjmp	.-444    	; 0x5af8 <fat_read_file+0x86>
    5cb4:	8f ef       	ldi	r24, 0xFF	; 255
    5cb6:	9f ef       	ldi	r25, 0xFF	; 255
    5cb8:	1f cf       	rjmp	.-450    	; 0x5af8 <fat_read_file+0x86>
    5cba:	c2 01       	movw	r24, r4
    5cbc:	1d cf       	rjmp	.-454    	; 0x5af8 <fat_read_file+0x86>

00005cbe <fat_open_dir>:
    5cbe:	cf 93       	push	r28
    5cc0:	df 93       	push	r29
    5cc2:	00 97       	sbiw	r24, 0x00	; 0
    5cc4:	91 f0       	breq	.+36     	; 0x5cea <fat_open_dir+0x2c>
    5cc6:	61 15       	cp	r22, r1
    5cc8:	71 05       	cpc	r23, r1
    5cca:	79 f0       	breq	.+30     	; 0x5cea <fat_open_dir+0x2c>
    5ccc:	fb 01       	movw	r30, r22
    5cce:	20 a1       	ldd	r18, Z+32	; 0x20
    5cd0:	24 ff       	sbrs	r18, 4
    5cd2:	0b c0       	rjmp	.+22     	; 0x5cea <fat_open_dir+0x2c>
    5cd4:	c0 e9       	ldi	r28, 0x90	; 144
    5cd6:	d1 e0       	ldi	r29, 0x01	; 1
    5cd8:	28 81       	ld	r18, Y
    5cda:	39 81       	ldd	r19, Y+1	; 0x01
    5cdc:	23 2b       	or	r18, r19
    5cde:	51 f0       	breq	.+20     	; 0x5cf4 <fat_open_dir+0x36>
    5ce0:	e1 96       	adiw	r28, 0x31	; 49
    5ce2:	f2 e0       	ldi	r31, 0x02	; 2
    5ce4:	c3 32       	cpi	r28, 0x23	; 35
    5ce6:	df 07       	cpc	r29, r31
    5ce8:	b9 f7       	brne	.-18     	; 0x5cd8 <fat_open_dir+0x1a>
    5cea:	80 e0       	ldi	r24, 0x00	; 0
    5cec:	90 e0       	ldi	r25, 0x00	; 0
    5cee:	df 91       	pop	r29
    5cf0:	cf 91       	pop	r28
    5cf2:	08 95       	ret
    5cf4:	de 01       	movw	r26, r28
    5cf6:	12 96       	adiw	r26, 0x02	; 2
    5cf8:	2b e2       	ldi	r18, 0x2B	; 43
    5cfa:	fb 01       	movw	r30, r22
    5cfc:	01 90       	ld	r0, Z+
    5cfe:	0d 92       	st	X+, r0
    5d00:	2a 95       	dec	r18
    5d02:	e1 f7       	brne	.-8      	; 0x5cfc <fat_open_dir+0x3e>
    5d04:	99 83       	std	Y+1, r25	; 0x01
    5d06:	88 83       	st	Y, r24
    5d08:	fb 01       	movw	r30, r22
    5d0a:	81 a1       	ldd	r24, Z+33	; 0x21
    5d0c:	92 a1       	ldd	r25, Z+34	; 0x22
    5d0e:	9e a7       	std	Y+46, r25	; 0x2e
    5d10:	8d a7       	std	Y+45, r24	; 0x2d
    5d12:	18 aa       	std	Y+48, r1	; 0x30
    5d14:	1f a6       	std	Y+47, r1	; 0x2f
    5d16:	ce 01       	movw	r24, r28
    5d18:	df 91       	pop	r29
    5d1a:	cf 91       	pop	r28
    5d1c:	08 95       	ret

00005d1e <fat_close_dir>:
    5d1e:	00 97       	sbiw	r24, 0x00	; 0
    5d20:	19 f0       	breq	.+6      	; 0x5d28 <fat_close_dir+0xa>
    5d22:	fc 01       	movw	r30, r24
    5d24:	11 82       	std	Z+1, r1	; 0x01
    5d26:	10 82       	st	Z, r1
    5d28:	08 95       	ret

00005d2a <fat_read_dir>:
    5d2a:	3f 92       	push	r3
    5d2c:	4f 92       	push	r4
    5d2e:	5f 92       	push	r5
    5d30:	6f 92       	push	r6
    5d32:	7f 92       	push	r7
    5d34:	8f 92       	push	r8
    5d36:	9f 92       	push	r9
    5d38:	af 92       	push	r10
    5d3a:	bf 92       	push	r11
    5d3c:	cf 92       	push	r12
    5d3e:	df 92       	push	r13
    5d40:	ef 92       	push	r14
    5d42:	ff 92       	push	r15
    5d44:	0f 93       	push	r16
    5d46:	1f 93       	push	r17
    5d48:	cf 93       	push	r28
    5d4a:	df 93       	push	r29
    5d4c:	cd b7       	in	r28, 0x3d	; 61
    5d4e:	de b7       	in	r29, 0x3e	; 62
    5d50:	ab 97       	sbiw	r28, 0x2b	; 43
    5d52:	0f b6       	in	r0, 0x3f	; 63
    5d54:	f8 94       	cli
    5d56:	de bf       	out	0x3e, r29	; 62
    5d58:	0f be       	out	0x3f, r0	; 63
    5d5a:	cd bf       	out	0x3d, r28	; 61
    5d5c:	99 a7       	std	Y+41, r25	; 0x29
    5d5e:	88 a7       	std	Y+40, r24	; 0x28
    5d60:	89 2b       	or	r24, r25
    5d62:	11 f1       	breq	.+68     	; 0x5da8 <fat_read_dir+0x7e>
    5d64:	61 15       	cp	r22, r1
    5d66:	71 05       	cpc	r23, r1
    5d68:	f9 f0       	breq	.+62     	; 0x5da8 <fat_read_dir+0x7e>
    5d6a:	a8 a5       	ldd	r26, Y+40	; 0x28
    5d6c:	b9 a5       	ldd	r27, Y+41	; 0x29
    5d6e:	4d 90       	ld	r4, X+
    5d70:	5c 90       	ld	r5, X
    5d72:	11 97       	sbiw	r26, 0x01	; 1
    5d74:	f2 01       	movw	r30, r4
    5d76:	80 88       	ldd	r8, Z+16	; 0x10
    5d78:	91 88       	ldd	r9, Z+17	; 0x11
    5d7a:	9d 96       	adiw	r26, 0x2d	; 45
    5d7c:	6d 90       	ld	r6, X+
    5d7e:	7c 90       	ld	r7, X
    5d80:	9e 97       	sbiw	r26, 0x2e	; 46
    5d82:	9f 96       	adiw	r26, 0x2f	; 47
    5d84:	ad 90       	ld	r10, X+
    5d86:	bc 90       	ld	r11, X
    5d88:	d0 97       	sbiw	r26, 0x30	; 48
    5d8a:	a8 14       	cp	r10, r8
    5d8c:	b9 04       	cpc	r11, r9
    5d8e:	30 f1       	brcs	.+76     	; 0x5ddc <fat_read_dir+0xb2>
    5d90:	93 96       	adiw	r26, 0x23	; 35
    5d92:	8d 91       	ld	r24, X+
    5d94:	9c 91       	ld	r25, X
    5d96:	94 97       	sbiw	r26, 0x24	; 36
    5d98:	9e 96       	adiw	r26, 0x2e	; 46
    5d9a:	9c 93       	st	X, r25
    5d9c:	8e 93       	st	-X, r24
    5d9e:	9d 97       	sbiw	r26, 0x2d	; 45
    5da0:	d0 96       	adiw	r26, 0x30	; 48
    5da2:	1c 92       	st	X, r1
    5da4:	1e 92       	st	-X, r1
    5da6:	9f 97       	sbiw	r26, 0x2f	; 47
    5da8:	31 2c       	mov	r3, r1
    5daa:	83 2d       	mov	r24, r3
    5dac:	ab 96       	adiw	r28, 0x2b	; 43
    5dae:	0f b6       	in	r0, 0x3f	; 63
    5db0:	f8 94       	cli
    5db2:	de bf       	out	0x3e, r29	; 62
    5db4:	0f be       	out	0x3f, r0	; 63
    5db6:	cd bf       	out	0x3d, r28	; 61
    5db8:	df 91       	pop	r29
    5dba:	cf 91       	pop	r28
    5dbc:	1f 91       	pop	r17
    5dbe:	0f 91       	pop	r16
    5dc0:	ff 90       	pop	r15
    5dc2:	ef 90       	pop	r14
    5dc4:	df 90       	pop	r13
    5dc6:	cf 90       	pop	r12
    5dc8:	bf 90       	pop	r11
    5dca:	af 90       	pop	r10
    5dcc:	9f 90       	pop	r9
    5dce:	8f 90       	pop	r8
    5dd0:	7f 90       	pop	r7
    5dd2:	6f 90       	pop	r6
    5dd4:	5f 90       	pop	r5
    5dd6:	4f 90       	pop	r4
    5dd8:	3f 90       	pop	r3
    5dda:	08 95       	ret
    5ddc:	9e 01       	movw	r18, r28
    5dde:	2f 5d       	subi	r18, 0xDF	; 223
    5de0:	3f 4f       	sbci	r19, 0xFF	; 255
    5de2:	3f a3       	std	Y+39, r19	; 0x27
    5de4:	2e a3       	std	Y+38, r18	; 0x26
    5de6:	85 e0       	ldi	r24, 0x05	; 5
    5de8:	d9 01       	movw	r26, r18
    5dea:	1d 92       	st	X+, r1
    5dec:	8a 95       	dec	r24
    5dee:	e9 f7       	brne	.-6      	; 0x5dea <fat_read_dir+0xc0>
    5df0:	8b e2       	ldi	r24, 0x2B	; 43
    5df2:	fb 01       	movw	r30, r22
    5df4:	11 92       	st	Z+, r1
    5df6:	8a 95       	dec	r24
    5df8:	e9 f7       	brne	.-6      	; 0x5df4 <fat_read_dir+0xca>
    5dfa:	7a a3       	std	Y+34, r23	; 0x22
    5dfc:	69 a3       	std	Y+33, r22	; 0x21
    5dfe:	61 14       	cp	r6, r1
    5e00:	71 04       	cpc	r7, r1
    5e02:	09 f4       	brne	.+2      	; 0x5e06 <fat_read_dir+0xdc>
    5e04:	5b c0       	rjmp	.+182    	; 0x5ebc <fat_read_dir+0x192>
    5e06:	31 2c       	mov	r3, r1
    5e08:	f3 01       	movw	r30, r6
    5e0a:	32 97       	sbiw	r30, 0x02	; 2
    5e0c:	fb a7       	std	Y+43, r31	; 0x2b
    5e0e:	ea a7       	std	Y+42, r30	; 0x2a
    5e10:	2b c0       	rjmp	.+86     	; 0x5e68 <fat_read_dir+0x13e>
    5e12:	f2 01       	movw	r30, r4
    5e14:	66 89       	ldd	r22, Z+22	; 0x16
    5e16:	77 89       	ldd	r23, Z+23	; 0x17
    5e18:	80 8d       	ldd	r24, Z+24	; 0x18
    5e1a:	91 8d       	ldd	r25, Z+25	; 0x19
    5e1c:	6c 0d       	add	r22, r12
    5e1e:	7d 1d       	adc	r23, r13
    5e20:	8e 1d       	adc	r24, r14
    5e22:	9f 1d       	adc	r25, r15
    5e24:	1c a2       	std	Y+36, r1	; 0x24
    5e26:	1b a2       	std	Y+35, r1	; 0x23
    5e28:	d2 01       	movw	r26, r4
    5e2a:	ed 91       	ld	r30, X+
    5e2c:	fc 91       	ld	r31, X
    5e2e:	02 80       	ldd	r0, Z+2	; 0x02
    5e30:	f3 81       	ldd	r31, Z+3	; 0x03
    5e32:	e0 2d       	mov	r30, r0
    5e34:	9e 01       	movw	r18, r28
    5e36:	2f 5d       	subi	r18, 0xDF	; 223
    5e38:	3f 4f       	sbci	r19, 0xFF	; 255
    5e3a:	69 01       	movw	r12, r18
    5e3c:	a9 e9       	ldi	r26, 0x99	; 153
    5e3e:	ea 2e       	mov	r14, r26
    5e40:	aa e2       	ldi	r26, 0x2A	; 42
    5e42:	fa 2e       	mov	r15, r26
    5e44:	20 e2       	ldi	r18, 0x20	; 32
    5e46:	30 e0       	ldi	r19, 0x00	; 0
    5e48:	ae 01       	movw	r20, r28
    5e4a:	4f 5f       	subi	r20, 0xFF	; 255
    5e4c:	5f 4f       	sbci	r21, 0xFF	; 255
    5e4e:	09 95       	icall
    5e50:	88 23       	and	r24, r24
    5e52:	09 f4       	brne	.+2      	; 0x5e56 <fat_read_dir+0x12c>
    5e54:	a9 cf       	rjmp	.-174    	; 0x5da8 <fat_read_dir+0x7e>
    5e56:	8b a1       	ldd	r24, Y+35	; 0x23
    5e58:	9c a1       	ldd	r25, Y+36	; 0x24
    5e5a:	a8 0e       	add	r10, r24
    5e5c:	b9 1e       	adc	r11, r25
    5e5e:	a8 14       	cp	r10, r8
    5e60:	b9 04       	cpc	r11, r9
    5e62:	08 f0       	brcs	.+2      	; 0x5e66 <fat_read_dir+0x13c>
    5e64:	45 c0       	rjmp	.+138    	; 0x5ef0 <fat_read_dir+0x1c6>
    5e66:	3d a0       	ldd	r3, Y+37	; 0x25
    5e68:	31 10       	cpse	r3, r1
    5e6a:	37 c0       	rjmp	.+110    	; 0x5eda <fat_read_dir+0x1b0>
    5e6c:	84 01       	movw	r16, r8
    5e6e:	0a 19       	sub	r16, r10
    5e70:	1b 09       	sbc	r17, r11
    5e72:	65 01       	movw	r12, r10
    5e74:	e1 2c       	mov	r14, r1
    5e76:	f1 2c       	mov	r15, r1
    5e78:	61 14       	cp	r6, r1
    5e7a:	71 04       	cpc	r7, r1
    5e7c:	51 f2       	breq	.-108    	; 0x5e12 <fat_read_dir+0xe8>
    5e7e:	41 14       	cp	r4, r1
    5e80:	51 04       	cpc	r5, r1
    5e82:	c1 f0       	breq	.+48     	; 0x5eb4 <fat_read_dir+0x18a>
    5e84:	f2 e0       	ldi	r31, 0x02	; 2
    5e86:	6f 16       	cp	r6, r31
    5e88:	71 04       	cpc	r7, r1
    5e8a:	a0 f0       	brcs	.+40     	; 0x5eb4 <fat_read_dir+0x18a>
    5e8c:	f2 01       	movw	r30, r4
    5e8e:	a0 89       	ldd	r26, Z+16	; 0x10
    5e90:	b1 89       	ldd	r27, Z+17	; 0x11
    5e92:	2a a5       	ldd	r18, Y+42	; 0x2a
    5e94:	3b a5       	ldd	r19, Y+43	; 0x2b
    5e96:	0e 94 6a 3c 	call	0x78d4	; 0x78d4 <__umulhisi3>
    5e9a:	22 89       	ldd	r18, Z+18	; 0x12
    5e9c:	33 89       	ldd	r19, Z+19	; 0x13
    5e9e:	44 89       	ldd	r20, Z+20	; 0x14
    5ea0:	55 89       	ldd	r21, Z+21	; 0x15
    5ea2:	62 0f       	add	r22, r18
    5ea4:	73 1f       	adc	r23, r19
    5ea6:	84 1f       	adc	r24, r20
    5ea8:	95 1f       	adc	r25, r21
    5eaa:	6c 0d       	add	r22, r12
    5eac:	7d 1d       	adc	r23, r13
    5eae:	8e 1d       	adc	r24, r14
    5eb0:	9f 1d       	adc	r25, r15
    5eb2:	b8 cf       	rjmp	.-144    	; 0x5e24 <fat_read_dir+0xfa>
    5eb4:	60 e0       	ldi	r22, 0x00	; 0
    5eb6:	70 e0       	ldi	r23, 0x00	; 0
    5eb8:	cb 01       	movw	r24, r22
    5eba:	f7 cf       	rjmp	.-18     	; 0x5eaa <fat_read_dir+0x180>
    5ebc:	d2 01       	movw	r26, r4
    5ebe:	52 96       	adiw	r26, 0x12	; 18
    5ec0:	8d 90       	ld	r8, X+
    5ec2:	9c 90       	ld	r9, X
    5ec4:	53 97       	sbiw	r26, 0x13	; 19
    5ec6:	56 96       	adiw	r26, 0x16	; 22
    5ec8:	8d 91       	ld	r24, X+
    5eca:	9c 91       	ld	r25, X
    5ecc:	57 97       	sbiw	r26, 0x17	; 23
    5ece:	88 1a       	sub	r8, r24
    5ed0:	99 0a       	sbc	r9, r25
    5ed2:	99 cf       	rjmp	.-206    	; 0x5e06 <fat_read_dir+0xdc>
    5ed4:	38 2e       	mov	r3, r24
    5ed6:	61 2c       	mov	r6, r1
    5ed8:	71 2c       	mov	r7, r1
    5eda:	a8 a5       	ldd	r26, Y+40	; 0x28
    5edc:	b9 a5       	ldd	r27, Y+41	; 0x29
    5ede:	9e 96       	adiw	r26, 0x2e	; 46
    5ee0:	7c 92       	st	X, r7
    5ee2:	6e 92       	st	-X, r6
    5ee4:	9d 97       	sbiw	r26, 0x2d	; 45
    5ee6:	d0 96       	adiw	r26, 0x30	; 48
    5ee8:	bc 92       	st	X, r11
    5eea:	ae 92       	st	-X, r10
    5eec:	9f 97       	sbiw	r26, 0x2f	; 47
    5eee:	5d cf       	rjmp	.-326    	; 0x5daa <fat_read_dir+0x80>
    5ef0:	41 14       	cp	r4, r1
    5ef2:	51 04       	cpc	r5, r1
    5ef4:	79 f0       	breq	.+30     	; 0x5f14 <fat_read_dir+0x1ea>
    5ef6:	32 e0       	ldi	r19, 0x02	; 2
    5ef8:	63 16       	cp	r6, r19
    5efa:	71 04       	cpc	r7, r1
    5efc:	58 f0       	brcs	.+22     	; 0x5f14 <fat_read_dir+0x1ea>
    5efe:	b3 01       	movw	r22, r6
    5f00:	c2 01       	movw	r24, r4
    5f02:	0e 94 30 2b 	call	0x5660	; 0x5660 <fat_get_next_cluster.part.0>
    5f06:	3c 01       	movw	r6, r24
    5f08:	00 97       	sbiw	r24, 0x00	; 0
    5f0a:	21 f0       	breq	.+8      	; 0x5f14 <fat_read_dir+0x1ea>
    5f0c:	3d a0       	ldd	r3, Y+37	; 0x25
    5f0e:	a1 2c       	mov	r10, r1
    5f10:	b1 2c       	mov	r11, r1
    5f12:	7a cf       	rjmp	.-268    	; 0x5e08 <fat_read_dir+0xde>
    5f14:	8d a1       	ldd	r24, Y+37	; 0x25
    5f16:	81 11       	cpse	r24, r1
    5f18:	dd cf       	rjmp	.-70     	; 0x5ed4 <fat_read_dir+0x1aa>
    5f1a:	a8 a5       	ldd	r26, Y+40	; 0x28
    5f1c:	b9 a5       	ldd	r27, Y+41	; 0x29
    5f1e:	93 96       	adiw	r26, 0x23	; 35
    5f20:	8d 91       	ld	r24, X+
    5f22:	9c 91       	ld	r25, X
    5f24:	94 97       	sbiw	r26, 0x24	; 36
    5f26:	9e 96       	adiw	r26, 0x2e	; 46
    5f28:	9c 93       	st	X, r25
    5f2a:	8e 93       	st	-X, r24
    5f2c:	9d 97       	sbiw	r26, 0x2d	; 45
    5f2e:	d0 96       	adiw	r26, 0x30	; 48
    5f30:	1c 92       	st	X, r1
    5f32:	1e 92       	st	-X, r1
    5f34:	9f 97       	sbiw	r26, 0x2f	; 47
    5f36:	39 cf       	rjmp	.-398    	; 0x5daa <fat_read_dir+0x80>

00005f38 <fat_get_dir_entry_of_path>:
    5f38:	8f 92       	push	r8
    5f3a:	9f 92       	push	r9
    5f3c:	af 92       	push	r10
    5f3e:	bf 92       	push	r11
    5f40:	cf 92       	push	r12
    5f42:	df 92       	push	r13
    5f44:	ef 92       	push	r14
    5f46:	ff 92       	push	r15
    5f48:	0f 93       	push	r16
    5f4a:	1f 93       	push	r17
    5f4c:	cf 93       	push	r28
    5f4e:	df 93       	push	r29
    5f50:	4c 01       	movw	r8, r24
    5f52:	6b 01       	movw	r12, r22
    5f54:	ea 01       	movw	r28, r20
    5f56:	00 97       	sbiw	r24, 0x00	; 0
    5f58:	09 f4       	brne	.+2      	; 0x5f5c <fat_get_dir_entry_of_path+0x24>
    5f5a:	5a c0       	rjmp	.+180    	; 0x6010 <fat_get_dir_entry_of_path+0xd8>
    5f5c:	61 15       	cp	r22, r1
    5f5e:	71 05       	cpc	r23, r1
    5f60:	09 f4       	brne	.+2      	; 0x5f64 <fat_get_dir_entry_of_path+0x2c>
    5f62:	56 c0       	rjmp	.+172    	; 0x6010 <fat_get_dir_entry_of_path+0xd8>
    5f64:	fb 01       	movw	r30, r22
    5f66:	80 81       	ld	r24, Z
    5f68:	88 23       	and	r24, r24
    5f6a:	09 f4       	brne	.+2      	; 0x5f6e <fat_get_dir_entry_of_path+0x36>
    5f6c:	51 c0       	rjmp	.+162    	; 0x6010 <fat_get_dir_entry_of_path+0xd8>
    5f6e:	20 97       	sbiw	r28, 0x00	; 0
    5f70:	09 f4       	brne	.+2      	; 0x5f74 <fat_get_dir_entry_of_path+0x3c>
    5f72:	4e c0       	rjmp	.+156    	; 0x6010 <fat_get_dir_entry_of_path+0xd8>
    5f74:	8f 32       	cpi	r24, 0x2F	; 47
    5f76:	09 f4       	brne	.+2      	; 0x5f7a <fat_get_dir_entry_of_path+0x42>
    5f78:	6b c0       	rjmp	.+214    	; 0x6050 <fat_get_dir_entry_of_path+0x118>
    5f7a:	8b e2       	ldi	r24, 0x2B	; 43
    5f7c:	fe 01       	movw	r30, r28
    5f7e:	11 92       	st	Z+, r1
    5f80:	8a 95       	dec	r24
    5f82:	e9 f7       	brne	.-6      	; 0x5f7e <fat_get_dir_entry_of_path+0x46>
    5f84:	80 e1       	ldi	r24, 0x10	; 16
    5f86:	88 a3       	std	Y+32, r24	; 0x20
    5f88:	f6 01       	movw	r30, r12
    5f8a:	80 81       	ld	r24, Z
    5f8c:	88 23       	and	r24, r24
    5f8e:	f1 f1       	breq	.+124    	; 0x600c <fat_get_dir_entry_of_path+0xd4>
    5f90:	be 01       	movw	r22, r28
    5f92:	c4 01       	movw	r24, r8
    5f94:	0e 94 5f 2e 	call	0x5cbe	; 0x5cbe <fat_open_dir>
    5f98:	8c 01       	movw	r16, r24
    5f9a:	00 97       	sbiw	r24, 0x00	; 0
    5f9c:	c9 f1       	breq	.+114    	; 0x6010 <fat_get_dir_entry_of_path+0xd8>
    5f9e:	6f e2       	ldi	r22, 0x2F	; 47
    5fa0:	70 e0       	ldi	r23, 0x00	; 0
    5fa2:	c6 01       	movw	r24, r12
    5fa4:	0e 94 fb 3c 	call	0x79f6	; 0x79f6 <strchr>
    5fa8:	00 97       	sbiw	r24, 0x00	; 0
    5faa:	09 f4       	brne	.+2      	; 0x5fae <fat_get_dir_entry_of_path+0x76>
    5fac:	45 c0       	rjmp	.+138    	; 0x6038 <fat_get_dir_entry_of_path+0x100>
    5fae:	e8 2e       	mov	r14, r24
    5fb0:	ec 18       	sub	r14, r12
    5fb2:	5c 01       	movw	r10, r24
    5fb4:	ff ef       	ldi	r31, 0xFF	; 255
    5fb6:	af 1a       	sub	r10, r31
    5fb8:	bf 0a       	sbc	r11, r31
    5fba:	f1 2c       	mov	r15, r1
    5fbc:	be 01       	movw	r22, r28
    5fbe:	c8 01       	movw	r24, r16
    5fc0:	0e 94 95 2e 	call	0x5d2a	; 0x5d2a <fat_read_dir>
    5fc4:	88 23       	and	r24, r24
    5fc6:	91 f1       	breq	.+100    	; 0x602c <fat_get_dir_entry_of_path+0xf4>
    5fc8:	fe 01       	movw	r30, r28
    5fca:	01 90       	ld	r0, Z+
    5fcc:	00 20       	and	r0, r0
    5fce:	e9 f7       	brne	.-6      	; 0x5fca <fat_get_dir_entry_of_path+0x92>
    5fd0:	31 97       	sbiw	r30, 0x01	; 1
    5fd2:	ec 1b       	sub	r30, r28
    5fd4:	fd 0b       	sbc	r31, r29
    5fd6:	ee 15       	cp	r30, r14
    5fd8:	ff 05       	cpc	r31, r15
    5fda:	81 f7       	brne	.-32     	; 0x5fbc <fat_get_dir_entry_of_path+0x84>
    5fdc:	a7 01       	movw	r20, r14
    5fde:	be 01       	movw	r22, r28
    5fe0:	c6 01       	movw	r24, r12
    5fe2:	0e 94 16 3d 	call	0x7a2c	; 0x7a2c <strncmp>
    5fe6:	89 2b       	or	r24, r25
    5fe8:	49 f7       	brne	.-46     	; 0x5fbc <fat_get_dir_entry_of_path+0x84>
    5fea:	f8 01       	movw	r30, r16
    5fec:	11 82       	std	Z+1, r1	; 0x01
    5fee:	10 82       	st	Z, r1
    5ff0:	f6 01       	movw	r30, r12
    5ff2:	ee 0d       	add	r30, r14
    5ff4:	ff 1d       	adc	r31, r15
    5ff6:	80 81       	ld	r24, Z
    5ff8:	88 23       	and	r24, r24
    5ffa:	41 f0       	breq	.+16     	; 0x600c <fat_get_dir_entry_of_path+0xd4>
    5ffc:	88 a1       	ldd	r24, Y+32	; 0x20
    5ffe:	84 ff       	sbrs	r24, 4
    6000:	07 c0       	rjmp	.+14     	; 0x6010 <fat_get_dir_entry_of_path+0xd8>
    6002:	65 01       	movw	r12, r10
    6004:	f6 01       	movw	r30, r12
    6006:	80 81       	ld	r24, Z
    6008:	81 11       	cpse	r24, r1
    600a:	c2 cf       	rjmp	.-124    	; 0x5f90 <fat_get_dir_entry_of_path+0x58>
    600c:	81 e0       	ldi	r24, 0x01	; 1
    600e:	01 c0       	rjmp	.+2      	; 0x6012 <fat_get_dir_entry_of_path+0xda>
    6010:	80 e0       	ldi	r24, 0x00	; 0
    6012:	df 91       	pop	r29
    6014:	cf 91       	pop	r28
    6016:	1f 91       	pop	r17
    6018:	0f 91       	pop	r16
    601a:	ff 90       	pop	r15
    601c:	ef 90       	pop	r14
    601e:	df 90       	pop	r13
    6020:	cf 90       	pop	r12
    6022:	bf 90       	pop	r11
    6024:	af 90       	pop	r10
    6026:	9f 90       	pop	r9
    6028:	8f 90       	pop	r8
    602a:	08 95       	ret
    602c:	f8 01       	movw	r30, r16
    602e:	11 82       	std	Z+1, r1	; 0x01
    6030:	10 82       	st	Z, r1
    6032:	56 01       	movw	r10, r12
    6034:	65 01       	movw	r12, r10
    6036:	e6 cf       	rjmp	.-52     	; 0x6004 <fat_get_dir_entry_of_path+0xcc>
    6038:	f6 01       	movw	r30, r12
    603a:	01 90       	ld	r0, Z+
    603c:	00 20       	and	r0, r0
    603e:	e9 f7       	brne	.-6      	; 0x603a <fat_get_dir_entry_of_path+0x102>
    6040:	31 97       	sbiw	r30, 0x01	; 1
    6042:	ec 19       	sub	r30, r12
    6044:	fd 09       	sbc	r31, r13
    6046:	ee 2e       	mov	r14, r30
    6048:	56 01       	movw	r10, r12
    604a:	ae 0e       	add	r10, r30
    604c:	b1 1c       	adc	r11, r1
    604e:	b5 cf       	rjmp	.-150    	; 0x5fba <fat_get_dir_entry_of_path+0x82>
    6050:	ff ef       	ldi	r31, 0xFF	; 255
    6052:	cf 1a       	sub	r12, r31
    6054:	df 0a       	sbc	r13, r31
    6056:	91 cf       	rjmp	.-222    	; 0x5f7a <fat_get_dir_entry_of_path+0x42>

00006058 <fat_reset_dir>:
    6058:	fc 01       	movw	r30, r24
    605a:	00 97       	sbiw	r24, 0x00	; 0
    605c:	41 f0       	breq	.+16     	; 0x606e <fat_reset_dir+0x16>
    605e:	83 a1       	ldd	r24, Z+35	; 0x23
    6060:	94 a1       	ldd	r25, Z+36	; 0x24
    6062:	96 a7       	std	Z+46, r25	; 0x2e
    6064:	85 a7       	std	Z+45, r24	; 0x2d
    6066:	10 aa       	std	Z+48, r1	; 0x30
    6068:	17 a6       	std	Z+47, r1	; 0x2f
    606a:	81 e0       	ldi	r24, 0x01	; 1
    606c:	08 95       	ret
    606e:	80 e0       	ldi	r24, 0x00	; 0
    6070:	08 95       	ret

00006072 <bad_sdcard>:
    6072:	cf 93       	push	r28
    6074:	df 93       	push	r29
    6076:	ec 01       	movw	r28, r24
    6078:	0e 94 85 3a 	call	0x750a	; 0x750a <cls>
    607c:	82 e0       	ldi	r24, 0x02	; 2
    607e:	0e 94 c0 35 	call	0x6b80	; 0x6b80 <select_font>
    6082:	ce 01       	movw	r24, r28
    6084:	0e 94 68 36 	call	0x6cd0	; 0x6cd0 <prt_pstr>
    6088:	df 91       	pop	r29
    608a:	cf 91       	pop	r28
    608c:	0c 94 e1 31 	jmp	0x63c2	; 0x63c2 <prompt_key>

00006090 <fs_mount>:
    6090:	0f 93       	push	r16
    6092:	18 9b       	sbis	0x03, 0	; 3
    6094:	03 c0       	rjmp	.+6      	; 0x609c <fs_mount+0xc>
    6096:	80 e0       	ldi	r24, 0x00	; 0
    6098:	0f 91       	pop	r16
    609a:	08 95       	ret
    609c:	00 e0       	ldi	r16, 0x00	; 0
    609e:	20 e0       	ldi	r18, 0x00	; 0
    60a0:	30 e0       	ldi	r19, 0x00	; 0
    60a2:	40 e0       	ldi	r20, 0x00	; 0
    60a4:	50 e0       	ldi	r21, 0x00	; 0
    60a6:	62 e9       	ldi	r22, 0x92	; 146
    60a8:	74 e3       	ldi	r23, 0x34	; 52
    60aa:	84 e0       	ldi	r24, 0x04	; 4
    60ac:	94 e3       	ldi	r25, 0x34	; 52
    60ae:	0e 94 7f 32 	call	0x64fe	; 0x64fe <partition_open>
    60b2:	90 93 a6 02 	sts	0x02A6, r25
    60b6:	80 93 a5 02 	sts	0x02A5, r24
    60ba:	00 97       	sbiw	r24, 0x00	; 0
    60bc:	59 f0       	breq	.+22     	; 0x60d4 <fs_mount+0x44>
    60be:	0e 94 6a 2b 	call	0x56d4	; 0x56d4 <fat_open>
    60c2:	90 93 ac 02 	sts	0x02AC, r25
    60c6:	80 93 ab 02 	sts	0x02AB, r24
    60ca:	89 2b       	or	r24, r25
    60cc:	d1 f0       	breq	.+52     	; 0x6102 <fs_mount+0x72>
    60ce:	81 e0       	ldi	r24, 0x01	; 1
    60d0:	0f 91       	pop	r16
    60d2:	08 95       	ret
    60d4:	0f ef       	ldi	r16, 0xFF	; 255
    60d6:	20 e0       	ldi	r18, 0x00	; 0
    60d8:	30 e0       	ldi	r19, 0x00	; 0
    60da:	40 e0       	ldi	r20, 0x00	; 0
    60dc:	50 e0       	ldi	r21, 0x00	; 0
    60de:	62 e9       	ldi	r22, 0x92	; 146
    60e0:	74 e3       	ldi	r23, 0x34	; 52
    60e2:	84 e0       	ldi	r24, 0x04	; 4
    60e4:	94 e3       	ldi	r25, 0x34	; 52
    60e6:	0e 94 7f 32 	call	0x64fe	; 0x64fe <partition_open>
    60ea:	90 93 a6 02 	sts	0x02A6, r25
    60ee:	80 93 a5 02 	sts	0x02A5, r24
    60f2:	00 97       	sbiw	r24, 0x00	; 0
    60f4:	21 f7       	brne	.-56     	; 0x60be <fs_mount+0x2e>
    60f6:	89 ec       	ldi	r24, 0xC9	; 201
    60f8:	9f e0       	ldi	r25, 0x0F	; 15
    60fa:	0e 94 39 30 	call	0x6072	; 0x6072 <bad_sdcard>
    60fe:	80 e0       	ldi	r24, 0x00	; 0
    6100:	cb cf       	rjmp	.-106    	; 0x6098 <fs_mount+0x8>
    6102:	83 eb       	ldi	r24, 0xB3	; 179
    6104:	9f e0       	ldi	r25, 0x0F	; 15
    6106:	0e 94 39 30 	call	0x6072	; 0x6072 <bad_sdcard>
    610a:	80 91 a5 02 	lds	r24, 0x02A5
    610e:	90 91 a6 02 	lds	r25, 0x02A6
    6112:	0e 94 0a 33 	call	0x6614	; 0x6614 <partition_close>
    6116:	80 e0       	ldi	r24, 0x00	; 0
    6118:	bf cf       	rjmp	.-130    	; 0x6098 <fs_mount+0x8>

0000611a <fs_umount>:
    611a:	80 91 a7 02 	lds	r24, 0x02A7
    611e:	90 91 a8 02 	lds	r25, 0x02A8
    6122:	0e 94 33 2d 	call	0x5a66	; 0x5a66 <fat_close_file>
    6126:	80 91 a9 02 	lds	r24, 0x02A9
    612a:	90 91 aa 02 	lds	r25, 0x02AA
    612e:	0e 94 8f 2e 	call	0x5d1e	; 0x5d1e <fat_close_dir>
    6132:	80 91 ab 02 	lds	r24, 0x02AB
    6136:	90 91 ac 02 	lds	r25, 0x02AC
    613a:	0e 94 f7 2c 	call	0x59ee	; 0x59ee <fat_close>
    613e:	80 91 a5 02 	lds	r24, 0x02A5
    6142:	90 91 a6 02 	lds	r25, 0x02A6
    6146:	0c 94 0a 33 	jmp	0x6614	; 0x6614 <partition_close>

0000614a <fs_open_dir>:
    614a:	cf 93       	push	r28
    614c:	df 93       	push	r29
    614e:	cd b7       	in	r28, 0x3d	; 61
    6150:	de b7       	in	r29, 0x3e	; 62
    6152:	ab 97       	sbiw	r28, 0x2b	; 43
    6154:	0f b6       	in	r0, 0x3f	; 63
    6156:	f8 94       	cli
    6158:	de bf       	out	0x3e, r29	; 62
    615a:	0f be       	out	0x3f, r0	; 63
    615c:	cd bf       	out	0x3d, r28	; 61
    615e:	ae 01       	movw	r20, r28
    6160:	4f 5f       	subi	r20, 0xFF	; 255
    6162:	5f 4f       	sbci	r21, 0xFF	; 255
    6164:	bc 01       	movw	r22, r24
    6166:	80 91 ab 02 	lds	r24, 0x02AB
    616a:	90 91 ac 02 	lds	r25, 0x02AC
    616e:	0e 94 9c 2f 	call	0x5f38	; 0x5f38 <fat_get_dir_entry_of_path>
    6172:	be 01       	movw	r22, r28
    6174:	6f 5f       	subi	r22, 0xFF	; 255
    6176:	7f 4f       	sbci	r23, 0xFF	; 255
    6178:	80 91 ab 02 	lds	r24, 0x02AB
    617c:	90 91 ac 02 	lds	r25, 0x02AC
    6180:	0e 94 5f 2e 	call	0x5cbe	; 0x5cbe <fat_open_dir>
    6184:	90 93 aa 02 	sts	0x02AA, r25
    6188:	80 93 a9 02 	sts	0x02A9, r24
    618c:	89 2b       	or	r24, r25
    618e:	51 f0       	breq	.+20     	; 0x61a4 <fs_open_dir+0x5a>
    6190:	81 e0       	ldi	r24, 0x01	; 1
    6192:	ab 96       	adiw	r28, 0x2b	; 43
    6194:	0f b6       	in	r0, 0x3f	; 63
    6196:	f8 94       	cli
    6198:	de bf       	out	0x3e, r29	; 62
    619a:	0f be       	out	0x3f, r0	; 63
    619c:	cd bf       	out	0x3d, r28	; 61
    619e:	df 91       	pop	r29
    61a0:	cf 91       	pop	r28
    61a2:	08 95       	ret
    61a4:	8e e9       	ldi	r24, 0x9E	; 158
    61a6:	9f e0       	ldi	r25, 0x0F	; 15
    61a8:	0e 94 39 30 	call	0x6072	; 0x6072 <bad_sdcard>
    61ac:	0e 94 8d 30 	call	0x611a	; 0x611a <fs_umount>
    61b0:	80 e0       	ldi	r24, 0x00	; 0
    61b2:	ef cf       	rjmp	.-34     	; 0x6192 <fs_open_dir+0x48>

000061b4 <fs_open_file>:
    61b4:	0f 93       	push	r16
    61b6:	1f 93       	push	r17
    61b8:	cf 93       	push	r28
    61ba:	df 93       	push	r29
    61bc:	cd b7       	in	r28, 0x3d	; 61
    61be:	de b7       	in	r29, 0x3e	; 62
    61c0:	ab 97       	sbiw	r28, 0x2b	; 43
    61c2:	0f b6       	in	r0, 0x3f	; 63
    61c4:	f8 94       	cli
    61c6:	de bf       	out	0x3e, r29	; 62
    61c8:	0f be       	out	0x3f, r0	; 63
    61ca:	cd bf       	out	0x3d, r28	; 61
    61cc:	8c 01       	movw	r16, r24
    61ce:	07 c0       	rjmp	.+14     	; 0x61de <fs_open_file+0x2a>
    61d0:	b8 01       	movw	r22, r16
    61d2:	ce 01       	movw	r24, r28
    61d4:	01 96       	adiw	r24, 0x01	; 1
    61d6:	0e 94 06 3d 	call	0x7a0c	; 0x7a0c <strcmp>
    61da:	89 2b       	or	r24, r25
    61dc:	b1 f0       	breq	.+44     	; 0x620a <fs_open_file+0x56>
    61de:	be 01       	movw	r22, r28
    61e0:	6f 5f       	subi	r22, 0xFF	; 255
    61e2:	7f 4f       	sbci	r23, 0xFF	; 255
    61e4:	80 91 a9 02 	lds	r24, 0x02A9
    61e8:	90 91 aa 02 	lds	r25, 0x02AA
    61ec:	0e 94 95 2e 	call	0x5d2a	; 0x5d2a <fat_read_dir>
    61f0:	81 11       	cpse	r24, r1
    61f2:	ee cf       	rjmp	.-36     	; 0x61d0 <fs_open_file+0x1c>
    61f4:	ab 96       	adiw	r28, 0x2b	; 43
    61f6:	0f b6       	in	r0, 0x3f	; 63
    61f8:	f8 94       	cli
    61fa:	de bf       	out	0x3e, r29	; 62
    61fc:	0f be       	out	0x3f, r0	; 63
    61fe:	cd bf       	out	0x3d, r28	; 61
    6200:	df 91       	pop	r29
    6202:	cf 91       	pop	r28
    6204:	1f 91       	pop	r17
    6206:	0f 91       	pop	r16
    6208:	08 95       	ret
    620a:	80 91 a9 02 	lds	r24, 0x02A9
    620e:	90 91 aa 02 	lds	r25, 0x02AA
    6212:	0e 94 2c 30 	call	0x6058	; 0x6058 <fat_reset_dir>
    6216:	be 01       	movw	r22, r28
    6218:	6f 5f       	subi	r22, 0xFF	; 255
    621a:	7f 4f       	sbci	r23, 0xFF	; 255
    621c:	80 91 ab 02 	lds	r24, 0x02AB
    6220:	90 91 ac 02 	lds	r25, 0x02AC
    6224:	0e 94 fd 2c 	call	0x59fa	; 0x59fa <fat_open_file>
    6228:	90 93 a8 02 	sts	0x02A8, r25
    622c:	80 93 a7 02 	sts	0x02A7, r24
    6230:	89 2b       	or	r24, r25
    6232:	11 f0       	breq	.+4      	; 0x6238 <fs_open_file+0x84>
    6234:	81 e0       	ldi	r24, 0x01	; 1
    6236:	de cf       	rjmp	.-68     	; 0x61f4 <fs_open_file+0x40>
    6238:	89 e8       	ldi	r24, 0x89	; 137
    623a:	9f e0       	ldi	r25, 0x0F	; 15
    623c:	0e 94 39 30 	call	0x6072	; 0x6072 <bad_sdcard>
    6240:	80 e0       	ldi	r24, 0x00	; 0
    6242:	d8 cf       	rjmp	.-80     	; 0x61f4 <fs_open_file+0x40>

00006244 <fs_load_file>:
    6244:	ef 92       	push	r14
    6246:	ff 92       	push	r15
    6248:	0f 93       	push	r16
    624a:	1f 93       	push	r17
    624c:	cf 93       	push	r28
    624e:	df 93       	push	r29
    6250:	cd b7       	in	r28, 0x3d	; 61
    6252:	de b7       	in	r29, 0x3e	; 62
    6254:	da 95       	dec	r29
    6256:	0f b6       	in	r0, 0x3f	; 63
    6258:	f8 94       	cli
    625a:	de bf       	out	0x3e, r29	; 62
    625c:	0f be       	out	0x3f, r0	; 63
    625e:	cd bf       	out	0x3d, r28	; 61
    6260:	ae 01       	movw	r20, r28
    6262:	4f 5f       	subi	r20, 0xFF	; 255
    6264:	5f 4f       	sbci	r21, 0xFF	; 255
    6266:	60 e2       	ldi	r22, 0x20	; 32
    6268:	70 e0       	ldi	r23, 0x00	; 0
    626a:	88 0f       	add	r24, r24
    626c:	99 1f       	adc	r25, r25
    626e:	82 95       	swap	r24
    6270:	92 95       	swap	r25
    6272:	90 7f       	andi	r25, 0xF0	; 240
    6274:	98 27       	eor	r25, r24
    6276:	80 7f       	andi	r24, 0xF0	; 240
    6278:	98 27       	eor	r25, r24
    627a:	0e 94 d8 37 	call	0x6fb0	; 0x6fb0 <sram_load_block>
    627e:	ce 01       	movw	r24, r28
    6280:	01 96       	adiw	r24, 0x01	; 1
    6282:	0e 94 da 30 	call	0x61b4	; 0x61b4 <fs_open_file>
    6286:	88 23       	and	r24, r24
    6288:	81 f1       	breq	.+96     	; 0x62ea <fs_load_file+0xa6>
    628a:	e1 2c       	mov	r14, r1
    628c:	f1 2c       	mov	r15, r1
    628e:	0a c0       	rjmp	.+20     	; 0x62a4 <fs_load_file+0x60>
    6290:	ae 01       	movw	r20, r28
    6292:	4f 5f       	subi	r20, 0xFF	; 255
    6294:	5f 4f       	sbci	r21, 0xFF	; 255
    6296:	b8 01       	movw	r22, r16
    6298:	c7 01       	movw	r24, r14
    629a:	9e 5f       	subi	r25, 0xFE	; 254
    629c:	0e 94 03 38 	call	0x7006	; 0x7006 <sram_store_block>
    62a0:	e0 0e       	add	r14, r16
    62a2:	f1 1e       	adc	r15, r17
    62a4:	40 e0       	ldi	r20, 0x00	; 0
    62a6:	51 e0       	ldi	r21, 0x01	; 1
    62a8:	be 01       	movw	r22, r28
    62aa:	6f 5f       	subi	r22, 0xFF	; 255
    62ac:	7f 4f       	sbci	r23, 0xFF	; 255
    62ae:	80 91 a7 02 	lds	r24, 0x02A7
    62b2:	90 91 a8 02 	lds	r25, 0x02A8
    62b6:	0e 94 39 2d 	call	0x5a72	; 0x5a72 <fat_read_file>
    62ba:	8c 01       	movw	r16, r24
    62bc:	18 16       	cp	r1, r24
    62be:	19 06       	cpc	r1, r25
    62c0:	3c f3       	brlt	.-50     	; 0x6290 <fs_load_file+0x4c>
    62c2:	80 91 a7 02 	lds	r24, 0x02A7
    62c6:	90 91 a8 02 	lds	r25, 0x02A8
    62ca:	0e 94 33 2d 	call	0x5a66	; 0x5a66 <fat_close_file>
    62ce:	8e 2d       	mov	r24, r14
    62d0:	d3 95       	inc	r29
    62d2:	0f b6       	in	r0, 0x3f	; 63
    62d4:	f8 94       	cli
    62d6:	de bf       	out	0x3e, r29	; 62
    62d8:	0f be       	out	0x3f, r0	; 63
    62da:	cd bf       	out	0x3d, r28	; 61
    62dc:	df 91       	pop	r29
    62de:	cf 91       	pop	r28
    62e0:	1f 91       	pop	r17
    62e2:	0f 91       	pop	r16
    62e4:	ff 90       	pop	r15
    62e6:	ef 90       	pop	r14
    62e8:	08 95       	ret
    62ea:	80 e0       	ldi	r24, 0x00	; 0
    62ec:	f1 cf       	rjmp	.-30     	; 0x62d0 <fs_load_file+0x8c>

000062ee <fs_read_dir>:
    62ee:	bc 01       	movw	r22, r24
    62f0:	80 91 a9 02 	lds	r24, 0x02A9
    62f4:	90 91 aa 02 	lds	r25, 0x02AA
    62f8:	0c 94 95 2e 	jmp	0x5d2a	; 0x5d2a <fat_read_dir>

000062fc <keypad_init>:
    62fc:	8a b1       	in	r24, 0x0a	; 10
    62fe:	8d 62       	ori	r24, 0x2D	; 45
    6300:	8a b9       	out	0x0a, r24	; 10
    6302:	8b b1       	in	r24, 0x0b	; 11
    6304:	8d 62       	ori	r24, 0x2D	; 45
    6306:	8b b9       	out	0x0b, r24	; 11
    6308:	88 b1       	in	r24, 0x08	; 8
    630a:	8c 63       	ori	r24, 0x3C	; 60
    630c:	88 b9       	out	0x08, r24	; 8
    630e:	8f ef       	ldi	r24, 0xFF	; 255
    6310:	9f ef       	ldi	r25, 0xFF	; 255
    6312:	90 93 48 08 	sts	0x0848, r25
    6316:	80 93 47 08 	sts	0x0847, r24
    631a:	08 95       	ret

0000631c <keypad_read>:
    631c:	40 e0       	ldi	r20, 0x00	; 0
    631e:	50 e0       	ldi	r21, 0x00	; 0
    6320:	a2 e0       	ldi	r26, 0x02	; 2
    6322:	8b b1       	in	r24, 0x0b	; 11
    6324:	fa 01       	movw	r30, r20
    6326:	e9 58       	subi	r30, 0x89	; 137
    6328:	f6 4e       	sbci	r31, 0xE6	; 230
    632a:	e4 91       	lpm	r30, Z
    632c:	e0 95       	com	r30
    632e:	e8 23       	and	r30, r24
    6330:	eb b9       	out	0x0b, r30	; 11
    6332:	20 e0       	ldi	r18, 0x00	; 0
    6334:	30 e0       	ldi	r19, 0x00	; 0
    6336:	96 b1       	in	r25, 0x06	; 6
    6338:	f9 01       	movw	r30, r18
    633a:	ed 58       	subi	r30, 0x8D	; 141
    633c:	f6 4e       	sbci	r31, 0xE6	; 230
    633e:	84 91       	lpm	r24, Z
    6340:	89 23       	and	r24, r25
    6342:	c1 f4       	brne	.+48     	; 0x6374 <keypad_read+0x58>
    6344:	a0 93 c6 02 	sts	0x02C6, r26
    6348:	80 e0       	ldi	r24, 0x00	; 0
    634a:	90 e0       	ldi	r25, 0x00	; 0
    634c:	60 91 c6 02 	lds	r22, 0x02C6
    6350:	66 23       	and	r22, r22
    6352:	69 f0       	breq	.+26     	; 0x636e <keypad_read+0x52>
    6354:	80 34       	cpi	r24, 0x40	; 64
    6356:	6f e1       	ldi	r22, 0x1F	; 31
    6358:	96 07       	cpc	r25, r22
    635a:	48 f4       	brcc	.+18     	; 0x636e <keypad_read+0x52>
    635c:	76 b1       	in	r23, 0x06	; 6
    635e:	64 91       	lpm	r22, Z
    6360:	67 23       	and	r22, r23
    6362:	c1 f4       	brne	.+48     	; 0x6394 <keypad_read+0x78>
    6364:	01 96       	adiw	r24, 0x01	; 1
    6366:	60 91 c6 02 	lds	r22, 0x02C6
    636a:	61 11       	cpse	r22, r1
    636c:	f3 cf       	rjmp	.-26     	; 0x6354 <keypad_read+0x38>
    636e:	80 34       	cpi	r24, 0x40	; 64
    6370:	9f 41       	sbci	r25, 0x1F	; 31
    6372:	91 f0       	breq	.+36     	; 0x6398 <keypad_read+0x7c>
    6374:	2f 5f       	subi	r18, 0xFF	; 255
    6376:	3f 4f       	sbci	r19, 0xFF	; 255
    6378:	24 30       	cpi	r18, 0x04	; 4
    637a:	31 05       	cpc	r19, r1
    637c:	e1 f6       	brne	.-72     	; 0x6336 <keypad_read+0x1a>
    637e:	8b b1       	in	r24, 0x0b	; 11
    6380:	8d 62       	ori	r24, 0x2D	; 45
    6382:	8b b9       	out	0x0b, r24	; 11
    6384:	4f 5f       	subi	r20, 0xFF	; 255
    6386:	5f 4f       	sbci	r21, 0xFF	; 255
    6388:	44 30       	cpi	r20, 0x04	; 4
    638a:	51 05       	cpc	r21, r1
    638c:	09 f0       	breq	.+2      	; 0x6390 <keypad_read+0x74>
    638e:	c9 cf       	rjmp	.-110    	; 0x6322 <keypad_read+0x6>
    6390:	8f ef       	ldi	r24, 0xFF	; 255
    6392:	08 95       	ret
    6394:	01 97       	sbiw	r24, 0x01	; 1
    6396:	da cf       	rjmp	.-76     	; 0x634c <keypad_read+0x30>
    6398:	fa 01       	movw	r30, r20
    639a:	ee 0f       	add	r30, r30
    639c:	ff 1f       	adc	r31, r31
    639e:	ee 0f       	add	r30, r30
    63a0:	ff 1f       	adc	r31, r31
    63a2:	e2 0f       	add	r30, r18
    63a4:	f3 1f       	adc	r31, r19
    63a6:	e5 58       	subi	r30, 0x85	; 133
    63a8:	f6 4e       	sbci	r31, 0xE6	; 230
    63aa:	84 91       	lpm	r24, Z
    63ac:	9b b1       	in	r25, 0x0b	; 11
    63ae:	9d 62       	ori	r25, 0x2D	; 45
    63b0:	9b b9       	out	0x0b, r25	; 11
    63b2:	8f 3f       	cpi	r24, 0xFF	; 255
    63b4:	39 f3       	breq	.-50     	; 0x6384 <keypad_read+0x68>
    63b6:	08 95       	ret

000063b8 <wait_key>:
    63b8:	0e 94 8e 31 	call	0x631c	; 0x631c <keypad_read>
    63bc:	8f 3f       	cpi	r24, 0xFF	; 255
    63be:	e1 f3       	breq	.-8      	; 0x63b8 <wait_key>
    63c0:	08 95       	ret

000063c2 <prompt_key>:
    63c2:	82 e0       	ldi	r24, 0x02	; 2
    63c4:	0e 94 c0 35 	call	0x6b80	; 0x6b80 <select_font>
    63c8:	0e 94 8e 31 	call	0x631c	; 0x631c <keypad_read>
    63cc:	8f 3f       	cpi	r24, 0xFF	; 255
    63ce:	e1 f7       	brne	.-8      	; 0x63c8 <prompt_key+0x6>
    63d0:	85 e6       	ldi	r24, 0x65	; 101
    63d2:	99 e1       	ldi	r25, 0x19	; 25
    63d4:	0e 94 68 36 	call	0x6cd0	; 0x6cd0 <prt_pstr>
    63d8:	0e 94 8e 31 	call	0x631c	; 0x631c <keypad_read>
    63dc:	8f 3f       	cpi	r24, 0xFF	; 255
    63de:	e1 f3       	breq	.-8      	; 0x63d8 <prompt_key+0x16>
    63e0:	0e 94 8e 31 	call	0x631c	; 0x631c <keypad_read>
    63e4:	8f 3f       	cpi	r24, 0xFF	; 255
    63e6:	41 f0       	breq	.+16     	; 0x63f8 <prompt_key+0x36>
    63e8:	64 e0       	ldi	r22, 0x04	; 4
    63ea:	90 e0       	ldi	r25, 0x00	; 0
    63ec:	0e 94 33 38 	call	0x7066	; 0x7066 <tone>
    63f0:	0e 94 8e 31 	call	0x631c	; 0x631c <keypad_read>
    63f4:	8f 3f       	cpi	r24, 0xFF	; 255
    63f6:	c1 f7       	brne	.-16     	; 0x63e8 <prompt_key+0x26>
    63f8:	08 95       	ret

000063fa <keypad_break>:
    63fa:	cf 93       	push	r28
    63fc:	5d 98       	cbi	0x0b, 5	; 11
    63fe:	00 00       	nop
    6400:	96 b1       	in	r25, 0x06	; 6
    6402:	98 72       	andi	r25, 0x28	; 40
    6404:	c1 e0       	ldi	r28, 0x01	; 1
    6406:	29 f0       	breq	.+10     	; 0x6412 <keypad_break+0x18>
    6408:	c0 e0       	ldi	r28, 0x00	; 0
    640a:	5d 9a       	sbi	0x0b, 5	; 11
    640c:	8c 2f       	mov	r24, r28
    640e:	cf 91       	pop	r28
    6410:	08 95       	ret
    6412:	86 b1       	in	r24, 0x06	; 6
    6414:	88 72       	andi	r24, 0x28	; 40
    6416:	c9 f7       	brne	.-14     	; 0x640a <keypad_break+0x10>
    6418:	41 e0       	ldi	r20, 0x01	; 1
    641a:	61 e0       	ldi	r22, 0x01	; 1
    641c:	8e e0       	ldi	r24, 0x0E	; 14
    641e:	0e 94 45 38 	call	0x708a	; 0x708a <key_tone>
    6422:	41 e0       	ldi	r20, 0x01	; 1
    6424:	61 e0       	ldi	r22, 0x01	; 1
    6426:	8f e0       	ldi	r24, 0x0F	; 15
    6428:	0e 94 45 38 	call	0x708a	; 0x708a <key_tone>
    642c:	96 b1       	in	r25, 0x06	; 6
    642e:	98 72       	andi	r25, 0x28	; 40
    6430:	99 f3       	breq	.-26     	; 0x6418 <keypad_break+0x1e>
    6432:	5d 9a       	sbi	0x0b, 5	; 11
    6434:	8c 2f       	mov	r24, r28
    6436:	cf 91       	pop	r28
    6438:	08 95       	ret

0000643a <key_down>:
    643a:	ef 92       	push	r14
    643c:	ff 92       	push	r15
    643e:	0f 93       	push	r16
    6440:	1f 93       	push	r17
    6442:	cf 93       	push	r28
    6444:	df 93       	push	r29
    6446:	2f ef       	ldi	r18, 0xFF	; 255
    6448:	3f ef       	ldi	r19, 0xFF	; 255
    644a:	30 93 48 08 	sts	0x0848, r19
    644e:	20 93 47 08 	sts	0x0847, r18
    6452:	c7 e7       	ldi	r28, 0x77	; 119
    6454:	d9 e1       	ldi	r29, 0x19	; 25
    6456:	a0 e0       	ldi	r26, 0x00	; 0
    6458:	b0 e0       	ldi	r27, 0x00	; 0
    645a:	ee 24       	eor	r14, r14
    645c:	e3 94       	inc	r14
    645e:	f1 2c       	mov	r15, r1
    6460:	2b b1       	in	r18, 0x0b	; 11
    6462:	fe 01       	movw	r30, r28
    6464:	94 91       	lpm	r25, Z
    6466:	90 95       	com	r25
    6468:	92 23       	and	r25, r18
    646a:	9b b9       	out	0x0b, r25	; 11
    646c:	20 e0       	ldi	r18, 0x00	; 0
    646e:	30 e0       	ldi	r19, 0x00	; 0
    6470:	8d 01       	movw	r16, r26
    6472:	05 58       	subi	r16, 0x85	; 133
    6474:	16 4e       	sbci	r17, 0xE6	; 230
    6476:	96 b1       	in	r25, 0x06	; 6
    6478:	f9 01       	movw	r30, r18
    647a:	ed 58       	subi	r30, 0x8D	; 141
    647c:	f6 4e       	sbci	r31, 0xE6	; 230
    647e:	e4 91       	lpm	r30, Z
    6480:	e9 23       	and	r30, r25
    6482:	b9 f4       	brne	.+46     	; 0x64b2 <key_down+0x78>
    6484:	f8 01       	movw	r30, r16
    6486:	e2 0f       	add	r30, r18
    6488:	f3 1f       	adc	r31, r19
    648a:	64 91       	lpm	r22, Z
    648c:	a7 01       	movw	r20, r14
    648e:	02 c0       	rjmp	.+4      	; 0x6494 <key_down+0x5a>
    6490:	44 0f       	add	r20, r20
    6492:	55 1f       	adc	r21, r21
    6494:	6a 95       	dec	r22
    6496:	e2 f7       	brpl	.-8      	; 0x6490 <key_down+0x56>
    6498:	ba 01       	movw	r22, r20
    649a:	60 95       	com	r22
    649c:	70 95       	com	r23
    649e:	40 91 47 08 	lds	r20, 0x0847
    64a2:	50 91 48 08 	lds	r21, 0x0848
    64a6:	46 23       	and	r20, r22
    64a8:	57 23       	and	r21, r23
    64aa:	50 93 48 08 	sts	0x0848, r21
    64ae:	40 93 47 08 	sts	0x0847, r20
    64b2:	2f 5f       	subi	r18, 0xFF	; 255
    64b4:	3f 4f       	sbci	r19, 0xFF	; 255
    64b6:	24 30       	cpi	r18, 0x04	; 4
    64b8:	31 05       	cpc	r19, r1
    64ba:	e9 f6       	brne	.-70     	; 0x6476 <key_down+0x3c>
    64bc:	9b b1       	in	r25, 0x0b	; 11
    64be:	9d 62       	ori	r25, 0x2D	; 45
    64c0:	9b b9       	out	0x0b, r25	; 11
    64c2:	21 96       	adiw	r28, 0x01	; 1
    64c4:	14 96       	adiw	r26, 0x04	; 4
    64c6:	a0 31       	cpi	r26, 0x10	; 16
    64c8:	b1 05       	cpc	r27, r1
    64ca:	09 f0       	breq	.+2      	; 0x64ce <key_down+0x94>
    64cc:	c9 cf       	rjmp	.-110    	; 0x6460 <key_down+0x26>
    64ce:	21 e0       	ldi	r18, 0x01	; 1
    64d0:	30 e0       	ldi	r19, 0x00	; 0
    64d2:	02 c0       	rjmp	.+4      	; 0x64d8 <key_down+0x9e>
    64d4:	22 0f       	add	r18, r18
    64d6:	33 1f       	adc	r19, r19
    64d8:	8a 95       	dec	r24
    64da:	e2 f7       	brpl	.-8      	; 0x64d4 <key_down+0x9a>
    64dc:	80 91 47 08 	lds	r24, 0x0847
    64e0:	90 91 48 08 	lds	r25, 0x0848
    64e4:	28 23       	and	r18, r24
    64e6:	39 23       	and	r19, r25
    64e8:	81 e0       	ldi	r24, 0x01	; 1
    64ea:	23 2b       	or	r18, r19
    64ec:	09 f0       	breq	.+2      	; 0x64f0 <key_down+0xb6>
    64ee:	80 e0       	ldi	r24, 0x00	; 0
    64f0:	df 91       	pop	r29
    64f2:	cf 91       	pop	r28
    64f4:	1f 91       	pop	r17
    64f6:	0f 91       	pop	r16
    64f8:	ff 90       	pop	r15
    64fa:	ef 90       	pop	r14
    64fc:	08 95       	ret

000064fe <partition_open>:
    64fe:	8f 92       	push	r8
    6500:	9f 92       	push	r9
    6502:	af 92       	push	r10
    6504:	bf 92       	push	r11
    6506:	cf 92       	push	r12
    6508:	df 92       	push	r13
    650a:	ef 92       	push	r14
    650c:	ff 92       	push	r15
    650e:	0f 93       	push	r16
    6510:	cf 93       	push	r28
    6512:	df 93       	push	r29
    6514:	cd b7       	in	r28, 0x3d	; 61
    6516:	de b7       	in	r29, 0x3e	; 62
    6518:	60 97       	sbiw	r28, 0x10	; 16
    651a:	0f b6       	in	r0, 0x3f	; 63
    651c:	f8 94       	cli
    651e:	de bf       	out	0x3e, r29	; 62
    6520:	0f be       	out	0x3f, r0	; 63
    6522:	cd bf       	out	0x3d, r28	; 61
    6524:	7c 01       	movw	r14, r24
    6526:	6b 01       	movw	r12, r22
    6528:	4a 01       	movw	r8, r20
    652a:	59 01       	movw	r10, r18
    652c:	00 97       	sbiw	r24, 0x00	; 0
    652e:	09 f1       	breq	.+66     	; 0x6572 <partition_open+0x74>
    6530:	61 15       	cp	r22, r1
    6532:	71 05       	cpc	r23, r1
    6534:	f1 f0       	breq	.+60     	; 0x6572 <partition_open+0x74>
    6536:	04 30       	cpi	r16, 0x04	; 4
    6538:	e4 f4       	brge	.+56     	; 0x6572 <partition_open+0x74>
    653a:	07 fd       	sbrc	r16, 7
    653c:	16 c0       	rjmp	.+44     	; 0x656a <partition_open+0x6c>
    653e:	80 e1       	ldi	r24, 0x10	; 16
    6540:	08 02       	muls	r16, r24
    6542:	b0 01       	movw	r22, r0
    6544:	11 24       	eor	r1, r1
    6546:	62 54       	subi	r22, 0x42	; 66
    6548:	7e 4f       	sbci	r23, 0xFE	; 254
    654a:	88 27       	eor	r24, r24
    654c:	77 fd       	sbrc	r23, 7
    654e:	80 95       	com	r24
    6550:	98 2f       	mov	r25, r24
    6552:	20 e1       	ldi	r18, 0x10	; 16
    6554:	30 e0       	ldi	r19, 0x00	; 0
    6556:	ae 01       	movw	r20, r28
    6558:	4f 5f       	subi	r20, 0xFF	; 255
    655a:	5f 4f       	sbci	r21, 0xFF	; 255
    655c:	f7 01       	movw	r30, r14
    655e:	09 95       	icall
    6560:	88 23       	and	r24, r24
    6562:	39 f0       	breq	.+14     	; 0x6572 <partition_open+0x74>
    6564:	8d 81       	ldd	r24, Y+5	; 0x05
    6566:	88 23       	and	r24, r24
    6568:	21 f0       	breq	.+8      	; 0x6572 <partition_open+0x74>
    656a:	80 91 b5 02 	lds	r24, 0x02B5
    656e:	88 23       	and	r24, r24
    6570:	a1 f0       	breq	.+40     	; 0x659a <partition_open+0x9c>
    6572:	80 e0       	ldi	r24, 0x00	; 0
    6574:	90 e0       	ldi	r25, 0x00	; 0
    6576:	60 96       	adiw	r28, 0x10	; 16
    6578:	0f b6       	in	r0, 0x3f	; 63
    657a:	f8 94       	cli
    657c:	de bf       	out	0x3e, r29	; 62
    657e:	0f be       	out	0x3f, r0	; 63
    6580:	cd bf       	out	0x3d, r28	; 61
    6582:	df 91       	pop	r29
    6584:	cf 91       	pop	r28
    6586:	0f 91       	pop	r16
    6588:	ff 90       	pop	r15
    658a:	ef 90       	pop	r14
    658c:	df 90       	pop	r13
    658e:	cf 90       	pop	r12
    6590:	bf 90       	pop	r11
    6592:	af 90       	pop	r10
    6594:	9f 90       	pop	r9
    6596:	8f 90       	pop	r8
    6598:	08 95       	ret
    659a:	ed ea       	ldi	r30, 0xAD	; 173
    659c:	f2 e0       	ldi	r31, 0x02	; 2
    659e:	81 e1       	ldi	r24, 0x11	; 17
    65a0:	df 01       	movw	r26, r30
    65a2:	1d 92       	st	X+, r1
    65a4:	8a 95       	dec	r24
    65a6:	e9 f7       	brne	.-6      	; 0x65a2 <partition_open+0xa4>
    65a8:	f0 92 ae 02 	sts	0x02AE, r15
    65ac:	e0 92 ad 02 	sts	0x02AD, r14
    65b0:	d0 92 b0 02 	sts	0x02B0, r13
    65b4:	c0 92 af 02 	sts	0x02AF, r12
    65b8:	90 92 b2 02 	sts	0x02B2, r9
    65bc:	80 92 b1 02 	sts	0x02B1, r8
    65c0:	b0 92 b4 02 	sts	0x02B4, r11
    65c4:	a0 92 b3 02 	sts	0x02B3, r10
    65c8:	07 fd       	sbrc	r16, 7
    65ca:	1e c0       	rjmp	.+60     	; 0x6608 <partition_open+0x10a>
    65cc:	8d 81       	ldd	r24, Y+5	; 0x05
    65ce:	80 93 b5 02 	sts	0x02B5, r24
    65d2:	ce 01       	movw	r24, r28
    65d4:	09 96       	adiw	r24, 0x09	; 9
    65d6:	0e 94 0b 23 	call	0x4616	; 0x4616 <read32>
    65da:	60 93 b6 02 	sts	0x02B6, r22
    65de:	70 93 b7 02 	sts	0x02B7, r23
    65e2:	80 93 b8 02 	sts	0x02B8, r24
    65e6:	90 93 b9 02 	sts	0x02B9, r25
    65ea:	ce 01       	movw	r24, r28
    65ec:	0d 96       	adiw	r24, 0x0d	; 13
    65ee:	0e 94 0b 23 	call	0x4616	; 0x4616 <read32>
    65f2:	60 93 ba 02 	sts	0x02BA, r22
    65f6:	70 93 bb 02 	sts	0x02BB, r23
    65fa:	80 93 bc 02 	sts	0x02BC, r24
    65fe:	90 93 bd 02 	sts	0x02BD, r25
    6602:	8d ea       	ldi	r24, 0xAD	; 173
    6604:	92 e0       	ldi	r25, 0x02	; 2
    6606:	b7 cf       	rjmp	.-146    	; 0x6576 <partition_open+0x78>
    6608:	8f ef       	ldi	r24, 0xFF	; 255
    660a:	80 93 b5 02 	sts	0x02B5, r24
    660e:	8d ea       	ldi	r24, 0xAD	; 173
    6610:	92 e0       	ldi	r25, 0x02	; 2
    6612:	b1 cf       	rjmp	.-158    	; 0x6576 <partition_open+0x78>

00006614 <partition_close>:
    6614:	00 97       	sbiw	r24, 0x00	; 0
    6616:	21 f0       	breq	.+8      	; 0x6620 <partition_close+0xc>
    6618:	fc 01       	movw	r30, r24
    661a:	10 86       	std	Z+8, r1	; 0x08
    661c:	81 e0       	ldi	r24, 0x01	; 1
    661e:	08 95       	ret
    6620:	80 e0       	ldi	r24, 0x00	; 0
    6622:	08 95       	ret

00006624 <sd_raw_send_command>:
    6624:	0f 93       	push	r16
    6626:	1f 93       	push	r17
    6628:	9f ef       	ldi	r25, 0xFF	; 255
    662a:	9e bd       	out	0x2e, r25	; 46
    662c:	0d b4       	in	r0, 0x2d	; 45
    662e:	07 fe       	sbrs	r0, 7
    6630:	fd cf       	rjmp	.-6      	; 0x662c <sd_raw_send_command+0x8>
    6632:	9d b5       	in	r25, 0x2d	; 45
    6634:	9f 77       	andi	r25, 0x7F	; 127
    6636:	9d bd       	out	0x2d, r25	; 45
    6638:	9e b5       	in	r25, 0x2e	; 46
    663a:	98 2f       	mov	r25, r24
    663c:	90 64       	ori	r25, 0x40	; 64
    663e:	9e bd       	out	0x2e, r25	; 46
    6640:	0d b4       	in	r0, 0x2d	; 45
    6642:	07 fe       	sbrs	r0, 7
    6644:	fd cf       	rjmp	.-6      	; 0x6640 <sd_raw_send_command+0x1c>
    6646:	9d b5       	in	r25, 0x2d	; 45
    6648:	9f 77       	andi	r25, 0x7F	; 127
    664a:	9d bd       	out	0x2d, r25	; 45
    664c:	07 2f       	mov	r16, r23
    664e:	11 27       	eor	r17, r17
    6650:	22 27       	eor	r18, r18
    6652:	33 27       	eor	r19, r19
    6654:	0e bd       	out	0x2e, r16	; 46
    6656:	0d b4       	in	r0, 0x2d	; 45
    6658:	07 fe       	sbrs	r0, 7
    665a:	fd cf       	rjmp	.-6      	; 0x6656 <sd_raw_send_command+0x32>
    665c:	9d b5       	in	r25, 0x2d	; 45
    665e:	9f 77       	andi	r25, 0x7F	; 127
    6660:	9d bd       	out	0x2d, r25	; 45
    6662:	8b 01       	movw	r16, r22
    6664:	22 27       	eor	r18, r18
    6666:	33 27       	eor	r19, r19
    6668:	0e bd       	out	0x2e, r16	; 46
    666a:	0d b4       	in	r0, 0x2d	; 45
    666c:	07 fe       	sbrs	r0, 7
    666e:	fd cf       	rjmp	.-6      	; 0x666a <sd_raw_send_command+0x46>
    6670:	9d b5       	in	r25, 0x2d	; 45
    6672:	9f 77       	andi	r25, 0x7F	; 127
    6674:	9d bd       	out	0x2d, r25	; 45
    6676:	05 2f       	mov	r16, r21
    6678:	16 2f       	mov	r17, r22
    667a:	27 2f       	mov	r18, r23
    667c:	33 27       	eor	r19, r19
    667e:	0e bd       	out	0x2e, r16	; 46
    6680:	0d b4       	in	r0, 0x2d	; 45
    6682:	07 fe       	sbrs	r0, 7
    6684:	fd cf       	rjmp	.-6      	; 0x6680 <sd_raw_send_command+0x5c>
    6686:	9d b5       	in	r25, 0x2d	; 45
    6688:	9f 77       	andi	r25, 0x7F	; 127
    668a:	9d bd       	out	0x2d, r25	; 45
    668c:	4e bd       	out	0x2e, r20	; 46
    668e:	0d b4       	in	r0, 0x2d	; 45
    6690:	07 fe       	sbrs	r0, 7
    6692:	fd cf       	rjmp	.-6      	; 0x668e <sd_raw_send_command+0x6a>
    6694:	9d b5       	in	r25, 0x2d	; 45
    6696:	9f 77       	andi	r25, 0x7F	; 127
    6698:	9d bd       	out	0x2d, r25	; 45
    669a:	88 23       	and	r24, r24
    669c:	31 f1       	breq	.+76     	; 0x66ea <sd_raw_send_command+0xc6>
    669e:	88 30       	cpi	r24, 0x08	; 8
    66a0:	c9 f4       	brne	.+50     	; 0x66d4 <sd_raw_send_command+0xb0>
    66a2:	87 e8       	ldi	r24, 0x87	; 135
    66a4:	8e bd       	out	0x2e, r24	; 46
    66a6:	0d b4       	in	r0, 0x2d	; 45
    66a8:	07 fe       	sbrs	r0, 7
    66aa:	fd cf       	rjmp	.-6      	; 0x66a6 <sd_raw_send_command+0x82>
    66ac:	8d b5       	in	r24, 0x2d	; 45
    66ae:	8f 77       	andi	r24, 0x7F	; 127
    66b0:	8d bd       	out	0x2d, r24	; 45
    66b2:	9a e0       	ldi	r25, 0x0A	; 10
    66b4:	2f ef       	ldi	r18, 0xFF	; 255
    66b6:	2e bd       	out	0x2e, r18	; 46
    66b8:	0d b4       	in	r0, 0x2d	; 45
    66ba:	07 fe       	sbrs	r0, 7
    66bc:	fd cf       	rjmp	.-6      	; 0x66b8 <sd_raw_send_command+0x94>
    66be:	8d b5       	in	r24, 0x2d	; 45
    66c0:	8f 77       	andi	r24, 0x7F	; 127
    66c2:	8d bd       	out	0x2d, r24	; 45
    66c4:	8e b5       	in	r24, 0x2e	; 46
    66c6:	8f 3f       	cpi	r24, 0xFF	; 255
    66c8:	11 f4       	brne	.+4      	; 0x66ce <sd_raw_send_command+0xaa>
    66ca:	91 50       	subi	r25, 0x01	; 1
    66cc:	a1 f7       	brne	.-24     	; 0x66b6 <sd_raw_send_command+0x92>
    66ce:	1f 91       	pop	r17
    66d0:	0f 91       	pop	r16
    66d2:	08 95       	ret
    66d4:	8f ef       	ldi	r24, 0xFF	; 255
    66d6:	8e bd       	out	0x2e, r24	; 46
    66d8:	0d b4       	in	r0, 0x2d	; 45
    66da:	07 fe       	sbrs	r0, 7
    66dc:	fd cf       	rjmp	.-6      	; 0x66d8 <sd_raw_send_command+0xb4>
    66de:	8d b5       	in	r24, 0x2d	; 45
    66e0:	8f 77       	andi	r24, 0x7F	; 127
    66e2:	8d bd       	out	0x2d, r24	; 45
    66e4:	9a e0       	ldi	r25, 0x0A	; 10
    66e6:	2f ef       	ldi	r18, 0xFF	; 255
    66e8:	e6 cf       	rjmp	.-52     	; 0x66b6 <sd_raw_send_command+0x92>
    66ea:	85 e9       	ldi	r24, 0x95	; 149
    66ec:	8e bd       	out	0x2e, r24	; 46
    66ee:	0d b4       	in	r0, 0x2d	; 45
    66f0:	07 fe       	sbrs	r0, 7
    66f2:	fd cf       	rjmp	.-6      	; 0x66ee <sd_raw_send_command+0xca>
    66f4:	8d b5       	in	r24, 0x2d	; 45
    66f6:	8f 77       	andi	r24, 0x7F	; 127
    66f8:	8d bd       	out	0x2d, r24	; 45
    66fa:	9a e0       	ldi	r25, 0x0A	; 10
    66fc:	2f ef       	ldi	r18, 0xFF	; 255
    66fe:	db cf       	rjmp	.-74     	; 0x66b6 <sd_raw_send_command+0x92>

00006700 <sd_raw_init>:
    6700:	1f 93       	push	r17
    6702:	cf 93       	push	r28
    6704:	df 93       	push	r29
    6706:	20 98       	cbi	0x04, 0	; 4
    6708:	28 9a       	sbi	0x05, 0	; 5
    670a:	23 9a       	sbi	0x04, 3	; 4
    670c:	25 9a       	sbi	0x04, 5	; 4
    670e:	21 9a       	sbi	0x04, 1	; 4
    6710:	24 98       	cbi	0x04, 4	; 4
    6712:	29 9a       	sbi	0x05, 1	; 5
    6714:	83 e5       	ldi	r24, 0x53	; 83
    6716:	8c bd       	out	0x2c, r24	; 44
    6718:	8d b5       	in	r24, 0x2d	; 45
    671a:	8e 7f       	andi	r24, 0xFE	; 254
    671c:	8d bd       	out	0x2d, r24	; 45
    671e:	10 92 be 02 	sts	0x02BE, r1
    6722:	18 99       	sbic	0x03, 0	; 3
    6724:	5f c0       	rjmp	.+190    	; 0x67e4 <sd_raw_init+0xe4>
    6726:	1a e0       	ldi	r17, 0x0A	; 10
    6728:	8f ef       	ldi	r24, 0xFF	; 255
    672a:	8e bd       	out	0x2e, r24	; 46
    672c:	0d b4       	in	r0, 0x2d	; 45
    672e:	07 fe       	sbrs	r0, 7
    6730:	fd cf       	rjmp	.-6      	; 0x672c <sd_raw_init+0x2c>
    6732:	9d b5       	in	r25, 0x2d	; 45
    6734:	9f 77       	andi	r25, 0x7F	; 127
    6736:	9d bd       	out	0x2d, r25	; 45
    6738:	9e b5       	in	r25, 0x2e	; 46
    673a:	11 50       	subi	r17, 0x01	; 1
    673c:	b1 f7       	brne	.-20     	; 0x672a <sd_raw_init+0x2a>
    673e:	29 98       	cbi	0x05, 1	; 5
    6740:	c0 e0       	ldi	r28, 0x00	; 0
    6742:	d2 e0       	ldi	r29, 0x02	; 2
    6744:	04 c0       	rjmp	.+8      	; 0x674e <sd_raw_init+0x4e>
    6746:	21 97       	sbiw	r28, 0x01	; 1
    6748:	20 97       	sbiw	r28, 0x00	; 0
    674a:	09 f4       	brne	.+2      	; 0x674e <sd_raw_init+0x4e>
    674c:	57 c0       	rjmp	.+174    	; 0x67fc <sd_raw_init+0xfc>
    674e:	40 e0       	ldi	r20, 0x00	; 0
    6750:	50 e0       	ldi	r21, 0x00	; 0
    6752:	ba 01       	movw	r22, r20
    6754:	80 e0       	ldi	r24, 0x00	; 0
    6756:	0e 94 12 33 	call	0x6624	; 0x6624 <sd_raw_send_command>
    675a:	81 30       	cpi	r24, 0x01	; 1
    675c:	a1 f7       	brne	.-24     	; 0x6746 <sd_raw_init+0x46>
    675e:	40 e0       	ldi	r20, 0x00	; 0
    6760:	50 e0       	ldi	r21, 0x00	; 0
    6762:	ba 01       	movw	r22, r20
    6764:	87 e3       	ldi	r24, 0x37	; 55
    6766:	0e 94 12 33 	call	0x6624	; 0x6624 <sd_raw_send_command>
    676a:	40 e0       	ldi	r20, 0x00	; 0
    676c:	50 e0       	ldi	r21, 0x00	; 0
    676e:	ba 01       	movw	r22, r20
    6770:	89 e2       	ldi	r24, 0x29	; 41
    6772:	0e 94 12 33 	call	0x6624	; 0x6624 <sd_raw_send_command>
    6776:	82 ff       	sbrs	r24, 2
    6778:	3b c0       	rjmp	.+118    	; 0x67f0 <sd_raw_init+0xf0>
    677a:	80 91 be 02 	lds	r24, 0x02BE
    677e:	c0 e0       	ldi	r28, 0x00	; 0
    6780:	d0 e8       	ldi	r29, 0x80	; 128
    6782:	10 c0       	rjmp	.+32     	; 0x67a4 <sd_raw_init+0xa4>
    6784:	87 e3       	ldi	r24, 0x37	; 55
    6786:	0e 94 12 33 	call	0x6624	; 0x6624 <sd_raw_send_command>
    678a:	40 e0       	ldi	r20, 0x00	; 0
    678c:	50 e0       	ldi	r21, 0x00	; 0
    678e:	ba 01       	movw	r22, r20
    6790:	89 e2       	ldi	r24, 0x29	; 41
    6792:	0e 94 12 33 	call	0x6624	; 0x6624 <sd_raw_send_command>
    6796:	80 ff       	sbrs	r24, 0
    6798:	0f c0       	rjmp	.+30     	; 0x67b8 <sd_raw_init+0xb8>
    679a:	21 97       	sbiw	r28, 0x01	; 1
    679c:	20 97       	sbiw	r28, 0x00	; 0
    679e:	71 f1       	breq	.+92     	; 0x67fc <sd_raw_init+0xfc>
    67a0:	80 91 be 02 	lds	r24, 0x02BE
    67a4:	83 70       	andi	r24, 0x03	; 3
    67a6:	40 e0       	ldi	r20, 0x00	; 0
    67a8:	50 e0       	ldi	r21, 0x00	; 0
    67aa:	ba 01       	movw	r22, r20
    67ac:	59 f7       	brne	.-42     	; 0x6784 <sd_raw_init+0x84>
    67ae:	81 e0       	ldi	r24, 0x01	; 1
    67b0:	0e 94 12 33 	call	0x6624	; 0x6624 <sd_raw_send_command>
    67b4:	80 fd       	sbrc	r24, 0
    67b6:	f1 cf       	rjmp	.-30     	; 0x679a <sd_raw_init+0x9a>
    67b8:	40 e0       	ldi	r20, 0x00	; 0
    67ba:	52 e0       	ldi	r21, 0x02	; 2
    67bc:	60 e0       	ldi	r22, 0x00	; 0
    67be:	70 e0       	ldi	r23, 0x00	; 0
    67c0:	80 e1       	ldi	r24, 0x10	; 16
    67c2:	0e 94 12 33 	call	0x6624	; 0x6624 <sd_raw_send_command>
    67c6:	29 9a       	sbi	0x05, 1	; 5
    67c8:	81 11       	cpse	r24, r1
    67ca:	0c c0       	rjmp	.+24     	; 0x67e4 <sd_raw_init+0xe4>
    67cc:	8c b5       	in	r24, 0x2c	; 44
    67ce:	8c 7f       	andi	r24, 0xFC	; 252
    67d0:	8c bd       	out	0x2c, r24	; 44
    67d2:	8d b5       	in	r24, 0x2d	; 45
    67d4:	81 60       	ori	r24, 0x01	; 1
    67d6:	8d bd       	out	0x2d, r24	; 45
    67d8:	11 e0       	ldi	r17, 0x01	; 1
    67da:	81 2f       	mov	r24, r17
    67dc:	df 91       	pop	r29
    67de:	cf 91       	pop	r28
    67e0:	1f 91       	pop	r17
    67e2:	08 95       	ret
    67e4:	10 e0       	ldi	r17, 0x00	; 0
    67e6:	81 2f       	mov	r24, r17
    67e8:	df 91       	pop	r29
    67ea:	cf 91       	pop	r28
    67ec:	1f 91       	pop	r17
    67ee:	08 95       	ret
    67f0:	80 91 be 02 	lds	r24, 0x02BE
    67f4:	81 60       	ori	r24, 0x01	; 1
    67f6:	80 93 be 02 	sts	0x02BE, r24
    67fa:	c1 cf       	rjmp	.-126    	; 0x677e <sd_raw_init+0x7e>
    67fc:	29 9a       	sbi	0x05, 1	; 5
    67fe:	81 2f       	mov	r24, r17
    6800:	df 91       	pop	r29
    6802:	cf 91       	pop	r28
    6804:	1f 91       	pop	r17
    6806:	08 95       	ret

00006808 <sd_raw_read>:
    6808:	4f 92       	push	r4
    680a:	5f 92       	push	r5
    680c:	7f 92       	push	r7
    680e:	8f 92       	push	r8
    6810:	9f 92       	push	r9
    6812:	af 92       	push	r10
    6814:	bf 92       	push	r11
    6816:	cf 92       	push	r12
    6818:	df 92       	push	r13
    681a:	ef 92       	push	r14
    681c:	ff 92       	push	r15
    681e:	0f 93       	push	r16
    6820:	1f 93       	push	r17
    6822:	cf 93       	push	r28
    6824:	df 93       	push	r29
    6826:	4b 01       	movw	r8, r22
    6828:	5c 01       	movw	r10, r24
    682a:	8a 01       	movw	r16, r20
    682c:	29 01       	movw	r4, r18
    682e:	21 15       	cp	r18, r1
    6830:	31 05       	cpc	r19, r1
    6832:	09 f4       	brne	.+2      	; 0x6836 <sd_raw_read+0x2e>
    6834:	63 c0       	rjmp	.+198    	; 0x68fc <sd_raw_read+0xf4>
    6836:	c1 2c       	mov	r12, r1
    6838:	42 e0       	ldi	r20, 0x02	; 2
    683a:	d4 2e       	mov	r13, r20
    683c:	77 24       	eor	r7, r7
    683e:	7a 94       	dec	r7
    6840:	e4 01       	movw	r28, r8
    6842:	d1 70       	andi	r29, 0x01	; 1
    6844:	76 01       	movw	r14, r12
    6846:	ec 1a       	sub	r14, r28
    6848:	fd 0a       	sbc	r15, r29
    684a:	4e 14       	cp	r4, r14
    684c:	5f 04       	cpc	r5, r15
    684e:	08 f4       	brcc	.+2      	; 0x6852 <sd_raw_read+0x4a>
    6850:	72 01       	movw	r14, r4
    6852:	29 98       	cbi	0x05, 1	; 5
    6854:	b5 01       	movw	r22, r10
    6856:	a4 01       	movw	r20, r8
    6858:	4c 1b       	sub	r20, r28
    685a:	5d 0b       	sbc	r21, r29
    685c:	61 09       	sbc	r22, r1
    685e:	71 09       	sbc	r23, r1
    6860:	81 e1       	ldi	r24, 0x11	; 17
    6862:	0e 94 12 33 	call	0x6624	; 0x6624 <sd_raw_send_command>
    6866:	81 11       	cpse	r24, r1
    6868:	4b c0       	rjmp	.+150    	; 0x6900 <sd_raw_read+0xf8>
    686a:	7e bc       	out	0x2e, r7	; 46
    686c:	0d b4       	in	r0, 0x2d	; 45
    686e:	07 fe       	sbrs	r0, 7
    6870:	fd cf       	rjmp	.-6      	; 0x686c <sd_raw_read+0x64>
    6872:	8d b5       	in	r24, 0x2d	; 45
    6874:	8f 77       	andi	r24, 0x7F	; 127
    6876:	8d bd       	out	0x2d, r24	; 45
    6878:	8e b5       	in	r24, 0x2e	; 46
    687a:	8e 3f       	cpi	r24, 0xFE	; 254
    687c:	b1 f7       	brne	.-20     	; 0x686a <sd_raw_read+0x62>
    687e:	a7 01       	movw	r20, r14
    6880:	4c 0f       	add	r20, r28
    6882:	5d 1f       	adc	r21, r29
    6884:	80 e0       	ldi	r24, 0x00	; 0
    6886:	90 e0       	ldi	r25, 0x00	; 0
    6888:	7e bc       	out	0x2e, r7	; 46
    688a:	0d b4       	in	r0, 0x2d	; 45
    688c:	07 fe       	sbrs	r0, 7
    688e:	fd cf       	rjmp	.-6      	; 0x688a <sd_raw_read+0x82>
    6890:	6d b5       	in	r22, 0x2d	; 45
    6892:	6f 77       	andi	r22, 0x7F	; 127
    6894:	6d bd       	out	0x2d, r22	; 45
    6896:	6e b5       	in	r22, 0x2e	; 46
    6898:	8c 17       	cp	r24, r28
    689a:	9d 07       	cpc	r25, r29
    689c:	38 f0       	brcs	.+14     	; 0x68ac <sd_raw_read+0xa4>
    689e:	84 17       	cp	r24, r20
    68a0:	95 07       	cpc	r25, r21
    68a2:	20 f4       	brcc	.+8      	; 0x68ac <sd_raw_read+0xa4>
    68a4:	f8 01       	movw	r30, r16
    68a6:	60 83       	st	Z, r22
    68a8:	0f 5f       	subi	r16, 0xFF	; 255
    68aa:	1f 4f       	sbci	r17, 0xFF	; 255
    68ac:	01 96       	adiw	r24, 0x01	; 1
    68ae:	81 15       	cp	r24, r1
    68b0:	f2 e0       	ldi	r31, 0x02	; 2
    68b2:	9f 07       	cpc	r25, r31
    68b4:	49 f7       	brne	.-46     	; 0x6888 <sd_raw_read+0x80>
    68b6:	7e bc       	out	0x2e, r7	; 46
    68b8:	0d b4       	in	r0, 0x2d	; 45
    68ba:	07 fe       	sbrs	r0, 7
    68bc:	fd cf       	rjmp	.-6      	; 0x68b8 <sd_raw_read+0xb0>
    68be:	8d b5       	in	r24, 0x2d	; 45
    68c0:	8f 77       	andi	r24, 0x7F	; 127
    68c2:	8d bd       	out	0x2d, r24	; 45
    68c4:	8e b5       	in	r24, 0x2e	; 46
    68c6:	7e bc       	out	0x2e, r7	; 46
    68c8:	0d b4       	in	r0, 0x2d	; 45
    68ca:	07 fe       	sbrs	r0, 7
    68cc:	fd cf       	rjmp	.-6      	; 0x68c8 <sd_raw_read+0xc0>
    68ce:	8d b5       	in	r24, 0x2d	; 45
    68d0:	8f 77       	andi	r24, 0x7F	; 127
    68d2:	8d bd       	out	0x2d, r24	; 45
    68d4:	8e b5       	in	r24, 0x2e	; 46
    68d6:	29 9a       	sbi	0x05, 1	; 5
    68d8:	7e bc       	out	0x2e, r7	; 46
    68da:	0d b4       	in	r0, 0x2d	; 45
    68dc:	07 fe       	sbrs	r0, 7
    68de:	fd cf       	rjmp	.-6      	; 0x68da <sd_raw_read+0xd2>
    68e0:	8d b5       	in	r24, 0x2d	; 45
    68e2:	8f 77       	andi	r24, 0x7F	; 127
    68e4:	8d bd       	out	0x2d, r24	; 45
    68e6:	8e b5       	in	r24, 0x2e	; 46
    68e8:	4e 18       	sub	r4, r14
    68ea:	5f 08       	sbc	r5, r15
    68ec:	8e 0c       	add	r8, r14
    68ee:	9f 1c       	adc	r9, r15
    68f0:	a1 1c       	adc	r10, r1
    68f2:	b1 1c       	adc	r11, r1
    68f4:	41 14       	cp	r4, r1
    68f6:	51 04       	cpc	r5, r1
    68f8:	09 f0       	breq	.+2      	; 0x68fc <sd_raw_read+0xf4>
    68fa:	a2 cf       	rjmp	.-188    	; 0x6840 <sd_raw_read+0x38>
    68fc:	81 e0       	ldi	r24, 0x01	; 1
    68fe:	02 c0       	rjmp	.+4      	; 0x6904 <sd_raw_read+0xfc>
    6900:	29 9a       	sbi	0x05, 1	; 5
    6902:	80 e0       	ldi	r24, 0x00	; 0
    6904:	df 91       	pop	r29
    6906:	cf 91       	pop	r28
    6908:	1f 91       	pop	r17
    690a:	0f 91       	pop	r16
    690c:	ff 90       	pop	r15
    690e:	ef 90       	pop	r14
    6910:	df 90       	pop	r13
    6912:	cf 90       	pop	r12
    6914:	bf 90       	pop	r11
    6916:	af 90       	pop	r10
    6918:	9f 90       	pop	r9
    691a:	8f 90       	pop	r8
    691c:	7f 90       	pop	r7
    691e:	5f 90       	pop	r5
    6920:	4f 90       	pop	r4
    6922:	08 95       	ret

00006924 <sd_raw_read_interval>:
    6924:	2f 92       	push	r2
    6926:	3f 92       	push	r3
    6928:	4f 92       	push	r4
    692a:	5f 92       	push	r5
    692c:	6f 92       	push	r6
    692e:	7f 92       	push	r7
    6930:	8f 92       	push	r8
    6932:	9f 92       	push	r9
    6934:	af 92       	push	r10
    6936:	bf 92       	push	r11
    6938:	cf 92       	push	r12
    693a:	df 92       	push	r13
    693c:	ef 92       	push	r14
    693e:	ff 92       	push	r15
    6940:	0f 93       	push	r16
    6942:	1f 93       	push	r17
    6944:	cf 93       	push	r28
    6946:	df 93       	push	r29
    6948:	cd b7       	in	r28, 0x3d	; 61
    694a:	de b7       	in	r29, 0x3e	; 62
    694c:	2c 97       	sbiw	r28, 0x0c	; 12
    694e:	0f b6       	in	r0, 0x3f	; 63
    6950:	f8 94       	cli
    6952:	de bf       	out	0x3e, r29	; 62
    6954:	0f be       	out	0x3f, r0	; 63
    6956:	cd bf       	out	0x3d, r28	; 61
    6958:	4b 01       	movw	r8, r22
    695a:	5c 01       	movw	r10, r24
    695c:	5a 83       	std	Y+2, r21	; 0x02
    695e:	49 83       	std	Y+1, r20	; 0x01
    6960:	19 01       	movw	r2, r18
    6962:	fc 82       	std	Y+4, r15	; 0x04
    6964:	eb 82       	std	Y+3, r14	; 0x03
    6966:	45 2b       	or	r20, r21
    6968:	09 f4       	brne	.+2      	; 0x696c <sd_raw_read_interval+0x48>
    696a:	ff c0       	rjmp	.+510    	; 0x6b6a <sd_raw_read_interval+0x246>
    696c:	21 15       	cp	r18, r1
    696e:	31 05       	cpc	r19, r1
    6970:	09 f4       	brne	.+2      	; 0x6974 <sd_raw_read_interval+0x50>
    6972:	fb c0       	rjmp	.+502    	; 0x6b6a <sd_raw_read_interval+0x246>
    6974:	02 17       	cp	r16, r18
    6976:	13 07       	cpc	r17, r19
    6978:	08 f4       	brcc	.+2      	; 0x697c <sd_raw_read_interval+0x58>
    697a:	f7 c0       	rjmp	.+494    	; 0x6b6a <sd_raw_read_interval+0x246>
    697c:	ef 28       	or	r14, r15
    697e:	09 f4       	brne	.+2      	; 0x6982 <sd_raw_read_interval+0x5e>
    6980:	f4 c0       	rjmp	.+488    	; 0x6b6a <sd_raw_read_interval+0x246>
    6982:	29 98       	cbi	0x05, 1	; 5
    6984:	44 24       	eor	r4, r4
    6986:	4a 94       	dec	r4
    6988:	55 24       	eor	r5, r5
    698a:	5a 94       	dec	r5
    698c:	69 80       	ldd	r6, Y+1	; 0x01
    698e:	7a 80       	ldd	r7, Y+2	; 0x02
    6990:	62 0e       	add	r6, r18
    6992:	73 1e       	adc	r7, r19
    6994:	1c 87       	std	Y+12, r17	; 0x0c
    6996:	0b 87       	std	Y+11, r16	; 0x0b
    6998:	de 82       	std	Y+6, r13	; 0x06
    699a:	cd 82       	std	Y+5, r12	; 0x05
    699c:	c9 80       	ldd	r12, Y+1	; 0x01
    699e:	da 80       	ldd	r13, Y+2	; 0x02
    69a0:	74 01       	movw	r14, r8
    69a2:	21 e0       	ldi	r18, 0x01	; 1
    69a4:	f2 22       	and	r15, r18
    69a6:	00 e0       	ldi	r16, 0x00	; 0
    69a8:	12 e0       	ldi	r17, 0x02	; 2
    69aa:	0e 19       	sub	r16, r14
    69ac:	1f 09       	sbc	r17, r15
    69ae:	d5 01       	movw	r26, r10
    69b0:	c4 01       	movw	r24, r8
    69b2:	8e 19       	sub	r24, r14
    69b4:	9f 09       	sbc	r25, r15
    69b6:	a1 09       	sbc	r26, r1
    69b8:	b1 09       	sbc	r27, r1
    69ba:	8f 83       	std	Y+7, r24	; 0x07
    69bc:	98 87       	std	Y+8, r25	; 0x08
    69be:	a9 87       	std	Y+9, r26	; 0x09
    69c0:	ba 87       	std	Y+10, r27	; 0x0a
    69c2:	ac 01       	movw	r20, r24
    69c4:	bd 01       	movw	r22, r26
    69c6:	81 e1       	ldi	r24, 0x11	; 17
    69c8:	0e 94 12 33 	call	0x6624	; 0x6624 <sd_raw_send_command>
    69cc:	81 11       	cpse	r24, r1
    69ce:	cf c0       	rjmp	.+414    	; 0x6b6e <sd_raw_read_interval+0x24a>
    69d0:	2b 85       	ldd	r18, Y+11	; 0x0b
    69d2:	3c 85       	ldd	r19, Y+12	; 0x0c
    69d4:	4e bc       	out	0x2e, r4	; 46
    69d6:	0d b4       	in	r0, 0x2d	; 45
    69d8:	07 fe       	sbrs	r0, 7
    69da:	fd cf       	rjmp	.-6      	; 0x69d6 <sd_raw_read_interval+0xb2>
    69dc:	8d b5       	in	r24, 0x2d	; 45
    69de:	8f 77       	andi	r24, 0x7F	; 127
    69e0:	8d bd       	out	0x2d, r24	; 45
    69e2:	8e b5       	in	r24, 0x2e	; 46
    69e4:	8e 3f       	cpi	r24, 0xFE	; 254
    69e6:	b1 f7       	brne	.-20     	; 0x69d4 <sd_raw_read_interval+0xb0>
    69e8:	3c 87       	std	Y+12, r19	; 0x0c
    69ea:	2b 87       	std	Y+11, r18	; 0x0b
    69ec:	e1 14       	cp	r14, r1
    69ee:	f1 04       	cpc	r15, r1
    69f0:	91 f0       	breq	.+36     	; 0x6a16 <sd_raw_read_interval+0xf2>
    69f2:	80 e0       	ldi	r24, 0x00	; 0
    69f4:	90 e0       	ldi	r25, 0x00	; 0
    69f6:	4b 85       	ldd	r20, Y+11	; 0x0b
    69f8:	5c 85       	ldd	r21, Y+12	; 0x0c
    69fa:	4e bc       	out	0x2e, r4	; 46
    69fc:	0d b4       	in	r0, 0x2d	; 45
    69fe:	07 fe       	sbrs	r0, 7
    6a00:	fd cf       	rjmp	.-6      	; 0x69fc <sd_raw_read_interval+0xd8>
    6a02:	2d b5       	in	r18, 0x2d	; 45
    6a04:	2f 77       	andi	r18, 0x7F	; 127
    6a06:	2d bd       	out	0x2d, r18	; 45
    6a08:	2e b5       	in	r18, 0x2e	; 46
    6a0a:	01 96       	adiw	r24, 0x01	; 1
    6a0c:	8e 15       	cp	r24, r14
    6a0e:	9f 05       	cpc	r25, r15
    6a10:	a1 f7       	brne	.-24     	; 0x69fa <sd_raw_read_interval+0xd6>
    6a12:	5c 87       	std	Y+12, r21	; 0x0c
    6a14:	4b 87       	std	Y+11, r20	; 0x0b
    6a16:	02 15       	cp	r16, r2
    6a18:	13 05       	cpc	r17, r3
    6a1a:	08 f4       	brcc	.+2      	; 0x6a1e <sd_raw_read_interval+0xfa>
    6a1c:	ab c0       	rjmp	.+342    	; 0x6b74 <sd_raw_read_interval+0x250>
    6a1e:	ab 85       	ldd	r26, Y+11	; 0x0b
    6a20:	bc 85       	ldd	r27, Y+12	; 0x0c
    6a22:	a2 15       	cp	r26, r2
    6a24:	b3 05       	cpc	r27, r3
    6a26:	08 f4       	brcc	.+2      	; 0x6a2a <sd_raw_read_interval+0x106>
    6a28:	a5 c0       	rjmp	.+330    	; 0x6b74 <sd_raw_read_interval+0x250>
    6a2a:	f6 01       	movw	r30, r12
    6a2c:	2b 85       	ldd	r18, Y+11	; 0x0b
    6a2e:	3c 85       	ldd	r19, Y+12	; 0x0c
    6a30:	5e bc       	out	0x2e, r5	; 46
    6a32:	0d b4       	in	r0, 0x2d	; 45
    6a34:	07 fe       	sbrs	r0, 7
    6a36:	fd cf       	rjmp	.-6      	; 0x6a32 <sd_raw_read_interval+0x10e>
    6a38:	8d b5       	in	r24, 0x2d	; 45
    6a3a:	8f 77       	andi	r24, 0x7F	; 127
    6a3c:	8d bd       	out	0x2d, r24	; 45
    6a3e:	8e b5       	in	r24, 0x2e	; 46
    6a40:	81 93       	st	Z+, r24
    6a42:	e6 15       	cp	r30, r6
    6a44:	f7 05       	cpc	r31, r7
    6a46:	a1 f7       	brne	.-24     	; 0x6a30 <sd_raw_read_interval+0x10c>
    6a48:	3c 87       	std	Y+12, r19	; 0x0c
    6a4a:	2b 87       	std	Y+11, r18	; 0x0b
    6a4c:	2d 81       	ldd	r18, Y+5	; 0x05
    6a4e:	3e 81       	ldd	r19, Y+6	; 0x06
    6a50:	b5 01       	movw	r22, r10
    6a52:	a4 01       	movw	r20, r8
    6a54:	4e 0d       	add	r20, r14
    6a56:	5f 1d       	adc	r21, r15
    6a58:	61 1d       	adc	r22, r1
    6a5a:	71 1d       	adc	r23, r1
    6a5c:	c6 01       	movw	r24, r12
    6a5e:	eb 81       	ldd	r30, Y+3	; 0x03
    6a60:	fc 81       	ldd	r31, Y+4	; 0x04
    6a62:	09 95       	icall
    6a64:	88 23       	and	r24, r24
    6a66:	09 f4       	brne	.+2      	; 0x6a6a <sd_raw_read_interval+0x146>
    6a68:	77 c0       	rjmp	.+238    	; 0x6b58 <sd_raw_read_interval+0x234>
    6a6a:	02 19       	sub	r16, r2
    6a6c:	13 09       	sbc	r17, r3
    6a6e:	8b 85       	ldd	r24, Y+11	; 0x0b
    6a70:	9c 85       	ldd	r25, Y+12	; 0x0c
    6a72:	82 19       	sub	r24, r2
    6a74:	93 09       	sbc	r25, r3
    6a76:	9c 87       	std	Y+12, r25	; 0x0c
    6a78:	8b 87       	std	Y+11, r24	; 0x0b
    6a7a:	01 15       	cp	r16, r1
    6a7c:	11 05       	cpc	r17, r1
    6a7e:	09 f4       	brne	.+2      	; 0x6a82 <sd_raw_read_interval+0x15e>
    6a80:	69 c0       	rjmp	.+210    	; 0x6b54 <sd_raw_read_interval+0x230>
    6a82:	89 2b       	or	r24, r25
    6a84:	51 f0       	breq	.+20     	; 0x6a9a <sd_raw_read_interval+0x176>
    6a86:	02 15       	cp	r16, r2
    6a88:	13 05       	cpc	r17, r3
    6a8a:	38 f0       	brcs	.+14     	; 0x6a9a <sd_raw_read_interval+0x176>
    6a8c:	e2 0c       	add	r14, r2
    6a8e:	f3 1c       	adc	r15, r3
    6a90:	eb 85       	ldd	r30, Y+11	; 0x0b
    6a92:	fc 85       	ldd	r31, Y+12	; 0x0c
    6a94:	e2 15       	cp	r30, r2
    6a96:	f3 05       	cpc	r31, r3
    6a98:	40 f6       	brcc	.-112    	; 0x6a2a <sd_raw_read_interval+0x106>
    6a9a:	c8 01       	movw	r24, r16
    6a9c:	01 97       	sbiw	r24, 0x01	; 1
    6a9e:	30 e0       	ldi	r19, 0x00	; 0
    6aa0:	4b 85       	ldd	r20, Y+11	; 0x0b
    6aa2:	5c 85       	ldd	r21, Y+12	; 0x0c
    6aa4:	4e bc       	out	0x2e, r4	; 46
    6aa6:	0d b4       	in	r0, 0x2d	; 45
    6aa8:	07 fe       	sbrs	r0, 7
    6aaa:	fd cf       	rjmp	.-6      	; 0x6aa6 <sd_raw_read_interval+0x182>
    6aac:	2d b5       	in	r18, 0x2d	; 45
    6aae:	2f 77       	andi	r18, 0x7F	; 127
    6ab0:	2d bd       	out	0x2d, r18	; 45
    6ab2:	2e b5       	in	r18, 0x2e	; 46
    6ab4:	01 97       	sbiw	r24, 0x01	; 1
    6ab6:	b0 f7       	brcc	.-20     	; 0x6aa4 <sd_raw_read_interval+0x180>
    6ab8:	5c 87       	std	Y+12, r21	; 0x0c
    6aba:	4b 87       	std	Y+11, r20	; 0x0b
    6abc:	4e bc       	out	0x2e, r4	; 46
    6abe:	8b 85       	ldd	r24, Y+11	; 0x0b
    6ac0:	9c 85       	ldd	r25, Y+12	; 0x0c
    6ac2:	0d b4       	in	r0, 0x2d	; 45
    6ac4:	07 fe       	sbrs	r0, 7
    6ac6:	fd cf       	rjmp	.-6      	; 0x6ac2 <sd_raw_read_interval+0x19e>
    6ac8:	9c 87       	std	Y+12, r25	; 0x0c
    6aca:	8b 87       	std	Y+11, r24	; 0x0b
    6acc:	8d b5       	in	r24, 0x2d	; 45
    6ace:	8f 77       	andi	r24, 0x7F	; 127
    6ad0:	8d bd       	out	0x2d, r24	; 45
    6ad2:	8e b5       	in	r24, 0x2e	; 46
    6ad4:	4e bc       	out	0x2e, r4	; 46
    6ad6:	8b 85       	ldd	r24, Y+11	; 0x0b
    6ad8:	9c 85       	ldd	r25, Y+12	; 0x0c
    6ada:	0d b4       	in	r0, 0x2d	; 45
    6adc:	07 fe       	sbrs	r0, 7
    6ade:	fd cf       	rjmp	.-6      	; 0x6ada <sd_raw_read_interval+0x1b6>
    6ae0:	9c 87       	std	Y+12, r25	; 0x0c
    6ae2:	8b 87       	std	Y+11, r24	; 0x0b
    6ae4:	8d b5       	in	r24, 0x2d	; 45
    6ae6:	8f 77       	andi	r24, 0x7F	; 127
    6ae8:	8d bd       	out	0x2d, r24	; 45
    6aea:	8e b5       	in	r24, 0x2e	; 46
    6aec:	eb 85       	ldd	r30, Y+11	; 0x0b
    6aee:	fc 85       	ldd	r31, Y+12	; 0x0c
    6af0:	e2 15       	cp	r30, r2
    6af2:	f3 05       	cpc	r31, r3
    6af4:	58 f0       	brcs	.+22     	; 0x6b0c <sd_raw_read_interval+0x1e8>
    6af6:	8f 80       	ldd	r8, Y+7	; 0x07
    6af8:	98 84       	ldd	r9, Y+8	; 0x08
    6afa:	a9 84       	ldd	r10, Y+9	; 0x09
    6afc:	ba 84       	ldd	r11, Y+10	; 0x0a
    6afe:	f2 e0       	ldi	r31, 0x02	; 2
    6b00:	9f 0e       	add	r9, r31
    6b02:	a1 1c       	adc	r10, r1
    6b04:	b1 1c       	adc	r11, r1
    6b06:	33 23       	and	r19, r19
    6b08:	09 f4       	brne	.+2      	; 0x6b0c <sd_raw_read_interval+0x1e8>
    6b0a:	4a cf       	rjmp	.-364    	; 0x69a0 <sd_raw_read_interval+0x7c>
    6b0c:	29 9a       	sbi	0x05, 1	; 5
    6b0e:	8f ef       	ldi	r24, 0xFF	; 255
    6b10:	8e bd       	out	0x2e, r24	; 46
    6b12:	0d b4       	in	r0, 0x2d	; 45
    6b14:	07 fe       	sbrs	r0, 7
    6b16:	fd cf       	rjmp	.-6      	; 0x6b12 <sd_raw_read_interval+0x1ee>
    6b18:	8d b5       	in	r24, 0x2d	; 45
    6b1a:	8f 77       	andi	r24, 0x7F	; 127
    6b1c:	8d bd       	out	0x2d, r24	; 45
    6b1e:	8e b5       	in	r24, 0x2e	; 46
    6b20:	81 e0       	ldi	r24, 0x01	; 1
    6b22:	2c 96       	adiw	r28, 0x0c	; 12
    6b24:	0f b6       	in	r0, 0x3f	; 63
    6b26:	f8 94       	cli
    6b28:	de bf       	out	0x3e, r29	; 62
    6b2a:	0f be       	out	0x3f, r0	; 63
    6b2c:	cd bf       	out	0x3d, r28	; 61
    6b2e:	df 91       	pop	r29
    6b30:	cf 91       	pop	r28
    6b32:	1f 91       	pop	r17
    6b34:	0f 91       	pop	r16
    6b36:	ff 90       	pop	r15
    6b38:	ef 90       	pop	r14
    6b3a:	df 90       	pop	r13
    6b3c:	cf 90       	pop	r12
    6b3e:	bf 90       	pop	r11
    6b40:	af 90       	pop	r10
    6b42:	9f 90       	pop	r9
    6b44:	8f 90       	pop	r8
    6b46:	7f 90       	pop	r7
    6b48:	6f 90       	pop	r6
    6b4a:	5f 90       	pop	r5
    6b4c:	4f 90       	pop	r4
    6b4e:	3f 90       	pop	r3
    6b50:	2f 90       	pop	r2
    6b52:	08 95       	ret
    6b54:	30 e0       	ldi	r19, 0x00	; 0
    6b56:	b2 cf       	rjmp	.-156    	; 0x6abc <sd_raw_read_interval+0x198>
    6b58:	c8 01       	movw	r24, r16
    6b5a:	01 97       	sbiw	r24, 0x01	; 1
    6b5c:	31 e0       	ldi	r19, 0x01	; 1
    6b5e:	01 2b       	or	r16, r17
    6b60:	09 f4       	brne	.+2      	; 0x6b64 <sd_raw_read_interval+0x240>
    6b62:	ac cf       	rjmp	.-168    	; 0x6abc <sd_raw_read_interval+0x198>
    6b64:	4b 85       	ldd	r20, Y+11	; 0x0b
    6b66:	5c 85       	ldd	r21, Y+12	; 0x0c
    6b68:	9d cf       	rjmp	.-198    	; 0x6aa4 <sd_raw_read_interval+0x180>
    6b6a:	80 e0       	ldi	r24, 0x00	; 0
    6b6c:	da cf       	rjmp	.-76     	; 0x6b22 <sd_raw_read_interval+0x1fe>
    6b6e:	29 9a       	sbi	0x05, 1	; 5
    6b70:	80 e0       	ldi	r24, 0x00	; 0
    6b72:	d7 cf       	rjmp	.-82     	; 0x6b22 <sd_raw_read_interval+0x1fe>
    6b74:	8f ef       	ldi	r24, 0xFF	; 255
    6b76:	91 e0       	ldi	r25, 0x01	; 1
    6b78:	8e 19       	sub	r24, r14
    6b7a:	9f 09       	sbc	r25, r15
    6b7c:	30 e0       	ldi	r19, 0x00	; 0
    6b7e:	f2 cf       	rjmp	.-28     	; 0x6b64 <sd_raw_read_interval+0x240>

00006b80 <select_font>:
    6b80:	80 93 04 01 	sts	0x0104, r24
    6b84:	08 95       	ret

00006b86 <new_line>:
    6b86:	10 92 c0 02 	sts	0x02C0, r1
    6b8a:	80 91 04 01 	lds	r24, 0x0104
    6b8e:	81 30       	cpi	r24, 0x01	; 1
    6b90:	d1 f0       	breq	.+52     	; 0x6bc6 <new_line+0x40>
    6b92:	70 f0       	brcs	.+28     	; 0x6bb0 <new_line+0x2a>
    6b94:	82 30       	cpi	r24, 0x02	; 2
    6b96:	59 f4       	brne	.+22     	; 0x6bae <new_line+0x28>
    6b98:	20 91 bf 02 	lds	r18, 0x02BF
    6b9c:	82 2f       	mov	r24, r18
    6b9e:	90 e0       	ldi	r25, 0x00	; 0
    6ba0:	8a 34       	cpi	r24, 0x4A	; 74
    6ba2:	91 05       	cpc	r25, r1
    6ba4:	dc f4       	brge	.+54     	; 0x6bdc <new_line+0x56>
    6ba6:	28 5f       	subi	r18, 0xF8	; 248
    6ba8:	20 93 bf 02 	sts	0x02BF, r18
    6bac:	08 95       	ret
    6bae:	08 95       	ret
    6bb0:	20 91 bf 02 	lds	r18, 0x02BF
    6bb4:	82 2f       	mov	r24, r18
    6bb6:	90 e0       	ldi	r25, 0x00	; 0
    6bb8:	8e 34       	cpi	r24, 0x4E	; 78
    6bba:	91 05       	cpc	r25, r1
    6bbc:	ac f4       	brge	.+42     	; 0x6be8 <new_line+0x62>
    6bbe:	2a 5f       	subi	r18, 0xFA	; 250
    6bc0:	20 93 bf 02 	sts	0x02BF, r18
    6bc4:	08 95       	ret
    6bc6:	20 91 bf 02 	lds	r18, 0x02BF
    6bca:	82 2f       	mov	r24, r18
    6bcc:	90 e0       	ldi	r25, 0x00	; 0
    6bce:	86 34       	cpi	r24, 0x46	; 70
    6bd0:	91 05       	cpc	r25, r1
    6bd2:	3c f4       	brge	.+14     	; 0x6be2 <new_line+0x5c>
    6bd4:	26 5f       	subi	r18, 0xF6	; 246
    6bd6:	20 93 bf 02 	sts	0x02BF, r18
    6bda:	08 95       	ret
    6bdc:	88 e0       	ldi	r24, 0x08	; 8
    6bde:	0c 94 bd 3a 	jmp	0x757a	; 0x757a <scroll_up>
    6be2:	8a e0       	ldi	r24, 0x0A	; 10
    6be4:	0c 94 bd 3a 	jmp	0x757a	; 0x757a <scroll_up>
    6be8:	86 e0       	ldi	r24, 0x06	; 6
    6bea:	0c 94 bd 3a 	jmp	0x757a	; 0x757a <scroll_up>

00006bee <put_char>:
    6bee:	0f 93       	push	r16
    6bf0:	90 91 04 01 	lds	r25, 0x0104
    6bf4:	91 30       	cpi	r25, 0x01	; 1
    6bf6:	29 f1       	breq	.+74     	; 0x6c42 <put_char+0x54>
    6bf8:	50 f0       	brcs	.+20     	; 0x6c0e <put_char+0x20>
    6bfa:	92 30       	cpi	r25, 0x02	; 2
    6bfc:	31 f4       	brne	.+12     	; 0x6c0a <put_char+0x1c>
    6bfe:	8a 30       	cpi	r24, 0x0A	; 10
    6c00:	e9 f0       	breq	.+58     	; 0x6c3c <put_char+0x4e>
    6c02:	90 ee       	ldi	r25, 0xE0	; 224
    6c04:	98 0f       	add	r25, r24
    6c06:	95 36       	cpi	r25, 0x65	; 101
    6c08:	a0 f1       	brcs	.+104    	; 0x6c72 <put_char+0x84>
    6c0a:	0f 91       	pop	r16
    6c0c:	08 95       	ret
    6c0e:	80 31       	cpi	r24, 0x10	; 16
    6c10:	e0 f7       	brcc	.-8      	; 0x6c0a <put_char+0x1c>
    6c12:	96 e0       	ldi	r25, 0x06	; 6
    6c14:	89 9f       	mul	r24, r25
    6c16:	90 01       	movw	r18, r0
    6c18:	11 24       	eor	r1, r1
    6c1a:	29 5b       	subi	r18, 0xB9	; 185
    6c1c:	3a 4b       	sbci	r19, 0xBA	; 186
    6c1e:	00 e0       	ldi	r16, 0x00	; 0
    6c20:	46 e0       	ldi	r20, 0x06	; 6
    6c22:	60 91 bf 02 	lds	r22, 0x02BF
    6c26:	80 91 c0 02 	lds	r24, 0x02C0
    6c2a:	0e 94 cf 38 	call	0x719e	; 0x719e <put_sprite>
    6c2e:	80 91 c0 02 	lds	r24, 0x02C0
    6c32:	8c 5f       	subi	r24, 0xFC	; 252
    6c34:	80 93 c0 02 	sts	0x02C0, r24
    6c38:	8e 37       	cpi	r24, 0x7E	; 126
    6c3a:	38 f3       	brcs	.-50     	; 0x6c0a <put_char+0x1c>
    6c3c:	0f 91       	pop	r16
    6c3e:	0c 94 c3 35 	jmp	0x6b86	; 0x6b86 <new_line>
    6c42:	80 31       	cpi	r24, 0x10	; 16
    6c44:	10 f7       	brcc	.-60     	; 0x6c0a <put_char+0x1c>
    6c46:	9a e0       	ldi	r25, 0x0A	; 10
    6c48:	89 9f       	mul	r24, r25
    6c4a:	90 01       	movw	r18, r0
    6c4c:	11 24       	eor	r1, r1
    6c4e:	29 55       	subi	r18, 0x59	; 89
    6c50:	3b 4b       	sbci	r19, 0xBB	; 187
    6c52:	00 e0       	ldi	r16, 0x00	; 0
    6c54:	4a e0       	ldi	r20, 0x0A	; 10
    6c56:	60 91 bf 02 	lds	r22, 0x02BF
    6c5a:	80 91 c0 02 	lds	r24, 0x02C0
    6c5e:	0e 94 cf 38 	call	0x719e	; 0x719e <put_sprite>
    6c62:	80 91 c0 02 	lds	r24, 0x02C0
    6c66:	88 5f       	subi	r24, 0xF8	; 248
    6c68:	80 93 c0 02 	sts	0x02C0, r24
    6c6c:	8a 37       	cpi	r24, 0x7A	; 122
    6c6e:	68 f2       	brcs	.-102    	; 0x6c0a <put_char+0x1c>
    6c70:	e5 cf       	rjmp	.-54     	; 0x6c3c <put_char+0x4e>
    6c72:	28 2f       	mov	r18, r24
    6c74:	30 e0       	ldi	r19, 0x00	; 0
    6c76:	22 0f       	add	r18, r18
    6c78:	33 1f       	adc	r19, r19
    6c7a:	22 0f       	add	r18, r18
    6c7c:	33 1f       	adc	r19, r19
    6c7e:	22 0f       	add	r18, r18
    6c80:	33 1f       	adc	r19, r19
    6c82:	21 58       	subi	r18, 0x81	; 129
    6c84:	3f 4b       	sbci	r19, 0xBF	; 191
    6c86:	00 e0       	ldi	r16, 0x00	; 0
    6c88:	48 e0       	ldi	r20, 0x08	; 8
    6c8a:	60 91 bf 02 	lds	r22, 0x02BF
    6c8e:	80 91 c0 02 	lds	r24, 0x02C0
    6c92:	0e 94 cf 38 	call	0x719e	; 0x719e <put_sprite>
    6c96:	80 91 c0 02 	lds	r24, 0x02C0
    6c9a:	8a 5f       	subi	r24, 0xFA	; 250
    6c9c:	80 93 c0 02 	sts	0x02C0, r24
    6ca0:	8c 37       	cpi	r24, 0x7C	; 124
    6ca2:	08 f4       	brcc	.+2      	; 0x6ca6 <put_char+0xb8>
    6ca4:	b2 cf       	rjmp	.-156    	; 0x6c0a <put_char+0x1c>
    6ca6:	ca cf       	rjmp	.-108    	; 0x6c3c <put_char+0x4e>

00006ca8 <set_cursor>:
    6ca8:	80 93 c0 02 	sts	0x02C0, r24
    6cac:	60 93 bf 02 	sts	0x02BF, r22
    6cb0:	08 95       	ret

00006cb2 <print>:
    6cb2:	cf 93       	push	r28
    6cb4:	df 93       	push	r29
    6cb6:	ec 01       	movw	r28, r24
    6cb8:	88 81       	ld	r24, Y
    6cba:	88 23       	and	r24, r24
    6cbc:	31 f0       	breq	.+12     	; 0x6cca <print+0x18>
    6cbe:	21 96       	adiw	r28, 0x01	; 1
    6cc0:	0e 94 f7 35 	call	0x6bee	; 0x6bee <put_char>
    6cc4:	89 91       	ld	r24, Y+
    6cc6:	81 11       	cpse	r24, r1
    6cc8:	fb cf       	rjmp	.-10     	; 0x6cc0 <print+0xe>
    6cca:	df 91       	pop	r29
    6ccc:	cf 91       	pop	r28
    6cce:	08 95       	ret

00006cd0 <prt_pstr>:
    6cd0:	cf 93       	push	r28
    6cd2:	df 93       	push	r29
    6cd4:	ec 01       	movw	r28, r24
    6cd6:	21 96       	adiw	r28, 0x01	; 1
    6cd8:	fc 01       	movw	r30, r24
    6cda:	84 91       	lpm	r24, Z
    6cdc:	88 23       	and	r24, r24
    6cde:	39 f0       	breq	.+14     	; 0x6cee <prt_pstr+0x1e>
    6ce0:	0e 94 f7 35 	call	0x6bee	; 0x6bee <put_char>
    6ce4:	fe 01       	movw	r30, r28
    6ce6:	84 91       	lpm	r24, Z
    6ce8:	21 96       	adiw	r28, 0x01	; 1
    6cea:	81 11       	cpse	r24, r1
    6cec:	f9 cf       	rjmp	.-14     	; 0x6ce0 <prt_pstr+0x10>
    6cee:	df 91       	pop	r29
    6cf0:	cf 91       	pop	r28
    6cf2:	08 95       	ret

00006cf4 <print_hex>:
    6cf4:	1f 93       	push	r17
    6cf6:	cf 93       	push	r28
    6cf8:	df 93       	push	r29
    6cfa:	00 d0       	rcall	.+0      	; 0x6cfc <print_hex+0x8>
    6cfc:	00 d0       	rcall	.+0      	; 0x6cfe <print_hex+0xa>
    6cfe:	1f 92       	push	r1
    6d00:	cd b7       	in	r28, 0x3d	; 61
    6d02:	de b7       	in	r29, 0x3e	; 62
    6d04:	13 e0       	ldi	r17, 0x03	; 3
    6d06:	0c c0       	rjmp	.+24     	; 0x6d20 <print_hex+0x2c>
    6d08:	20 5d       	subi	r18, 0xD0	; 208
    6d0a:	20 83       	st	Z, r18
    6d0c:	92 95       	swap	r25
    6d0e:	82 95       	swap	r24
    6d10:	8f 70       	andi	r24, 0x0F	; 15
    6d12:	89 27       	eor	r24, r25
    6d14:	9f 70       	andi	r25, 0x0F	; 15
    6d16:	89 27       	eor	r24, r25
    6d18:	11 50       	subi	r17, 0x01	; 1
    6d1a:	61 50       	subi	r22, 0x01	; 1
    6d1c:	00 97       	sbiw	r24, 0x00	; 0
    6d1e:	69 f0       	breq	.+26     	; 0x6d3a <print_hex+0x46>
    6d20:	28 2f       	mov	r18, r24
    6d22:	2f 70       	andi	r18, 0x0F	; 15
    6d24:	e1 e0       	ldi	r30, 0x01	; 1
    6d26:	f0 e0       	ldi	r31, 0x00	; 0
    6d28:	ec 0f       	add	r30, r28
    6d2a:	fd 1f       	adc	r31, r29
    6d2c:	e1 0f       	add	r30, r17
    6d2e:	f1 1d       	adc	r31, r1
    6d30:	2a 30       	cpi	r18, 0x0A	; 10
    6d32:	50 f3       	brcs	.-44     	; 0x6d08 <print_hex+0x14>
    6d34:	29 5c       	subi	r18, 0xC9	; 201
    6d36:	20 83       	st	Z, r18
    6d38:	e9 cf       	rjmp	.-46     	; 0x6d0c <print_hex+0x18>
    6d3a:	80 e2       	ldi	r24, 0x20	; 32
    6d3c:	6d 83       	std	Y+5, r22	; 0x05
    6d3e:	0e 94 f7 35 	call	0x6bee	; 0x6bee <put_char>
    6d42:	6d 81       	ldd	r22, Y+5	; 0x05
    6d44:	81 2f       	mov	r24, r17
    6d46:	66 23       	and	r22, r22
    6d48:	79 f0       	breq	.+30     	; 0x6d68 <print_hex+0x74>
    6d4a:	86 1b       	sub	r24, r22
    6d4c:	20 e3       	ldi	r18, 0x30	; 48
    6d4e:	01 c0       	rjmp	.+2      	; 0x6d52 <print_hex+0x5e>
    6d50:	19 2f       	mov	r17, r25
    6d52:	9f ef       	ldi	r25, 0xFF	; 255
    6d54:	91 0f       	add	r25, r17
    6d56:	e1 e0       	ldi	r30, 0x01	; 1
    6d58:	f0 e0       	ldi	r31, 0x00	; 0
    6d5a:	ec 0f       	add	r30, r28
    6d5c:	fd 1f       	adc	r31, r29
    6d5e:	e1 0f       	add	r30, r17
    6d60:	f1 1d       	adc	r31, r1
    6d62:	20 83       	st	Z, r18
    6d64:	98 13       	cpse	r25, r24
    6d66:	f4 cf       	rjmp	.-24     	; 0x6d50 <print_hex+0x5c>
    6d68:	8f 5f       	subi	r24, 0xFF	; 255
    6d6a:	84 30       	cpi	r24, 0x04	; 4
    6d6c:	10 f0       	brcs	.+4      	; 0x6d72 <print_hex+0x7e>
    6d6e:	0e c0       	rjmp	.+28     	; 0x6d8c <print_hex+0x98>
    6d70:	81 2f       	mov	r24, r17
    6d72:	11 e0       	ldi	r17, 0x01	; 1
    6d74:	18 0f       	add	r17, r24
    6d76:	e1 e0       	ldi	r30, 0x01	; 1
    6d78:	f0 e0       	ldi	r31, 0x00	; 0
    6d7a:	ec 0f       	add	r30, r28
    6d7c:	fd 1f       	adc	r31, r29
    6d7e:	e8 0f       	add	r30, r24
    6d80:	f1 1d       	adc	r31, r1
    6d82:	80 81       	ld	r24, Z
    6d84:	0e 94 f7 35 	call	0x6bee	; 0x6bee <put_char>
    6d88:	14 30       	cpi	r17, 0x04	; 4
    6d8a:	91 f7       	brne	.-28     	; 0x6d70 <print_hex+0x7c>
    6d8c:	0f 90       	pop	r0
    6d8e:	0f 90       	pop	r0
    6d90:	0f 90       	pop	r0
    6d92:	0f 90       	pop	r0
    6d94:	0f 90       	pop	r0
    6d96:	df 91       	pop	r29
    6d98:	cf 91       	pop	r28
    6d9a:	1f 91       	pop	r17
    6d9c:	08 95       	ret

00006d9e <text_scroller>:
    6d9e:	ef 92       	push	r14
    6da0:	ff 92       	push	r15
    6da2:	0f 93       	push	r16
    6da4:	1f 93       	push	r17
    6da6:	cf 93       	push	r28
    6da8:	df 93       	push	r29
    6daa:	8c 01       	movw	r16, r24
    6dac:	f6 2e       	mov	r15, r22
    6dae:	0e 94 85 3a 	call	0x750a	; 0x750a <cls>
    6db2:	82 e0       	ldi	r24, 0x02	; 2
    6db4:	80 93 04 01 	sts	0x0104, r24
    6db8:	e8 01       	movw	r28, r16
    6dba:	21 96       	adiw	r28, 0x01	; 1
    6dbc:	f8 01       	movw	r30, r16
    6dbe:	04 91       	lpm	r16, Z
    6dc0:	00 23       	and	r16, r16
    6dc2:	71 f1       	breq	.+92     	; 0x6e20 <text_scroller+0x82>
    6dc4:	a0 e2       	ldi	r26, 0x20	; 32
    6dc6:	ea 2e       	mov	r14, r26
    6dc8:	10 92 c0 02 	sts	0x02C0, r1
    6dcc:	e0 92 bf 02 	sts	0x02BF, r14
    6dd0:	0a 30       	cpi	r16, 0x0A	; 10
    6dd2:	69 f0       	breq	.+26     	; 0x6dee <text_scroller+0x50>
    6dd4:	80 2f       	mov	r24, r16
    6dd6:	0e 94 f7 35 	call	0x6bee	; 0x6bee <put_char>
    6dda:	21 96       	adiw	r28, 0x01	; 1
    6ddc:	fe 01       	movw	r30, r28
    6dde:	31 97       	sbiw	r30, 0x01	; 1
    6de0:	04 91       	lpm	r16, Z
    6de2:	0e 94 fd 31 	call	0x63fa	; 0x63fa <keypad_break>
    6de6:	81 11       	cpse	r24, r1
    6de8:	2b c0       	rjmp	.+86     	; 0x6e40 <text_scroller+0xa2>
    6dea:	01 11       	cpse	r16, r1
    6dec:	f1 cf       	rjmp	.-30     	; 0x6dd0 <text_scroller+0x32>
    6dee:	18 e0       	ldi	r17, 0x08	; 8
    6df0:	f0 92 c6 02 	sts	0x02C6, r15
    6df4:	80 91 c6 02 	lds	r24, 0x02C6
    6df8:	81 11       	cpse	r24, r1
    6dfa:	fc cf       	rjmp	.-8      	; 0x6df4 <text_scroller+0x56>
    6dfc:	81 e0       	ldi	r24, 0x01	; 1
    6dfe:	0e 94 bd 3a 	call	0x757a	; 0x757a <scroll_up>
    6e02:	0e 94 fd 31 	call	0x63fa	; 0x63fa <keypad_break>
    6e06:	81 11       	cpse	r24, r1
    6e08:	1b c0       	rjmp	.+54     	; 0x6e40 <text_scroller+0xa2>
    6e0a:	11 50       	subi	r17, 0x01	; 1
    6e0c:	89 f7       	brne	.-30     	; 0x6df0 <text_scroller+0x52>
    6e0e:	9e 01       	movw	r18, r28
    6e10:	2f 5f       	subi	r18, 0xFF	; 255
    6e12:	3f 4f       	sbci	r19, 0xFF	; 255
    6e14:	fe 01       	movw	r30, r28
    6e16:	04 91       	lpm	r16, Z
    6e18:	00 23       	and	r16, r16
    6e1a:	11 f0       	breq	.+4      	; 0x6e20 <text_scroller+0x82>
    6e1c:	e9 01       	movw	r28, r18
    6e1e:	d4 cf       	rjmp	.-88     	; 0x6dc8 <text_scroller+0x2a>
    6e20:	c0 e2       	ldi	r28, 0x20	; 32
    6e22:	f0 92 c6 02 	sts	0x02C6, r15
    6e26:	80 91 c6 02 	lds	r24, 0x02C6
    6e2a:	81 11       	cpse	r24, r1
    6e2c:	fc cf       	rjmp	.-8      	; 0x6e26 <text_scroller+0x88>
    6e2e:	81 e0       	ldi	r24, 0x01	; 1
    6e30:	0e 94 bd 3a 	call	0x757a	; 0x757a <scroll_up>
    6e34:	0e 94 fd 31 	call	0x63fa	; 0x63fa <keypad_break>
    6e38:	81 11       	cpse	r24, r1
    6e3a:	02 c0       	rjmp	.+4      	; 0x6e40 <text_scroller+0xa2>
    6e3c:	c1 50       	subi	r28, 0x01	; 1
    6e3e:	89 f7       	brne	.-30     	; 0x6e22 <text_scroller+0x84>
    6e40:	df 91       	pop	r29
    6e42:	cf 91       	pop	r28
    6e44:	1f 91       	pop	r17
    6e46:	0f 91       	pop	r16
    6e48:	ff 90       	pop	r15
    6e4a:	ef 90       	pop	r14
    6e4c:	0c 94 85 3a 	jmp	0x750a	; 0x750a <cls>

00006e50 <sram_wrmode>:
    6e50:	40 98       	cbi	0x08, 0	; 8
    6e52:	9d b5       	in	r25, 0x2d	; 45
    6e54:	91 60       	ori	r25, 0x01	; 1
    6e56:	9d bd       	out	0x2d, r25	; 45
    6e58:	91 e0       	ldi	r25, 0x01	; 1
    6e5a:	9e bd       	out	0x2e, r25	; 46
    6e5c:	0d b4       	in	r0, 0x2d	; 45
    6e5e:	07 fe       	sbrs	r0, 7
    6e60:	fd cf       	rjmp	.-6      	; 0x6e5c <sram_wrmode+0xc>
    6e62:	9d b5       	in	r25, 0x2d	; 45
    6e64:	91 60       	ori	r25, 0x01	; 1
    6e66:	9d bd       	out	0x2d, r25	; 45
    6e68:	8e bd       	out	0x2e, r24	; 46
    6e6a:	0d b4       	in	r0, 0x2d	; 45
    6e6c:	07 fe       	sbrs	r0, 7
    6e6e:	fd cf       	rjmp	.-6      	; 0x6e6a <sram_wrmode+0x1a>
    6e70:	40 9a       	sbi	0x08, 0	; 8
    6e72:	08 95       	ret

00006e74 <sram_clear>:
    6e74:	40 98       	cbi	0x08, 0	; 8
    6e76:	8d b5       	in	r24, 0x2d	; 45
    6e78:	81 60       	ori	r24, 0x01	; 1
    6e7a:	8d bd       	out	0x2d, r24	; 45
    6e7c:	82 e0       	ldi	r24, 0x02	; 2
    6e7e:	8e bd       	out	0x2e, r24	; 46
    6e80:	0d b4       	in	r0, 0x2d	; 45
    6e82:	07 fe       	sbrs	r0, 7
    6e84:	fd cf       	rjmp	.-6      	; 0x6e80 <sram_clear+0xc>
    6e86:	8d b5       	in	r24, 0x2d	; 45
    6e88:	81 60       	ori	r24, 0x01	; 1
    6e8a:	8d bd       	out	0x2d, r24	; 45
    6e8c:	1e bc       	out	0x2e, r1	; 46
    6e8e:	0d b4       	in	r0, 0x2d	; 45
    6e90:	07 fe       	sbrs	r0, 7
    6e92:	fd cf       	rjmp	.-6      	; 0x6e8e <sram_clear+0x1a>
    6e94:	8d b5       	in	r24, 0x2d	; 45
    6e96:	81 60       	ori	r24, 0x01	; 1
    6e98:	8d bd       	out	0x2d, r24	; 45
    6e9a:	1e bc       	out	0x2e, r1	; 46
    6e9c:	0d b4       	in	r0, 0x2d	; 45
    6e9e:	07 fe       	sbrs	r0, 7
    6ea0:	fd cf       	rjmp	.-6      	; 0x6e9c <sram_clear+0x28>
    6ea2:	80 e0       	ldi	r24, 0x00	; 0
    6ea4:	90 e0       	ldi	r25, 0x00	; 0
    6ea6:	a1 e0       	ldi	r26, 0x01	; 1
    6ea8:	b0 e0       	ldi	r27, 0x00	; 0
    6eaa:	2d b5       	in	r18, 0x2d	; 45
    6eac:	21 60       	ori	r18, 0x01	; 1
    6eae:	2d bd       	out	0x2d, r18	; 45
    6eb0:	1e bc       	out	0x2e, r1	; 46
    6eb2:	0d b4       	in	r0, 0x2d	; 45
    6eb4:	07 fe       	sbrs	r0, 7
    6eb6:	fd cf       	rjmp	.-6      	; 0x6eb2 <sram_clear+0x3e>
    6eb8:	01 97       	sbiw	r24, 0x01	; 1
    6eba:	a1 09       	sbc	r26, r1
    6ebc:	b1 09       	sbc	r27, r1
    6ebe:	00 97       	sbiw	r24, 0x00	; 0
    6ec0:	a1 05       	cpc	r26, r1
    6ec2:	b1 05       	cpc	r27, r1
    6ec4:	91 f7       	brne	.-28     	; 0x6eaa <sram_clear+0x36>
    6ec6:	40 9a       	sbi	0x08, 0	; 8
    6ec8:	08 95       	ret

00006eca <sram_init>:
    6eca:	38 9a       	sbi	0x07, 0	; 7
    6ecc:	40 9a       	sbi	0x08, 0	; 8
    6ece:	80 e4       	ldi	r24, 0x40	; 64
    6ed0:	0e 94 28 37 	call	0x6e50	; 0x6e50 <sram_wrmode>
    6ed4:	0c 94 3a 37 	jmp	0x6e74	; 0x6e74 <sram_clear>

00006ed8 <sram_write_byte>:
    6ed8:	40 98       	cbi	0x08, 0	; 8
    6eda:	2d b5       	in	r18, 0x2d	; 45
    6edc:	21 60       	ori	r18, 0x01	; 1
    6ede:	2d bd       	out	0x2d, r18	; 45
    6ee0:	22 e0       	ldi	r18, 0x02	; 2
    6ee2:	2e bd       	out	0x2e, r18	; 46
    6ee4:	0d b4       	in	r0, 0x2d	; 45
    6ee6:	07 fe       	sbrs	r0, 7
    6ee8:	fd cf       	rjmp	.-6      	; 0x6ee4 <sram_write_byte+0xc>
    6eea:	2d b5       	in	r18, 0x2d	; 45
    6eec:	21 60       	ori	r18, 0x01	; 1
    6eee:	2d bd       	out	0x2d, r18	; 45
    6ef0:	9e bd       	out	0x2e, r25	; 46
    6ef2:	0d b4       	in	r0, 0x2d	; 45
    6ef4:	07 fe       	sbrs	r0, 7
    6ef6:	fd cf       	rjmp	.-6      	; 0x6ef2 <sram_write_byte+0x1a>
    6ef8:	9d b5       	in	r25, 0x2d	; 45
    6efa:	91 60       	ori	r25, 0x01	; 1
    6efc:	9d bd       	out	0x2d, r25	; 45
    6efe:	8e bd       	out	0x2e, r24	; 46
    6f00:	0d b4       	in	r0, 0x2d	; 45
    6f02:	07 fe       	sbrs	r0, 7
    6f04:	fd cf       	rjmp	.-6      	; 0x6f00 <sram_write_byte+0x28>
    6f06:	8d b5       	in	r24, 0x2d	; 45
    6f08:	81 60       	ori	r24, 0x01	; 1
    6f0a:	8d bd       	out	0x2d, r24	; 45
    6f0c:	6e bd       	out	0x2e, r22	; 46
    6f0e:	0d b4       	in	r0, 0x2d	; 45
    6f10:	07 fe       	sbrs	r0, 7
    6f12:	fd cf       	rjmp	.-6      	; 0x6f0e <sram_write_byte+0x36>
    6f14:	40 9a       	sbi	0x08, 0	; 8
    6f16:	08 95       	ret

00006f18 <sram_read_byte>:
    6f18:	40 98       	cbi	0x08, 0	; 8
    6f1a:	2d b5       	in	r18, 0x2d	; 45
    6f1c:	21 60       	ori	r18, 0x01	; 1
    6f1e:	2d bd       	out	0x2d, r18	; 45
    6f20:	23 e0       	ldi	r18, 0x03	; 3
    6f22:	2e bd       	out	0x2e, r18	; 46
    6f24:	0d b4       	in	r0, 0x2d	; 45
    6f26:	07 fe       	sbrs	r0, 7
    6f28:	fd cf       	rjmp	.-6      	; 0x6f24 <sram_read_byte+0xc>
    6f2a:	2d b5       	in	r18, 0x2d	; 45
    6f2c:	21 60       	ori	r18, 0x01	; 1
    6f2e:	2d bd       	out	0x2d, r18	; 45
    6f30:	9e bd       	out	0x2e, r25	; 46
    6f32:	0d b4       	in	r0, 0x2d	; 45
    6f34:	07 fe       	sbrs	r0, 7
    6f36:	fd cf       	rjmp	.-6      	; 0x6f32 <sram_read_byte+0x1a>
    6f38:	9d b5       	in	r25, 0x2d	; 45
    6f3a:	91 60       	ori	r25, 0x01	; 1
    6f3c:	9d bd       	out	0x2d, r25	; 45
    6f3e:	8e bd       	out	0x2e, r24	; 46
    6f40:	0d b4       	in	r0, 0x2d	; 45
    6f42:	07 fe       	sbrs	r0, 7
    6f44:	fd cf       	rjmp	.-6      	; 0x6f40 <sram_read_byte+0x28>
    6f46:	8d b5       	in	r24, 0x2d	; 45
    6f48:	81 60       	ori	r24, 0x01	; 1
    6f4a:	8d bd       	out	0x2d, r24	; 45
    6f4c:	1e bc       	out	0x2e, r1	; 46
    6f4e:	0d b4       	in	r0, 0x2d	; 45
    6f50:	07 fe       	sbrs	r0, 7
    6f52:	fd cf       	rjmp	.-6      	; 0x6f4e <sram_read_byte+0x36>
    6f54:	40 9a       	sbi	0x08, 0	; 8
    6f56:	8e b5       	in	r24, 0x2e	; 46
    6f58:	08 95       	ret

00006f5a <sram_read_word>:
    6f5a:	40 98       	cbi	0x08, 0	; 8
    6f5c:	2d b5       	in	r18, 0x2d	; 45
    6f5e:	21 60       	ori	r18, 0x01	; 1
    6f60:	2d bd       	out	0x2d, r18	; 45
    6f62:	23 e0       	ldi	r18, 0x03	; 3
    6f64:	2e bd       	out	0x2e, r18	; 46
    6f66:	0d b4       	in	r0, 0x2d	; 45
    6f68:	07 fe       	sbrs	r0, 7
    6f6a:	fd cf       	rjmp	.-6      	; 0x6f66 <sram_read_word+0xc>
    6f6c:	2d b5       	in	r18, 0x2d	; 45
    6f6e:	21 60       	ori	r18, 0x01	; 1
    6f70:	2d bd       	out	0x2d, r18	; 45
    6f72:	9e bd       	out	0x2e, r25	; 46
    6f74:	0d b4       	in	r0, 0x2d	; 45
    6f76:	07 fe       	sbrs	r0, 7
    6f78:	fd cf       	rjmp	.-6      	; 0x6f74 <sram_read_word+0x1a>
    6f7a:	9d b5       	in	r25, 0x2d	; 45
    6f7c:	91 60       	ori	r25, 0x01	; 1
    6f7e:	9d bd       	out	0x2d, r25	; 45
    6f80:	8e bd       	out	0x2e, r24	; 46
    6f82:	0d b4       	in	r0, 0x2d	; 45
    6f84:	07 fe       	sbrs	r0, 7
    6f86:	fd cf       	rjmp	.-6      	; 0x6f82 <sram_read_word+0x28>
    6f88:	8d b5       	in	r24, 0x2d	; 45
    6f8a:	81 60       	ori	r24, 0x01	; 1
    6f8c:	8d bd       	out	0x2d, r24	; 45
    6f8e:	1e bc       	out	0x2e, r1	; 46
    6f90:	0d b4       	in	r0, 0x2d	; 45
    6f92:	07 fe       	sbrs	r0, 7
    6f94:	fd cf       	rjmp	.-6      	; 0x6f90 <sram_read_word+0x36>
    6f96:	8e b5       	in	r24, 0x2e	; 46
    6f98:	90 e0       	ldi	r25, 0x00	; 0
    6f9a:	2d b5       	in	r18, 0x2d	; 45
    6f9c:	21 60       	ori	r18, 0x01	; 1
    6f9e:	2d bd       	out	0x2d, r18	; 45
    6fa0:	1e bc       	out	0x2e, r1	; 46
    6fa2:	0d b4       	in	r0, 0x2d	; 45
    6fa4:	07 fe       	sbrs	r0, 7
    6fa6:	fd cf       	rjmp	.-6      	; 0x6fa2 <sram_read_word+0x48>
    6fa8:	2e b5       	in	r18, 0x2e	; 46
    6faa:	40 9a       	sbi	0x08, 0	; 8
    6fac:	92 2b       	or	r25, r18
    6fae:	08 95       	ret

00006fb0 <sram_load_block>:
    6fb0:	40 98       	cbi	0x08, 0	; 8
    6fb2:	2d b5       	in	r18, 0x2d	; 45
    6fb4:	21 60       	ori	r18, 0x01	; 1
    6fb6:	2d bd       	out	0x2d, r18	; 45
    6fb8:	23 e0       	ldi	r18, 0x03	; 3
    6fba:	2e bd       	out	0x2e, r18	; 46
    6fbc:	0d b4       	in	r0, 0x2d	; 45
    6fbe:	07 fe       	sbrs	r0, 7
    6fc0:	fd cf       	rjmp	.-6      	; 0x6fbc <sram_load_block+0xc>
    6fc2:	2d b5       	in	r18, 0x2d	; 45
    6fc4:	21 60       	ori	r18, 0x01	; 1
    6fc6:	2d bd       	out	0x2d, r18	; 45
    6fc8:	9e bd       	out	0x2e, r25	; 46
    6fca:	0d b4       	in	r0, 0x2d	; 45
    6fcc:	07 fe       	sbrs	r0, 7
    6fce:	fd cf       	rjmp	.-6      	; 0x6fca <sram_load_block+0x1a>
    6fd0:	9d b5       	in	r25, 0x2d	; 45
    6fd2:	91 60       	ori	r25, 0x01	; 1
    6fd4:	9d bd       	out	0x2d, r25	; 45
    6fd6:	8e bd       	out	0x2e, r24	; 46
    6fd8:	0d b4       	in	r0, 0x2d	; 45
    6fda:	07 fe       	sbrs	r0, 7
    6fdc:	fd cf       	rjmp	.-6      	; 0x6fd8 <sram_load_block+0x28>
    6fde:	61 15       	cp	r22, r1
    6fe0:	71 05       	cpc	r23, r1
    6fe2:	79 f0       	breq	.+30     	; 0x7002 <sram_load_block+0x52>
    6fe4:	fa 01       	movw	r30, r20
    6fe6:	64 0f       	add	r22, r20
    6fe8:	75 1f       	adc	r23, r21
    6fea:	8d b5       	in	r24, 0x2d	; 45
    6fec:	81 60       	ori	r24, 0x01	; 1
    6fee:	8d bd       	out	0x2d, r24	; 45
    6ff0:	1e bc       	out	0x2e, r1	; 46
    6ff2:	0d b4       	in	r0, 0x2d	; 45
    6ff4:	07 fe       	sbrs	r0, 7
    6ff6:	fd cf       	rjmp	.-6      	; 0x6ff2 <sram_load_block+0x42>
    6ff8:	8e b5       	in	r24, 0x2e	; 46
    6ffa:	81 93       	st	Z+, r24
    6ffc:	e6 17       	cp	r30, r22
    6ffe:	f7 07       	cpc	r31, r23
    7000:	a1 f7       	brne	.-24     	; 0x6fea <sram_load_block+0x3a>
    7002:	40 9a       	sbi	0x08, 0	; 8
    7004:	08 95       	ret

00007006 <sram_store_block>:
    7006:	40 98       	cbi	0x08, 0	; 8
    7008:	2d b5       	in	r18, 0x2d	; 45
    700a:	21 60       	ori	r18, 0x01	; 1
    700c:	2d bd       	out	0x2d, r18	; 45
    700e:	22 e0       	ldi	r18, 0x02	; 2
    7010:	2e bd       	out	0x2e, r18	; 46
    7012:	0d b4       	in	r0, 0x2d	; 45
    7014:	07 fe       	sbrs	r0, 7
    7016:	fd cf       	rjmp	.-6      	; 0x7012 <sram_store_block+0xc>
    7018:	2d b5       	in	r18, 0x2d	; 45
    701a:	21 60       	ori	r18, 0x01	; 1
    701c:	2d bd       	out	0x2d, r18	; 45
    701e:	9e bd       	out	0x2e, r25	; 46
    7020:	0d b4       	in	r0, 0x2d	; 45
    7022:	07 fe       	sbrs	r0, 7
    7024:	fd cf       	rjmp	.-6      	; 0x7020 <sram_store_block+0x1a>
    7026:	9d b5       	in	r25, 0x2d	; 45
    7028:	91 60       	ori	r25, 0x01	; 1
    702a:	9d bd       	out	0x2d, r25	; 45
    702c:	8e bd       	out	0x2e, r24	; 46
    702e:	0d b4       	in	r0, 0x2d	; 45
    7030:	07 fe       	sbrs	r0, 7
    7032:	fd cf       	rjmp	.-6      	; 0x702e <sram_store_block+0x28>
    7034:	61 15       	cp	r22, r1
    7036:	71 05       	cpc	r23, r1
    7038:	71 f0       	breq	.+28     	; 0x7056 <sram_store_block+0x50>
    703a:	fa 01       	movw	r30, r20
    703c:	64 0f       	add	r22, r20
    703e:	75 1f       	adc	r23, r21
    7040:	91 91       	ld	r25, Z+
    7042:	8d b5       	in	r24, 0x2d	; 45
    7044:	81 60       	ori	r24, 0x01	; 1
    7046:	8d bd       	out	0x2d, r24	; 45
    7048:	9e bd       	out	0x2e, r25	; 46
    704a:	0d b4       	in	r0, 0x2d	; 45
    704c:	07 fe       	sbrs	r0, 7
    704e:	fd cf       	rjmp	.-6      	; 0x704a <sram_store_block+0x44>
    7050:	e6 17       	cp	r30, r22
    7052:	f7 07       	cpc	r31, r23
    7054:	a9 f7       	brne	.-22     	; 0x7040 <sram_store_block+0x3a>
    7056:	40 9a       	sbi	0x08, 0	; 8
    7058:	08 95       	ret

0000705a <tone_init>:
    705a:	56 9a       	sbi	0x0a, 6	; 10
    705c:	83 e0       	ldi	r24, 0x03	; 3
    705e:	85 bd       	out	0x25, r24	; 37
    7060:	82 e4       	ldi	r24, 0x42	; 66
    7062:	84 bd       	out	0x24, r24	; 36
    7064:	08 95       	ret

00007066 <tone>:
    7066:	cf 93       	push	r28
    7068:	c6 2f       	mov	r28, r22
    706a:	9c 01       	movw	r18, r24
    706c:	40 e0       	ldi	r20, 0x00	; 0
    706e:	50 e0       	ldi	r21, 0x00	; 0
    7070:	68 e4       	ldi	r22, 0x48	; 72
    7072:	78 ee       	ldi	r23, 0xE8	; 232
    7074:	81 e0       	ldi	r24, 0x01	; 1
    7076:	90 e0       	ldi	r25, 0x00	; 0
    7078:	0e 94 45 3c 	call	0x788a	; 0x788a <__divmodsi4>
    707c:	21 50       	subi	r18, 0x01	; 1
    707e:	27 bd       	out	0x27, r18	; 39
    7080:	56 9a       	sbi	0x0a, 6	; 10
    7082:	c0 93 c5 02 	sts	0x02C5, r28
    7086:	cf 91       	pop	r28
    7088:	08 95       	ret

0000708a <key_tone>:
    708a:	cf 93       	push	r28
    708c:	df 93       	push	r29
    708e:	d6 2f       	mov	r29, r22
    7090:	c4 2f       	mov	r28, r20
    7092:	8f 70       	andi	r24, 0x0F	; 15
    7094:	e8 2f       	mov	r30, r24
    7096:	f0 e0       	ldi	r31, 0x00	; 0
    7098:	ee 0f       	add	r30, r30
    709a:	ff 1f       	adc	r31, r31
    709c:	e9 55       	subi	r30, 0x59	; 89
    709e:	fa 4b       	sbci	r31, 0xBA	; 186
    70a0:	25 91       	lpm	r18, Z+
    70a2:	34 91       	lpm	r19, Z
    70a4:	40 e0       	ldi	r20, 0x00	; 0
    70a6:	50 e0       	ldi	r21, 0x00	; 0
    70a8:	68 e4       	ldi	r22, 0x48	; 72
    70aa:	78 ee       	ldi	r23, 0xE8	; 232
    70ac:	81 e0       	ldi	r24, 0x01	; 1
    70ae:	90 e0       	ldi	r25, 0x00	; 0
    70b0:	0e 94 45 3c 	call	0x788a	; 0x788a <__divmodsi4>
    70b4:	21 50       	subi	r18, 0x01	; 1
    70b6:	27 bd       	out	0x27, r18	; 39
    70b8:	56 9a       	sbi	0x0a, 6	; 10
    70ba:	d0 93 c5 02 	sts	0x02C5, r29
    70be:	cc 23       	and	r28, r28
    70c0:	11 f0       	breq	.+4      	; 0x70c6 <key_tone+0x3c>
    70c2:	56 99       	sbic	0x0a, 6	; 10
    70c4:	fe cf       	rjmp	.-4      	; 0x70c2 <key_tone+0x38>
    70c6:	df 91       	pop	r29
    70c8:	cf 91       	pop	r28
    70ca:	08 95       	ret

000070cc <tvout_init>:
    70cc:	22 9a       	sbi	0x04, 2	; 4
    70ce:	82 ec       	ldi	r24, 0xC2	; 194
    70d0:	80 93 c2 00 	sts	0x00C2, r24
    70d4:	87 ef       	ldi	r24, 0xF7	; 247
    70d6:	93 e0       	ldi	r25, 0x03	; 3
    70d8:	90 93 89 00 	sts	0x0089, r25
    70dc:	80 93 88 00 	sts	0x0088, r24
    70e0:	83 e6       	ldi	r24, 0x63	; 99
    70e2:	93 e0       	ldi	r25, 0x03	; 3
    70e4:	90 93 8b 00 	sts	0x008B, r25
    70e8:	80 93 8a 00 	sts	0x008A, r24
    70ec:	83 e3       	ldi	r24, 0x33	; 51
    70ee:	80 93 80 00 	sts	0x0080, r24
    70f2:	89 e1       	ldi	r24, 0x19	; 25
    70f4:	80 93 81 00 	sts	0x0081, r24
    70f8:	ef e6       	ldi	r30, 0x6F	; 111
    70fa:	f0 e0       	ldi	r31, 0x00	; 0
    70fc:	80 81       	ld	r24, Z
    70fe:	84 60       	ori	r24, 0x04	; 4
    7100:	80 83       	st	Z, r24
    7102:	08 95       	ret

00007104 <plot>:
    7104:	87 fd       	sbrc	r24, 7
    7106:	21 c0       	rjmp	.+66     	; 0x714a <plot+0x46>
    7108:	68 35       	cpi	r22, 0x58	; 88
    710a:	f8 f4       	brcc	.+62     	; 0x714a <plot+0x46>
    710c:	e8 2f       	mov	r30, r24
    710e:	e5 95       	asr	r30
    7110:	e5 95       	asr	r30
    7112:	e5 95       	asr	r30
    7114:	80 95       	com	r24
    7116:	87 70       	andi	r24, 0x07	; 7
    7118:	41 30       	cpi	r20, 0x01	; 1
    711a:	61 f1       	breq	.+88     	; 0x7174 <plot+0x70>
    711c:	b8 f0       	brcs	.+46     	; 0x714c <plot+0x48>
    711e:	42 30       	cpi	r20, 0x02	; 2
    7120:	09 f0       	breq	.+2      	; 0x7124 <plot+0x20>
    7122:	08 95       	ret
    7124:	ff 27       	eor	r31, r31
    7126:	e7 fd       	sbrc	r30, 7
    7128:	f0 95       	com	r31
    712a:	90 e1       	ldi	r25, 0x10	; 16
    712c:	69 02       	muls	r22, r25
    712e:	e0 0d       	add	r30, r0
    7130:	f1 1d       	adc	r31, r1
    7132:	11 24       	eor	r1, r1
    7134:	e9 53       	subi	r30, 0x39	; 57
    7136:	fd 4f       	sbci	r31, 0xFD	; 253
    7138:	21 e0       	ldi	r18, 0x01	; 1
    713a:	30 e0       	ldi	r19, 0x00	; 0
    713c:	01 c0       	rjmp	.+2      	; 0x7140 <plot+0x3c>
    713e:	22 0f       	add	r18, r18
    7140:	8a 95       	dec	r24
    7142:	ea f7       	brpl	.-6      	; 0x713e <plot+0x3a>
    7144:	80 81       	ld	r24, Z
    7146:	82 27       	eor	r24, r18
    7148:	80 83       	st	Z, r24
    714a:	08 95       	ret
    714c:	ff 27       	eor	r31, r31
    714e:	e7 fd       	sbrc	r30, 7
    7150:	f0 95       	com	r31
    7152:	90 e1       	ldi	r25, 0x10	; 16
    7154:	69 02       	muls	r22, r25
    7156:	e0 0d       	add	r30, r0
    7158:	f1 1d       	adc	r31, r1
    715a:	11 24       	eor	r1, r1
    715c:	e9 53       	subi	r30, 0x39	; 57
    715e:	fd 4f       	sbci	r31, 0xFD	; 253
    7160:	21 e0       	ldi	r18, 0x01	; 1
    7162:	30 e0       	ldi	r19, 0x00	; 0
    7164:	01 c0       	rjmp	.+2      	; 0x7168 <plot+0x64>
    7166:	22 0f       	add	r18, r18
    7168:	8a 95       	dec	r24
    716a:	ea f7       	brpl	.-6      	; 0x7166 <plot+0x62>
    716c:	80 81       	ld	r24, Z
    716e:	82 2b       	or	r24, r18
    7170:	80 83       	st	Z, r24
    7172:	08 95       	ret
    7174:	ff 27       	eor	r31, r31
    7176:	e7 fd       	sbrc	r30, 7
    7178:	f0 95       	com	r31
    717a:	90 e1       	ldi	r25, 0x10	; 16
    717c:	69 02       	muls	r22, r25
    717e:	e0 0d       	add	r30, r0
    7180:	f1 1d       	adc	r31, r1
    7182:	11 24       	eor	r1, r1
    7184:	e9 53       	subi	r30, 0x39	; 57
    7186:	fd 4f       	sbci	r31, 0xFD	; 253
    7188:	21 e0       	ldi	r18, 0x01	; 1
    718a:	30 e0       	ldi	r19, 0x00	; 0
    718c:	01 c0       	rjmp	.+2      	; 0x7190 <plot+0x8c>
    718e:	22 0f       	add	r18, r18
    7190:	8a 95       	dec	r24
    7192:	ea f7       	brpl	.-6      	; 0x718e <plot+0x8a>
    7194:	20 95       	com	r18
    7196:	80 81       	ld	r24, Z
    7198:	28 23       	and	r18, r24
    719a:	20 83       	st	Z, r18
    719c:	08 95       	ret

0000719e <put_sprite>:
    719e:	af 92       	push	r10
    71a0:	bf 92       	push	r11
    71a2:	cf 92       	push	r12
    71a4:	df 92       	push	r13
    71a6:	ef 92       	push	r14
    71a8:	ff 92       	push	r15
    71aa:	0f 93       	push	r16
    71ac:	1f 93       	push	r17
    71ae:	cf 93       	push	r28
    71b0:	df 93       	push	r29
    71b2:	89 3f       	cpi	r24, 0xF9	; 249
    71b4:	0c f4       	brge	.+2      	; 0x71b8 <put_sprite+0x1a>
    71b6:	63 c0       	rjmp	.+198    	; 0x727e <put_sprite+0xe0>
    71b8:	9e e0       	ldi	r25, 0x0E	; 14
    71ba:	96 0f       	add	r25, r22
    71bc:	96 36       	cpi	r25, 0x66	; 102
    71be:	08 f0       	brcs	.+2      	; 0x71c2 <put_sprite+0x24>
    71c0:	5e c0       	rjmp	.+188    	; 0x727e <put_sprite+0xe0>
    71c2:	87 fd       	sbrc	r24, 7
    71c4:	68 c0       	rjmp	.+208    	; 0x7296 <put_sprite+0xf8>
    71c6:	98 2f       	mov	r25, r24
    71c8:	97 70       	andi	r25, 0x07	; 7
    71ca:	c9 2e       	mov	r12, r25
    71cc:	d9 2e       	mov	r13, r25
    71ce:	d1 94       	neg	r13
    71d0:	ed 2d       	mov	r30, r13
    71d2:	e7 70       	andi	r30, 0x07	; 7
    71d4:	de 2e       	mov	r13, r30
    71d6:	b8 2e       	mov	r11, r24
    71d8:	b5 94       	asr	r11
    71da:	b5 94       	asr	r11
    71dc:	b5 94       	asr	r11
    71de:	50 e0       	ldi	r21, 0x00	; 0
    71e0:	41 15       	cp	r20, r1
    71e2:	51 05       	cpc	r21, r1
    71e4:	09 f4       	brne	.+2      	; 0x71e8 <put_sprite+0x4a>
    71e6:	4b c0       	rjmp	.+150    	; 0x727e <put_sprite+0xe0>
    71e8:	10 e0       	ldi	r17, 0x00	; 0
    71ea:	70 e0       	ldi	r23, 0x00	; 0
    71ec:	eb 2c       	mov	r14, r11
    71ee:	ff 24       	eor	r15, r15
    71f0:	e7 fc       	sbrc	r14, 7
    71f2:	f0 94       	com	r15
    71f4:	35 c0       	rjmp	.+106    	; 0x7260 <put_sprite+0xc2>
    71f6:	c4 91       	lpm	r28, Z
    71f8:	c7 01       	movw	r24, r14
    71fa:	e0 e1       	ldi	r30, 0x10	; 16
    71fc:	6e 02       	muls	r22, r30
    71fe:	80 0d       	add	r24, r0
    7200:	91 1d       	adc	r25, r1
    7202:	11 24       	eor	r1, r1
    7204:	dc 01       	movw	r26, r24
    7206:	a9 53       	subi	r26, 0x39	; 57
    7208:	bd 4f       	sbci	r27, 0xFD	; 253
    720a:	ac 90       	ld	r10, X
    720c:	d0 e0       	ldi	r29, 0x00	; 0
    720e:	fe 01       	movw	r30, r28
    7210:	0c 2c       	mov	r0, r12
    7212:	02 c0       	rjmp	.+4      	; 0x7218 <put_sprite+0x7a>
    7214:	f5 95       	asr	r31
    7216:	e7 95       	ror	r30
    7218:	0a 94       	dec	r0
    721a:	e2 f7       	brpl	.-8      	; 0x7214 <put_sprite+0x76>
    721c:	fa 2d       	mov	r31, r10
    721e:	fe 23       	and	r31, r30
    7220:	1f 2b       	or	r17, r31
    7222:	ea 25       	eor	r30, r10
    7224:	ec 93       	st	X, r30
    7226:	dd 20       	and	r13, r13
    7228:	89 f0       	breq	.+34     	; 0x724c <put_sprite+0xae>
    722a:	ef e0       	ldi	r30, 0x0F	; 15
    722c:	be 16       	cp	r11, r30
    722e:	71 f0       	breq	.+28     	; 0x724c <put_sprite+0xae>
    7230:	fc 01       	movw	r30, r24
    7232:	e8 53       	subi	r30, 0x38	; 56
    7234:	fd 4f       	sbci	r31, 0xFD	; 253
    7236:	80 81       	ld	r24, Z
    7238:	0d 2c       	mov	r0, r13
    723a:	01 c0       	rjmp	.+2      	; 0x723e <put_sprite+0xa0>
    723c:	cc 0f       	add	r28, r28
    723e:	0a 94       	dec	r0
    7240:	ea f7       	brpl	.-6      	; 0x723c <put_sprite+0x9e>
    7242:	9c 2f       	mov	r25, r28
    7244:	98 23       	and	r25, r24
    7246:	19 2b       	or	r17, r25
    7248:	c8 27       	eor	r28, r24
    724a:	c0 83       	st	Z, r28
    724c:	6f 5f       	subi	r22, 0xFF	; 255
    724e:	7f 5f       	subi	r23, 0xFF	; 255
    7250:	e7 2f       	mov	r30, r23
    7252:	ff 27       	eor	r31, r31
    7254:	e7 fd       	sbrc	r30, 7
    7256:	f0 95       	com	r31
    7258:	e4 17       	cp	r30, r20
    725a:	f5 07       	cpc	r31, r21
    725c:	0c f0       	brlt	.+2      	; 0x7260 <put_sprite+0xc2>
    725e:	49 c0       	rjmp	.+146    	; 0x72f2 <put_sprite+0x154>
    7260:	68 35       	cpi	r22, 0x58	; 88
    7262:	a0 f7       	brcc	.-24     	; 0x724c <put_sprite+0xae>
    7264:	f9 01       	movw	r30, r18
    7266:	e7 0f       	add	r30, r23
    7268:	f1 1d       	adc	r31, r1
    726a:	77 fd       	sbrc	r23, 7
    726c:	fa 95       	dec	r31
    726e:	01 30       	cpi	r16, 0x01	; 1
    7270:	09 f0       	breq	.+2      	; 0x7274 <put_sprite+0xd6>
    7272:	c1 cf       	rjmp	.-126    	; 0x71f6 <put_sprite+0x58>
    7274:	c0 81       	ld	r28, Z
    7276:	c0 cf       	rjmp	.-128    	; 0x71f8 <put_sprite+0x5a>
    7278:	81 e0       	ldi	r24, 0x01	; 1
    727a:	c1 11       	cpse	r28, r1
    727c:	01 c0       	rjmp	.+2      	; 0x7280 <put_sprite+0xe2>
    727e:	80 e0       	ldi	r24, 0x00	; 0
    7280:	df 91       	pop	r29
    7282:	cf 91       	pop	r28
    7284:	1f 91       	pop	r17
    7286:	0f 91       	pop	r16
    7288:	ff 90       	pop	r15
    728a:	ef 90       	pop	r14
    728c:	df 90       	pop	r13
    728e:	cf 90       	pop	r12
    7290:	bf 90       	pop	r11
    7292:	af 90       	pop	r10
    7294:	08 95       	ret
    7296:	81 95       	neg	r24
    7298:	50 e0       	ldi	r21, 0x00	; 0
    729a:	41 15       	cp	r20, r1
    729c:	51 05       	cpc	r21, r1
    729e:	79 f3       	breq	.-34     	; 0x727e <put_sprite+0xe0>
    72a0:	c0 e0       	ldi	r28, 0x00	; 0
    72a2:	90 e0       	ldi	r25, 0x00	; 0
    72a4:	1b c0       	rjmp	.+54     	; 0x72dc <put_sprite+0x13e>
    72a6:	e4 91       	lpm	r30, Z
    72a8:	70 e1       	ldi	r23, 0x10	; 16
    72aa:	67 02       	muls	r22, r23
    72ac:	d0 01       	movw	r26, r0
    72ae:	11 24       	eor	r1, r1
    72b0:	a9 53       	subi	r26, 0x39	; 57
    72b2:	bd 4f       	sbci	r27, 0xFD	; 253
    72b4:	7c 91       	ld	r23, X
    72b6:	08 2e       	mov	r0, r24
    72b8:	01 c0       	rjmp	.+2      	; 0x72bc <put_sprite+0x11e>
    72ba:	ee 0f       	add	r30, r30
    72bc:	0a 94       	dec	r0
    72be:	ea f7       	brpl	.-6      	; 0x72ba <put_sprite+0x11c>
    72c0:	f7 2f       	mov	r31, r23
    72c2:	fe 23       	and	r31, r30
    72c4:	cf 2b       	or	r28, r31
    72c6:	e7 27       	eor	r30, r23
    72c8:	ec 93       	st	X, r30
    72ca:	6f 5f       	subi	r22, 0xFF	; 255
    72cc:	9f 5f       	subi	r25, 0xFF	; 255
    72ce:	e9 2f       	mov	r30, r25
    72d0:	ff 27       	eor	r31, r31
    72d2:	e7 fd       	sbrc	r30, 7
    72d4:	f0 95       	com	r31
    72d6:	e4 17       	cp	r30, r20
    72d8:	f5 07       	cpc	r31, r21
    72da:	74 f6       	brge	.-100    	; 0x7278 <put_sprite+0xda>
    72dc:	68 35       	cpi	r22, 0x58	; 88
    72de:	a8 f7       	brcc	.-22     	; 0x72ca <put_sprite+0x12c>
    72e0:	f9 01       	movw	r30, r18
    72e2:	e9 0f       	add	r30, r25
    72e4:	f1 1d       	adc	r31, r1
    72e6:	97 fd       	sbrc	r25, 7
    72e8:	fa 95       	dec	r31
    72ea:	01 30       	cpi	r16, 0x01	; 1
    72ec:	e1 f6       	brne	.-72     	; 0x72a6 <put_sprite+0x108>
    72ee:	e0 81       	ld	r30, Z
    72f0:	db cf       	rjmp	.-74     	; 0x72a8 <put_sprite+0x10a>
    72f2:	81 e0       	ldi	r24, 0x01	; 1
    72f4:	11 11       	cpse	r17, r1
    72f6:	c4 cf       	rjmp	.-120    	; 0x7280 <put_sprite+0xe2>
    72f8:	c2 cf       	rjmp	.-124    	; 0x727e <put_sprite+0xe0>

000072fa <put_big_sprite>:
    72fa:	8f 92       	push	r8
    72fc:	9f 92       	push	r9
    72fe:	af 92       	push	r10
    7300:	bf 92       	push	r11
    7302:	df 92       	push	r13
    7304:	ef 92       	push	r14
    7306:	ff 92       	push	r15
    7308:	0f 93       	push	r16
    730a:	1f 93       	push	r17
    730c:	cf 93       	push	r28
    730e:	df 93       	push	r29
    7310:	81 3f       	cpi	r24, 0xF1	; 241
    7312:	0c f4       	brge	.+2      	; 0x7316 <put_big_sprite+0x1c>
    7314:	a7 c0       	rjmp	.+334    	; 0x7464 <put_big_sprite+0x16a>
    7316:	9f e0       	ldi	r25, 0x0F	; 15
    7318:	96 0f       	add	r25, r22
    731a:	97 36       	cpi	r25, 0x67	; 103
    731c:	08 f0       	brcs	.+2      	; 0x7320 <put_big_sprite+0x26>
    731e:	a2 c0       	rjmp	.+324    	; 0x7464 <put_big_sprite+0x16a>
    7320:	89 3f       	cpi	r24, 0xF9	; 249
    7322:	0c f4       	brge	.+2      	; 0x7326 <put_big_sprite+0x2c>
    7324:	7d c0       	rjmp	.+250    	; 0x7420 <put_big_sprite+0x126>
    7326:	87 fd       	sbrc	r24, 7
    7328:	aa c0       	rjmp	.+340    	; 0x747e <put_big_sprite+0x184>
    732a:	98 2f       	mov	r25, r24
    732c:	97 70       	andi	r25, 0x07	; 7
    732e:	d9 2e       	mov	r13, r25
    7330:	d1 94       	neg	r13
    7332:	fd 2d       	mov	r31, r13
    7334:	f7 70       	andi	r31, 0x07	; 7
    7336:	df 2e       	mov	r13, r31
    7338:	85 95       	asr	r24
    733a:	85 95       	asr	r24
    733c:	85 95       	asr	r24
    733e:	fa 01       	movw	r30, r20
    7340:	31 96       	adiw	r30, 0x01	; 1
    7342:	4f 5d       	subi	r20, 0xDF	; 223
    7344:	5f 4f       	sbci	r21, 0xFF	; 255
    7346:	70 e0       	ldi	r23, 0x00	; 0
    7348:	e8 2e       	mov	r14, r24
    734a:	ff 24       	eor	r15, r15
    734c:	e7 fc       	sbrc	r14, 7
    734e:	f0 94       	com	r15
    7350:	17 c0       	rjmp	.+46     	; 0x7380 <put_big_sprite+0x86>
    7352:	e4 01       	movw	r28, r8
    7354:	c8 53       	subi	r28, 0x38	; 56
    7356:	dd 4f       	sbci	r29, 0xFD	; 253
    7358:	a8 81       	ld	r26, Y
    735a:	20 81       	ld	r18, Z
    735c:	30 e0       	ldi	r19, 0x00	; 0
    735e:	09 2e       	mov	r0, r25
    7360:	02 c0       	rjmp	.+4      	; 0x7366 <put_big_sprite+0x6c>
    7362:	35 95       	asr	r19
    7364:	27 95       	ror	r18
    7366:	0a 94       	dec	r0
    7368:	e2 f7       	brpl	.-8      	; 0x7362 <put_big_sprite+0x68>
    736a:	3a 2f       	mov	r19, r26
    736c:	32 23       	and	r19, r18
    736e:	73 2b       	or	r23, r19
    7370:	2a 27       	eor	r18, r26
    7372:	28 83       	st	Y, r18
    7374:	6f 5f       	subi	r22, 0xFF	; 255
    7376:	32 96       	adiw	r30, 0x02	; 2
    7378:	e4 17       	cp	r30, r20
    737a:	f5 07       	cpc	r31, r21
    737c:	09 f4       	brne	.+2      	; 0x7380 <put_big_sprite+0x86>
    737e:	6f c0       	rjmp	.+222    	; 0x745e <put_big_sprite+0x164>
    7380:	68 35       	cpi	r22, 0x58	; 88
    7382:	c0 f7       	brcc	.-16     	; 0x7374 <put_big_sprite+0x7a>
    7384:	47 01       	movw	r8, r14
    7386:	20 e1       	ldi	r18, 0x10	; 16
    7388:	62 02       	muls	r22, r18
    738a:	80 0c       	add	r8, r0
    738c:	91 1c       	adc	r9, r1
    738e:	11 24       	eor	r1, r1
    7390:	d4 01       	movw	r26, r8
    7392:	a9 53       	subi	r26, 0x39	; 57
    7394:	bd 4f       	sbci	r27, 0xFD	; 253
    7396:	bc 90       	ld	r11, X
    7398:	8f 01       	movw	r16, r30
    739a:	01 50       	subi	r16, 0x01	; 1
    739c:	11 09       	sbc	r17, r1
    739e:	e8 01       	movw	r28, r16
    73a0:	08 81       	ld	r16, Y
    73a2:	10 e0       	ldi	r17, 0x00	; 0
    73a4:	98 01       	movw	r18, r16
    73a6:	09 2e       	mov	r0, r25
    73a8:	02 c0       	rjmp	.+4      	; 0x73ae <put_big_sprite+0xb4>
    73aa:	35 95       	asr	r19
    73ac:	27 95       	ror	r18
    73ae:	0a 94       	dec	r0
    73b0:	e2 f7       	brpl	.-8      	; 0x73aa <put_big_sprite+0xb0>
    73b2:	3b 2d       	mov	r19, r11
    73b4:	32 23       	and	r19, r18
    73b6:	73 2b       	or	r23, r19
    73b8:	2b 25       	eor	r18, r11
    73ba:	2c 93       	st	X, r18
    73bc:	8f 30       	cpi	r24, 0x0F	; 15
    73be:	d1 f2       	breq	.-76     	; 0x7374 <put_big_sprite+0x7a>
    73c0:	dd 20       	and	r13, r13
    73c2:	39 f2       	breq	.-114    	; 0x7352 <put_big_sprite+0x58>
    73c4:	d4 01       	movw	r26, r8
    73c6:	a8 53       	subi	r26, 0x38	; 56
    73c8:	bd 4f       	sbci	r27, 0xFD	; 253
    73ca:	2c 91       	ld	r18, X
    73cc:	0d 2c       	mov	r0, r13
    73ce:	01 c0       	rjmp	.+2      	; 0x73d2 <put_big_sprite+0xd8>
    73d0:	00 0f       	add	r16, r16
    73d2:	0a 94       	dec	r0
    73d4:	ea f7       	brpl	.-6      	; 0x73d0 <put_big_sprite+0xd6>
    73d6:	32 2f       	mov	r19, r18
    73d8:	30 23       	and	r19, r16
    73da:	73 2b       	or	r23, r19
    73dc:	02 27       	eor	r16, r18
    73de:	0c 93       	st	X, r16
    73e0:	a0 80       	ld	r10, Z
    73e2:	b1 2c       	mov	r11, r1
    73e4:	95 01       	movw	r18, r10
    73e6:	09 2e       	mov	r0, r25
    73e8:	02 c0       	rjmp	.+4      	; 0x73ee <put_big_sprite+0xf4>
    73ea:	35 95       	asr	r19
    73ec:	27 95       	ror	r18
    73ee:	0a 94       	dec	r0
    73f0:	e2 f7       	brpl	.-8      	; 0x73ea <put_big_sprite+0xf0>
    73f2:	30 2f       	mov	r19, r16
    73f4:	32 23       	and	r19, r18
    73f6:	73 2b       	or	r23, r19
    73f8:	02 27       	eor	r16, r18
    73fa:	0c 93       	st	X, r16
    73fc:	8e 30       	cpi	r24, 0x0E	; 14
    73fe:	09 f4       	brne	.+2      	; 0x7402 <put_big_sprite+0x108>
    7400:	b9 cf       	rjmp	.-142    	; 0x7374 <put_big_sprite+0x7a>
    7402:	e4 01       	movw	r28, r8
    7404:	c7 53       	subi	r28, 0x37	; 55
    7406:	dd 4f       	sbci	r29, 0xFD	; 253
    7408:	28 81       	ld	r18, Y
    740a:	0d 2c       	mov	r0, r13
    740c:	01 c0       	rjmp	.+2      	; 0x7410 <put_big_sprite+0x116>
    740e:	aa 0c       	add	r10, r10
    7410:	0a 94       	dec	r0
    7412:	ea f7       	brpl	.-6      	; 0x740e <put_big_sprite+0x114>
    7414:	32 2f       	mov	r19, r18
    7416:	3a 21       	and	r19, r10
    7418:	73 2b       	or	r23, r19
    741a:	a2 26       	eor	r10, r18
    741c:	a8 82       	st	Y, r10
    741e:	aa cf       	rjmp	.-172    	; 0x7374 <put_big_sprite+0x7a>
    7420:	c8 ef       	ldi	r28, 0xF8	; 248
    7422:	c8 1b       	sub	r28, r24
    7424:	fa 01       	movw	r30, r20
    7426:	31 96       	adiw	r30, 0x01	; 1
    7428:	20 e1       	ldi	r18, 0x10	; 16
    742a:	70 e0       	ldi	r23, 0x00	; 0
    742c:	68 35       	cpi	r22, 0x58	; 88
    742e:	90 f4       	brcc	.+36     	; 0x7454 <put_big_sprite+0x15a>
    7430:	80 e1       	ldi	r24, 0x10	; 16
    7432:	68 02       	muls	r22, r24
    7434:	d0 01       	movw	r26, r0
    7436:	11 24       	eor	r1, r1
    7438:	a9 53       	subi	r26, 0x39	; 57
    743a:	bd 4f       	sbci	r27, 0xFD	; 253
    743c:	3c 91       	ld	r19, X
    743e:	80 81       	ld	r24, Z
    7440:	0c 2e       	mov	r0, r28
    7442:	01 c0       	rjmp	.+2      	; 0x7446 <put_big_sprite+0x14c>
    7444:	88 0f       	add	r24, r24
    7446:	0a 94       	dec	r0
    7448:	ea f7       	brpl	.-6      	; 0x7444 <put_big_sprite+0x14a>
    744a:	93 2f       	mov	r25, r19
    744c:	98 23       	and	r25, r24
    744e:	79 2b       	or	r23, r25
    7450:	83 27       	eor	r24, r19
    7452:	8c 93       	st	X, r24
    7454:	6f 5f       	subi	r22, 0xFF	; 255
    7456:	21 50       	subi	r18, 0x01	; 1
    7458:	32 96       	adiw	r30, 0x02	; 2
    745a:	21 11       	cpse	r18, r1
    745c:	e7 cf       	rjmp	.-50     	; 0x742c <put_big_sprite+0x132>
    745e:	81 e0       	ldi	r24, 0x01	; 1
    7460:	71 11       	cpse	r23, r1
    7462:	01 c0       	rjmp	.+2      	; 0x7466 <put_big_sprite+0x16c>
    7464:	80 e0       	ldi	r24, 0x00	; 0
    7466:	df 91       	pop	r29
    7468:	cf 91       	pop	r28
    746a:	1f 91       	pop	r17
    746c:	0f 91       	pop	r16
    746e:	ff 90       	pop	r15
    7470:	ef 90       	pop	r14
    7472:	df 90       	pop	r13
    7474:	bf 90       	pop	r11
    7476:	af 90       	pop	r10
    7478:	9f 90       	pop	r9
    747a:	8f 90       	pop	r8
    747c:	08 95       	ret
    747e:	b8 2e       	mov	r11, r24
    7480:	b1 94       	neg	r11
    7482:	98 e0       	ldi	r25, 0x08	; 8
    7484:	a9 2e       	mov	r10, r25
    7486:	a8 0e       	add	r10, r24
    7488:	da 01       	movw	r26, r20
    748a:	11 96       	adiw	r26, 0x01	; 1
    748c:	4f 5d       	subi	r20, 0xDF	; 223
    748e:	5f 4f       	sbci	r21, 0xFF	; 255
    7490:	70 e0       	ldi	r23, 0x00	; 0
    7492:	68 35       	cpi	r22, 0x58	; 88
    7494:	a0 f5       	brcc	.+104    	; 0x74fe <put_big_sprite+0x204>
    7496:	c0 e1       	ldi	r28, 0x10	; 16
    7498:	6c 02       	muls	r22, r28
    749a:	40 01       	movw	r8, r0
    749c:	11 24       	eor	r1, r1
    749e:	e4 01       	movw	r28, r8
    74a0:	c9 53       	subi	r28, 0x39	; 57
    74a2:	dd 4f       	sbci	r29, 0xFD	; 253
    74a4:	d8 80       	ld	r13, Y
    74a6:	8d 01       	movw	r16, r26
    74a8:	01 50       	subi	r16, 0x01	; 1
    74aa:	11 09       	sbc	r17, r1
    74ac:	f8 01       	movw	r30, r16
    74ae:	20 81       	ld	r18, Z
    74b0:	0b 2c       	mov	r0, r11
    74b2:	01 c0       	rjmp	.+2      	; 0x74b6 <put_big_sprite+0x1bc>
    74b4:	22 0f       	add	r18, r18
    74b6:	0a 94       	dec	r0
    74b8:	ea f7       	brpl	.-6      	; 0x74b4 <put_big_sprite+0x1ba>
    74ba:	3d 2d       	mov	r19, r13
    74bc:	32 27       	eor	r19, r18
    74be:	38 83       	st	Y, r19
    74c0:	8c 91       	ld	r24, X
    74c2:	90 e0       	ldi	r25, 0x00	; 0
    74c4:	7c 01       	movw	r14, r24
    74c6:	0a 2c       	mov	r0, r10
    74c8:	02 c0       	rjmp	.+4      	; 0x74ce <put_big_sprite+0x1d4>
    74ca:	f5 94       	asr	r15
    74cc:	e7 94       	ror	r14
    74ce:	0a 94       	dec	r0
    74d0:	e2 f7       	brpl	.-8      	; 0x74ca <put_big_sprite+0x1d0>
    74d2:	13 2f       	mov	r17, r19
    74d4:	1e 25       	eor	r17, r14
    74d6:	18 83       	st	Y, r17
    74d8:	e4 01       	movw	r28, r8
    74da:	c8 53       	subi	r28, 0x38	; 56
    74dc:	dd 4f       	sbci	r29, 0xFD	; 253
    74de:	e8 81       	ld	r30, Y
    74e0:	8c 01       	movw	r16, r24
    74e2:	0b 2c       	mov	r0, r11
    74e4:	01 c0       	rjmp	.+2      	; 0x74e8 <put_big_sprite+0x1ee>
    74e6:	00 0f       	add	r16, r16
    74e8:	0a 94       	dec	r0
    74ea:	ea f7       	brpl	.-6      	; 0x74e6 <put_big_sprite+0x1ec>
    74ec:	8e 2f       	mov	r24, r30
    74ee:	80 23       	and	r24, r16
    74f0:	78 2b       	or	r23, r24
    74f2:	2d 21       	and	r18, r13
    74f4:	72 2b       	or	r23, r18
    74f6:	e3 22       	and	r14, r19
    74f8:	7e 29       	or	r23, r14
    74fa:	0e 27       	eor	r16, r30
    74fc:	08 83       	st	Y, r16
    74fe:	6f 5f       	subi	r22, 0xFF	; 255
    7500:	12 96       	adiw	r26, 0x02	; 2
    7502:	a4 17       	cp	r26, r20
    7504:	b5 07       	cpc	r27, r21
    7506:	29 f6       	brne	.-118    	; 0x7492 <put_big_sprite+0x198>
    7508:	aa cf       	rjmp	.-172    	; 0x745e <put_big_sprite+0x164>

0000750a <cls>:
    750a:	80 e8       	ldi	r24, 0x80	; 128
    750c:	95 e0       	ldi	r25, 0x05	; 5
    750e:	e7 ec       	ldi	r30, 0xC7	; 199
    7510:	f2 e0       	ldi	r31, 0x02	; 2
    7512:	df 01       	movw	r26, r30
    7514:	9c 01       	movw	r18, r24
    7516:	1d 92       	st	X+, r1
    7518:	21 50       	subi	r18, 0x01	; 1
    751a:	30 40       	sbci	r19, 0x00	; 0
    751c:	e1 f7       	brne	.-8      	; 0x7516 <cls+0xc>
    751e:	60 e0       	ldi	r22, 0x00	; 0
    7520:	80 e0       	ldi	r24, 0x00	; 0
    7522:	0c 94 54 36 	jmp	0x6ca8	; 0x6ca8 <set_cursor>

00007526 <scroll_down>:
    7526:	cf 93       	push	r28
    7528:	df 93       	push	r29
    752a:	81 11       	cpse	r24, r1
    752c:	03 c0       	rjmp	.+6      	; 0x7534 <scroll_down+0xe>
    752e:	df 91       	pop	r29
    7530:	cf 91       	pop	r28
    7532:	08 95       	ret
    7534:	8f 71       	andi	r24, 0x1F	; 31
    7536:	90 e0       	ldi	r25, 0x00	; 0
    7538:	ec 01       	movw	r28, r24
    753a:	c2 95       	swap	r28
    753c:	d2 95       	swap	r29
    753e:	d0 7f       	andi	r29, 0xF0	; 240
    7540:	dc 27       	eor	r29, r28
    7542:	c0 7f       	andi	r28, 0xF0	; 240
    7544:	dc 27       	eor	r29, r28
    7546:	48 e5       	ldi	r20, 0x58	; 88
    7548:	50 e0       	ldi	r21, 0x00	; 0
    754a:	48 1b       	sub	r20, r24
    754c:	59 0b       	sbc	r21, r25
    754e:	42 95       	swap	r20
    7550:	52 95       	swap	r21
    7552:	50 7f       	andi	r21, 0xF0	; 240
    7554:	54 27       	eor	r21, r20
    7556:	40 7f       	andi	r20, 0xF0	; 240
    7558:	54 27       	eor	r21, r20
    755a:	67 ec       	ldi	r22, 0xC7	; 199
    755c:	72 e0       	ldi	r23, 0x02	; 2
    755e:	ce 01       	movw	r24, r28
    7560:	89 53       	subi	r24, 0x39	; 57
    7562:	9d 4f       	sbci	r25, 0xFD	; 253
    7564:	0e 94 e2 3c 	call	0x79c4	; 0x79c4 <memmove>
    7568:	ae 01       	movw	r20, r28
    756a:	60 e0       	ldi	r22, 0x00	; 0
    756c:	70 e0       	ldi	r23, 0x00	; 0
    756e:	87 ec       	ldi	r24, 0xC7	; 199
    7570:	92 e0       	ldi	r25, 0x02	; 2
    7572:	df 91       	pop	r29
    7574:	cf 91       	pop	r28
    7576:	0c 94 f4 3c 	jmp	0x79e8	; 0x79e8 <memset>

0000757a <scroll_up>:
    757a:	0f 93       	push	r16
    757c:	1f 93       	push	r17
    757e:	cf 93       	push	r28
    7580:	df 93       	push	r29
    7582:	81 11       	cpse	r24, r1
    7584:	05 c0       	rjmp	.+10     	; 0x7590 <scroll_up+0x16>
    7586:	df 91       	pop	r29
    7588:	cf 91       	pop	r28
    758a:	1f 91       	pop	r17
    758c:	0f 91       	pop	r16
    758e:	08 95       	ret
    7590:	8f 71       	andi	r24, 0x1F	; 31
    7592:	08 2f       	mov	r16, r24
    7594:	10 e0       	ldi	r17, 0x00	; 0
    7596:	e8 01       	movw	r28, r16
    7598:	c2 95       	swap	r28
    759a:	d2 95       	swap	r29
    759c:	d0 7f       	andi	r29, 0xF0	; 240
    759e:	dc 27       	eor	r29, r28
    75a0:	c0 7f       	andi	r28, 0xF0	; 240
    75a2:	dc 27       	eor	r29, r28
    75a4:	48 e5       	ldi	r20, 0x58	; 88
    75a6:	50 e0       	ldi	r21, 0x00	; 0
    75a8:	40 1b       	sub	r20, r16
    75aa:	51 0b       	sbc	r21, r17
    75ac:	42 95       	swap	r20
    75ae:	52 95       	swap	r21
    75b0:	50 7f       	andi	r21, 0xF0	; 240
    75b2:	54 27       	eor	r21, r20
    75b4:	40 7f       	andi	r20, 0xF0	; 240
    75b6:	54 27       	eor	r21, r20
    75b8:	be 01       	movw	r22, r28
    75ba:	69 53       	subi	r22, 0x39	; 57
    75bc:	7d 4f       	sbci	r23, 0xFD	; 253
    75be:	87 ec       	ldi	r24, 0xC7	; 199
    75c0:	92 e0       	ldi	r25, 0x02	; 2
    75c2:	0e 94 e2 3c 	call	0x79c4	; 0x79c4 <memmove>
    75c6:	20 ef       	ldi	r18, 0xF0	; 240
    75c8:	20 03       	mulsu	r18, r16
    75ca:	c0 01       	movw	r24, r0
    75cc:	21 9f       	mul	r18, r17
    75ce:	90 0d       	add	r25, r0
    75d0:	11 24       	eor	r1, r1
    75d2:	ae 01       	movw	r20, r28
    75d4:	60 e0       	ldi	r22, 0x00	; 0
    75d6:	70 e0       	ldi	r23, 0x00	; 0
    75d8:	89 5b       	subi	r24, 0xB9	; 185
    75da:	97 4f       	sbci	r25, 0xF7	; 247
    75dc:	df 91       	pop	r29
    75de:	cf 91       	pop	r28
    75e0:	1f 91       	pop	r17
    75e2:	0f 91       	pop	r16
    75e4:	0c 94 f4 3c 	jmp	0x79e8	; 0x79e8 <memset>

000075e8 <chip_scroll_right>:
    75e8:	cf 93       	push	r28
    75ea:	df 93       	push	r29
    75ec:	c7 ec       	ldi	r28, 0xC7	; 199
    75ee:	d2 e0       	ldi	r29, 0x02	; 2
    75f0:	ae 01       	movw	r20, r28
    75f2:	40 5f       	subi	r20, 0xF0	; 240
    75f4:	5f 4f       	sbci	r21, 0xFF	; 255
    75f6:	9e 01       	movw	r18, r28
    75f8:	2f 5f       	subi	r18, 0xFF	; 255
    75fa:	3f 4f       	sbci	r19, 0xFF	; 255
    75fc:	de 01       	movw	r26, r28
    75fe:	1f 96       	adiw	r26, 0x0f	; 15
    7600:	fa 01       	movw	r30, r20
    7602:	8e 91       	ld	r24, -X
    7604:	60 e1       	ldi	r22, 0x10	; 16
    7606:	86 9f       	mul	r24, r22
    7608:	c0 01       	movw	r24, r0
    760a:	11 24       	eor	r1, r1
    760c:	92 91       	ld	r25, -Z
    760e:	92 95       	swap	r25
    7610:	9f 70       	andi	r25, 0x0F	; 15
    7612:	98 2b       	or	r25, r24
    7614:	90 83       	st	Z, r25
    7616:	e2 17       	cp	r30, r18
    7618:	f3 07       	cpc	r31, r19
    761a:	99 f7       	brne	.-26     	; 0x7602 <chip_scroll_right+0x1a>
    761c:	88 81       	ld	r24, Y
    761e:	82 95       	swap	r24
    7620:	8f 70       	andi	r24, 0x0F	; 15
    7622:	88 83       	st	Y, r24
    7624:	88 e0       	ldi	r24, 0x08	; 8
    7626:	47 34       	cpi	r20, 0x47	; 71
    7628:	58 07       	cpc	r21, r24
    762a:	11 f0       	breq	.+4      	; 0x7630 <chip_scroll_right+0x48>
    762c:	ea 01       	movw	r28, r20
    762e:	e0 cf       	rjmp	.-64     	; 0x75f0 <chip_scroll_right+0x8>
    7630:	df 91       	pop	r29
    7632:	cf 91       	pop	r28
    7634:	08 95       	ret

00007636 <chip_scroll_left>:
    7636:	26 ed       	ldi	r18, 0xD6	; 214
    7638:	32 e0       	ldi	r19, 0x02	; 2
    763a:	f9 01       	movw	r30, r18
    763c:	3f 97       	sbiw	r30, 0x0f	; 15
    763e:	d9 01       	movw	r26, r18
    7640:	1e 97       	sbiw	r26, 0x0e	; 14
    7642:	4d 91       	ld	r20, X+
    7644:	42 95       	swap	r20
    7646:	4f 70       	andi	r20, 0x0F	; 15
    7648:	80 81       	ld	r24, Z
    764a:	50 e1       	ldi	r21, 0x10	; 16
    764c:	85 9f       	mul	r24, r21
    764e:	c0 01       	movw	r24, r0
    7650:	11 24       	eor	r1, r1
    7652:	48 2b       	or	r20, r24
    7654:	41 93       	st	Z+, r20
    7656:	e2 17       	cp	r30, r18
    7658:	f3 07       	cpc	r31, r19
    765a:	99 f7       	brne	.-26     	; 0x7642 <chip_scroll_left+0xc>
    765c:	80 81       	ld	r24, Z
    765e:	82 95       	swap	r24
    7660:	80 7f       	andi	r24, 0xF0	; 240
    7662:	80 83       	st	Z, r24
    7664:	9f 01       	movw	r18, r30
    7666:	20 5f       	subi	r18, 0xF0	; 240
    7668:	3f 4f       	sbci	r19, 0xFF	; 255
    766a:	88 e0       	ldi	r24, 0x08	; 8
    766c:	26 35       	cpi	r18, 0x56	; 86
    766e:	38 07       	cpc	r19, r24
    7670:	21 f7       	brne	.-56     	; 0x763a <chip_scroll_left+0x4>
    7672:	08 95       	ret

00007674 <screen_save>:
    7674:	47 ec       	ldi	r20, 0xC7	; 199
    7676:	52 e0       	ldi	r21, 0x02	; 2
    7678:	60 e8       	ldi	r22, 0x80	; 128
    767a:	75 e0       	ldi	r23, 0x05	; 5
    767c:	80 e0       	ldi	r24, 0x00	; 0
    767e:	90 e8       	ldi	r25, 0x80	; 128
    7680:	0c 94 03 38 	jmp	0x7006	; 0x7006 <sram_store_block>

00007684 <screen_restore>:
    7684:	47 ec       	ldi	r20, 0xC7	; 199
    7686:	52 e0       	ldi	r21, 0x02	; 2
    7688:	60 e8       	ldi	r22, 0x80	; 128
    768a:	75 e0       	ldi	r23, 0x05	; 5
    768c:	80 e0       	ldi	r24, 0x00	; 0
    768e:	90 e8       	ldi	r25, 0x80	; 128
    7690:	0c 94 d8 37 	jmp	0x6fb0	; 0x6fb0 <sram_load_block>

00007694 <__vector_12>:
    7694:	1f 92       	push	r1
    7696:	0f 92       	push	r0
    7698:	0f b6       	in	r0, 0x3f	; 63
    769a:	0f 92       	push	r0
    769c:	11 24       	eor	r1, r1
    769e:	2f 93       	push	r18
    76a0:	8f 93       	push	r24
    76a2:	9f 93       	push	r25
    76a4:	ef 93       	push	r30
    76a6:	ff 93       	push	r31
    76a8:	80 91 c2 02 	lds	r24, 0x02C2
    76ac:	90 91 c3 02 	lds	r25, 0x02C3
    76b0:	01 96       	adiw	r24, 0x01	; 1
    76b2:	90 93 c3 02 	sts	0x02C3, r25
    76b6:	80 93 c2 02 	sts	0x02C2, r24
    76ba:	80 91 c2 02 	lds	r24, 0x02C2
    76be:	90 91 c3 02 	lds	r25, 0x02C3
    76c2:	84 30       	cpi	r24, 0x04	; 4
    76c4:	91 05       	cpc	r25, r1
    76c6:	09 f4       	brne	.+2      	; 0x76ca <__vector_12+0x36>
    76c8:	47 c0       	rjmp	.+142    	; 0x7758 <__vector_12+0xc4>
    76ca:	b0 f0       	brcs	.+44     	; 0x76f8 <__vector_12+0x64>
    76cc:	87 34       	cpi	r24, 0x47	; 71
    76ce:	91 05       	cpc	r25, r1
    76d0:	b9 f1       	breq	.+110    	; 0x7740 <__vector_12+0xac>
    76d2:	d0 f1       	brcs	.+116    	; 0x7748 <__vector_12+0xb4>
    76d4:	86 3f       	cpi	r24, 0xF6	; 246
    76d6:	91 05       	cpc	r25, r1
    76d8:	49 f1       	breq	.+82     	; 0x772c <__vector_12+0x98>
    76da:	86 30       	cpi	r24, 0x06	; 6
    76dc:	91 40       	sbci	r25, 0x01	; 1
    76de:	09 f0       	breq	.+2      	; 0x76e2 <__vector_12+0x4e>
    76e0:	45 c0       	rjmp	.+138    	; 0x776c <__vector_12+0xd8>
    76e2:	10 92 c3 02 	sts	0x02C3, r1
    76e6:	10 92 c2 02 	sts	0x02C2, r1
    76ea:	83 e6       	ldi	r24, 0x63	; 99
    76ec:	93 e0       	ldi	r25, 0x03	; 3
    76ee:	90 93 8b 00 	sts	0x008B, r25
    76f2:	80 93 8a 00 	sts	0x008A, r24
    76f6:	10 c0       	rjmp	.+32     	; 0x7718 <__vector_12+0x84>
    76f8:	82 30       	cpi	r24, 0x02	; 2
    76fa:	91 05       	cpc	r25, r1
    76fc:	09 f4       	brne	.+2      	; 0x7700 <__vector_12+0x6c>
    76fe:	6f c0       	rjmp	.+222    	; 0x77de <__vector_12+0x14a>
    7700:	c0 f4       	brcc	.+48     	; 0x7732 <__vector_12+0x9e>
    7702:	01 97       	sbiw	r24, 0x01	; 1
    7704:	99 f5       	brne	.+102    	; 0x776c <__vector_12+0xd8>
    7706:	80 91 c6 02 	lds	r24, 0x02C6
    770a:	88 23       	and	r24, r24
    770c:	29 f0       	breq	.+10     	; 0x7718 <__vector_12+0x84>
    770e:	80 91 c6 02 	lds	r24, 0x02C6
    7712:	81 50       	subi	r24, 0x01	; 1
    7714:	80 93 c6 02 	sts	0x02C6, r24
    7718:	ff 91       	pop	r31
    771a:	ef 91       	pop	r30
    771c:	9f 91       	pop	r25
    771e:	8f 91       	pop	r24
    7720:	2f 91       	pop	r18
    7722:	0f 90       	pop	r0
    7724:	0f be       	out	0x3f, r0	; 63
    7726:	0f 90       	pop	r0
    7728:	1f 90       	pop	r1
    772a:	18 95       	reti
    772c:	10 92 c1 02 	sts	0x02C1, r1
    7730:	f3 cf       	rjmp	.-26     	; 0x7718 <__vector_12+0x84>
    7732:	8a e4       	ldi	r24, 0x4A	; 74
    7734:	90 e0       	ldi	r25, 0x00	; 0
    7736:	90 93 8b 00 	sts	0x008B, r25
    773a:	80 93 8a 00 	sts	0x008A, r24
    773e:	ec cf       	rjmp	.-40     	; 0x7718 <__vector_12+0x84>
    7740:	81 e0       	ldi	r24, 0x01	; 1
    7742:	80 93 c1 02 	sts	0x02C1, r24
    7746:	e8 cf       	rjmp	.-48     	; 0x7718 <__vector_12+0x84>
    7748:	05 97       	sbiw	r24, 0x05	; 5
    774a:	81 f4       	brne	.+32     	; 0x776c <__vector_12+0xd8>
    774c:	80 91 7a 00 	lds	r24, 0x007A
    7750:	80 64       	ori	r24, 0x40	; 64
    7752:	80 93 7a 00 	sts	0x007A, r24
    7756:	e0 cf       	rjmp	.-64     	; 0x7718 <__vector_12+0x84>
    7758:	80 91 c4 02 	lds	r24, 0x02C4
    775c:	88 23       	and	r24, r24
    775e:	e1 f2       	breq	.-72     	; 0x7718 <__vector_12+0x84>
    7760:	80 91 c4 02 	lds	r24, 0x02C4
    7764:	81 50       	subi	r24, 0x01	; 1
    7766:	80 93 c4 02 	sts	0x02C4, r24
    776a:	d6 cf       	rjmp	.-84     	; 0x7718 <__vector_12+0x84>
    776c:	80 91 c1 02 	lds	r24, 0x02C1
    7770:	88 23       	and	r24, r24
    7772:	91 f2       	breq	.-92     	; 0x7718 <__vector_12+0x84>
    7774:	e0 91 c2 02 	lds	r30, 0x02C2
    7778:	f0 91 c3 02 	lds	r31, 0x02C3
    777c:	10 92 c5 00 	sts	0x00C5, r1
    7780:	10 92 c4 00 	sts	0x00C4, r1
    7784:	88 e0       	ldi	r24, 0x08	; 8
    7786:	80 93 c1 00 	sts	0x00C1, r24
    778a:	82 e0       	ldi	r24, 0x02	; 2
    778c:	90 e0       	ldi	r25, 0x00	; 0
    778e:	90 93 c5 00 	sts	0x00C5, r25
    7792:	80 93 c4 00 	sts	0x00C4, r24
    7796:	10 92 c6 00 	sts	0x00C6, r1
    779a:	e7 54       	subi	r30, 0x47	; 71
    779c:	f1 09       	sbc	r31, r1
    779e:	f6 95       	lsr	r31
    77a0:	e7 95       	ror	r30
    77a2:	e2 95       	swap	r30
    77a4:	f2 95       	swap	r31
    77a6:	f0 7f       	andi	r31, 0xF0	; 240
    77a8:	fe 27       	eor	r31, r30
    77aa:	e0 7f       	andi	r30, 0xF0	; 240
    77ac:	fe 27       	eor	r31, r30
    77ae:	e9 53       	subi	r30, 0x39	; 57
    77b0:	fd 4f       	sbci	r31, 0xFD	; 253
    77b2:	cf 01       	movw	r24, r30
    77b4:	40 96       	adiw	r24, 0x10	; 16
    77b6:	20 91 c0 00 	lds	r18, 0x00C0
    77ba:	25 ff       	sbrs	r18, 5
    77bc:	fc cf       	rjmp	.-8      	; 0x77b6 <__vector_12+0x122>
    77be:	21 91       	ld	r18, Z+
    77c0:	20 93 c6 00 	sts	0x00C6, r18
    77c4:	e8 17       	cp	r30, r24
    77c6:	f9 07       	cpc	r31, r25
    77c8:	b1 f7       	brne	.-20     	; 0x77b6 <__vector_12+0x122>
    77ca:	80 91 c0 00 	lds	r24, 0x00C0
    77ce:	86 ff       	sbrs	r24, 6
    77d0:	fc cf       	rjmp	.-8      	; 0x77ca <__vector_12+0x136>
    77d2:	80 91 c1 00 	lds	r24, 0x00C1
    77d6:	87 7f       	andi	r24, 0xF7	; 247
    77d8:	80 93 c1 00 	sts	0x00C1, r24
    77dc:	9d cf       	rjmp	.-198    	; 0x7718 <__vector_12+0x84>
    77de:	80 91 c5 02 	lds	r24, 0x02C5
    77e2:	88 23       	and	r24, r24
    77e4:	09 f4       	brne	.+2      	; 0x77e8 <__vector_12+0x154>
    77e6:	98 cf       	rjmp	.-208    	; 0x7718 <__vector_12+0x84>
    77e8:	80 91 c5 02 	lds	r24, 0x02C5
    77ec:	81 50       	subi	r24, 0x01	; 1
    77ee:	80 93 c5 02 	sts	0x02C5, r24
    77f2:	80 91 c5 02 	lds	r24, 0x02C5
    77f6:	81 11       	cpse	r24, r1
    77f8:	8f cf       	rjmp	.-226    	; 0x7718 <__vector_12+0x84>
    77fa:	56 98       	cbi	0x0a, 6	; 10
    77fc:	8d cf       	rjmp	.-230    	; 0x7718 <__vector_12+0x84>

000077fe <__mulsi3>:
    77fe:	db 01       	movw	r26, r22
    7800:	8f 93       	push	r24
    7802:	9f 93       	push	r25
    7804:	0e 94 79 3c 	call	0x78f2	; 0x78f2 <__muluhisi3>
    7808:	bf 91       	pop	r27
    780a:	af 91       	pop	r26
    780c:	a2 9f       	mul	r26, r18
    780e:	80 0d       	add	r24, r0
    7810:	91 1d       	adc	r25, r1
    7812:	a3 9f       	mul	r26, r19
    7814:	90 0d       	add	r25, r0
    7816:	b2 9f       	mul	r27, r18
    7818:	90 0d       	add	r25, r0
    781a:	11 24       	eor	r1, r1
    781c:	08 95       	ret

0000781e <__udivmodhi4>:
    781e:	aa 1b       	sub	r26, r26
    7820:	bb 1b       	sub	r27, r27
    7822:	51 e1       	ldi	r21, 0x11	; 17
    7824:	07 c0       	rjmp	.+14     	; 0x7834 <__udivmodhi4_ep>

00007826 <__udivmodhi4_loop>:
    7826:	aa 1f       	adc	r26, r26
    7828:	bb 1f       	adc	r27, r27
    782a:	a6 17       	cp	r26, r22
    782c:	b7 07       	cpc	r27, r23
    782e:	10 f0       	brcs	.+4      	; 0x7834 <__udivmodhi4_ep>
    7830:	a6 1b       	sub	r26, r22
    7832:	b7 0b       	sbc	r27, r23

00007834 <__udivmodhi4_ep>:
    7834:	88 1f       	adc	r24, r24
    7836:	99 1f       	adc	r25, r25
    7838:	5a 95       	dec	r21
    783a:	a9 f7       	brne	.-22     	; 0x7826 <__udivmodhi4_loop>
    783c:	80 95       	com	r24
    783e:	90 95       	com	r25
    7840:	bc 01       	movw	r22, r24
    7842:	cd 01       	movw	r24, r26
    7844:	08 95       	ret

00007846 <__udivmodsi4>:
    7846:	a1 e2       	ldi	r26, 0x21	; 33
    7848:	1a 2e       	mov	r1, r26
    784a:	aa 1b       	sub	r26, r26
    784c:	bb 1b       	sub	r27, r27
    784e:	fd 01       	movw	r30, r26
    7850:	0d c0       	rjmp	.+26     	; 0x786c <__udivmodsi4_ep>

00007852 <__udivmodsi4_loop>:
    7852:	aa 1f       	adc	r26, r26
    7854:	bb 1f       	adc	r27, r27
    7856:	ee 1f       	adc	r30, r30
    7858:	ff 1f       	adc	r31, r31
    785a:	a2 17       	cp	r26, r18
    785c:	b3 07       	cpc	r27, r19
    785e:	e4 07       	cpc	r30, r20
    7860:	f5 07       	cpc	r31, r21
    7862:	20 f0       	brcs	.+8      	; 0x786c <__udivmodsi4_ep>
    7864:	a2 1b       	sub	r26, r18
    7866:	b3 0b       	sbc	r27, r19
    7868:	e4 0b       	sbc	r30, r20
    786a:	f5 0b       	sbc	r31, r21

0000786c <__udivmodsi4_ep>:
    786c:	66 1f       	adc	r22, r22
    786e:	77 1f       	adc	r23, r23
    7870:	88 1f       	adc	r24, r24
    7872:	99 1f       	adc	r25, r25
    7874:	1a 94       	dec	r1
    7876:	69 f7       	brne	.-38     	; 0x7852 <__udivmodsi4_loop>
    7878:	60 95       	com	r22
    787a:	70 95       	com	r23
    787c:	80 95       	com	r24
    787e:	90 95       	com	r25
    7880:	9b 01       	movw	r18, r22
    7882:	ac 01       	movw	r20, r24
    7884:	bd 01       	movw	r22, r26
    7886:	cf 01       	movw	r24, r30
    7888:	08 95       	ret

0000788a <__divmodsi4>:
    788a:	05 2e       	mov	r0, r21
    788c:	97 fb       	bst	r25, 7
    788e:	1e f4       	brtc	.+6      	; 0x7896 <__divmodsi4+0xc>
    7890:	00 94       	com	r0
    7892:	0e 94 5c 3c 	call	0x78b8	; 0x78b8 <__negsi2>
    7896:	57 fd       	sbrc	r21, 7
    7898:	07 d0       	rcall	.+14     	; 0x78a8 <__divmodsi4_neg2>
    789a:	0e 94 23 3c 	call	0x7846	; 0x7846 <__udivmodsi4>
    789e:	07 fc       	sbrc	r0, 7
    78a0:	03 d0       	rcall	.+6      	; 0x78a8 <__divmodsi4_neg2>
    78a2:	4e f4       	brtc	.+18     	; 0x78b6 <__divmodsi4_exit>
    78a4:	0c 94 5c 3c 	jmp	0x78b8	; 0x78b8 <__negsi2>

000078a8 <__divmodsi4_neg2>:
    78a8:	50 95       	com	r21
    78aa:	40 95       	com	r20
    78ac:	30 95       	com	r19
    78ae:	21 95       	neg	r18
    78b0:	3f 4f       	sbci	r19, 0xFF	; 255
    78b2:	4f 4f       	sbci	r20, 0xFF	; 255
    78b4:	5f 4f       	sbci	r21, 0xFF	; 255

000078b6 <__divmodsi4_exit>:
    78b6:	08 95       	ret

000078b8 <__negsi2>:
    78b8:	90 95       	com	r25
    78ba:	80 95       	com	r24
    78bc:	70 95       	com	r23
    78be:	61 95       	neg	r22
    78c0:	7f 4f       	sbci	r23, 0xFF	; 255
    78c2:	8f 4f       	sbci	r24, 0xFF	; 255
    78c4:	9f 4f       	sbci	r25, 0xFF	; 255
    78c6:	08 95       	ret

000078c8 <__tablejump2__>:
    78c8:	ee 0f       	add	r30, r30
    78ca:	ff 1f       	adc	r31, r31

000078cc <__tablejump__>:
    78cc:	05 90       	lpm	r0, Z+
    78ce:	f4 91       	lpm	r31, Z
    78d0:	e0 2d       	mov	r30, r0
    78d2:	09 94       	ijmp

000078d4 <__umulhisi3>:
    78d4:	a2 9f       	mul	r26, r18
    78d6:	b0 01       	movw	r22, r0
    78d8:	b3 9f       	mul	r27, r19
    78da:	c0 01       	movw	r24, r0
    78dc:	a3 9f       	mul	r26, r19
    78de:	70 0d       	add	r23, r0
    78e0:	81 1d       	adc	r24, r1
    78e2:	11 24       	eor	r1, r1
    78e4:	91 1d       	adc	r25, r1
    78e6:	b2 9f       	mul	r27, r18
    78e8:	70 0d       	add	r23, r0
    78ea:	81 1d       	adc	r24, r1
    78ec:	11 24       	eor	r1, r1
    78ee:	91 1d       	adc	r25, r1
    78f0:	08 95       	ret

000078f2 <__muluhisi3>:
    78f2:	0e 94 6a 3c 	call	0x78d4	; 0x78d4 <__umulhisi3>
    78f6:	a5 9f       	mul	r26, r21
    78f8:	90 0d       	add	r25, r0
    78fa:	b4 9f       	mul	r27, r20
    78fc:	90 0d       	add	r25, r0
    78fe:	a4 9f       	mul	r26, r20
    7900:	80 0d       	add	r24, r0
    7902:	91 1d       	adc	r25, r1
    7904:	11 24       	eor	r1, r1
    7906:	08 95       	ret

00007908 <do_rand>:
    7908:	8f 92       	push	r8
    790a:	9f 92       	push	r9
    790c:	af 92       	push	r10
    790e:	bf 92       	push	r11
    7910:	cf 92       	push	r12
    7912:	df 92       	push	r13
    7914:	ef 92       	push	r14
    7916:	ff 92       	push	r15
    7918:	cf 93       	push	r28
    791a:	df 93       	push	r29
    791c:	ec 01       	movw	r28, r24
    791e:	68 81       	ld	r22, Y
    7920:	79 81       	ldd	r23, Y+1	; 0x01
    7922:	8a 81       	ldd	r24, Y+2	; 0x02
    7924:	9b 81       	ldd	r25, Y+3	; 0x03
    7926:	61 15       	cp	r22, r1
    7928:	71 05       	cpc	r23, r1
    792a:	81 05       	cpc	r24, r1
    792c:	91 05       	cpc	r25, r1
    792e:	21 f4       	brne	.+8      	; 0x7938 <do_rand+0x30>
    7930:	64 e2       	ldi	r22, 0x24	; 36
    7932:	79 ed       	ldi	r23, 0xD9	; 217
    7934:	8b e5       	ldi	r24, 0x5B	; 91
    7936:	97 e0       	ldi	r25, 0x07	; 7
    7938:	2d e1       	ldi	r18, 0x1D	; 29
    793a:	33 ef       	ldi	r19, 0xF3	; 243
    793c:	41 e0       	ldi	r20, 0x01	; 1
    793e:	50 e0       	ldi	r21, 0x00	; 0
    7940:	0e 94 45 3c 	call	0x788a	; 0x788a <__divmodsi4>
    7944:	49 01       	movw	r8, r18
    7946:	5a 01       	movw	r10, r20
    7948:	9b 01       	movw	r18, r22
    794a:	ac 01       	movw	r20, r24
    794c:	a7 ea       	ldi	r26, 0xA7	; 167
    794e:	b1 e4       	ldi	r27, 0x41	; 65
    7950:	0e 94 79 3c 	call	0x78f2	; 0x78f2 <__muluhisi3>
    7954:	6b 01       	movw	r12, r22
    7956:	7c 01       	movw	r14, r24
    7958:	ac ee       	ldi	r26, 0xEC	; 236
    795a:	b4 ef       	ldi	r27, 0xF4	; 244
    795c:	a5 01       	movw	r20, r10
    795e:	94 01       	movw	r18, r8
    7960:	0e 94 30 3d 	call	0x7a60	; 0x7a60 <__mulohisi3>
    7964:	c6 0e       	add	r12, r22
    7966:	d7 1e       	adc	r13, r23
    7968:	e8 1e       	adc	r14, r24
    796a:	f9 1e       	adc	r15, r25
    796c:	f7 fe       	sbrs	r15, 7
    796e:	06 c0       	rjmp	.+12     	; 0x797c <do_rand+0x74>
    7970:	81 e0       	ldi	r24, 0x01	; 1
    7972:	c8 1a       	sub	r12, r24
    7974:	d1 08       	sbc	r13, r1
    7976:	e1 08       	sbc	r14, r1
    7978:	80 e8       	ldi	r24, 0x80	; 128
    797a:	f8 0a       	sbc	r15, r24
    797c:	c8 82       	st	Y, r12
    797e:	d9 82       	std	Y+1, r13	; 0x01
    7980:	ea 82       	std	Y+2, r14	; 0x02
    7982:	fb 82       	std	Y+3, r15	; 0x03
    7984:	c6 01       	movw	r24, r12
    7986:	9f 77       	andi	r25, 0x7F	; 127
    7988:	df 91       	pop	r29
    798a:	cf 91       	pop	r28
    798c:	ff 90       	pop	r15
    798e:	ef 90       	pop	r14
    7990:	df 90       	pop	r13
    7992:	cf 90       	pop	r12
    7994:	bf 90       	pop	r11
    7996:	af 90       	pop	r10
    7998:	9f 90       	pop	r9
    799a:	8f 90       	pop	r8
    799c:	08 95       	ret

0000799e <rand_r>:
    799e:	0e 94 84 3c 	call	0x7908	; 0x7908 <do_rand>
    79a2:	08 95       	ret

000079a4 <rand>:
    79a4:	80 e0       	ldi	r24, 0x00	; 0
    79a6:	91 e0       	ldi	r25, 0x01	; 1
    79a8:	0e 94 84 3c 	call	0x7908	; 0x7908 <do_rand>
    79ac:	08 95       	ret

000079ae <srand>:
    79ae:	a0 e0       	ldi	r26, 0x00	; 0
    79b0:	b0 e0       	ldi	r27, 0x00	; 0
    79b2:	80 93 00 01 	sts	0x0100, r24
    79b6:	90 93 01 01 	sts	0x0101, r25
    79ba:	a0 93 02 01 	sts	0x0102, r26
    79be:	b0 93 03 01 	sts	0x0103, r27
    79c2:	08 95       	ret

000079c4 <memmove>:
    79c4:	68 17       	cp	r22, r24
    79c6:	79 07       	cpc	r23, r25
    79c8:	68 f4       	brcc	.+26     	; 0x79e4 <memmove+0x20>
    79ca:	fb 01       	movw	r30, r22
    79cc:	dc 01       	movw	r26, r24
    79ce:	e4 0f       	add	r30, r20
    79d0:	f5 1f       	adc	r31, r21
    79d2:	a4 0f       	add	r26, r20
    79d4:	b5 1f       	adc	r27, r21
    79d6:	02 c0       	rjmp	.+4      	; 0x79dc <memmove+0x18>
    79d8:	02 90       	ld	r0, -Z
    79da:	0e 92       	st	-X, r0
    79dc:	41 50       	subi	r20, 0x01	; 1
    79de:	50 40       	sbci	r21, 0x00	; 0
    79e0:	d8 f7       	brcc	.-10     	; 0x79d8 <memmove+0x14>
    79e2:	08 95       	ret
    79e4:	0c 94 24 3d 	jmp	0x7a48	; 0x7a48 <memcpy>

000079e8 <memset>:
    79e8:	dc 01       	movw	r26, r24
    79ea:	01 c0       	rjmp	.+2      	; 0x79ee <memset+0x6>
    79ec:	6d 93       	st	X+, r22
    79ee:	41 50       	subi	r20, 0x01	; 1
    79f0:	50 40       	sbci	r21, 0x00	; 0
    79f2:	e0 f7       	brcc	.-8      	; 0x79ec <memset+0x4>
    79f4:	08 95       	ret

000079f6 <strchr>:
    79f6:	fc 01       	movw	r30, r24
    79f8:	81 91       	ld	r24, Z+
    79fa:	86 17       	cp	r24, r22
    79fc:	21 f0       	breq	.+8      	; 0x7a06 <strchr+0x10>
    79fe:	88 23       	and	r24, r24
    7a00:	d9 f7       	brne	.-10     	; 0x79f8 <strchr+0x2>
    7a02:	99 27       	eor	r25, r25
    7a04:	08 95       	ret
    7a06:	31 97       	sbiw	r30, 0x01	; 1
    7a08:	cf 01       	movw	r24, r30
    7a0a:	08 95       	ret

00007a0c <strcmp>:
    7a0c:	fb 01       	movw	r30, r22
    7a0e:	dc 01       	movw	r26, r24
    7a10:	8d 91       	ld	r24, X+
    7a12:	01 90       	ld	r0, Z+
    7a14:	80 19       	sub	r24, r0
    7a16:	01 10       	cpse	r0, r1
    7a18:	d9 f3       	breq	.-10     	; 0x7a10 <strcmp+0x4>
    7a1a:	99 0b       	sbc	r25, r25
    7a1c:	08 95       	ret

00007a1e <strcpy>:
    7a1e:	fb 01       	movw	r30, r22
    7a20:	dc 01       	movw	r26, r24
    7a22:	01 90       	ld	r0, Z+
    7a24:	0d 92       	st	X+, r0
    7a26:	00 20       	and	r0, r0
    7a28:	e1 f7       	brne	.-8      	; 0x7a22 <strcpy+0x4>
    7a2a:	08 95       	ret

00007a2c <strncmp>:
    7a2c:	fb 01       	movw	r30, r22
    7a2e:	dc 01       	movw	r26, r24
    7a30:	41 50       	subi	r20, 0x01	; 1
    7a32:	50 40       	sbci	r21, 0x00	; 0
    7a34:	30 f0       	brcs	.+12     	; 0x7a42 <strncmp+0x16>
    7a36:	8d 91       	ld	r24, X+
    7a38:	01 90       	ld	r0, Z+
    7a3a:	80 19       	sub	r24, r0
    7a3c:	19 f4       	brne	.+6      	; 0x7a44 <strncmp+0x18>
    7a3e:	00 20       	and	r0, r0
    7a40:	b9 f7       	brne	.-18     	; 0x7a30 <strncmp+0x4>
    7a42:	88 1b       	sub	r24, r24
    7a44:	99 0b       	sbc	r25, r25
    7a46:	08 95       	ret

00007a48 <memcpy>:
    7a48:	fb 01       	movw	r30, r22
    7a4a:	dc 01       	movw	r26, r24
    7a4c:	02 c0       	rjmp	.+4      	; 0x7a52 <memcpy+0xa>
    7a4e:	01 90       	ld	r0, Z+
    7a50:	0d 92       	st	X+, r0
    7a52:	41 50       	subi	r20, 0x01	; 1
    7a54:	50 40       	sbci	r21, 0x00	; 0
    7a56:	d8 f7       	brcc	.-10     	; 0x7a4e <memcpy+0x6>
    7a58:	08 95       	ret

00007a5a <__mulshisi3>:
    7a5a:	b7 ff       	sbrs	r27, 7
    7a5c:	0c 94 79 3c 	jmp	0x78f2	; 0x78f2 <__muluhisi3>

00007a60 <__mulohisi3>:
    7a60:	0e 94 79 3c 	call	0x78f2	; 0x78f2 <__muluhisi3>
    7a64:	82 1b       	sub	r24, r18
    7a66:	93 0b       	sbc	r25, r19
    7a68:	08 95       	ret

00007a6a <_exit>:
    7a6a:	f8 94       	cli

00007a6c <__stop_program>:
    7a6c:	ff cf       	rjmp	.-2      	; 0x7a6c <__stop_program>
