
chipcon_v2.elf:     file format elf32-avr

Sections:
Idx Name          Size      VMA       LMA       File off  Algn
  0 .data         00000014  00800100  000057d2  00005866  2**0
                  CONTENTS, ALLOC, LOAD, DATA
  1 .text         000057d2  00000000  00000000  00000094  2**1
                  CONTENTS, ALLOC, LOAD, READONLY, CODE
  2 .bss          000006e4  00800114  00800114  0000587a  2**0
                  ALLOC
  3 .comment      00000030  00000000  00000000  0000587a  2**0
                  CONTENTS, READONLY

Disassembly of section .text:

00000000 <__vectors>:
       0:	0c 94 11 10 	jmp	0x2022	; 0x2022 <__ctors_end>
       4:	0c 94 2e 10 	jmp	0x205c	; 0x205c <__bad_interrupt>
       8:	0c 94 2e 10 	jmp	0x205c	; 0x205c <__bad_interrupt>
       c:	0c 94 2e 10 	jmp	0x205c	; 0x205c <__bad_interrupt>
      10:	0c 94 2e 10 	jmp	0x205c	; 0x205c <__bad_interrupt>
      14:	0c 94 2e 10 	jmp	0x205c	; 0x205c <__bad_interrupt>
      18:	0c 94 2e 10 	jmp	0x205c	; 0x205c <__bad_interrupt>
      1c:	0c 94 2e 10 	jmp	0x205c	; 0x205c <__bad_interrupt>
      20:	0c 94 2e 10 	jmp	0x205c	; 0x205c <__bad_interrupt>
      24:	0c 94 2e 10 	jmp	0x205c	; 0x205c <__bad_interrupt>
      28:	0c 94 2e 10 	jmp	0x205c	; 0x205c <__bad_interrupt>
      2c:	0c 94 2e 10 	jmp	0x205c	; 0x205c <__bad_interrupt>
      30:	0c 94 e2 28 	jmp	0x51c4	; 0x51c4 <__vector_12>
      34:	0c 94 2e 10 	jmp	0x205c	; 0x205c <__bad_interrupt>
      38:	0c 94 2e 10 	jmp	0x205c	; 0x205c <__bad_interrupt>
      3c:	0c 94 2e 10 	jmp	0x205c	; 0x205c <__bad_interrupt>
      40:	0c 94 2e 10 	jmp	0x205c	; 0x205c <__bad_interrupt>
      44:	0c 94 2e 10 	jmp	0x205c	; 0x205c <__bad_interrupt>
      48:	0c 94 2e 10 	jmp	0x205c	; 0x205c <__bad_interrupt>
      4c:	0c 94 2e 10 	jmp	0x205c	; 0x205c <__bad_interrupt>
      50:	0c 94 2e 10 	jmp	0x205c	; 0x205c <__bad_interrupt>
      54:	0c 94 2e 10 	jmp	0x205c	; 0x205c <__bad_interrupt>
      58:	0c 94 2e 10 	jmp	0x205c	; 0x205c <__bad_interrupt>
      5c:	0c 94 2e 10 	jmp	0x205c	; 0x205c <__bad_interrupt>
      60:	0c 94 2e 10 	jmp	0x205c	; 0x205c <__bad_interrupt>
      64:	0c 94 2e 10 	jmp	0x205c	; 0x205c <__bad_interrupt>
      68:	87 13       	cpse	r24, r23
      6a:	c7 13       	cpse	r28, r23
      6c:	ba 13       	cpse	r27, r26
      6e:	d2 13       	cpse	r29, r18
      70:	d9 13       	cpse	r29, r25
      72:	e0 13       	cpse	r30, r16
      74:	07 14       	cp	r0, r7
      76:	ef 13       	cpse	r30, r31
      78:	f6 13       	cpse	r31, r22
      7a:	83 14       	cp	r8, r3
      7c:	2b 15       	cp	r18, r11
      7e:	39 15       	cp	r19, r9
      80:	46 15       	cp	r20, r6
      82:	51 15       	cp	r21, r1
      84:	95 15       	cp	r25, r5
      86:	b8 15       	cp	r27, r8
      88:	02 14       	cp	r0, r2
      8a:	0d 14       	cp	r0, r13
      8c:	1a 14       	cp	r1, r10
      8e:	27 14       	cp	r2, r7
      90:	34 14       	cp	r3, r4
      92:	4e 14       	cp	r4, r14
      94:	5a 14       	cp	r5, r10
      96:	64 14       	cp	r6, r4
      98:	77 16       	cp	r7, r23
      9a:	77 16       	cp	r7, r23
      9c:	77 16       	cp	r7, r23
      9e:	77 16       	cp	r7, r23
      a0:	77 16       	cp	r7, r23
      a2:	77 16       	cp	r7, r23
      a4:	77 14       	cp	r7, r7
      a6:	8f 14       	cp	r8, r15
      a8:	a5 14       	cp	r10, r5
      aa:	af 14       	cp	r10, r15
      ac:	d2 14       	cp	r13, r2
      ae:	e1 14       	cp	r14, r1
      b0:	e9 14       	cp	r14, r9
      b2:	f8 14       	cp	r15, r8
      b4:	0c 15       	cp	r16, r12
      b6:	1f 15       	cp	r17, r15
      b8:	25 15       	cp	r18, r5

000000ba <__trampolines_end>:
      ba:	10 09       	sbc	r17, r0
      bc:	4a 6f       	ori	r20, 0xFA	; 250
      be:	6e 61       	ori	r22, 0x1E	; 30
      c0:	73 20       	and	r7, r3
      c2:	4c 69       	ori	r20, 0x9C	; 156
      c4:	6e 64       	ori	r22, 0x4E	; 78
      c6:	73 74       	andi	r23, 0x43	; 67
      c8:	65 64       	ori	r22, 0x45	; 69
      ca:	74 00       	.word	0x0074	; ????
      cc:	00 ff       	sbrs	r16, 0
      ce:	10 45       	sbci	r17, 0x50	; 80
      d0:	64 01       	movw	r12, r8
      d2:	a1 92       	st	Z+, r10
      d4:	6b 00       	.word	0x006b	; ????
      d6:	6c 3b       	cpi	r22, 0xBC	; 188
      d8:	db c4       	rjmp	.+2486   	; 0xa90 <__stack+0x191>
      da:	7b 08       	sbc	r7, r11
      dc:	3b 80       	ldd	r3, Y+3	; 0x03
      de:	10 0f       	add	r17, r16
      e0:	68 3c       	cpi	r22, 0xC8	; 200
      e2:	a1 8e       	std	Z+25, r10	; 0x19
      e4:	69 35       	cpi	r22, 0x59	; 89
      e6:	d8 96       	adiw	r26, 0x38	; 56
      e8:	63 00       	.word	0x0063	; ????
      ea:	43 00       	.word	0x0043	; ????
      ec:	10 1d       	adc	r17, r0
      ee:	a1 91       	ld	r26, Z+
      f0:	d2 32       	cpi	r29, 0x22	; 34
      f2:	63 00       	.word	0x0063	; ????
      f4:	8c 40       	sbci	r24, 0x0C	; 12
      f6:	7c ff       	.word	0xff7c	; ????
      f8:	6b 03       	fmul	r22, r19
      fa:	8c b2       	in	r8, 0x1c	; 28
      fc:	6b 00       	.word	0x006b	; ????
      fe:	4c 00       	.word	0x004c	; ????
     100:	10 27       	eor	r17, r16
     102:	7b 05       	cpc	r23, r11
     104:	7c ff       	.word	0xff7c	; ????
     106:	10 22       	and	r1, r16
     108:	61 00       	.word	0x0061	; ????
     10a:	a1 81       	ldd	r26, Z+1	; 0x01
     10c:	fb 1e       	adc	r15, r27
     10e:	f0 65       	ori	r31, 0x50	; 80
     110:	a1 96       	adiw	r28, 0x21	; 33
     112:	f1 1e       	adc	r15, r17
     114:	f0 55       	subi	r31, 0x50	; 80
     116:	71 01       	movw	r14, r2
     118:	7b 01       	movw	r14, r22
     11a:	31 06       	cpc	r3, r17
     11c:	10 28       	or	r1, r0
     11e:	6d 08       	sbc	r6, r13
     120:	6e 05       	cpc	r22, r14
     122:	66 00       	.word	0x0066	; ????
     124:	6a 01       	movw	r12, r20
     126:	a1 96       	adiw	r28, 0x21	; 33
     128:	80 d0       	rcall	.+256    	; 0x22a <__trampolines_end+0x170>
     12a:	d0 e5       	ldi	r29, 0x50	; 80
     12c:	70 14       	cp	r7, r0
     12e:	30 6c       	ori	r19, 0xC0	; 192
     130:	10 38       	cpi	r17, 0x80	; 128
     132:	20 a4       	ldd	r2, Z+40	; 0x28
     134:	21 09       	sbc	r18, r1
     136:	20 7d       	andi	r18, 0xD0	; 208
     138:	20 c4       	rjmp	.+2112   	; 0x97a <__stack+0x7b>
     13a:	4f 42       	sbci	r20, 0x2F	; 47
     13c:	10 18       	sub	r1, r0
     13e:	21 28       	or	r2, r1
     140:	34 63       	ori	r19, 0x34	; 52
     142:	10 3d       	cpi	r17, 0xD0	; 208
     144:	00 e0       	ldi	r16, 0x00	; 0
     146:	a1 54       	subi	r26, 0x41	; 65
     148:	6d 28       	or	r6, r13
     14a:	6e 0a       	sbc	r6, r30
     14c:	6c 0a       	sbc	r6, r28
     14e:	dd ea       	ldi	r29, 0xAD	; 173
     150:	7d 08       	sbc	r7, r13
     152:	fc 1e       	adc	r15, r28
     154:	3d 58       	subi	r19, 0x8D	; 141
     156:	10 4a       	sbci	r17, 0xA0	; 160
     158:	a1 72       	andi	r26, 0x21	; 33
     15a:	6d 34       	cpi	r22, 0x4D	; 77
     15c:	6e 19       	sub	r22, r14
     15e:	6c 05       	cpc	r22, r12
     160:	dd e5       	ldi	r29, 0x5D	; 93
     162:	7d 08       	sbc	r7, r13
     164:	fc 1e       	adc	r15, r28
     166:	3d 4c       	sbci	r19, 0xCD	; 205
     168:	10 53       	subi	r17, 0x30	; 48
     16a:	6d 2d       	mov	r22, r13
     16c:	6e 28       	or	r6, r14
     16e:	6c 05       	cpc	r22, r12
     170:	dd e5       	ldi	r29, 0x5D	; 93
     172:	7d 08       	sbc	r7, r13
     174:	fc 1e       	adc	r15, r28
     176:	3d 45       	sbci	r19, 0x5D	; 93
     178:	10 5b       	subi	r17, 0xB0	; 176
     17a:	a1 95       	neg	r26
     17c:	f0 65       	ori	r31, 0x50	; 80
     17e:	a1 9c       	mul	r10, r1
     180:	f0 33       	cpi	r31, 0x30	; 48
     182:	6c 00       	.word	0x006c	; ????
     184:	a1 9c       	mul	r10, r1
     186:	fc 1e       	adc	r15, r28
     188:	f0 65       	ori	r31, 0x50	; 80
     18a:	f0 29       	or	r31, r0
     18c:	dd e5       	ldi	r29, 0x5D	; 93
     18e:	7d 05       	cpc	r23, r13
     190:	7c 01       	movw	r14, r24
     192:	3c 03       	fmul	r19, r20
     194:	10 65       	ori	r17, 0x50	; 80
     196:	6c 20       	and	r6, r12
     198:	ec 9e       	mul	r14, r28
     19a:	10 6f       	ori	r17, 0xF0	; 240
     19c:	a1 94       	neg	r10
     19e:	60 00       	.word	0x0060	; ????
     1a0:	61 00       	.word	0x0061	; ????
     1a2:	f1 55       	subi	r31, 0x51	; 81
     1a4:	6c 36       	cpi	r22, 0x6C	; 108
     1a6:	6f 0a       	sbc	r6, r31
     1a8:	21 4f       	sbci	r18, 0xF1	; 241
     1aa:	00 c1       	rjmp	.+512    	; 0x3ac <__trampolines_end+0x2f2>
     1ac:	7c ff       	.word	0xff7c	; ????
     1ae:	3c 00       	.word	0x003c	; ????
     1b0:	10 76       	andi	r17, 0x60	; 96
     1b2:	10 0b       	sbc	r17, r16
     1b4:	33 00       	.word	0x0033	; ????
     1b6:	10 97       	sbiw	r26, 0x00	; 0
     1b8:	cc 0f       	add	r28, r28
     1ba:	3c 00       	.word	0x003c	; ????
     1bc:	10 96       	adiw	r26, 0x00	; 0
     1be:	cc 07       	cpc	r28, r28
     1c0:	7c 01       	movw	r14, r24
     1c2:	8c 06       	cpc	r8, r28
     1c4:	a1 99       	sbic	0x14, 1	; 20
     1c6:	fc 1e       	adc	r15, r28
     1c8:	f0 65       	ori	r31, 0x50	; 80
     1ca:	40 00       	.word	0x0040	; ????
     1cc:	10 96       	adiw	r26, 0x00	; 0
     1ce:	82 d0       	rcall	.+260    	; 0x2d4 <__trampolines_end+0x21a>
     1d0:	83 e0       	ldi	r24, 0x03	; 3
     1d2:	73 05       	cpc	r23, r3
     1d4:	4c 00       	.word	0x004c	; ????
     1d6:	10 92 72 14 	sts	0x1472, r1
     1da:	7c ff       	.word	0xff7c	; ????
     1dc:	10 8d       	ldd	r17, Z+24	; 0x18
     1de:	a1 91       	ld	r26, Z+
     1e0:	d2 32       	cpi	r29, 0x22	; 34
     1e2:	3f 00       	.word	0x003f	; ????
     1e4:	10 9e       	mul	r1, r16
     1e6:	00 ee       	ldi	r16, 0xE0	; 224
     1e8:	a1 91       	ld	r26, Z+
     1ea:	d2 32       	cpi	r29, 0x22	; 34
     1ec:	73 01       	movw	r14, r6
     1ee:	33 3a       	cpi	r19, 0xA3	; 163
     1f0:	10 92 63 00 	sts	0x0063, r1
     1f4:	00 ee       	ldi	r16, 0xE0	; 224
     1f6:	6c 35       	cpi	r22, 0x5C	; 92
     1f8:	8b 30       	cpi	r24, 0x0B	; 11
     1fa:	8b c5       	rjmp	.+2838   	; 0xd12 <__stack+0x413>
     1fc:	3f 00       	.word	0x003f	; ????
     1fe:	64 63       	ori	r22, 0x34	; 52
     200:	00 ee       	ldi	r16, 0xE0	; 224
     202:	80 40       	sbci	r24, 0x00	; 0
     204:	70 01       	movw	r14, r0
     206:	80 06       	cpc	r8, r16
     208:	6c 00       	.word	0x006c	; ????
     20a:	a1 99       	sbic	0x14, 1	; 20
     20c:	fc 1e       	adc	r15, r28
     20e:	f0 55       	subi	r31, 0x50	; 80
     210:	7c 01       	movw	r14, r24
     212:	3c 05       	cpc	r19, r12
     214:	10 a8       	ldd	r1, Z+48	; 0x30
     216:	a1 9c       	mul	r10, r1
     218:	f4 33       	cpi	r31, 0x34	; 52
     21a:	20 b8       	out	0x00, r2	; 0
     21c:	6c 78       	andi	r22, 0x8C	; 140
     21e:	fc 15       	cp	r31, r12
     220:	fc 07       	cpc	r31, r28
     222:	3c 00       	.word	0x003c	; ????
     224:	10 b3       	in	r17, 0x10	; 16
     226:	20 b8       	out	0x00, r2	; 0
     228:	00 ee       	ldi	r16, 0xE0	; 224
     22a:	a1 9d       	mul	r26, r1
     22c:	f0 65       	ori	r31, 0x50	; 80
     22e:	f0 30       	cpi	r31, 0x00	; 0
     230:	6c 37       	cpi	r22, 0x7C	; 124
     232:	6b 1b       	sub	r22, r27
     234:	dc ba       	out	0x1c, r13	; 28
     236:	a1 9e       	mul	r10, r17
     238:	f0 65       	ori	r31, 0x50	; 80
     23a:	f0 30       	cpi	r31, 0x00	; 0
     23c:	6c 41       	sbci	r22, 0x1C	; 28
     23e:	dc ba       	out	0x1c, r13	; 28
     240:	00 ee       	ldi	r16, 0xE0	; 224
     242:	46 00       	.word	0x0046	; ????
     244:	11 02       	muls	r17, r17
     246:	a1 91       	ld	r26, Z+
     248:	d5 62       	ori	r29, 0x25	; 37
     24a:	76 ff       	sbrs	r23, 6
     24c:	46 00       	.word	0x0046	; ????
     24e:	11 02       	muls	r17, r17
     250:	d5 62       	ori	r29, 0x25	; 37
     252:	4f 00       	.word	0x004f	; ????
     254:	11 02       	muls	r17, r17
     256:	8c e0       	ldi	r24, 0x0C	; 12
     258:	7c 05       	cpc	r23, r12
     25a:	8c 65       	ori	r24, 0x5C	; 92
     25c:	4f 00       	.word	0x004f	; ????
     25e:	11 03       	mulsu	r17, r17
     260:	d5 62       	ori	r29, 0x25	; 37
     262:	75 fb       	bst	r23, 5
     264:	66 00       	.word	0x0066	; ????
     266:	8c d0       	rcall	.+280    	; 0x380 <__trampolines_end+0x2c6>
     268:	60 00       	.word	0x0060	; ????
     26a:	8b c0       	rjmp	.+278    	; 0x382 <__trampolines_end+0x2c8>
     26c:	8b 55       	subi	r24, 0x5B	; 91
     26e:	3f 00       	.word	0x003f	; ????
     270:	10 df       	rcall	.-480    	; 0x92 <__SREG__+0x53>
     272:	7c 14       	cp	r7, r12
     274:	70 01       	movw	r14, r0
     276:	10 d8       	rcall	.-4064   	; 0xfffff298 <__eeprom_end+0xff7ef298>
     278:	a1 99       	sbic	0x14, 1	; 20
     27a:	f0 1e       	adc	r15, r16
     27c:	f0 65       	ori	r31, 0x50	; 80
     27e:	70 ff       	sbrs	r23, 0
     280:	f0 55       	subi	r31, 0x50	; 80
     282:	a1 96       	adiw	r28, 0x21	; 33
     284:	40 00       	.word	0x0040	; ????
     286:	dc e5       	ldi	r29, 0x5C	; 92
     288:	6c 0a       	sbc	r6, r28
     28a:	fc 18       	sub	r15, r12
     28c:	a1 94       	neg	r10
     28e:	f0 65       	ori	r31, 0x50	; 80
     290:	6c ff       	.word	0xff6c	; ????
     292:	80 c3       	rjmp	.+1792   	; 0x994 <__stack+0x95>
     294:	f0 55       	subi	r31, 0x50	; 80
     296:	30 00       	.word	0x0030	; ????
     298:	10 f4       	brcc	.+4      	; 0x29e <__trampolines_end+0x1e4>
     29a:	a1 95       	neg	r26
     29c:	f0 65       	ori	r31, 0x50	; 80
     29e:	70 01       	movw	r14, r0
     2a0:	f0 55       	subi	r31, 0x50	; 80
     2a2:	6c 00       	.word	0x006c	; ????
     2a4:	6b 00       	.word	0x006b	; ????
     2a6:	a1 99       	sbic	0x14, 1	; 20
     2a8:	fc 1e       	adc	r15, r28
     2aa:	f0 65       	ori	r31, 0x50	; 80
     2ac:	30 00       	.word	0x0030	; ????
     2ae:	7b 01       	movw	r14, r22
     2b0:	7c 01       	movw	r14, r24
     2b2:	3c 05       	cpc	r19, r12
     2b4:	10 f6       	brcc	.-124    	; 0x23a <__trampolines_end+0x180>
     2b6:	3b 00       	.word	0x003b	; ????
     2b8:	11 02       	muls	r17, r17
     2ba:	74 01       	movw	r14, r8
     2bc:	6f 42       	sbci	r22, 0x2F	; 47
     2be:	00 ee       	ldi	r16, 0xE0	; 224
     2c0:	a1 91       	ld	r26, Z+
     2c2:	d2 32       	cpi	r29, 0x22	; 34
     2c4:	d5 62       	ori	r29, 0x25	; 37
     2c6:	63 00       	.word	0x0063	; ????
     2c8:	66 00       	.word	0x0066	; ????
     2ca:	00 ee       	ldi	r16, 0xE0	; 224
     2cc:	6b 00       	.word	0x006b	; ????
     2ce:	6c 08       	sbc	r6, r12
     2d0:	ec a1       	ldd	r30, Y+36	; 0x24
     2d2:	6b ff       	.word	0xff6b	; ????
     2d4:	6c 10       	cpse	r6, r12
     2d6:	ec a1       	ldd	r30, Y+36	; 0x24
     2d8:	6b 01       	movw	r12, r22
     2da:	4b 00       	.word	0x004b	; ????
     2dc:	11 1c       	adc	r1, r1
     2de:	48 01       	movw	r8, r16
     2e0:	6b 01       	movw	r12, r22
     2e2:	48 78       	andi	r20, 0x88	; 136
     2e4:	6b ff       	.word	0xff6b	; ????
     2e6:	a1 8e       	std	Z+25, r10	; 0x19
     2e8:	69 35       	cpi	r22, 0x59	; 89
     2ea:	d8 96       	adiw	r26, 0x38	; 56
     2ec:	88 b4       	in	r8, 0x28	; 40
     2ee:	d8 96       	adiw	r26, 0x38	; 56
     2f0:	11 25       	eor	r17, r1
     2f2:	6c 20       	and	r6, r12
     2f4:	ec 9e       	mul	r14, r28
     2f6:	11 25       	eor	r17, r1
     2f8:	36 00       	.word	0x0036	; ????
     2fa:	11 25       	eor	r17, r1
     2fc:	85 80       	ldd	r8, Z+5	; 0x05
     2fe:	66 35       	cpi	r22, 0x56	; 86
     300:	a1 91       	ld	r26, Z+
     302:	d5 62       	ori	r29, 0x25	; 37
     304:	6f 06       	cpc	r6, r31
     306:	21 4f       	sbci	r18, 0xF1	; 241
     308:	00 ee       	ldi	r16, 0xE0	; 224
     30a:	f0 07       	cpc	r31, r16
     30c:	30 00       	.word	0x0030	; ????
     30e:	11 37       	cpi	r17, 0x71	; 113
     310:	60 1e       	adc	r6, r16
     312:	f0 15       	cp	r31, r0
     314:	67 00       	.word	0x0067	; ????
     316:	3d 21       	and	r19, r13
     318:	11 32       	cpi	r17, 0x21	; 33
     31a:	6a ff       	.word	0xff6a	; ????
     31c:	11 35       	cpi	r17, 0x51	; 81
     31e:	3d 07       	cpc	r19, r29
     320:	11 36       	cpi	r17, 0x61	; 97
     322:	6a 01       	movw	r12, r20
     324:	67 01       	movw	r12, r14
     326:	21 38       	cpi	r18, 0x81	; 129
     328:	00 ee       	ldi	r16, 0xE0	; 224
     32a:	8b d0       	rcall	.+278    	; 0x442 <blinky+0x4a>
     32c:	6c 00       	.word	0x006c	; ????
     32e:	89 b0       	in	r8, 0x09	; 9
     330:	81 e0       	ldi	r24, 0x01	; 1
     332:	a1 99       	sbic	0x14, 1	; 20
     334:	fc 1e       	adc	r15, r28
     336:	f0 65       	ori	r31, 0x50	; 80
     338:	40 00       	.word	0x0040	; ????
     33a:	11 46       	sbci	r17, 0x61	; 97
     33c:	a1 96       	adiw	r28, 0x21	; 33
     33e:	d9 15       	cp	r29, r9
     340:	89 a4       	ldd	r8, Y+41	; 0x29
     342:	81 74       	andi	r24, 0x41	; 65
     344:	d9 15       	cp	r29, r9
     346:	7c 01       	movw	r14, r24
     348:	7b 14       	cp	r7, r11
     34a:	3c 05       	cpc	r19, r12
     34c:	11 3a       	cpi	r17, 0xA1	; 161
     34e:	8d a4       	ldd	r8, Y+45	; 0x2d
     350:	8e 74       	andi	r24, 0x4E	; 78
     352:	4e 30       	cpi	r20, 0x0E	; 14
     354:	64 63       	ori	r22, 0x34	; 52
     356:	00 ee       	ldi	r16, 0xE0	; 224
     358:	ff 15       	cp	r31, r15
     35a:	ff 07       	cpc	r31, r31
     35c:	3f 00       	.word	0x003f	; ????
     35e:	11 50       	subi	r17, 0x01	; 1
     360:	00 ee       	ldi	r16, 0xE0	; 224
     362:	3c 0c       	add	r3, r12
     364:	1e 1e       	adc	r1, r30
     366:	33 33       	cpi	r19, 0x33	; 51
     368:	3f 61       	ori	r19, 0x1F	; 31
     36a:	61 f3       	breq	.-40     	; 0x344 <__trampolines_end+0x28a>
     36c:	1f 0c       	add	r1, r15
     36e:	0c 0c       	add	r0, r12
     370:	0c 0c       	add	r0, r12
     372:	0c 8c       	ldd	r0, Y+28	; 0x1c
     374:	8c df       	rcall	.-232    	; 0x28e <__trampolines_end+0x1d4>
     376:	07 01       	movw	r0, r14
     378:	01 01       	movw	r0, r2
     37a:	01 01       	movw	r0, r2
     37c:	01 01       	movw	r0, r2
     37e:	61 e7       	ldi	r22, 0x71	; 113
     380:	e7 83       	std	Z+7, r30	; 0x07
     382:	83 83       	std	Z+3, r24	; 0x03
     384:	83 83       	std	Z+3, r24	; 0x03
     386:	83 83       	std	Z+3, r24	; 0x03
     388:	83 e7       	ldi	r24, 0x73	; 115
     38a:	fb 19       	sub	r31, r11
     38c:	01 61       	ori	r16, 0x11	; 17
     38e:	e1 61       	ori	r30, 0x11	; 17
     390:	01 01       	movw	r0, r2
     392:	19 fb       	.word	0xfb19	; ????
     394:	9f 86       	std	Y+15, r9	; 0x0f
     396:	c6 e6       	ldi	r28, 0x66	; 102
     398:	e6 b6       	in	r14, 0x36	; 54
     39a:	9e 9e       	mul	r9, r30
     39c:	8e e6       	ldi	r24, 0x6E	; 110
     39e:	e4 94       	.word	0x94e4	; ????
     3a0:	e7 90       	elpm	r14, Z+
     3a2:	f7 87       	std	Z+15, r31	; 0x0f
     3a4:	80 80       	ld	r8, Z
     3a6:	80 87       	std	Z+8, r24	; 0x08
     3a8:	88 88       	ldd	r8, Y+16	; 0x10
     3aa:	88 88       	ldd	r8, Y+16	; 0x10
     3ac:	af 66       	ori	r26, 0x6F	; 111
     3ae:	88 48       	sbci	r24, 0x88	; 136
     3b0:	28 c6       	rjmp	.+3152   	; 0x1002 <credits+0x9>
     3b2:	4c aa       	std	Y+52, r4	; 0x34
     3b4:	ac aa       	std	Y+52, r10	; 0x34
     3b6:	4a e0       	ldi	r20, 0x0A	; 10
     3b8:	88 c0       	rjmp	.+272    	; 0x4ca <blinky+0xd2>
     3ba:	88 e0       	ldi	r24, 0x08	; 8
     3bc:	00 00       	nop
     3be:	18 ff       	.word	0xff18	; ????
     3c0:	3c 00       	.word	0x003c	; ????
     3c2:	18 3c       	cpi	r17, 0xC8	; 200
     3c4:	ff 81       	ldd	r31, Y+7	; 0x07
     3c6:	42 3c       	cpi	r20, 0xC2	; 194
     3c8:	3c 3c       	cpi	r19, 0xCC	; 204
     3ca:	42 3c       	cpi	r20, 0xC2	; 194
     3cc:	5a 5a       	subi	r21, 0xAA	; 170
     3ce:	7e 7e       	andi	r23, 0xEE	; 238
     3d0:	00 00       	nop
     3d2:	24 3c       	cpi	r18, 0xC4	; 196
     3d4:	24 00       	.word	0x0024	; ????
     3d6:	00 18       	sub	r0, r0
     3d8:	18 3c       	cpi	r17, 0xC8	; 200
     3da:	7e ff       	.word	0xff7e	; ????
     3dc:	18 18       	sub	r1, r8
     3de:	ff 22       	and	r15, r31
     3e0:	55 88       	ldd	r5, Z+21	; 0x15
	...

000003f8 <blinky>:
     3f8:	10 1b 62 6c 69 6e 6b 79 20 32 2e 30 30 20 43 2e     ..blinky 2.00 C.
     408:	20 45 67 65 62 65 72 67 20 31 39 39 31 0a 4a 61      Egeberg 1991.Ja
     418:	63 71 75 65 73 20 44 65 73 63 68 65 6e 65 73 2c     cques Deschenes,
     428:	20 32 30 31 35 00 00 e0 a0 01 60 00 91 09 81 06      2015.....`.....
     438:	90 12 91 09 60 02 23 8d 00 d1 71 ff 31 00 10 22     ....`.#...q.1.."
     448:	80 03 81 13 a3 92 f1 55 60 05 a3 94 f0 55 87 73     .......U`....U.s
     458:	86 63 22 e4 00 e0 22 f5 6e 40 87 e2 6e 27 87 e1     .c"...".n@..n'..
     468:	68 34 69 18 6a 70 6b 00 6c 04 6d 34 22 d2 a3 b5     h4i.jpk.l.m4"...
     478:	da b8 dc d8 60 02 23 8d 21 12 3e 00 10 5b a3 94     ....`.#.!.>..[..
     488:	f0 65 85 00 c4 ff 84 52 21 a5 c4 ff 84 52 22 39     .e.....R!....R"9
     498:	60 20 e0 a1 23 19 36 f7 10 42 8e 60 23 6b 6e 64     ` ..#.6..B.`#knd
     4a8:	23 6b 23 19 10 30 f0 07 40 00 10 ad 80 80 80 06     #k#..0..@.......
     4b8:	80 06 81 a0 81 06 81 06 80 15 40 00 10 6c 40 01     ..........@..l@.
     4c8:	10 6c 40 ff 10 6c 10 85 80 90 80 06 80 06 81 b0     .l@..l..........
     4d8:	81 06 81 06 80 15 40 00 10 7a 40 01 10 7a 40 ff     ......@..z@..z@.
     4e8:	10 7a 10 85 a3 b5 da b8 6a 70 6b 00 da b8 6e f3     .z......jpk...n.
     4f8:	87 e2 6e 04 87 e1 6e 32 23 6b 80 80 80 06 80 06     ..n...n2#k......
     508:	81 c0 81 06 81 06 80 15 40 00 10 93 40 01 10 93     ........@...@...
     518:	40 ff 10 93 10 47 80 90 80 06 80 06 81 d0 81 06     @....G..........
     528:	81 06 80 15 40 00 10 a1 40 01 10 a1 40 ff 10 a1     ....@...@...@...
     538:	10 47 a3 b5 dc d8 6c 04 6d 34 dc d8 6e cf 87 e2     .G....l.m4..n...
     548:	6e 20 87 e1 6e 19 23 6b 10 47 60 5a 23 82 22 d2     n ..n.#k.G`Z#.".
     558:	a3 b5 da b8 dc d8 6e 40 87 e3 80 70 80 e2 30 00     ......n@...p..0.
     568:	10 34 8e 60 23 6b 23 73 00 e0 66 24 67 14 a3 93     .4.`#k#s..f$g...
     578:	23 21 66 24 67 20 a3 92 23 21 64 00 65 10 66 01     #!f$g ..#!d.e.f.
     588:	67 0f a4 e1 d4 60 a4 f1 d5 60 60 14 23 82 3e 00     g....`...``.#.>.
     598:	11 08 a4 e1 d4 60 a4 f1 d5 60 74 04 75 04 34 60     .....`...`t.u.4`
     5a8:	10 c9 a4 e1 d4 60 a4 f1 d5 60 60 14 23 82 3e 00     .....`...``.#.>.
     5b8:	11 08 a4 e1 d4 60 a4 f1 d5 60 76 04 36 2d 10 d9     .....`...`v.6-..
     5c8:	a4 e1 d4 60 a4 f1 d5 60 60 14 23 82 3e 00 11 08     ...`...``.#.>...
     5d8:	a4 e1 d4 60 a4 f1 d5 60 74 fc 75 fc 34 00 10 e8     ...`...`t.u.4...
     5e8:	a4 e1 d4 60 a4 f1 d5 60 60 14 23 82 3e 00 11 08     ...`...``.#.>...
     5f8:	a4 e1 d4 60 a4 f1 d5 60 76 fc 36 01 10 f8 10 c9     ...`...`v.6.....
     608:	a4 f1 d5 60 a5 01 d5 60 60 1e f0 15 f0 07 30 00     ...`...``.....0.
     618:	11 0e 10 28 83 70 6e 03 83 e2 84 80 85 90 6e 04     ...(.pn.......n.
     628:	ee a1 11 43 6e 02 ee a1 11 4f 6e 10 ee a1 11 5b     ...Cn....On....[
     638:	6e 08 ee a1 11 67 43 03 75 04 43 00 75 fc 43 02     n....gC.u.C.u.C.
     648:	74 04 43 01 74 fc 80 40 81 50 23 09 82 00 6e 08     t.C.t..@.P#...n.
     658:	80 e2 30 00 11 73 6e 07 80 20 82 e2 42 05 11 77     ..0..sn.. ..B..w
     668:	42 06 11 83 42 07 11 a0 22 d2 6e fc 87 e2 87 31     B...B...".n....1
     678:	88 40 89 50 12 d2 80 40 81 50 71 04 23 09 82 00     .@.P...@.Pq.#...
     688:	6e 08 80 e2 30 00 11 23 63 03 75 04 11 31 80 40     n...0..#c.u..1.@
     698:	81 50 71 fc 23 09 82 00 6e 08 80 e2 30 00 11 23     .Pq.#...n...0..#
     6a8:	63 00 75 fc 11 31 80 40 81 50 70 04 23 09 82 00     c.u..1.@.Pp.#...
     6b8:	6e 08 80 e2 30 00 11 23 63 02 74 04 11 31 80 40     n...0..#c.t..1.@
     6c8:	81 50 70 fc 23 09 82 00 6e 08 80 e2 30 00 11 23     .Pp.#...n...0..#
     6d8:	63 01 74 fc 11 31 22 d2 d8 98 8e f0 00 ee 6e f0     c.t..1".......n.
     6e8:	80 e2 80 31 f0 55 a3 b9 d4 58 76 01 61 05 f0 07     ...1.U...Xv.a...
     6f8:	40 00 f1 18 11 3c 6e f0 80 e2 80 31 f0 55 a3 bd     @....<n....1.U..
     708:	d4 58 76 04 80 a0 81 b0 23 09 6e f0 80 e2 30 00     .Xv.....#.n...0.
     718:	11 93 6e 0c 87 e3 80 c0 81 d0 23 09 6e f0 80 e2     ..n.......#.n...
     728:	30 00 11 9c 6e 30 87 e3 60 ff f0 18 f0 15 11 3c     0...n0..`......<
     738:	43 01 64 74 43 02 64 00 11 3c 82 70 83 70 6e 0c     C.dtC.d..<.p.pn.
     748:	82 e2 80 a0 81 b0 23 09 a3 b5 6e f0 80 e2 30 00     ......#...n...0.
     758:	11 bc da b8 42 0c 7b 04 42 00 7b fc 42 08 7a 04     ....B.{.B.{.B.z.
     768:	42 04 7a fc da b8 00 ee 6e 80 f1 07 31 00 12 14     B.z.....n...1...
     778:	34 00 12 14 81 00 83 0e 3f 00 11 d5 83 90 83 b5     4.......?.......
     788:	4f 00 11 f0 33 00 11 e4 87 e3 83 80 83 a5 4f 00     O...3.........O.
     798:	12 08 33 00 11 fc 87 e3 12 14 83 80 83 a5 4f 00     ..3...........O.
     7a8:	12 08 33 00 11 fc 87 e3 83 90 83 b5 4f 00 11 f0     ..3.........O...
     7b8:	33 00 11 e4 87 e3 12 14 63 40 81 32 41 00 12 14     3.......c@.2A...
     7c8:	da b8 7b 04 da b8 6e f3 87 e2 62 0c 87 21 00 ee     ..{...n...b..!..
     7d8:	63 10 81 32 41 00 12 14 da b8 7b fc da b8 6e f3     c..2A.....{...n.
     7e8:	87 e2 62 00 87 21 00 ee 63 20 81 32 41 00 12 14     ..b..!..c .2A...
     7f8:	da b8 7a 04 da b8 6e f3 87 e2 62 08 87 21 00 ee     ..z...n...b..!..
     808:	63 80 81 32 41 00 12 14 da b8 7a fc da b8 6e f3     c..2A.....z...n.
     818:	87 e2 62 04 87 21 00 ee c1 f0 80 12 30 00 12 1c     ..b..!......0...
     828:	6e 0c 87 e3 82 e3 11 b1 da b8 80 0e 4f 00 12 23     n...........O..#
     838:	62 04 7a fc 12 34 80 0e 4f 00 12 29 62 0c 7b 04     b.z..4..O..)b.{.
     848:	12 34 80 0e 4f 00 12 2f 62 08 7a 04 12 34 80 0e     .4..O../b.z..4..
     858:	4f 00 12 18 62 00 7b fc da b8 6e f3 87 e2 87 21     O...b.{...n....!
     868:	00 ee 82 70 83 70 6e 30 82 e2 80 c0 81 d0 23 09     ...p.pn0......#.
     878:	a3 b5 6e f0 80 e2 30 00 12 50 dc d8 42 30 7d 04     ..n...0..P..B0}.
     888:	42 00 7d fc 42 20 7c 04 42 10 7c fc dc d8 00 ee     B.}.B |.B.|.....
     898:	6e 80 f1 07 31 00 12 ac 34 00 12 ac 81 00 83 0e     n...1...4.......
     8a8:	4f 00 12 69 83 90 83 d5 4f 00 12 85 33 00 12 78     O..i....O...3..x
     8b8:	87 e3 83 80 83 c5 4f 00 12 9f 33 00 12 92 87 e3     ......O...3.....
     8c8:	12 ac 83 80 83 c5 4f 00 12 9f 33 00 12 92 87 e3     ......O...3.....
     8d8:	83 90 83 d5 4f 00 12 85 33 00 12 78 87 e3 12 ac     ....O...3..x....
     8e8:	63 40 81 32 41 00 12 ac dc d8 7d 04 dc d8 87 e3     c@.2A.....}.....
     8f8:	6e cf 87 e2 62 30 87 21 00 ee 63 10 81 32 41 00     n...b0.!..c..2A.
     908:	12 ac dc d8 7d fc dc d8 87 e3 6e cf 87 e2 62 00     ....}.....n...b.
     918:	87 21 00 ee 63 20 81 32 41 00 12 ac dc d8 7c 04     .!..c .2A.....|.
     928:	dc d8 87 e3 6e cf 87 e2 62 20 87 21 00 ee 63 80     ....n...b .!..c.
     938:	81 32 41 00 12 ac dc d8 7c fc dc d8 87 e3 6e cf     .2A.....|.....n.
     948:	87 e2 62 10 87 21 00 ee c1 f0 80 12 30 00 12 b5     ..b..!......0...
     958:	87 e3 6e 30 87 e3 82 e3 12 45 dc d8 80 0e 4f 00     ..n0.....E....O.
     968:	12 bc 62 90 7c fc 12 cd 80 0e 4f 00 12 c2 62 30     ..b.|.....O...b0
     978:	7d 04 12 cd 80 0e 4f 00 12 c8 62 a0 7c 04 12 cd     }.....O...b.|...
     988:	80 0e 4f 00 12 b0 62 00 7d fc dc d8 6e 4f 87 e2     ..O...b.}...nO..
     998:	87 21 00 ee 80 70 6e 03 80 e2 80 0e 81 80 81 94     .!...pn.........
     9a8:	6e 04 81 e2 41 00 70 01 80 0e 80 0e 80 0e a3 95     n...A.p.........
     9b8:	f0 1e d8 98 8e f0 00 ee 6e 00 a3 e1 fe 1e fe 1e     ........n.......
     9c8:	fe 1e fe 1e f3 65 a5 11 fe 1e fe 1e fe 1e fe 1e     .....e..........
     9d8:	f3 55 7e 01 3e 80 12 e5 00 ee 82 23 83 33 6e 0f     .U~.>......#.3n.
     9e8:	80 20 81 30 23 0b 80 e2 80 0e 80 0e a3 c1 f0 1e     . .0#...........
     9f8:	d2 34 72 04 32 80 12 f8 82 23 73 04 43 40 00 ee     .4r.2....#s.C@..
     a08:	12 f8 70 04 71 04 80 06 80 06 81 06 81 06 81 0e     ..p.q...........
     a18:	81 0e 81 0e 81 0e a5 11 f1 1e f1 1e f0 1e f0 65     ...............e
     a28:	00 ee a3 94 f0 65 80 06 f0 55 60 20 e0 a1 13 1e     .....e...U` ....
     a38:	00 ee f1 65 6e 01 84 43 82 00 83 10 65 10 83 55     ...en..C....e..U
     a48:	4f 00 82 e5 4f 00 13 34 65 27 82 55 4f 00 13 34     O...O..4e'.UO..4
     a58:	80 20 81 30 84 e4 13 26 f4 30 d6 7a 76 0c 84 43     . .0...&.0.zv..C
     a68:	82 00 83 10 65 e8 83 55 4f 00 82 e5 4f 00 13 48     ....e..UO...O..H
     a78:	65 03 82 55 4f 00 13 48 80 20 81 30 84 e4 13 3a     e..UO..H. .0...:
     a88:	f4 30 d6 7a 76 0c 84 43 82 00 83 10 65 64 83 55     .0.zv..C....ed.U
     a98:	4f 00 82 e5 4f 00 13 58 80 20 81 30 84 e4 13 4e     O...O..X. .0...N
     aa8:	f4 30 d6 7a 76 0c 84 43 82 00 83 10 65 0a 83 55     .0.zv..C....e..U
     ab8:	4f 00 13 65 81 30 84 e4 13 5e f4 30 d6 7a 76 0c     O..e.0...^.0.zv.
     ac8:	f1 30 d6 7a 00 ee a3 92 f1 65 81 e4 3f 00 70 01     .0.z.....e..?.p.
     ad8:	a3 92 f1 55 00 ee a3 92 f3 65 8e 00 8e 25 4f 00     ...U.....e...%O.
     ae8:	00 ee 3e 00 13 7f 8e 10 8e 35 4f 00 00 ee a3 93     ..>......5O.....
     af8:	f1 55 00 ee 8e e3 62 20 f0 15 e2 a1 13 8b f0 07     .U....b ........
     b08:	30 00 13 85 00 ee 6e 01 00 ee f0 15 f0 07 30 00     0.....n.......0.
     b18:	13 8e 00 ee 00 00 00 00 05 00 00 22 63 63 77 7f     ..........."ccw.
     b28:	3e 1c 00 1c 1e 5d 5d 6f 3e 1c 00 3c 7e 0f 07 0f     >....]]o>..<~...
     b38:	7e 3c 00 1c 26 7f 7f 7b 06 1c 00 1e 3f 78 70 78     ~<..&..{....?xpx
     b48:	3f 1e 00 1c 32 7f 7f 6f 30 1c 00 1c 3e 7f 77 63     ?...2..o0...>.wc
     b58:	63 22 00 1c 3e 6f 5d 5d 1e 1c 00 1c 3e 49 77 7f     c"..>o]]....>Iw.
     b68:	63 7f 00 00 00 00 08 00 00 00 00 00 00 00 08 08     c...............
	...
     b8c:	00 00 80 00 00 00 80 80 00 00 00 00 00 00 f0 00     ................
     b9c:	00 00 00 00 00 00 80 80 80 80 00 00 00 00 f0 80     ................
     bac:	80 80 80 80 80 80 f0 00 00 00 80 00 00 00 0c 08     ................
     bbc:	08 08 08 08 08 08 08 08 08 08 08 08 08 0d 0c 08     ................
     bcc:	08 08 08 08 08 08 08 08 08 08 08 08 08 0d 0a 65     ...............e
     bdc:	05 05 05 05 e5 05 05 e5 05 05 05 05 c5 0a 0a 65     ...............e
     bec:	05 05 05 05 e5 05 05 e5 05 05 05 05 c5 0a 0a 05     ................
     bfc:	0c 08 08 0f 05 0c 0d 05 08 08 08 0d 05 0e 0f 05     ................
     c0c:	0c 08 08 0f 05 0c 0d 05 08 08 08 0d 05 0a 0a 05     ................
     c1c:	0a 65 06 05 95 0a 0a 35 05 05 c5 0a 35 05 05 95     .e.....5....5...
     c2c:	0a 65 05 05 95 0a 0a 35 05 06 c5 0a 05 0a 0a 05     .e.....5........
     c3c:	0f 05 08 08 08 08 08 0c 08 0f 05 08 08 08 08 08     ................
     c4c:	0f 05 08 08 0c 08 08 08 08 0f 05 0f 05 0a 0a 75     ...............u
     c5c:	05 b5 05 05 05 05 c5 0a 65 05 b5 05 e5 05 05 e5     ........e.......
     c6c:	05 b5 05 c5 0a 65 05 05 05 05 b5 05 d5 0a 0a 05     .....e..........
     c7c:	0c 08 08 08 08 0d 05 0f 05 0c 08 0f 05 08 0f 05     ................
     c8c:	08 08 0d 05 0f 05 0c 08 08 08 08 0d 05 0a 0f 05     ................
     c9c:	0f 65 05 05 c5 0a 35 e5 95 0a 65 05 b0 05 05 b5     .e....5...e.....
     cac:	05 c5 0a 35 e5 95 0a 65 05 05 c5 0f 05 0f 07 74     ...5...e.......t
     cbc:	05 d5 08 0f 05 0e 0f 05 08 0f 05 0c 08 08 08 08     ................
     ccc:	0d 05 08 0f 05 08 0f 05 08 0f 75 05 d4 07 0a 05     ..........u.....
     cdc:	0a 35 05 05 f5 05 05 b5 05 05 d5 08 08 0d 0c 08     .5..............
     cec:	0f 75 05 05 b5 05 05 f5 05 05 95 0a 05 0a 0a 05     .u..............
     cfc:	08 08 08 0d 05 0c 08 08 08 0d 35 05 c5 0a 0a 65     ..........5....e
     d0c:	05 95 0c 08 08 08 0d 05 0c 08 08 0f 05 0a 0a 75     ...............u
     d1c:	05 06 c5 0a 05 08 08 08 08 08 08 0f 05 08 0f 05     ................
     d2c:	08 08 08 08 08 08 0f 05 0a 65 06 05 d5 0a 0a 05     .........e......
     d3c:	0c 0d 05 0a 35 05 05 05 05 e5 05 05 f5 05 05 f5     ....5...........
     d4c:	05 05 e5 05 05 05 05 95 0a 05 0c 0d 05 0a 0a 05     ................
     d5c:	08 0f 05 08 08 08 08 08 0f 05 0c 0d 05 08 0f 05     ................
     d6c:	0c 0d 05 08 08 08 08 08 0f 05 08 0f 05 0a 0a 35     ...............5
     d7c:	05 05 b5 05 05 05 05 05 05 95 0a 0a 35 05 05 95     ............5...
     d8c:	0a 0a 35 05 05 05 05 05 05 b5 05 05 95 0a 08 08     ..5.............
     d9c:	08 08 08 08 08 08 08 08 08 08 0f 08 08 08 08 08     ................
     dac:	0f 08 08 08 08 08 08 08 08 08 08 08 08 0f 01 e0     ................
     dbc:	02 10 04 c8 09 e4 0b f4 0b b4 09 e5 04 c9 02 13     ................
     dcc:	01 e7 00 07 01 83 03 f0 01 ff 00 ff 00 3f 0f 00     .............?..
     ddc:	10 80 26 40 4f 20 5f a0 5d a0 4f 20 26 40 90 80     ..&@O _.].O &@..
     dec:	cf 00 c0 00 83 00 1f 80 ff 00 fe 00 f8 00 0f 00     ................
     dfc:	1f 80 3f c0 7f e0 7f e0 5f e0 47 e0 20 c0 90 80     ..?....._.G. ...
     e0c:	cf 00 c0 80 83 c0 1f 80 ff 00 fe 00 f8 00 00 00     ................

00000e1c <car>:
     e1c:	10 0f 31 2e 30 30 20 4b 2e 76 2e 53 65 6e 67 62     ..1.00 K.v.Sengb
     e2c:	75 73 63 68 20 32 34 2f 34 2d 27 39 34 00 00 ff     usch 24/4-'94...
     e3c:	6c 04 20 a4 65 32 66 32 67 28 83 50 84 60 62 64     l. .e2f2g(.P.`bd
     e4c:	69 00 6a 01 6b 00 00 c1 20 66 60 01 82 05 60 28     i.j.k... f`...`(
     e5c:	52 00 10 1b a0 c8 d3 48 a0 c8 d3 48 00 c1 d5 68     R......H...H...h
     e6c:	3f 00 10 40 20 66 60 01 32 00 82 05 20 84 83 50     ?..@ f`.2... ..P
     e7c:	84 60 60 08 e0 a1 20 58 60 10 e0 a1 20 54 c0 03     .``... X`... T..
     e8c:	40 00 20 5d c0 03 40 00 20 61 80 c0 20 bd 10 24     @. ]..@. a.. ..$
     e9c:	80 b0 70 03 80 06 80 06 f0 30 80 70 70 11 61 1b     ..p......0.pp.a.
     eac:	d0 1a 60 64 20 bd 00 c8 60 00 61 00 a0 cc 90 12     ..`d ...`.a.....
     ebc:	f0 0a 40 ff 10 50 10 11 75 01 45 6e 65 6d 00 ee     ..@..P..u.Enem..
     ecc:	60 01 85 05 4f 00 65 00 00 ee 77 01 47 46 67 45     `...O.e...w.GFgE
     edc:	00 ee 60 01 87 05 47 14 67 15 00 ee 80 90 61 2d     ..`...G.g.....a-
     eec:	81 05 88 10 61 00 80 70 a0 c2 d0 11 80 84 61 00     ....a..p......a.
     efc:	d0 11 7a 01 4a 04 6a 01 4a 01 a0 c3 4a 02 a0 c4     ..z.J.j.J...J...
     f0c:	4a 03 a0 c5 61 00 60 00 d0 11 60 08 d0 11 60 70     J...a.`...`...`p
     f1c:	d0 11 60 78 d0 11 00 ee 32 00 00 ee c0 0f 80 74     ..`x....2......t
     f2c:	70 08 61 00 a0 c8 62 2d 4b 1e 20 96 3b 21 d0 18     p.a...b-K. .;!..
     f3c:	7b 01 80 90 82 05 39 0b 79 01 00 ee 7b 03 a0 c6     {.....9.y...{...
     f4c:	80 70 70 05 d0 11 70 08 d0 11 70 08 d0 11 70 08     .pp...p...p...p.
     f5c:	a0 c7 d0 11 62 64 00 ee 00 e0 60 00 61 00 a0 d2     ....bd....`.a...
     f6c:	90 12 62 08 82 c5 f2 29 60 2a d0 15 f0 0a 40 02     ..b....)`*....@.
     f7c:	20 ba 40 04 20 b7 30 20 10 a4 00 e0 00 ee 3c 07      .@. .0 ......<.
     f8c:	7c 01 10 bc 3c 01 7c ff 60 0f f0 15 f0 07 30 00     |...<.|.`.....0.
     f9c:	10 be 00 ee 88 00 88 00 55 00 22 00 ff 00 f8 00     ........U.".....
     fac:	db ff db 18 24 e7 e7 db 61 6e 79 20 6b 65 79 2e     ....$...any key.
     fbc:	2e 2e 00 00 73 70 65 65 64 3a 20 00                 ....speed: .

00000fc8 <__c.2485>:
     fc8:	63 61 72 74 65 20 53 44 3f 0a 00                    carte SD?..

00000fd3 <__c.2466>:
     fd3:	43 52 41 53 48 21 20 62 61 64 20 6f 70 63 6f 64     CRASH! bad opcod
     fe3:	65 0a 00                                            e..

00000fe6 <__c.2435>:
     fe6:	43 52 41 53 48 21 20 62 61 64 20 6f 70 63 6f 64     CRASH! bad opcod
     ff6:	65 0a 00                                            e..

00000ff9 <credits>:
     ff9:	46 41 54 20 64 72 69 76 65 72 0a 43 6f 70 79 72     FAT driver.Copyr
    1009:	69 67 68 74 20 32 30 30 36 2d 32 30 31 32 0a 52     ight 2006-2012.R
    1019:	6f 6c 61 6e 64 20 52 69 65 67 65 6c 0a 00           oland Riegel..

00001027 <flash_games>:
    1027:	4c 45 4d 0a 43 41 52 0a 57 4f 52 4d 0a 41 4c 49     LEM.CAR.WORM.ALI
    1037:	45 4e 0a 42 4c 49 4e 4b 59 0a 73 70 65 65 64 20     EN.BLINKY.speed 
    1047:	74 65 73 74 0a 00                                   test..

0000104d <__c.2030>:
    104d:	76 61 72 5b 5d 3a 00                                var[]:.

00001054 <__c.2028>:
    1054:	20 53 50 3a 00                                       SP:.

00001059 <__c.2026>:
    1059:	49 3a 00                                            I:.

0000105c <__c.2024>:
    105c:	50 43 3a 00                                         PC:.

00001060 <__c.2077>:
    1060:	45 63 68 65 63 20 6f 75 76 65 72 74 2e 20 66 69     Echec ouvert. fi
    1070:	63 68 2e 0a 00                                      ch...

00001075 <__c.2065>:
    1075:	45 63 68 65 63 20 61 63 63 65 73 20 72 65 70 65     Echec acces repe
    1085:	72 74 2e 0a 00                                      rt...

0000108a <__c.2058>:
    108a:	45 63 68 65 63 20 61 63 63 65 73 20 66 69 63 68     Echec acces fich
    109a:	69 65 72 73 0a 00                                   iers..

000010a0 <__c.2056>:
    10a0:	45 63 68 65 63 20 61 63 63 65 73 20 70 61 72 74     Echec acces part
    10b0:	69 74 69 6f 6e 0a 00                                ition..

000010b7 <__c.1680>:
    10b7:	0a 62 6f 75 74 6f 6e 2e 2e 2e 00                    .bouton....

000010c2 <lem>:
    10c2:	00 e0 20 c2 69 00 68 00 78 01 9e 08 60 10 8e 05     .. .i.h.x...`...
    10d2:	8e 06 6d 00 6c 00 6b 00 6a 64 20 87 20 6d 20 b3     ..m.l.k.jd . m .
    10e2:	4a 00 10 2b 60 08 e0 a1 10 1c 60 10 e0 a1 10 20     J..+`.....`.... 
    10f2:	60 20 e0 a1 10 24 10 2b 20 b3 7c ff 7a ff 10 29     ` ...$.+ .|.z..)
    1102:	20 b3 7c 01 7a ff 10 29 20 b3 7b fe 3a 01 7a ff      .|.z..) .{.:.z.
    1112:	7a ff 90 44 20 b3 20 b3 20 6d 8e c4 60 7f 8e 02     z..D . . m..`...
    1122:	8d b4 7b 01 20 6d 4f 01 10 4b 20 b3 4a 00 10 3b     ..{. mO..K .J..;
    1132:	60 14 20 46 10 10 20 b3 60 0a 61 04 90 11 60 04     `. F.. .`.a...`.
    1142:	20 46 20 b3 60 04 90 11 20 46 10 10 f0 15 f0 07      F .`... F......
    1152:	30 00 10 47 00 ee 20 b3 60 02 80 b5 3f 01 10 5c     0..G.. .`...?..\
    1162:	60 02 80 c5 3f 01 10 5c 5e 70 10 5c 79 01 a0 e8     `...?..\^p.\y...
    1172:	61 00 62 10 91 22 10 60 a0 e2 61 00 62 10 91 22     a.b..".`..a.b.."
    1182:	20 70 60 3c 20 46 60 20 e0 9e 10 64 61 01 62 0a      p`< F` ...da.b.
    1192:	91 21 e0 a1 10 69 00 e0 10 04 a0 cf de d0 00 ee     .!...i..........
    11a2:	61 00 62 0a a1 0c f9 33 20 7c a0 df d1 25 71 04     a.b....3 |...%q.
    11b2:	a1 0c f8 33 20 7c 00 ee 63 00 a1 0c f3 1e f0 65     ...3 |..c......e
    11c2:	f0 29 d1 25 71 04 73 01 33 03 10 7d 00 ee 65 00     .).%q.s.3..}..e.
    11d2:	c7 7f 90 08 63 10 80 35 90 06 80 75 90 07 3f 01     ....c..5...u..?.
    11e2:	87 00 84 70 74 10 c1 0f 90 09 81 07 83 50 83 75     ...pt........P.u
    11f2:	3f 01 10 9e 83 50 83 45 3f 01 10 ad 90 09 80 06     ?....P.E?.......
    1202:	80 15 3f 00 71 01 90 09 70 ff 80 17 3f 00 71 ff     ..?.q...p...?.q.
    1212:	c3 03 83 06 33 00 71 fe 71 01 95 13 75 01 90 08     ....3.q.q...u...
    1222:	55 00 10 96 00 ee 61 00 62 00 63 00 a1 0c fa 33     U.....a.b.c....3
    1232:	a1 0c f3 1e f0 65 f0 30 d1 2a 71 08 73 01 33 03     .....e.0.*q.s.3.
    1242:	10 b8 00 ee a0 f0 61 00 92 09 82 06 91 22 91 09     ......a......"..
    1252:	00 d1 60 03 20 46 71 ff 31 00 10 c8 00 ee 03 c0     ..`. Fq.1.......
    1262:	06 60 1f f8 3f fc 20 04 af f5 6c 36 2c 34 6f f6     .`..?. ...l6,4o.
    1272:	a0 05 3f fc 3f fc 12 90 24 48 60 0c c0 06 20 40     ..?.?...$H`... @
    1282:	40 80 80 00 79 6f 75 20 63 72 61 73 68 65 64 00     @...you crashed.
    1292:	63 6f 6e 67 72 61 74 75 6c 61 74 69 6f 6e 21 00     congratulation!.
    12a2:	4c 45 4d 0a 4a 61 63 71 75 65 73 20 44 65 73 63     LEM.Jacques Desc
    12b2:	68 65 6e 65 73 0a 43 6f 70 79 72 69 67 68 74 20     henes.Copyright 
    12c2:	32 30 31 34 2c 32 30 31 35 0a 6c 69 63 65 6e 63     2014,2015.licenc
    12d2:	65 20 47 50 4c 76 33 00 00 00 00 00                 e GPLv3.....

000012de <speed>:
    12de:	00 e0 a0 2a 60 00 61 00 90 12 63 3c 60 00 61 00     ...*`.a...c<`.a.
    12ee:	f3 15 70 01 f3 07 33 00 10 09 64 00 65 08 20 1d     ..p...3...d.e. .
    12fe:	64 00 65 10 80 10 20 1d 62 3c f2 15 f2 07 32 00     d.e... .b<....2.
    130e:	10 16 60 20 e0 9e 10 00 00 fd a0 30 f0 33 63 00     ..` .......0.3c.
    131e:	a0 30 f3 1e f0 65 f0 29 d4 55 74 04 73 01 33 03     .0...e.).Ut.s.3.
    132e:	10 20 00 ee 73 70 65 65 64 20 74 65 73 74 00 00     . ..speed test..
    133e:	00 00 00 00                                         ....

00001342 <splash>:
    1342:	ff ff ff ff ff ff ff ff ff ff ff ff ff ff ff ff     ................
    1352:	ff ff ff ff ff ff ff ff ff ff ff ff ff ff ff ff     ................
    1362:	ff ff ff ff ff ff ff ff ff ff ff ff ff ff ff ff     ................
    1372:	ff fe 03 fc ff e7 cf 80 0f ff ff ff ff ff ff ff     ................
    1382:	ff f8 00 fc ff e7 cf 80 07 ff ff ff ff ff ff ff     ................
    1392:	ff f0 fc 7c ff e7 cf 9f e3 ff ff ff ff ff ff ff     ...|............
    13a2:	ff e3 fe 3c ff e7 cf 9f f1 ff ff ff ff ff ff ff     ...<............
    13b2:	ff c7 ff 1c ff e7 cf 9f f9 ff ff ff ff ff ff ff     ................
    13c2:	ff cf ff 9c ff e7 cf 9f f9 f8 3f e0 fe 60 ff ff     ..........?..`..
    13d2:	ff 8f ff fc ff e7 cf 9f f9 e0 1f 80 3e 00 7f ff     ............>...
    13e2:	ff 9f ff fc ff e7 cf 9f f9 c7 8f 1f 1e 1e 3f ff     ..............?.
    13f2:	ff 9f ff fc ff e7 cf 9f f1 cf c7 3f 9e 3f 3f ff     ...........?.??.
    1402:	ff 9f ff fc 00 07 cf 9f e3 9f e6 3f 8e 7f 3f ff     ...........?..?.
    1412:	ff 9f ff fc 00 07 cf 80 07 9f fe 7f ce 7f 3f ff     ..............?.
    1422:	ff 9f ff fc ff e7 cf 80 1f 9f fe 7f ce 7f 3f ff     ..............?.
    1432:	ff 9f ff fc ff e7 cf 9f ff 9f fe 7f ce 7f 3f ff     ..............?.
    1442:	ff cf ff 9c ff e7 cf 9f ff 9f fe 7f ce 7f 3f ff     ..............?.
    1452:	ff cf ff 1c ff e7 cf 9f ff 9f e6 7f ce 7f 3f ff     ..............?.
    1462:	ff c7 ff 3c ff e7 cf 9f ff 9f e6 3f 8e 7f 3f ff     ...<.......?..?.
    1472:	ff e3 fe 3c ff e7 cf 9f ff cf cf 3f 9e 7f 3f ff     ...<.......?..?.
    1482:	ff f1 f8 7c ff e7 cf 9f ff c7 8f 1f 1e 7f 3f ff     ...|..........?.
    1492:	ff f8 00 fc ff e7 cf 9f ff e0 1f 80 3e 7f 3f ff     ............>.?.
    14a2:	ff fe 03 fc ff e7 cf 9f ff f8 3f e0 fe 7f 3f ff     ..........?...?.
    14b2:	ff ff ff ff ff ff ff ff ff ff ff ff ff ff ff ff     ................
    14c2:	ff ff ff ff ff ff ff ff ff ff ff ff ff ff ff ff     ................
    14d2:	ff ff ff ff ff ff df ff ff f8 7f c7 ff ff ff ff     ................
    14e2:	ff ff ff ff ff ff ff ff ff f7 7f bb ff ff ff ff     ................
    14f2:	ff ff ff ff ff ff ff ff ff ef bf 7d ff ff ff ff     ...........}....
    1502:	ff ff f7 dc 7a 61 df 1e 8f ff bf 7d ff ff ff ff     ....za.....}....
    1512:	ff ff f7 db b9 de de ee 77 ff bf 7d ff ff ff ff     ........w..}....
    1522:	ff ff fb b7 db df dd f6 f7 ff 7f 7d ff ff ff ff     ...........}....
    1532:	ff ff fb b7 db df dd f6 f7 ff 7f 7d ff ff ff ff     ...........}....
    1542:	ff ff fd 70 1b e1 dd f6 f7 fe ff 7d ff ff ff ff     ...p.......}....
    1552:	ff ff fd 77 fb fe dd f6 f7 fd ff 7d ff ff ff ff     ...w.......}....
    1562:	ff ff fd 77 db fe dd f6 f7 fb ff 7d ff ff ff ff     ...w.......}....
    1572:	ff ff fe fb bb de de ee f7 f7 ff bb ff ff ff ff     ................
    1582:	ff ff fe fc 7b e1 df 1e f7 e0 3b c7 ff ff ff ff     ....{.....;.....
    1592:	ff ff ff ff ff ff ff ff ff ff ff ff ff ff ff ff     ................
    15a2:	ff ff ff ff ff ff ff ff ff ff ff ff ff ff ff ff     ................
    15b2:	ff ff ff ff ff ff ff ff ff ff ff ff ff ff ff ff     ................
    15c2:	ff ff ff ff ff ff ff ff ff ff ff ff ff ff ff ff     ................
    15d2:	ff ff ff ff ff ff ff ff ff ff ff ff ff ff ff ff     ................
    15e2:	ff ff f1 ff ff fe fe fb f1 c7 bc 3f ff ff ff ff     ...........?....
    15f2:	ff ff ee ff ff ff fe fb ee bb 3d ff ff ff ff ff     ..........=.....
    1602:	ff ff df c6 9b aa ca 91 fe ba bb ff ff ff ff ff     ................
    1612:	ff ff df ba 6b a6 b2 6b fe bb b8 7f ff ff ff ff     ....k..k........
    1622:	ff ff df ba ed 6e ba eb fd bb bf bf ff ff ff ff     .....n..........
    1632:	ff ff df ba ed 6e ba eb fb bb bf bf ff ff ff ff     .....n..........
    1642:	ff ff ee ba 6e ee b2 eb f7 bb bb bf ff ff ff ff     ....n...........
    1652:	ff ff f1 c6 9e ee ca e9 e0 c7 bc 7f ff ff ff ff     ................
    1662:	ff ff ff fe fe ff fb ff ff ff ff ff ff ff ff ff     ................
    1672:	ff ff ff fe fd ff 87 ff ff ff ff ff ff ff ff ff     ................
    1682:	ff ff ff ff ff ff ff ff ff ff ff df ff ff ff ff     ................
    1692:	ff ff 7f ff ff ff ff 87 ff ff df af ff ff ff ff     ................
    16a2:	ff ff 7f ff ff ff ff bb ff ff df ff ff ff ff ff     ................
    16b2:	ff ff 63 8e 57 63 8f bd 8e 38 d3 8c 38 e3 ff ff     ..c.Wc...8..8...
    16c2:	ff ff 5d 75 97 5d 77 bd 75 d7 4d 75 d7 5d ff ff     ..]u.]w.u.Mu.]..
    16d2:	ff ff 61 7d d7 41 9f bd 06 77 dd 05 d0 67 ff ff     ..a}.A...w...g..
    16e2:	ff fb 5d 7d d7 5f ef bd 7f b7 dd 7d d7 fb ff ff     ..]}._.....}....
    16f2:	ff fb 59 75 96 5d 77 bb 75 d7 5d 75 d7 5d ff ff     ..Yu.]w.u.]u.]..
    1702:	ff fc e5 8e 59 63 8f 87 8e 38 dd 8d d8 e3 ff ff     ....Yc...8......
    1712:	ff ff ff ff df ff ff ff ff ff ff ff ff ff ff ff     ................
    1722:	ff ff ff ff df ff ff ff ff ff ff ff ff ff ff ff     ................
    1732:	ff ff ff ff ff ff ff ff ff ff ff ff ff ff ff ff     ................
    1742:	ff ff ff ff ff ff ff ff ff ff ff ff ff ff ff ff     ................
    1752:	ff ff ff ff ff ff ff ff ff ff ff ff ff ff ff ff     ................
    1762:	ff ff ff ff ff ff ff ff ff ff ff ff ff ff ff ff     ................
    1772:	ff ff ff ff ff ff ff ff ff ff ff ff ff ff ff ff     ................
    1782:	ff ff ff ff ff ff ff ff ff ff ff ff ff ff ff ff     ................
    1792:	ff ff ff ff ff ff ff ff ff ff ff ff ff ff ff ff     ................
    17a2:	ff ff ff ff ff ff ff ff ff ff ff ff ff ff ff ff     ................
    17b2:	ff ff ff ff ff ff ff ff ff ff ff ff ff ff ff ff     ................
    17c2:	ff ff ff ff ff ff ff ff ff ff ff ff ff ff ff ff     ................
    17d2:	ff ff ff ff ff ff ff ff ff ff ff ff ff ff ff ff     ................
    17e2:	ff ff ff ff ff ff ff ff ff ff ff ff ff ff ff ff     ................
    17f2:	ff ff ff ff ff ff ff ff ff ff ff ff ff ff ff ff     ................
    1802:	ff ff ff ff ff ff ff ff ff ff ff ff ff ff ff ff     ................
    1812:	ff ff ff ff ff ff ff ff ff ff ff ff ff ff ff ff     ................
    1822:	ff ff ff ff ff ff ff ff ff ff ff ff ff ff ff ff     ................
    1832:	ff ff ff ff ff ff ff ff ff ff ff ff ff ff ff ff     ................
    1842:	ff ff ff ff ff ff ff ff ff ff ff ff ff ff ff ff     ................
    1852:	ff ff ff ff ff ff ff ff ff ff ff ff ff ff ff ff     ................
    1862:	ff ff ff ff ff ff ff ff ff ff ff ff ff ff ff ff     ................
    1872:	ff ff ff ff ff ff ff ff ff ff ff ff ff ff ff ff     ................
    1882:	ff ff ff ff ff ff ff ff ff ff ff ff ff ff ff ff     ................
    1892:	ff ff ff ff ff ff ff ff ff ff ff ff ff ff ff ff     ................
    18a2:	ff ff ff ff ff ff ff ff ff ff ff ff ff ff ff ff     ................
    18b2:	ff ff ff ff ff ff ff ff ff ff ff ff ff ff ff ff     ................
    18c2:	ff ff ff ff ff ff ff ff ff ff ff ff ff ff ff ff     ................
    18d2:	ff ff ff ff ff ff ff ff ff ff ff ff ff ff ff ff     ................
    18e2:	ff ff ff ff ff ff ff ff ff ff ff ff ff ff ff ff     ................
    18f2:	ff ff ff ff ff ff ff ff ff ff ff ff ff ff ff ff     ................
    1902:	ff ff ff ff ff ff ff ff ff ff ff ff ff ff ff ff     ................
    1912:	ff ff ff ff ff ff ff ff ff ff ff ff ff ff ff ff     ................
    1922:	ff ff ff ff ff ff ff ff ff ff ff ff ff ff ff ff     ................
    1932:	ff ff ff ff ff ff ff ff ff ff ff ff ff ff ff ff     ................

00001942 <font_6x8>:
	...
    194a:	20 20 20 20 20 00 20 00 50 50 50 00 00 00 00 00          . .PPP.....
    195a:	50 50 f8 50 f8 50 50 00 20 78 a0 70 28 f0 20 00     PP.P.PP. x.p(. .
    196a:	c0 c8 10 20 40 98 18 00 60 90 a0 40 a8 90 68 00     ... @...`..@..h.
    197a:	60 20 40 00 00 00 00 00 10 20 40 40 40 20 10 00     ` @...... @@@ ..
    198a:	40 20 10 10 10 20 40 00 00 20 a8 70 a8 20 00 00     @ ... @.. .p. ..
    199a:	00 20 20 f8 20 20 00 00 00 00 00 00 60 20 40 00     .  .  ......` @.
    19aa:	00 00 00 f0 00 00 00 00 00 00 00 00 00 60 60 00     .............``.
    19ba:	00 08 10 20 40 80 00 00 70 88 98 a8 c8 88 70 00     ... @...p.....p.
    19ca:	20 60 20 20 20 20 f8 00 70 88 10 20 40 80 f8 00      `    ..p.. @...
    19da:	f0 08 08 f0 08 08 f0 00 10 30 50 90 f8 10 10 00     .........0P.....
    19ea:	f8 80 80 f0 08 08 f0 00 30 40 80 f0 88 88 70 00     ........0@....p.
    19fa:	f8 08 10 20 40 40 40 00 70 88 88 70 88 88 70 00     ... @@@.p..p..p.
    1a0a:	70 88 88 70 08 08 70 00 00 60 60 00 60 60 00 00     p..p..p..``.``..
    1a1a:	00 60 60 00 60 20 40 00 10 20 40 80 40 20 10 00     .``.` @.. @.@ ..
    1a2a:	00 00 f8 00 f8 00 00 00 40 20 10 08 10 20 40 00     ........@ ... @.
    1a3a:	70 88 08 10 20 00 20 00 70 88 08 68 a8 a8 70 00     p... . .p..h..p.
    1a4a:	70 88 88 f8 88 88 88 00 f0 88 88 f0 88 88 f0 00     p...............
    1a5a:	78 80 80 80 80 80 78 00 f0 88 88 88 88 88 f0 00     x.....x.........
    1a6a:	f8 80 80 f8 80 80 f8 00 f8 80 80 f8 80 80 80 00     ................
    1a7a:	78 80 80 b0 88 88 70 00 88 88 88 f8 88 88 88 00     x.....p.........
    1a8a:	70 20 20 20 20 20 70 00 78 08 08 08 08 90 60 00     p     p.x.....`.
    1a9a:	88 90 a0 c0 a0 90 88 00 80 80 80 80 80 80 f8 00     ................
    1aaa:	88 d8 a8 88 88 88 88 00 88 88 c8 a8 98 88 88 00     ................
    1aba:	70 88 88 88 88 88 70 00 f0 88 88 f0 80 80 80 00     p.....p.........
    1aca:	70 88 88 88 a8 98 78 00 f0 88 88 f0 a0 90 88 00     p.....x.........
    1ada:	78 80 80 70 08 08 f0 00 f8 20 20 20 20 20 20 00     x..p.....      .
    1aea:	88 88 88 88 88 88 70 00 88 88 88 88 88 50 20 00     ......p......P .
    1afa:	88 88 88 a8 a8 d8 88 00 88 88 50 20 50 88 88 00     ..........P P...
    1b0a:	88 88 88 50 20 20 20 00 f8 10 20 40 80 80 f8 00     ...P   ... @....
    1b1a:	60 40 40 40 40 40 60 00 00 80 40 20 10 08 00 00     `@@@@@`...@ ....
    1b2a:	18 08 08 08 08 08 18 00 20 50 88 00 00 00 00 00     ........ P......
    1b3a:	00 00 00 00 00 00 f8 00 40 20 10 00 00 00 00 00     ........@ ......
    1b4a:	00 00 70 08 78 88 78 00 80 80 80 b0 c8 88 f0 00     ..p.x.x.........
    1b5a:	00 00 70 80 80 88 70 00 08 08 08 68 98 88 78 00     ..p...p....h..x.
    1b6a:	00 00 70 88 f8 80 70 00 30 48 40 e0 40 40 40 00     ..p...p.0H@.@@@.
    1b7a:	00 00 78 88 88 78 08 70 80 80 b0 c8 88 88 88 00     ..x..x.p........
    1b8a:	00 20 00 20 20 20 20 00 10 00 30 10 10 90 60 00     . .    ...0...`.
    1b9a:	80 80 90 a0 c0 a0 90 00 60 20 20 20 20 20 70 00     ........`     p.
    1baa:	00 00 d0 a8 a8 88 88 00 00 00 b0 c8 88 88 88 00     ................
    1bba:	00 00 70 88 88 88 70 00 00 00 f0 88 88 f0 80 80     ..p...p.........
    1bca:	00 00 68 90 90 b0 50 18 00 00 b0 c8 80 80 80 00     ..h...P.........
    1bda:	00 00 70 80 70 08 f0 00 40 40 e0 40 40 48 30 00     ..p.p...@@.@@H0.
    1bea:	00 00 88 88 88 98 68 00 00 00 88 88 88 50 20 00     ......h......P .
    1bfa:	00 00 88 88 a8 a8 50 00 00 00 88 50 20 50 88 00     ......P....P P..
    1c0a:	00 00 88 88 88 78 08 70 00 00 f8 10 20 40 f8 00     .....x.p.... @..
    1c1a:	20 40 40 80 40 40 20 00 20 20 20 20 20 20 20 00      @@.@@ .       .
    1c2a:	40 20 20 10 20 20 40 00 00 00 40 a8 10 00 00 00     @  .  @...@.....
    1c3a:	fc fc fc fc fc fc fc fc 40 20 10 f8 10 20 40 00     ........@ ... @.
    1c4a:	10 20 40 f8 40 20 10 00 20 70 a8 20 20 20 00 00     . @.@ .. p.   ..
    1c5a:	00 20 20 20 a8 70 20 00 00 70 f8 f8 f8 70 00 00     .   .p ..p...p..

00001c6a <font_hex_8x10>:
    1c6a:	7c 82 86 8a 92 a2 c2 82 7c 00 08 18 28 08 08 08     |.......|...(...
    1c7a:	08 08 3e 00 38 44 82 04 08 10 20 40 fe 00 38 44     ..>.8D.... @..8D
    1c8a:	82 02 3c 02 82 44 38 00 84 84 84 84 7e 04 04 04     ..<..D8.....~...
    1c9a:	04 00 7e 80 80 80 7c 02 02 02 fe 00 78 84 80 80     ..~...|.....x...
    1caa:	fc 82 82 82 7c 00 7e 82 04 08 08 08 08 08 08 00     ....|.~.........
    1cba:	38 44 82 82 7c 82 82 44 38 00 38 44 82 82 46 3a     8D..|..D8.8D..F:
    1cca:	02 04 38 00 38 44 82 82 fe 82 82 82 82 00 fc 82     ..8.8D..........
    1cda:	82 82 fc 82 82 82 fc 00 3e 40 80 80 80 80 80 40     ........>@.....@
    1cea:	3e 00 f8 84 82 82 82 82 82 84 f8 00 fe 80 80 80     >...............
    1cfa:	fe 80 80 80 fe 00 fe 80 80 80 fe 80 80 80 80 00     ................

00001d0a <font_hex_4x6>:
    1d0a:	e0 a0 a0 a0 e0 00 c0 40 40 40 e0 00 e0 20 e0 80     .......@@@... ..
    1d1a:	e0 00 e0 20 e0 20 e0 00 a0 a0 e0 20 20 00 e0 80     ... . .....  ...
    1d2a:	e0 20 e0 00 80 80 e0 a0 e0 00 e0 20 20 20 20 00     . .........    .
    1d3a:	e0 a0 e0 a0 e0 00 e0 a0 e0 20 20 00 e0 a0 e0 a0     .........  .....
    1d4a:	a0 00 c0 a0 c0 a0 c0 00 e0 80 80 80 e0 00 c0 a0     ................
    1d5a:	a0 a0 c0 00 e0 80 e0 80 e0 00 e0 80 e0 80 80 00     ................

00001d6a <SCALE>:
    1d6a:	0b 02 2a 02 4b 02 6e 02 93 02 ba 02 e4 02 10 03     ..*.K.n.........
    1d7a:	3f 03 70 03 a4 03 dc 03 17 04 55 04 97 04 dd 04     ?.p.......U.....

00001d8a <worm>:
    1d8a:	10 0e 57 6f 72 6d 00 52 42 39 32 00 00 00 00 3e     ..Worm.RB92....>
    1d9a:	05 00 2b 7c 00 00 06 1e 01 00 04 00 00 ff 00 e0     ..+|............
    1daa:	a0 06 fe 65 a0 cc f0 55 fc 1e 71 01 31 00 10 13     ...e...U..q.1...
    1dba:	a0 b5 da b3 d4 21 d4 31 74 03 34 7a 10 1a a0 be     .....!.1t.4z....
    1dca:	63 04 d3 29 d4 29 72 09 32 3f 10 21 a0 03 f0 65     c..).)r.2?.!...e
    1dda:	a0 01 f0 33 63 2e 20 73 a0 01 f5 33 20 72 20 a6     ...3c. s...3 r .
    1dea:	a0 bd d7 61 76 fe 36 11 10 30 63 0a f3 15 a0 cc     ...av.6..0c.....
    1dfa:	f8 1e f0 65 84 00 80 a0 f0 55 a1 4c f8 1e f0 65     ...e.....U.L...e
    1e0a:	81 00 80 b0 f0 55 a0 b6 34 00 d4 13 a0 b1 f9 1e     .....U..4.......
    1e1a:	f1 65 a0 b8 da b2 8a 04 8b 14 a0 b5 da b3 3f 00     .e............?.
    1e2a:	10 7f c0 0f 40 00 20 a4 78 01 98 e0 68 00 61 08     ....@. .x...h.a.
    1e3a:	e1 9e 66 00 e1 9e 10 61 36 00 10 61 79 02 66 06     ..f....a6..ay.f.
    1e4a:	89 62 61 10 e1 9e 67 00 e1 9e 10 6b 37 00 10 6b     .ba...g....k7..k
    1e5a:	79 fe 67 06 89 72 f3 07 33 00 10 57 10 35 20 72     y.g..r..3..W.5 r
    1e6a:	a0 01 f5 33 63 00 64 7c a0 01 f2 65 f0 29 d4 35     ...3c.d|...e.).5
    1e7a:	73 06 f1 29 d4 35 73 06 f2 29 d4 35 00 ee 20 ae     s..).5s..).5.. .
    1e8a:	a0 b5 da b3 da b3 3f 00 10 8a 64 02 f4 18 75 01     ......?...d...u.
    1e9a:	20 6f 10 54 64 0a f4 18 da b3 8a 05 8b 15 a0 b8      o.Td...........
    1eaa:	da b2 a0 03 f0 65 80 55 80 50 4f 00 f0 55 60 64     .....e.U.PO..U`d
    1eba:	f0 15 f0 07 30 00 10 99 00 c8 81 00 a0 c3 90 12     ....0...........
    1eca:	f0 0a 30 20 10 a0 10 0e 7e 01 00 ee a0 b9 cc 7c     ..0 ....~......|
    1eda:	7c 02 cd 3c 7d 02 dc d7 4f 00 00 ee a0 b9 dc d7     |..<}...O.......
    1eea:	10 a7 04 00 00 fc fc 00 00 04 e0 e0 e0 a0 e0 00     ................
    1efa:	00 40 38 7c de fe fe 7c 38 00 f0 00 80 80 80 80     .@8|...|8.......
    1f0a:	80 80 80 80 80 00 73 65 6c 65 63 74 20 72 65 73     ......select res
    1f1a:	74 61 72 74 2e 2e 2e 00 00 00 00 00 00 00 00 00     tart............
	...

00002022 <__ctors_end>:
    2022:	11 24       	eor	r1, r1
    2024:	1f be       	out	0x3f, r1	; 63
    2026:	cf ef       	ldi	r28, 0xFF	; 255
    2028:	d8 e0       	ldi	r29, 0x08	; 8
    202a:	de bf       	out	0x3e, r29	; 62
    202c:	cd bf       	out	0x3d, r28	; 61

0000202e <__do_copy_data>:
    202e:	11 e0       	ldi	r17, 0x01	; 1
    2030:	a0 e0       	ldi	r26, 0x00	; 0
    2032:	b1 e0       	ldi	r27, 0x01	; 1
    2034:	e2 ed       	ldi	r30, 0xD2	; 210
    2036:	f7 e5       	ldi	r31, 0x57	; 87
    2038:	02 c0       	rjmp	.+4      	; 0x203e <__do_copy_data+0x10>
    203a:	05 90       	lpm	r0, Z+
    203c:	0d 92       	st	X+, r0
    203e:	a4 31       	cpi	r26, 0x14	; 20
    2040:	b1 07       	cpc	r27, r17
    2042:	d9 f7       	brne	.-10     	; 0x203a <__do_copy_data+0xc>

00002044 <__do_clear_bss>:
    2044:	27 e0       	ldi	r18, 0x07	; 7
    2046:	a4 e1       	ldi	r26, 0x14	; 20
    2048:	b1 e0       	ldi	r27, 0x01	; 1
    204a:	01 c0       	rjmp	.+2      	; 0x204e <.do_clear_bss_start>

0000204c <.do_clear_bss_loop>:
    204c:	1d 92       	st	X+, r1

0000204e <.do_clear_bss_start>:
    204e:	a8 3f       	cpi	r26, 0xF8	; 248
    2050:	b2 07       	cpc	r27, r18
    2052:	e1 f7       	brne	.-8      	; 0x204c <.do_clear_bss_loop>
    2054:	0e 94 aa 12 	call	0x2554	; 0x2554 <main>
    2058:	0c 94 e7 2b 	jmp	0x57ce	; 0x57ce <_exit>

0000205c <__bad_interrupt>:
    205c:	0c 94 00 00 	jmp	0	; 0x0 <__vectors>

00002060 <read16>:
    2060:	fc 01       	movw	r30, r24
    2062:	81 81       	ldd	r24, Z+1	; 0x01
    2064:	90 e0       	ldi	r25, 0x00	; 0
    2066:	98 2f       	mov	r25, r24
    2068:	88 27       	eor	r24, r24
    206a:	20 81       	ld	r18, Z
    206c:	82 2b       	or	r24, r18
    206e:	08 95       	ret

00002070 <read32>:
    2070:	fc 01       	movw	r30, r24
    2072:	23 81       	ldd	r18, Z+3	; 0x03
    2074:	62 81       	ldd	r22, Z+2	; 0x02
    2076:	86 2f       	mov	r24, r22
    2078:	90 e0       	ldi	r25, 0x00	; 0
    207a:	a0 e0       	ldi	r26, 0x00	; 0
    207c:	b0 e0       	ldi	r27, 0x00	; 0
    207e:	77 27       	eor	r23, r23
    2080:	66 27       	eor	r22, r22
    2082:	92 2b       	or	r25, r18
    2084:	20 81       	ld	r18, Z
    2086:	62 2b       	or	r22, r18
    2088:	21 81       	ldd	r18, Z+1	; 0x01
    208a:	72 2b       	or	r23, r18
    208c:	08 95       	ret

0000208e <load_flash_game>:
    208e:	ef 92       	push	r14
    2090:	ff 92       	push	r15
    2092:	0f 93       	push	r16
    2094:	1f 93       	push	r17
    2096:	cf 93       	push	r28
    2098:	df 93       	push	r29
    209a:	8c 01       	movw	r16, r24
    209c:	7b 01       	movw	r14, r22
    209e:	c0 e0       	ldi	r28, 0x00	; 0
    20a0:	d0 e0       	ldi	r29, 0x00	; 0
    20a2:	ce 15       	cp	r28, r14
    20a4:	df 05       	cpc	r29, r15
    20a6:	49 f0       	breq	.+18     	; 0x20ba <load_flash_game+0x2c>
    20a8:	f8 01       	movw	r30, r16
    20aa:	ec 0f       	add	r30, r28
    20ac:	fd 1f       	adc	r31, r29
    20ae:	64 91       	lpm	r22, Z
    20b0:	ce 01       	movw	r24, r28
    20b2:	0e 94 d5 23 	call	0x47aa	; 0x47aa <sram_write_byte>
    20b6:	21 96       	adiw	r28, 0x01	; 1
    20b8:	f4 cf       	rjmp	.-24     	; 0x20a2 <load_flash_game+0x14>
    20ba:	df 91       	pop	r29
    20bc:	cf 91       	pop	r28
    20be:	1f 91       	pop	r17
    20c0:	0f 91       	pop	r16
    20c2:	ff 90       	pop	r15
    20c4:	ef 90       	pop	r14
    20c6:	08 95       	ret

000020c8 <display_page>:
    20c8:	df 92       	push	r13
    20ca:	ef 92       	push	r14
    20cc:	ff 92       	push	r15
    20ce:	0f 93       	push	r16
    20d0:	1f 93       	push	r17
    20d2:	cf 93       	push	r28
    20d4:	df 93       	push	r29
    20d6:	cd b7       	in	r28, 0x3d	; 61
    20d8:	de b7       	in	r29, 0x3e	; 62
    20da:	a0 97       	sbiw	r28, 0x20	; 32
    20dc:	0f b6       	in	r0, 0x3f	; 63
    20de:	f8 94       	cli
    20e0:	de bf       	out	0x3e, r29	; 62
    20e2:	0f be       	out	0x3f, r0	; 63
    20e4:	cd bf       	out	0x3d, r28	; 61
    20e6:	2a e0       	ldi	r18, 0x0A	; 10
    20e8:	28 9f       	mul	r18, r24
    20ea:	70 01       	movw	r14, r0
    20ec:	29 9f       	mul	r18, r25
    20ee:	f0 0c       	add	r15, r0
    20f0:	11 24       	eor	r1, r1
    20f2:	85 e0       	ldi	r24, 0x05	; 5
    20f4:	ee 0c       	add	r14, r14
    20f6:	ff 1c       	adc	r15, r15
    20f8:	8a 95       	dec	r24
    20fa:	e1 f7       	brne	.-8      	; 0x20f4 <display_page+0x2c>
    20fc:	00 e0       	ldi	r16, 0x00	; 0
    20fe:	10 e0       	ldi	r17, 0x00	; 0
    2100:	d1 2c       	mov	r13, r1
    2102:	ae 01       	movw	r20, r28
    2104:	4f 5f       	subi	r20, 0xFF	; 255
    2106:	5f 4f       	sbci	r21, 0xFF	; 255
    2108:	60 e2       	ldi	r22, 0x20	; 32
    210a:	70 e0       	ldi	r23, 0x00	; 0
    210c:	c8 01       	movw	r24, r16
    210e:	8e 0d       	add	r24, r14
    2110:	9f 1d       	adc	r25, r15
    2112:	0e 94 41 24 	call	0x4882	; 0x4882 <sram_load_block>
    2116:	89 81       	ldd	r24, Y+1	; 0x01
    2118:	88 23       	and	r24, r24
    211a:	91 f0       	breq	.+36     	; 0x2140 <display_page+0x78>
    211c:	80 e2       	ldi	r24, 0x20	; 32
    211e:	0e 94 c0 24 	call	0x4980	; 0x4980 <put_char>
    2122:	ce 01       	movw	r24, r28
    2124:	01 96       	adiw	r24, 0x01	; 1
    2126:	0e 94 1e 25 	call	0x4a3c	; 0x4a3c <print>
    212a:	86 e0       	ldi	r24, 0x06	; 6
    212c:	8d 15       	cp	r24, r13
    212e:	10 f0       	brcs	.+4      	; 0x2134 <display_page+0x6c>
    2130:	0e 94 95 24 	call	0x492a	; 0x492a <new_line>
    2134:	d3 94       	inc	r13
    2136:	00 5e       	subi	r16, 0xE0	; 224
    2138:	1f 4f       	sbci	r17, 0xFF	; 255
    213a:	8a e0       	ldi	r24, 0x0A	; 10
    213c:	d8 12       	cpse	r13, r24
    213e:	e1 cf       	rjmp	.-62     	; 0x2102 <display_page+0x3a>
    2140:	8d 2d       	mov	r24, r13
    2142:	a0 96       	adiw	r28, 0x20	; 32
    2144:	0f b6       	in	r0, 0x3f	; 63
    2146:	f8 94       	cli
    2148:	de bf       	out	0x3e, r29	; 62
    214a:	0f be       	out	0x3f, r0	; 63
    214c:	cd bf       	out	0x3d, r28	; 61
    214e:	df 91       	pop	r29
    2150:	cf 91       	pop	r28
    2152:	1f 91       	pop	r17
    2154:	0f 91       	pop	r16
    2156:	ff 90       	pop	r15
    2158:	ef 90       	pop	r14
    215a:	df 90       	pop	r13
    215c:	08 95       	ret

0000215e <select_file>:
    215e:	9f 92       	push	r9
    2160:	af 92       	push	r10
    2162:	bf 92       	push	r11
    2164:	cf 92       	push	r12
    2166:	df 92       	push	r13
    2168:	ef 92       	push	r14
    216a:	ff 92       	push	r15
    216c:	0f 93       	push	r16
    216e:	1f 93       	push	r17
    2170:	cf 93       	push	r28
    2172:	df 93       	push	r29
    2174:	6c 01       	movw	r12, r24
    2176:	0e 94 34 28 	call	0x5068	; 0x5068 <cls>
    217a:	82 e0       	ldi	r24, 0x02	; 2
    217c:	80 93 77 03 	sts	0x0377, r24
    2180:	80 91 77 03 	lds	r24, 0x0377
    2184:	81 11       	cpse	r24, r1
    2186:	fc cf       	rjmp	.-8      	; 0x2180 <select_file+0x22>
    2188:	80 e0       	ldi	r24, 0x00	; 0
    218a:	90 e0       	ldi	r25, 0x00	; 0
    218c:	0e 94 64 10 	call	0x20c8	; 0x20c8 <display_page>
    2190:	98 2e       	mov	r9, r24
    2192:	c0 e0       	ldi	r28, 0x00	; 0
    2194:	d0 e0       	ldi	r29, 0x00	; 0
    2196:	e1 2c       	mov	r14, r1
    2198:	f1 2c       	mov	r15, r1
    219a:	9a e0       	ldi	r25, 0x0A	; 10
    219c:	a9 2e       	mov	r10, r25
    219e:	00 e0       	ldi	r16, 0x00	; 0
    21a0:	22 e4       	ldi	r18, 0x42	; 66
    21a2:	3c e1       	ldi	r19, 0x1C	; 28
    21a4:	48 e0       	ldi	r20, 0x08	; 8
    21a6:	1c 2f       	mov	r17, r28
    21a8:	11 0f       	add	r17, r17
    21aa:	11 0f       	add	r17, r17
    21ac:	11 0f       	add	r17, r17
    21ae:	61 2f       	mov	r22, r17
    21b0:	80 e0       	ldi	r24, 0x00	; 0
    21b2:	0e 94 9b 26 	call	0x4d36	; 0x4d36 <put_sprite>
    21b6:	0e 94 c6 1f 	call	0x3f8c	; 0x3f8c <joystick_wait_any>
    21ba:	b8 2e       	mov	r11, r24
    21bc:	22 e4       	ldi	r18, 0x42	; 66
    21be:	3c e1       	ldi	r19, 0x1C	; 28
    21c0:	48 e0       	ldi	r20, 0x08	; 8
    21c2:	61 2f       	mov	r22, r17
    21c4:	80 e0       	ldi	r24, 0x00	; 0
    21c6:	0e 94 9b 26 	call	0x4d36	; 0x4d36 <put_sprite>
    21ca:	88 e0       	ldi	r24, 0x08	; 8
    21cc:	b8 16       	cp	r11, r24
    21ce:	31 f1       	breq	.+76     	; 0x221c <select_file+0xbe>
    21d0:	8b 15       	cp	r24, r11
    21d2:	40 f0       	brcs	.+16     	; 0x21e4 <select_file+0x86>
    21d4:	82 e0       	ldi	r24, 0x02	; 2
    21d6:	b8 16       	cp	r11, r24
    21d8:	d9 f1       	breq	.+118    	; 0x2250 <select_file+0xf2>
    21da:	84 e0       	ldi	r24, 0x04	; 4
    21dc:	b8 16       	cp	r11, r24
    21de:	09 f4       	brne	.+2      	; 0x21e2 <select_file+0x84>
    21e0:	4a c0       	rjmp	.+148    	; 0x2276 <select_file+0x118>
    21e2:	66 c0       	rjmp	.+204    	; 0x22b0 <select_file+0x152>
    21e4:	80 e1       	ldi	r24, 0x10	; 16
    21e6:	b8 16       	cp	r11, r24
    21e8:	f1 f0       	breq	.+60     	; 0x2226 <select_file+0xc8>
    21ea:	80 e2       	ldi	r24, 0x20	; 32
    21ec:	b8 12       	cpse	r11, r24
    21ee:	60 c0       	rjmp	.+192    	; 0x22b0 <select_file+0x152>
    21f0:	0e 94 ce 1f 	call	0x3f9c	; 0x3f9c <joystick_wait_release>
    21f4:	2a e0       	ldi	r18, 0x0A	; 10
    21f6:	2e 9d       	mul	r18, r14
    21f8:	c0 01       	movw	r24, r0
    21fa:	2f 9d       	mul	r18, r15
    21fc:	90 0d       	add	r25, r0
    21fe:	11 24       	eor	r1, r1
    2200:	8c 0f       	add	r24, r28
    2202:	9d 1f       	adc	r25, r29
    2204:	df 91       	pop	r29
    2206:	cf 91       	pop	r28
    2208:	1f 91       	pop	r17
    220a:	0f 91       	pop	r16
    220c:	ff 90       	pop	r15
    220e:	ef 90       	pop	r14
    2210:	df 90       	pop	r13
    2212:	cf 90       	pop	r12
    2214:	bf 90       	pop	r11
    2216:	af 90       	pop	r10
    2218:	9f 90       	pop	r9
    221a:	08 95       	ret
    221c:	e1 14       	cp	r14, r1
    221e:	f1 04       	cpc	r15, r1
    2220:	09 f4       	brne	.+2      	; 0x2224 <select_file+0xc6>
    2222:	44 c0       	rjmp	.+136    	; 0x22ac <select_file+0x14e>
    2224:	1c c0       	rjmp	.+56     	; 0x225e <select_file+0x100>
    2226:	e7 01       	movw	r28, r14
    2228:	21 96       	adiw	r28, 0x01	; 1
    222a:	ac 9e       	mul	r10, r28
    222c:	90 01       	movw	r18, r0
    222e:	ad 9e       	mul	r10, r29
    2230:	30 0d       	add	r19, r0
    2232:	11 24       	eor	r1, r1
    2234:	2c 15       	cp	r18, r12
    2236:	3d 05       	cpc	r19, r13
    2238:	44 f4       	brge	.+16     	; 0x224a <select_file+0xec>
    223a:	0e 94 34 28 	call	0x5068	; 0x5068 <cls>
    223e:	ce 01       	movw	r24, r28
    2240:	0e 94 64 10 	call	0x20c8	; 0x20c8 <display_page>
    2244:	98 2e       	mov	r9, r24
    2246:	7e 01       	movw	r14, r28
    2248:	31 c0       	rjmp	.+98     	; 0x22ac <select_file+0x14e>
    224a:	c9 2d       	mov	r28, r9
    224c:	d0 e0       	ldi	r29, 0x00	; 0
    224e:	02 c0       	rjmp	.+4      	; 0x2254 <select_file+0xf6>
    2250:	20 97       	sbiw	r28, 0x00	; 0
    2252:	11 f0       	breq	.+4      	; 0x2258 <select_file+0xfa>
    2254:	21 97       	sbiw	r28, 0x01	; 1
    2256:	2c c0       	rjmp	.+88     	; 0x22b0 <select_file+0x152>
    2258:	e1 14       	cp	r14, r1
    225a:	f1 04       	cpc	r15, r1
    225c:	49 f1       	breq	.+82     	; 0x22b0 <select_file+0x152>
    225e:	81 e0       	ldi	r24, 0x01	; 1
    2260:	e8 1a       	sub	r14, r24
    2262:	f1 08       	sbc	r15, r1
    2264:	0e 94 34 28 	call	0x5068	; 0x5068 <cls>
    2268:	c7 01       	movw	r24, r14
    226a:	0e 94 64 10 	call	0x20c8	; 0x20c8 <display_page>
    226e:	98 2e       	mov	r9, r24
    2270:	c7 e0       	ldi	r28, 0x07	; 7
    2272:	d0 e0       	ldi	r29, 0x00	; 0
    2274:	1d c0       	rjmp	.+58     	; 0x22b0 <select_file+0x152>
    2276:	29 2d       	mov	r18, r9
    2278:	30 e0       	ldi	r19, 0x00	; 0
    227a:	21 50       	subi	r18, 0x01	; 1
    227c:	31 09       	sbc	r19, r1
    227e:	c2 17       	cp	r28, r18
    2280:	d3 07       	cpc	r29, r19
    2282:	14 f4       	brge	.+4      	; 0x2288 <select_file+0x12a>
    2284:	21 96       	adiw	r28, 0x01	; 1
    2286:	14 c0       	rjmp	.+40     	; 0x22b0 <select_file+0x152>
    2288:	87 01       	movw	r16, r14
    228a:	0f 5f       	subi	r16, 0xFF	; 255
    228c:	1f 4f       	sbci	r17, 0xFF	; 255
    228e:	a0 9e       	mul	r10, r16
    2290:	90 01       	movw	r18, r0
    2292:	a1 9e       	mul	r10, r17
    2294:	30 0d       	add	r19, r0
    2296:	11 24       	eor	r1, r1
    2298:	2c 15       	cp	r18, r12
    229a:	3d 05       	cpc	r19, r13
    229c:	4c f4       	brge	.+18     	; 0x22b0 <select_file+0x152>
    229e:	0e 94 34 28 	call	0x5068	; 0x5068 <cls>
    22a2:	c8 01       	movw	r24, r16
    22a4:	0e 94 64 10 	call	0x20c8	; 0x20c8 <display_page>
    22a8:	98 2e       	mov	r9, r24
    22aa:	78 01       	movw	r14, r16
    22ac:	c0 e0       	ldi	r28, 0x00	; 0
    22ae:	d0 e0       	ldi	r29, 0x00	; 0
    22b0:	86 b1       	in	r24, 0x06	; 6
    22b2:	8e 73       	andi	r24, 0x3E	; 62
    22b4:	8e 33       	cpi	r24, 0x3E	; 62
    22b6:	09 f4       	brne	.+2      	; 0x22ba <select_file+0x15c>
    22b8:	72 cf       	rjmp	.-284    	; 0x219e <select_file+0x40>
    22ba:	41 e0       	ldi	r20, 0x01	; 1
    22bc:	62 e0       	ldi	r22, 0x02	; 2
    22be:	8b 2d       	mov	r24, r11
    22c0:	0e 94 fd 25 	call	0x4bfa	; 0x4bfa <key_tone>
    22c4:	f5 cf       	rjmp	.-22     	; 0x22b0 <select_file+0x152>

000022c6 <sdc_files>:
    22c6:	0f 93       	push	r16
    22c8:	1f 93       	push	r17
    22ca:	cf 93       	push	r28
    22cc:	df 93       	push	r29
    22ce:	cd b7       	in	r28, 0x3d	; 61
    22d0:	de b7       	in	r29, 0x3e	; 62
    22d2:	c1 55       	subi	r28, 0x51	; 81
    22d4:	d1 09       	sbc	r29, r1
    22d6:	0f b6       	in	r0, 0x3f	; 63
    22d8:	f8 94       	cli
    22da:	de bf       	out	0x3e, r29	; 62
    22dc:	0f be       	out	0x3f, r0	; 63
    22de:	cd bf       	out	0x3d, r28	; 61
    22e0:	62 96       	adiw	r28, 0x12	; 18
    22e2:	1f ae       	std	Y+63, r1	; 0x3f
    22e4:	62 97       	sbiw	r28, 0x12	; 18
    22e6:	00 e0       	ldi	r16, 0x00	; 0
    22e8:	10 e0       	ldi	r17, 0x00	; 0
    22ea:	ce 01       	movw	r24, r28
    22ec:	01 96       	adiw	r24, 0x01	; 1
    22ee:	0e 94 b9 1f 	call	0x3f72	; 0x3f72 <fs_read_dir>
    22f2:	88 23       	and	r24, r24
    22f4:	69 f1       	breq	.+90     	; 0x2350 <sdc_files+0x8a>
    22f6:	89 a1       	ldd	r24, Y+33	; 0x21
    22f8:	84 fd       	sbrc	r24, 4
    22fa:	26 c0       	rjmp	.+76     	; 0x2348 <sdc_files+0x82>
    22fc:	69 e0       	ldi	r22, 0x09	; 9
    22fe:	71 e0       	ldi	r23, 0x01	; 1
    2300:	ce 01       	movw	r24, r28
    2302:	01 96       	adiw	r24, 0x01	; 1
    2304:	0e 94 bc 2b 	call	0x5778	; 0x5778 <strstr>
    2308:	89 2b       	or	r24, r25
    230a:	41 f4       	brne	.+16     	; 0x231c <sdc_files+0x56>
    230c:	64 e0       	ldi	r22, 0x04	; 4
    230e:	71 e0       	ldi	r23, 0x01	; 1
    2310:	ce 01       	movw	r24, r28
    2312:	01 96       	adiw	r24, 0x01	; 1
    2314:	0e 94 bc 2b 	call	0x5778	; 0x5778 <strstr>
    2318:	89 2b       	or	r24, r25
    231a:	b1 f0       	breq	.+44     	; 0x2348 <sdc_files+0x82>
    231c:	be 01       	movw	r22, r28
    231e:	6f 5f       	subi	r22, 0xFF	; 255
    2320:	7f 4f       	sbci	r23, 0xFF	; 255
    2322:	ce 01       	movw	r24, r28
    2324:	c2 96       	adiw	r24, 0x32	; 50
    2326:	0e 94 a7 2b 	call	0x574e	; 0x574e <strcpy>
    232a:	ae 01       	movw	r20, r28
    232c:	4e 5c       	subi	r20, 0xCE	; 206
    232e:	5f 4f       	sbci	r21, 0xFF	; 255
    2330:	60 e2       	ldi	r22, 0x20	; 32
    2332:	70 e0       	ldi	r23, 0x00	; 0
    2334:	c8 01       	movw	r24, r16
    2336:	35 e0       	ldi	r19, 0x05	; 5
    2338:	88 0f       	add	r24, r24
    233a:	99 1f       	adc	r25, r25
    233c:	3a 95       	dec	r19
    233e:	e1 f7       	brne	.-8      	; 0x2338 <sdc_files+0x72>
    2340:	0e 94 6a 24 	call	0x48d4	; 0x48d4 <sram_store_block>
    2344:	0f 5f       	subi	r16, 0xFF	; 255
    2346:	1f 4f       	sbci	r17, 0xFF	; 255
    2348:	01 15       	cp	r16, r1
    234a:	88 e0       	ldi	r24, 0x08	; 8
    234c:	18 07       	cpc	r17, r24
    234e:	6c f2       	brlt	.-102    	; 0x22ea <sdc_files+0x24>
    2350:	1a aa       	std	Y+50, r1	; 0x32
    2352:	ae 01       	movw	r20, r28
    2354:	4e 5c       	subi	r20, 0xCE	; 206
    2356:	5f 4f       	sbci	r21, 0xFF	; 255
    2358:	60 e2       	ldi	r22, 0x20	; 32
    235a:	70 e0       	ldi	r23, 0x00	; 0
    235c:	c8 01       	movw	r24, r16
    235e:	25 e0       	ldi	r18, 0x05	; 5
    2360:	88 0f       	add	r24, r24
    2362:	99 1f       	adc	r25, r25
    2364:	2a 95       	dec	r18
    2366:	e1 f7       	brne	.-8      	; 0x2360 <sdc_files+0x9a>
    2368:	0e 94 6a 24 	call	0x48d4	; 0x48d4 <sram_store_block>
    236c:	c8 01       	movw	r24, r16
    236e:	cf 5a       	subi	r28, 0xAF	; 175
    2370:	df 4f       	sbci	r29, 0xFF	; 255
    2372:	0f b6       	in	r0, 0x3f	; 63
    2374:	f8 94       	cli
    2376:	de bf       	out	0x3e, r29	; 62
    2378:	0f be       	out	0x3f, r0	; 63
    237a:	cd bf       	out	0x3d, r28	; 61
    237c:	df 91       	pop	r29
    237e:	cf 91       	pop	r28
    2380:	1f 91       	pop	r17
    2382:	0f 91       	pop	r16
    2384:	08 95       	ret

00002386 <games_on_sdcard>:
    2386:	0e 94 63 11 	call	0x22c6	; 0x22c6 <sdc_files>
    238a:	00 97       	sbiw	r24, 0x00	; 0
    238c:	91 f0       	breq	.+36     	; 0x23b2 <games_on_sdcard+0x2c>
    238e:	0e 94 af 10 	call	0x215e	; 0x215e <select_file>
    2392:	97 fd       	sbrc	r25, 7
    2394:	0e c0       	rjmp	.+28     	; 0x23b2 <games_on_sdcard+0x2c>
    2396:	0e 94 6e 1f 	call	0x3edc	; 0x3edc <fs_load_file>
    239a:	88 23       	and	r24, r24
    239c:	51 f0       	breq	.+20     	; 0x23b2 <games_on_sdcard+0x2c>
    239e:	0e 94 34 28 	call	0x5068	; 0x5068 <cls>
    23a2:	0e 94 47 13 	call	0x268e	; 0x268e <schipp>
    23a6:	82 30       	cpi	r24, 0x02	; 2
    23a8:	21 f4       	brne	.+8      	; 0x23b2 <games_on_sdcard+0x2c>
    23aa:	86 ee       	ldi	r24, 0xE6	; 230
    23ac:	9f e0       	ldi	r25, 0x0F	; 15
    23ae:	0c 94 f6 12 	jmp	0x25ec	; 0x25ec <print_vms>
    23b2:	08 95       	ret

000023b4 <games_in_flash>:
    23b4:	8f 92       	push	r8
    23b6:	9f 92       	push	r9
    23b8:	af 92       	push	r10
    23ba:	bf 92       	push	r11
    23bc:	cf 92       	push	r12
    23be:	df 92       	push	r13
    23c0:	ef 92       	push	r14
    23c2:	ff 92       	push	r15
    23c4:	0f 93       	push	r16
    23c6:	1f 93       	push	r17
    23c8:	cf 93       	push	r28
    23ca:	df 93       	push	r29
    23cc:	cd b7       	in	r28, 0x3d	; 61
    23ce:	de b7       	in	r29, 0x3e	; 62
    23d0:	a0 97       	sbiw	r28, 0x20	; 32
    23d2:	0f b6       	in	r0, 0x3f	; 63
    23d4:	f8 94       	cli
    23d6:	de bf       	out	0x3e, r29	; 62
    23d8:	0f be       	out	0x3f, r0	; 63
    23da:	cd bf       	out	0x3d, r28	; 61
    23dc:	ce 01       	movw	r24, r28
    23de:	01 96       	adiw	r24, 0x01	; 1
    23e0:	7c 01       	movw	r14, r24
    23e2:	80 e2       	ldi	r24, 0x20	; 32
    23e4:	f7 01       	movw	r30, r14
    23e6:	11 92       	st	Z+, r1
    23e8:	8a 95       	dec	r24
    23ea:	e9 f7       	brne	.-6      	; 0x23e6 <games_in_flash+0x32>
    23ec:	a1 2c       	mov	r10, r1
    23ee:	b1 2c       	mov	r11, r1
    23f0:	c1 2c       	mov	r12, r1
    23f2:	d1 2c       	mov	r13, r1
    23f4:	00 e0       	ldi	r16, 0x00	; 0
    23f6:	10 e0       	ldi	r17, 0x00	; 0
    23f8:	f0 e2       	ldi	r31, 0x20	; 32
    23fa:	8f 2e       	mov	r8, r31
    23fc:	c8 01       	movw	r24, r16
    23fe:	01 96       	adiw	r24, 0x01	; 1
    2400:	f8 01       	movw	r30, r16
    2402:	e9 5d       	subi	r30, 0xD9	; 217
    2404:	ff 4e       	sbci	r31, 0xEF	; 239
    2406:	94 90       	lpm	r9, Z
    2408:	99 20       	and	r9, r9
    240a:	09 f1       	breq	.+66     	; 0x244e <games_in_flash+0x9a>
    240c:	d7 01       	movw	r26, r14
    240e:	8c 01       	movw	r16, r24
    2410:	fa e0       	ldi	r31, 0x0A	; 10
    2412:	9f 16       	cp	r9, r31
    2414:	49 f0       	breq	.+18     	; 0x2428 <games_in_flash+0x74>
    2416:	9d 92       	st	X+, r9
    2418:	0f 5f       	subi	r16, 0xFF	; 255
    241a:	1f 4f       	sbci	r17, 0xFF	; 255
    241c:	f8 01       	movw	r30, r16
    241e:	ea 5d       	subi	r30, 0xDA	; 218
    2420:	ff 4e       	sbci	r31, 0xEF	; 239
    2422:	94 90       	lpm	r9, Z
    2424:	91 10       	cpse	r9, r1
    2426:	f4 cf       	rjmp	.-24     	; 0x2410 <games_in_flash+0x5c>
    2428:	a7 01       	movw	r20, r14
    242a:	60 e2       	ldi	r22, 0x20	; 32
    242c:	70 e0       	ldi	r23, 0x00	; 0
    242e:	c5 01       	movw	r24, r10
    2430:	0e 94 6a 24 	call	0x48d4	; 0x48d4 <sram_store_block>
    2434:	8f ef       	ldi	r24, 0xFF	; 255
    2436:	c8 1a       	sub	r12, r24
    2438:	d8 0a       	sbc	r13, r24
    243a:	f7 01       	movw	r30, r14
    243c:	88 2d       	mov	r24, r8
    243e:	11 92       	st	Z+, r1
    2440:	8a 95       	dec	r24
    2442:	e9 f7       	brne	.-6      	; 0x243e <games_in_flash+0x8a>
    2444:	90 e2       	ldi	r25, 0x20	; 32
    2446:	a9 0e       	add	r10, r25
    2448:	b1 1c       	adc	r11, r1
    244a:	91 10       	cpse	r9, r1
    244c:	d7 cf       	rjmp	.-82     	; 0x23fc <games_in_flash+0x48>
    244e:	a7 01       	movw	r20, r14
    2450:	60 e2       	ldi	r22, 0x20	; 32
    2452:	70 e0       	ldi	r23, 0x00	; 0
    2454:	c6 01       	movw	r24, r12
    2456:	e5 e0       	ldi	r30, 0x05	; 5
    2458:	88 0f       	add	r24, r24
    245a:	99 1f       	adc	r25, r25
    245c:	ea 95       	dec	r30
    245e:	e1 f7       	brne	.-8      	; 0x2458 <games_in_flash+0xa4>
    2460:	0e 94 6a 24 	call	0x48d4	; 0x48d4 <sram_store_block>
    2464:	0e 94 34 28 	call	0x5068	; 0x5068 <cls>
    2468:	c6 01       	movw	r24, r12
    246a:	0e 94 af 10 	call	0x215e	; 0x215e <select_file>
    246e:	82 30       	cpi	r24, 0x02	; 2
    2470:	91 05       	cpc	r25, r1
    2472:	d1 f0       	breq	.+52     	; 0x24a8 <games_in_flash+0xf4>
    2474:	48 f4       	brcc	.+18     	; 0x2488 <games_in_flash+0xd4>
    2476:	00 97       	sbiw	r24, 0x00	; 0
    2478:	91 f0       	breq	.+36     	; 0x249e <games_in_flash+0xea>
    247a:	01 97       	sbiw	r24, 0x01	; 1
    247c:	79 f5       	brne	.+94     	; 0x24dc <games_in_flash+0x128>
    247e:	6c ea       	ldi	r22, 0xAC	; 172
    2480:	71 e0       	ldi	r23, 0x01	; 1
    2482:	8c e1       	ldi	r24, 0x1C	; 28
    2484:	9e e0       	ldi	r25, 0x0E	; 14
    2486:	1e c0       	rjmp	.+60     	; 0x24c4 <games_in_flash+0x110>
    2488:	84 30       	cpi	r24, 0x04	; 4
    248a:	91 05       	cpc	r25, r1
    248c:	b9 f0       	breq	.+46     	; 0x24bc <games_in_flash+0x108>
    248e:	88 f0       	brcs	.+34     	; 0x24b2 <games_in_flash+0xfe>
    2490:	05 97       	sbiw	r24, 0x05	; 5
    2492:	21 f5       	brne	.+72     	; 0x24dc <games_in_flash+0x128>
    2494:	64 e6       	ldi	r22, 0x64	; 100
    2496:	70 e0       	ldi	r23, 0x00	; 0
    2498:	8e ed       	ldi	r24, 0xDE	; 222
    249a:	92 e1       	ldi	r25, 0x12	; 18
    249c:	13 c0       	rjmp	.+38     	; 0x24c4 <games_in_flash+0x110>
    249e:	6c e1       	ldi	r22, 0x1C	; 28
    24a0:	72 e0       	ldi	r23, 0x02	; 2
    24a2:	82 ec       	ldi	r24, 0xC2	; 194
    24a4:	90 e1       	ldi	r25, 0x10	; 16
    24a6:	0e c0       	rjmp	.+28     	; 0x24c4 <games_in_flash+0x110>
    24a8:	68 e9       	ldi	r22, 0x98	; 152
    24aa:	72 e0       	ldi	r23, 0x02	; 2
    24ac:	8a e8       	ldi	r24, 0x8A	; 138
    24ae:	9d e1       	ldi	r25, 0x1D	; 29
    24b0:	09 c0       	rjmp	.+18     	; 0x24c4 <games_in_flash+0x110>
    24b2:	6e e3       	ldi	r22, 0x3E	; 62
    24b4:	73 e0       	ldi	r23, 0x03	; 3
    24b6:	8a eb       	ldi	r24, 0xBA	; 186
    24b8:	90 e0       	ldi	r25, 0x00	; 0
    24ba:	04 c0       	rjmp	.+8      	; 0x24c4 <games_in_flash+0x110>
    24bc:	64 e2       	ldi	r22, 0x24	; 36
    24be:	7a e0       	ldi	r23, 0x0A	; 10
    24c0:	88 ef       	ldi	r24, 0xF8	; 248
    24c2:	93 e0       	ldi	r25, 0x03	; 3
    24c4:	0e 94 47 10 	call	0x208e	; 0x208e <load_flash_game>
    24c8:	0e 94 34 28 	call	0x5068	; 0x5068 <cls>
    24cc:	0e 94 47 13 	call	0x268e	; 0x268e <schipp>
    24d0:	82 30       	cpi	r24, 0x02	; 2
    24d2:	21 f4       	brne	.+8      	; 0x24dc <games_in_flash+0x128>
    24d4:	83 ed       	ldi	r24, 0xD3	; 211
    24d6:	9f e0       	ldi	r25, 0x0F	; 15
    24d8:	0e 94 f6 12 	call	0x25ec	; 0x25ec <print_vms>
    24dc:	a0 96       	adiw	r28, 0x20	; 32
    24de:	0f b6       	in	r0, 0x3f	; 63
    24e0:	f8 94       	cli
    24e2:	de bf       	out	0x3e, r29	; 62
    24e4:	0f be       	out	0x3f, r0	; 63
    24e6:	cd bf       	out	0x3d, r28	; 61
    24e8:	df 91       	pop	r29
    24ea:	cf 91       	pop	r28
    24ec:	1f 91       	pop	r17
    24ee:	0f 91       	pop	r16
    24f0:	ff 90       	pop	r15
    24f2:	ef 90       	pop	r14
    24f4:	df 90       	pop	r13
    24f6:	cf 90       	pop	r12
    24f8:	bf 90       	pop	r11
    24fa:	af 90       	pop	r10
    24fc:	9f 90       	pop	r9
    24fe:	8f 90       	pop	r8
    2500:	08 95       	ret

00002502 <splash_screen>:
    2502:	cf 93       	push	r28
    2504:	df 93       	push	r29
    2506:	c0 e0       	ldi	r28, 0x00	; 0
    2508:	d0 e0       	ldi	r29, 0x00	; 0
    250a:	fe 01       	movw	r30, r28
    250c:	ee 5b       	subi	r30, 0xBE	; 190
    250e:	fc 4e       	sbci	r31, 0xEC	; 236
    2510:	64 91       	lpm	r22, Z
    2512:	ce 01       	movw	r24, r28
    2514:	0e 94 49 26 	call	0x4c92	; 0x4c92 <video_write_byte>
    2518:	21 96       	adiw	r28, 0x01	; 1
    251a:	c0 38       	cpi	r28, 0x80	; 128
    251c:	84 e0       	ldi	r24, 0x04	; 4
    251e:	d8 07       	cpc	r29, r24
    2520:	a1 f7       	brne	.-24     	; 0x250a <splash_screen+0x8>
    2522:	8c e3       	ldi	r24, 0x3C	; 60
    2524:	80 93 77 03 	sts	0x0377, r24
    2528:	80 91 77 03 	lds	r24, 0x0377
    252c:	88 23       	and	r24, r24
    252e:	61 f0       	breq	.+24     	; 0x2548 <splash_screen+0x46>
    2530:	86 b1       	in	r24, 0x06	; 6
    2532:	8e 73       	andi	r24, 0x3E	; 62
    2534:	8e 33       	cpi	r24, 0x3E	; 62
    2536:	c1 f3       	breq	.-16     	; 0x2528 <splash_screen+0x26>
    2538:	62 e0       	ldi	r22, 0x02	; 2
    253a:	88 ee       	ldi	r24, 0xE8	; 232
    253c:	93 e0       	ldi	r25, 0x03	; 3
    253e:	0e 94 eb 25 	call	0x4bd6	; 0x4bd6 <tone>
    2542:	10 92 77 03 	sts	0x0377, r1
    2546:	f0 cf       	rjmp	.-32     	; 0x2528 <splash_screen+0x26>
    2548:	0e 94 ce 1f 	call	0x3f9c	; 0x3f9c <joystick_wait_release>
    254c:	df 91       	pop	r29
    254e:	cf 91       	pop	r28
    2550:	0c 94 34 28 	jmp	0x5068	; 0x5068 <cls>

00002554 <main>:
    2554:	80 e8       	ldi	r24, 0x80	; 128
    2556:	80 93 61 00 	sts	0x0061, r24
    255a:	10 92 61 00 	sts	0x0061, r1
    255e:	0e 94 2d 26 	call	0x4c5a	; 0x4c5a <tvout_init>
    2562:	82 e0       	ldi	r24, 0x02	; 2
    2564:	0e 94 92 24 	call	0x4924	; 0x4924 <select_font>
    2568:	84 b1       	in	r24, 0x04	; 4
    256a:	88 62       	ori	r24, 0x28	; 40
    256c:	84 b9       	out	0x04, r24	; 4
    256e:	80 e5       	ldi	r24, 0x50	; 80
    2570:	8c bd       	out	0x2c, r24	; 44
    2572:	8d b5       	in	r24, 0x2d	; 45
    2574:	81 60       	ori	r24, 0x01	; 1
    2576:	8d bd       	out	0x2d, r24	; 45
    2578:	87 b1       	in	r24, 0x07	; 7
    257a:	81 7c       	andi	r24, 0xC1	; 193
    257c:	87 b9       	out	0x07, r24	; 7
    257e:	88 b1       	in	r24, 0x08	; 8
    2580:	8e 63       	ori	r24, 0x3E	; 62
    2582:	88 b9       	out	0x08, r24	; 8
    2584:	0e 94 e5 25 	call	0x4bca	; 0x4bca <tone_init>
    2588:	0e 94 ce 23 	call	0x479c	; 0x479c <sram_init>
    258c:	78 94       	sei
    258e:	80 91 84 00 	lds	r24, 0x0084
    2592:	90 91 85 00 	lds	r25, 0x0085
    2596:	0e 94 6f 2b 	call	0x56de	; 0x56de <srand>
    259a:	0e 94 81 12 	call	0x2502	; 0x2502 <splash_screen>
    259e:	0e 94 e3 20 	call	0x41c6	; 0x41c6 <sd_raw_init>
    25a2:	81 11       	cpse	r24, r1
    25a4:	02 c0       	rjmp	.+4      	; 0x25aa <main+0x56>
    25a6:	c0 e0       	ldi	r28, 0x00	; 0
    25a8:	09 c0       	rjmp	.+18     	; 0x25bc <main+0x68>
    25aa:	0e 94 b8 1e 	call	0x3d70	; 0x3d70 <fs_mount>
    25ae:	88 23       	and	r24, r24
    25b0:	d1 f3       	breq	.-12     	; 0x25a6 <main+0x52>
    25b2:	82 e1       	ldi	r24, 0x12	; 18
    25b4:	91 e0       	ldi	r25, 0x01	; 1
    25b6:	0e 94 15 1f 	call	0x3e2a	; 0x3e2a <fs_open_dir>
    25ba:	c8 2f       	mov	r28, r24
    25bc:	64 e0       	ldi	r22, 0x04	; 4
    25be:	89 ef       	ldi	r24, 0xF9	; 249
    25c0:	9f e0       	ldi	r25, 0x0F	; 15
    25c2:	0e 94 8e 25 	call	0x4b1c	; 0x4b1c <text_scroller>
    25c6:	0e 94 34 28 	call	0x5068	; 0x5068 <cls>
    25ca:	82 e0       	ldi	r24, 0x02	; 2
    25cc:	0e 94 92 24 	call	0x4924	; 0x4924 <select_font>
    25d0:	cc 23       	and	r28, r28
    25d2:	19 f0       	breq	.+6      	; 0x25da <main+0x86>
    25d4:	0e 94 c3 11 	call	0x2386	; 0x2386 <games_on_sdcard>
    25d8:	f6 cf       	rjmp	.-20     	; 0x25c6 <main+0x72>
    25da:	88 ec       	ldi	r24, 0xC8	; 200
    25dc:	9f e0       	ldi	r25, 0x0F	; 15
    25de:	0e 94 2a 25 	call	0x4a54	; 0x4a54 <prt_pstr>
    25e2:	0e 94 d9 1f 	call	0x3fb2	; 0x3fb2 <prompt_btn>
    25e6:	0e 94 da 11 	call	0x23b4	; 0x23b4 <games_in_flash>
    25ea:	ed cf       	rjmp	.-38     	; 0x25c6 <main+0x72>

000025ec <print_vms>:
    25ec:	cf 93       	push	r28
    25ee:	df 93       	push	r29
    25f0:	ec 01       	movw	r28, r24
    25f2:	0e 94 34 28 	call	0x5068	; 0x5068 <cls>
    25f6:	82 e0       	ldi	r24, 0x02	; 2
    25f8:	0e 94 92 24 	call	0x4924	; 0x4924 <select_font>
    25fc:	ce 01       	movw	r24, r28
    25fe:	0e 94 2a 25 	call	0x4a54	; 0x4a54 <prt_pstr>
    2602:	8c e5       	ldi	r24, 0x5C	; 92
    2604:	90 e1       	ldi	r25, 0x10	; 16
    2606:	0e 94 2a 25 	call	0x4a54	; 0x4a54 <prt_pstr>
    260a:	80 91 34 01 	lds	r24, 0x0134
    260e:	90 91 35 01 	lds	r25, 0x0135
    2612:	64 e0       	ldi	r22, 0x04	; 4
    2614:	02 97       	sbiw	r24, 0x02	; 2
    2616:	0e 94 39 25 	call	0x4a72	; 0x4a72 <print_hex>
    261a:	80 91 59 01 	lds	r24, 0x0159
    261e:	62 e0       	ldi	r22, 0x02	; 2
    2620:	90 e0       	ldi	r25, 0x00	; 0
    2622:	0e 94 39 25 	call	0x4a72	; 0x4a72 <print_hex>
    2626:	80 91 5a 01 	lds	r24, 0x015A
    262a:	62 e0       	ldi	r22, 0x02	; 2
    262c:	90 e0       	ldi	r25, 0x00	; 0
    262e:	0e 94 39 25 	call	0x4a72	; 0x4a72 <print_hex>
    2632:	0e 94 95 24 	call	0x492a	; 0x492a <new_line>
    2636:	89 e5       	ldi	r24, 0x59	; 89
    2638:	90 e1       	ldi	r25, 0x10	; 16
    263a:	0e 94 2a 25 	call	0x4a54	; 0x4a54 <prt_pstr>
    263e:	64 e0       	ldi	r22, 0x04	; 4
    2640:	80 91 36 01 	lds	r24, 0x0136
    2644:	90 91 37 01 	lds	r25, 0x0137
    2648:	0e 94 39 25 	call	0x4a72	; 0x4a72 <print_hex>
    264c:	84 e5       	ldi	r24, 0x54	; 84
    264e:	90 e1       	ldi	r25, 0x10	; 16
    2650:	0e 94 2a 25 	call	0x4a54	; 0x4a54 <prt_pstr>
    2654:	80 91 38 01 	lds	r24, 0x0138
    2658:	62 e0       	ldi	r22, 0x02	; 2
    265a:	90 e0       	ldi	r25, 0x00	; 0
    265c:	0e 94 39 25 	call	0x4a72	; 0x4a72 <print_hex>
    2660:	0e 94 95 24 	call	0x492a	; 0x492a <new_line>
    2664:	8d e4       	ldi	r24, 0x4D	; 77
    2666:	90 e1       	ldi	r25, 0x10	; 16
    2668:	0e 94 2a 25 	call	0x4a54	; 0x4a54 <prt_pstr>
    266c:	c9 e3       	ldi	r28, 0x39	; 57
    266e:	d1 e0       	ldi	r29, 0x01	; 1
    2670:	89 91       	ld	r24, Y+
    2672:	62 e0       	ldi	r22, 0x02	; 2
    2674:	90 e0       	ldi	r25, 0x00	; 0
    2676:	0e 94 39 25 	call	0x4a72	; 0x4a72 <print_hex>
    267a:	81 e0       	ldi	r24, 0x01	; 1
    267c:	c9 34       	cpi	r28, 0x49	; 73
    267e:	d8 07       	cpc	r29, r24
    2680:	b9 f7       	brne	.-18     	; 0x2670 <print_vms+0x84>
    2682:	0e 94 95 24 	call	0x492a	; 0x492a <new_line>
    2686:	df 91       	pop	r29
    2688:	cf 91       	pop	r28
    268a:	0c 94 d9 1f 	jmp	0x3fb2	; 0x3fb2 <prompt_btn>

0000268e <schipp>:
    268e:	bf 92       	push	r11
    2690:	df 92       	push	r13
    2692:	ef 92       	push	r14
    2694:	ff 92       	push	r15
    2696:	0f 93       	push	r16
    2698:	1f 93       	push	r17
    269a:	cf 93       	push	r28
    269c:	df 93       	push	r29
    269e:	10 92 35 01 	sts	0x0135, r1
    26a2:	10 92 34 01 	sts	0x0134, r1
    26a6:	10 92 38 01 	sts	0x0138, r1
    26aa:	10 92 37 01 	sts	0x0137, r1
    26ae:	10 92 36 01 	sts	0x0136, r1
    26b2:	ca e0       	ldi	r28, 0x0A	; 10
    26b4:	d8 e4       	ldi	r29, 0x48	; 72
    26b6:	e0 e8       	ldi	r30, 0x80	; 128
    26b8:	de 2e       	mov	r13, r30
    26ba:	0e 94 e1 1f 	call	0x3fc2	; 0x3fc2 <joystick_break>
    26be:	81 11       	cpse	r24, r1
    26c0:	14 c3       	rjmp	.+1576   	; 0x2cea <schipp+0x65c>
    26c2:	80 91 34 01 	lds	r24, 0x0134
    26c6:	90 91 35 01 	lds	r25, 0x0135
    26ca:	0e 94 16 24 	call	0x482c	; 0x482c <sram_read_word>
    26ce:	80 93 59 01 	sts	0x0159, r24
    26d2:	90 93 5a 01 	sts	0x015A, r25
    26d6:	20 91 34 01 	lds	r18, 0x0134
    26da:	30 91 35 01 	lds	r19, 0x0135
    26de:	d9 01       	movw	r26, r18
    26e0:	12 96       	adiw	r26, 0x02	; 2
    26e2:	b0 93 35 01 	sts	0x0135, r27
    26e6:	a0 93 34 01 	sts	0x0134, r26
    26ea:	98 2f       	mov	r25, r24
    26ec:	08 2f       	mov	r16, r24
    26ee:	0f 70       	andi	r16, 0x0F	; 15
    26f0:	80 91 5a 01 	lds	r24, 0x015A
    26f4:	f8 2e       	mov	r15, r24
    26f6:	f2 94       	swap	r15
    26f8:	7f e0       	ldi	r23, 0x0F	; 15
    26fa:	f7 22       	and	r15, r23
    26fc:	49 2f       	mov	r20, r25
    26fe:	42 95       	swap	r20
    2700:	4f 70       	andi	r20, 0x0F	; 15
    2702:	50 e0       	ldi	r21, 0x00	; 0
    2704:	4c 5c       	subi	r20, 0xCC	; 204
    2706:	5f 4f       	sbci	r21, 0xFF	; 255
    2708:	fa 01       	movw	r30, r20
    270a:	0c 94 27 2a 	jmp	0x544e	; 0x544e <__tablejump2__>
    270e:	98 2f       	mov	r25, r24
    2710:	90 7f       	andi	r25, 0xF0	; 240
    2712:	90 3c       	cpi	r25, 0xC0	; 192
    2714:	21 f4       	brne	.+8      	; 0x271e <schipp+0x90>
    2716:	8f 70       	andi	r24, 0x0F	; 15
    2718:	0e 94 42 28 	call	0x5084	; 0x5084 <scroll_down>
    271c:	ce cf       	rjmp	.-100    	; 0x26ba <schipp+0x2c>
    271e:	90 3d       	cpi	r25, 0xD0	; 208
    2720:	21 f4       	brne	.+8      	; 0x272a <schipp+0x9c>
    2722:	8f 70       	andi	r24, 0x0F	; 15
    2724:	0e 94 6a 28 	call	0x50d4	; 0x50d4 <scroll_up>
    2728:	c8 cf       	rjmp	.-112    	; 0x26ba <schipp+0x2c>
    272a:	8c 3f       	cpi	r24, 0xFC	; 252
    272c:	01 f1       	breq	.+64     	; 0x276e <schipp+0xe0>
    272e:	50 f4       	brcc	.+20     	; 0x2744 <schipp+0xb6>
    2730:	8e 3e       	cpi	r24, 0xEE	; 238
    2732:	61 f0       	breq	.+24     	; 0x274c <schipp+0xbe>
    2734:	8b 3f       	cpi	r24, 0xFB	; 251
    2736:	c1 f0       	breq	.+48     	; 0x2768 <schipp+0xda>
    2738:	80 3e       	cpi	r24, 0xE0	; 224
    273a:	09 f0       	breq	.+2      	; 0x273e <schipp+0xb0>
    273c:	d8 c2       	rjmp	.+1456   	; 0x2cee <schipp+0x660>
    273e:	0e 94 34 28 	call	0x5068	; 0x5068 <cls>
    2742:	bb cf       	rjmp	.-138    	; 0x26ba <schipp+0x2c>
    2744:	8d 3f       	cpi	r24, 0xFD	; 253
    2746:	09 f0       	breq	.+2      	; 0x274a <schipp+0xbc>
    2748:	b8 cf       	rjmp	.-144    	; 0x26ba <schipp+0x2c>
    274a:	cf c2       	rjmp	.+1438   	; 0x2cea <schipp+0x65c>
    274c:	e0 91 38 01 	lds	r30, 0x0138
    2750:	8f ef       	ldi	r24, 0xFF	; 255
    2752:	8e 0f       	add	r24, r30
    2754:	80 93 38 01 	sts	0x0138, r24
    2758:	f0 e0       	ldi	r31, 0x00	; 0
    275a:	ee 0f       	add	r30, r30
    275c:	ff 1f       	adc	r31, r31
    275e:	ec 5c       	subi	r30, 0xCC	; 204
    2760:	fe 4f       	sbci	r31, 0xFE	; 254
    2762:	87 a1       	ldd	r24, Z+39	; 0x27
    2764:	90 a5       	ldd	r25, Z+40	; 0x28
    2766:	f5 c1       	rjmp	.+1002   	; 0x2b52 <schipp+0x4c4>
    2768:	0e 94 9f 28 	call	0x513e	; 0x513e <chip_scroll_right>
    276c:	a6 cf       	rjmp	.-180    	; 0x26ba <schipp+0x2c>
    276e:	0e 94 c6 28 	call	0x518c	; 0x518c <chip_scroll_left>
    2772:	a3 cf       	rjmp	.-186    	; 0x26ba <schipp+0x2c>
    2774:	40 91 38 01 	lds	r20, 0x0138
    2778:	4f 5f       	subi	r20, 0xFF	; 255
    277a:	40 93 38 01 	sts	0x0138, r20
    277e:	e4 2f       	mov	r30, r20
    2780:	f0 e0       	ldi	r31, 0x00	; 0
    2782:	ee 0f       	add	r30, r30
    2784:	ff 1f       	adc	r31, r31
    2786:	ec 5c       	subi	r30, 0xCC	; 204
    2788:	fe 4f       	sbci	r31, 0xFE	; 254
    278a:	b0 a7       	std	Z+40, r27	; 0x28
    278c:	a7 a3       	std	Z+39, r26	; 0x27
    278e:	28 2f       	mov	r18, r24
    2790:	30 e0       	ldi	r19, 0x00	; 0
    2792:	39 2b       	or	r19, r25
    2794:	22 0f       	add	r18, r18
    2796:	33 1f       	adc	r19, r19
    2798:	3f 70       	andi	r19, 0x0F	; 15
    279a:	30 93 35 01 	sts	0x0135, r19
    279e:	20 93 34 01 	sts	0x0134, r18
    27a2:	8b cf       	rjmp	.-234    	; 0x26ba <schipp+0x2c>
    27a4:	a0 2f       	mov	r26, r16
    27a6:	b0 e0       	ldi	r27, 0x00	; 0
    27a8:	ac 5c       	subi	r26, 0xCC	; 204
    27aa:	be 4f       	sbci	r27, 0xFE	; 254
    27ac:	15 96       	adiw	r26, 0x05	; 5
    27ae:	9c 91       	ld	r25, X
    27b0:	13 c0       	rjmp	.+38     	; 0x27d8 <schipp+0x14a>
    27b2:	a0 2f       	mov	r26, r16
    27b4:	b0 e0       	ldi	r27, 0x00	; 0
    27b6:	ac 5c       	subi	r26, 0xCC	; 204
    27b8:	be 4f       	sbci	r27, 0xFE	; 254
    27ba:	15 96       	adiw	r26, 0x05	; 5
    27bc:	9c 91       	ld	r25, X
    27be:	bb c0       	rjmp	.+374    	; 0x2936 <schipp+0x2a8>
    27c0:	80 2f       	mov	r24, r16
    27c2:	90 e0       	ldi	r25, 0x00	; 0
    27c4:	8c 5c       	subi	r24, 0xCC	; 204
    27c6:	9e 4f       	sbci	r25, 0xFE	; 254
    27c8:	af 2d       	mov	r26, r15
    27ca:	b0 e0       	ldi	r27, 0x00	; 0
    27cc:	ac 5c       	subi	r26, 0xCC	; 204
    27ce:	be 4f       	sbci	r27, 0xFE	; 254
    27d0:	fc 01       	movw	r30, r24
    27d2:	95 81       	ldd	r25, Z+5	; 0x05
    27d4:	15 96       	adiw	r26, 0x05	; 5
    27d6:	8c 91       	ld	r24, X
    27d8:	98 13       	cpse	r25, r24
    27da:	6f cf       	rjmp	.-290    	; 0x26ba <schipp+0x2c>
    27dc:	af c0       	rjmp	.+350    	; 0x293c <schipp+0x2ae>
    27de:	e0 2f       	mov	r30, r16
    27e0:	f0 e0       	ldi	r31, 0x00	; 0
    27e2:	ec 5c       	subi	r30, 0xCC	; 204
    27e4:	fe 4f       	sbci	r31, 0xFE	; 254
    27e6:	95 81       	ldd	r25, Z+5	; 0x05
    27e8:	98 0f       	add	r25, r24
    27ea:	59 c1       	rjmp	.+690    	; 0x2a9e <schipp+0x410>
    27ec:	48 2f       	mov	r20, r24
    27ee:	4f 70       	andi	r20, 0x0F	; 15
    27f0:	50 e0       	ldi	r21, 0x00	; 0
    27f2:	4f 30       	cpi	r20, 0x0F	; 15
    27f4:	51 05       	cpc	r21, r1
    27f6:	08 f0       	brcs	.+2      	; 0x27fa <schipp+0x16c>
    27f8:	7a c2       	rjmp	.+1268   	; 0x2cee <schipp+0x660>
    27fa:	fa 01       	movw	r30, r20
    27fc:	ec 5b       	subi	r30, 0xBC	; 188
    27fe:	ff 4f       	sbci	r31, 0xFF	; 255
    2800:	0c 94 27 2a 	jmp	0x544e	; 0x544e <__tablejump2__>
    2804:	ef 2d       	mov	r30, r15
    2806:	f0 e0       	ldi	r31, 0x00	; 0
    2808:	ec 5c       	subi	r30, 0xCC	; 204
    280a:	fe 4f       	sbci	r31, 0xFE	; 254
    280c:	85 81       	ldd	r24, Z+5	; 0x05
    280e:	e0 2f       	mov	r30, r16
    2810:	f0 e0       	ldi	r31, 0x00	; 0
    2812:	ec 5c       	subi	r30, 0xCC	; 204
    2814:	fe 4f       	sbci	r31, 0xFE	; 254
    2816:	85 83       	std	Z+5, r24	; 0x05
    2818:	50 cf       	rjmp	.-352    	; 0x26ba <schipp+0x2c>
    281a:	e0 2f       	mov	r30, r16
    281c:	f0 e0       	ldi	r31, 0x00	; 0
    281e:	ec 5c       	subi	r30, 0xCC	; 204
    2820:	fe 4f       	sbci	r31, 0xFE	; 254
    2822:	af 2d       	mov	r26, r15
    2824:	b0 e0       	ldi	r27, 0x00	; 0
    2826:	ac 5c       	subi	r26, 0xCC	; 204
    2828:	be 4f       	sbci	r27, 0xFE	; 254
    282a:	15 96       	adiw	r26, 0x05	; 5
    282c:	8c 91       	ld	r24, X
    282e:	95 81       	ldd	r25, Z+5	; 0x05
    2830:	89 2b       	or	r24, r25
    2832:	f1 cf       	rjmp	.-30     	; 0x2816 <schipp+0x188>
    2834:	e0 2f       	mov	r30, r16
    2836:	f0 e0       	ldi	r31, 0x00	; 0
    2838:	ec 5c       	subi	r30, 0xCC	; 204
    283a:	fe 4f       	sbci	r31, 0xFE	; 254
    283c:	af 2d       	mov	r26, r15
    283e:	b0 e0       	ldi	r27, 0x00	; 0
    2840:	ac 5c       	subi	r26, 0xCC	; 204
    2842:	be 4f       	sbci	r27, 0xFE	; 254
    2844:	15 96       	adiw	r26, 0x05	; 5
    2846:	8c 91       	ld	r24, X
    2848:	95 81       	ldd	r25, Z+5	; 0x05
    284a:	89 23       	and	r24, r25
    284c:	e4 cf       	rjmp	.-56     	; 0x2816 <schipp+0x188>
    284e:	e0 2f       	mov	r30, r16
    2850:	f0 e0       	ldi	r31, 0x00	; 0
    2852:	ec 5c       	subi	r30, 0xCC	; 204
    2854:	fe 4f       	sbci	r31, 0xFE	; 254
    2856:	af 2d       	mov	r26, r15
    2858:	b0 e0       	ldi	r27, 0x00	; 0
    285a:	ac 5c       	subi	r26, 0xCC	; 204
    285c:	be 4f       	sbci	r27, 0xFE	; 254
    285e:	15 96       	adiw	r26, 0x05	; 5
    2860:	8c 91       	ld	r24, X
    2862:	95 81       	ldd	r25, Z+5	; 0x05
    2864:	89 27       	eor	r24, r25
    2866:	d7 cf       	rjmp	.-82     	; 0x2816 <schipp+0x188>
    2868:	e0 2f       	mov	r30, r16
    286a:	f0 e0       	ldi	r31, 0x00	; 0
    286c:	ec 5c       	subi	r30, 0xCC	; 204
    286e:	fe 4f       	sbci	r31, 0xFE	; 254
    2870:	25 81       	ldd	r18, Z+5	; 0x05
    2872:	af 2d       	mov	r26, r15
    2874:	b0 e0       	ldi	r27, 0x00	; 0
    2876:	ac 5c       	subi	r26, 0xCC	; 204
    2878:	be 4f       	sbci	r27, 0xFE	; 254
    287a:	15 96       	adiw	r26, 0x05	; 5
    287c:	8c 91       	ld	r24, X
    287e:	98 2f       	mov	r25, r24
    2880:	92 0f       	add	r25, r18
    2882:	95 83       	std	Z+5, r25	; 0x05
    2884:	90 e0       	ldi	r25, 0x00	; 0
    2886:	82 0f       	add	r24, r18
    2888:	91 1d       	adc	r25, r1
    288a:	21 e0       	ldi	r18, 0x01	; 1
    288c:	8f 3f       	cpi	r24, 0xFF	; 255
    288e:	91 05       	cpc	r25, r1
    2890:	09 f0       	breq	.+2      	; 0x2894 <schipp+0x206>
    2892:	0c f4       	brge	.+2      	; 0x2896 <schipp+0x208>
    2894:	20 e0       	ldi	r18, 0x00	; 0
    2896:	20 93 48 01 	sts	0x0148, r18
    289a:	0f cf       	rjmp	.-482    	; 0x26ba <schipp+0x2c>
    289c:	e0 2f       	mov	r30, r16
    289e:	f0 e0       	ldi	r31, 0x00	; 0
    28a0:	ec 5c       	subi	r30, 0xCC	; 204
    28a2:	fe 4f       	sbci	r31, 0xFE	; 254
    28a4:	25 81       	ldd	r18, Z+5	; 0x05
    28a6:	af 2d       	mov	r26, r15
    28a8:	b0 e0       	ldi	r27, 0x00	; 0
    28aa:	ac 5c       	subi	r26, 0xCC	; 204
    28ac:	be 4f       	sbci	r27, 0xFE	; 254
    28ae:	15 96       	adiw	r26, 0x05	; 5
    28b0:	9c 91       	ld	r25, X
    28b2:	14 c0       	rjmp	.+40     	; 0x28dc <schipp+0x24e>
    28b4:	e0 2f       	mov	r30, r16
    28b6:	f0 e0       	ldi	r31, 0x00	; 0
    28b8:	ec 5c       	subi	r30, 0xCC	; 204
    28ba:	fe 4f       	sbci	r31, 0xFE	; 254
    28bc:	85 81       	ldd	r24, Z+5	; 0x05
    28be:	98 2f       	mov	r25, r24
    28c0:	96 95       	lsr	r25
    28c2:	95 83       	std	Z+5, r25	; 0x05
    28c4:	81 70       	andi	r24, 0x01	; 1
    28c6:	2e c1       	rjmp	.+604    	; 0x2b24 <schipp+0x496>
    28c8:	ef 2d       	mov	r30, r15
    28ca:	f0 e0       	ldi	r31, 0x00	; 0
    28cc:	ec 5c       	subi	r30, 0xCC	; 204
    28ce:	fe 4f       	sbci	r31, 0xFE	; 254
    28d0:	25 81       	ldd	r18, Z+5	; 0x05
    28d2:	e0 2f       	mov	r30, r16
    28d4:	f0 e0       	ldi	r31, 0x00	; 0
    28d6:	ec 5c       	subi	r30, 0xCC	; 204
    28d8:	fe 4f       	sbci	r31, 0xFE	; 254
    28da:	95 81       	ldd	r25, Z+5	; 0x05
    28dc:	82 2f       	mov	r24, r18
    28de:	89 1b       	sub	r24, r25
    28e0:	85 83       	std	Z+5, r24	; 0x05
    28e2:	81 e0       	ldi	r24, 0x01	; 1
    28e4:	29 17       	cp	r18, r25
    28e6:	08 f0       	brcs	.+2      	; 0x28ea <schipp+0x25c>
    28e8:	1d c1       	rjmp	.+570    	; 0x2b24 <schipp+0x496>
    28ea:	80 e0       	ldi	r24, 0x00	; 0
    28ec:	1b c1       	rjmp	.+566    	; 0x2b24 <schipp+0x496>
    28ee:	e0 2f       	mov	r30, r16
    28f0:	f0 e0       	ldi	r31, 0x00	; 0
    28f2:	ec 5c       	subi	r30, 0xCC	; 204
    28f4:	fe 4f       	sbci	r31, 0xFE	; 254
    28f6:	85 81       	ldd	r24, Z+5	; 0x05
    28f8:	98 2f       	mov	r25, r24
    28fa:	99 0f       	add	r25, r25
    28fc:	95 83       	std	Z+5, r25	; 0x05
    28fe:	88 1f       	adc	r24, r24
    2900:	88 27       	eor	r24, r24
    2902:	88 1f       	adc	r24, r24
    2904:	0f c1       	rjmp	.+542    	; 0x2b24 <schipp+0x496>
    2906:	48 2f       	mov	r20, r24
    2908:	4f 70       	andi	r20, 0x0F	; 15
    290a:	50 e0       	ldi	r21, 0x00	; 0
    290c:	4a 30       	cpi	r20, 0x0A	; 10
    290e:	51 05       	cpc	r21, r1
    2910:	08 f0       	brcs	.+2      	; 0x2914 <schipp+0x286>
    2912:	ed c1       	rjmp	.+986    	; 0x2cee <schipp+0x660>
    2914:	4d 5a       	subi	r20, 0xAD	; 173
    2916:	5f 4f       	sbci	r21, 0xFF	; 255
    2918:	fa 01       	movw	r30, r20
    291a:	0c 94 27 2a 	jmp	0x544e	; 0x544e <__tablejump2__>
    291e:	80 2f       	mov	r24, r16
    2920:	90 e0       	ldi	r25, 0x00	; 0
    2922:	8c 5c       	subi	r24, 0xCC	; 204
    2924:	9e 4f       	sbci	r25, 0xFE	; 254
    2926:	af 2d       	mov	r26, r15
    2928:	b0 e0       	ldi	r27, 0x00	; 0
    292a:	ac 5c       	subi	r26, 0xCC	; 204
    292c:	be 4f       	sbci	r27, 0xFE	; 254
    292e:	fc 01       	movw	r30, r24
    2930:	95 81       	ldd	r25, Z+5	; 0x05
    2932:	15 96       	adiw	r26, 0x05	; 5
    2934:	8c 91       	ld	r24, X
    2936:	98 17       	cp	r25, r24
    2938:	09 f4       	brne	.+2      	; 0x293c <schipp+0x2ae>
    293a:	bf ce       	rjmp	.-642    	; 0x26ba <schipp+0x2c>
    293c:	f9 01       	movw	r30, r18
    293e:	34 96       	adiw	r30, 0x04	; 4
    2940:	f0 93 35 01 	sts	0x0135, r31
    2944:	e0 93 34 01 	sts	0x0134, r30
    2948:	b8 ce       	rjmp	.-656    	; 0x26ba <schipp+0x2c>
    294a:	af 2d       	mov	r26, r15
    294c:	b0 e0       	ldi	r27, 0x00	; 0
    294e:	ac 5c       	subi	r26, 0xCC	; 204
    2950:	be 4f       	sbci	r27, 0xFE	; 254
    2952:	e0 2f       	mov	r30, r16
    2954:	f0 e0       	ldi	r31, 0x00	; 0
    2956:	ec 5c       	subi	r30, 0xCC	; 204
    2958:	fe 4f       	sbci	r31, 0xFE	; 254
    295a:	40 e0       	ldi	r20, 0x00	; 0
    295c:	43 c0       	rjmp	.+134    	; 0x29e4 <schipp+0x356>
    295e:	82 e0       	ldi	r24, 0x02	; 2
    2960:	0e 94 92 24 	call	0x4924	; 0x4924 <select_font>
    2964:	af 2d       	mov	r26, r15
    2966:	b0 e0       	ldi	r27, 0x00	; 0
    2968:	ac 5c       	subi	r26, 0xCC	; 204
    296a:	be 4f       	sbci	r27, 0xFE	; 254
    296c:	e0 2f       	mov	r30, r16
    296e:	f0 e0       	ldi	r31, 0x00	; 0
    2970:	ec 5c       	subi	r30, 0xCC	; 204
    2972:	fe 4f       	sbci	r31, 0xFE	; 254
    2974:	15 96       	adiw	r26, 0x05	; 5
    2976:	6c 91       	ld	r22, X
    2978:	85 81       	ldd	r24, Z+5	; 0x05
    297a:	0e 94 19 25 	call	0x4a32	; 0x4a32 <set_cursor>
    297e:	80 91 36 01 	lds	r24, 0x0136
    2982:	90 91 37 01 	lds	r25, 0x0137
    2986:	9c 01       	movw	r18, r24
    2988:	2f 5f       	subi	r18, 0xFF	; 255
    298a:	3f 4f       	sbci	r19, 0xFF	; 255
    298c:	30 93 37 01 	sts	0x0137, r19
    2990:	20 93 36 01 	sts	0x0136, r18
    2994:	0e 94 f5 23 	call	0x47ea	; 0x47ea <sram_read_byte>
    2998:	88 23       	and	r24, r24
    299a:	09 f4       	brne	.+2      	; 0x299e <schipp+0x310>
    299c:	8e ce       	rjmp	.-740    	; 0x26ba <schipp+0x2c>
    299e:	0e 94 c0 24 	call	0x4980	; 0x4980 <put_char>
    29a2:	ed cf       	rjmp	.-38     	; 0x297e <schipp+0x2f0>
    29a4:	af 2d       	mov	r26, r15
    29a6:	b0 e0       	ldi	r27, 0x00	; 0
    29a8:	ac 5c       	subi	r26, 0xCC	; 204
    29aa:	be 4f       	sbci	r27, 0xFE	; 254
    29ac:	e0 2f       	mov	r30, r16
    29ae:	f0 e0       	ldi	r31, 0x00	; 0
    29b0:	ec 5c       	subi	r30, 0xCC	; 204
    29b2:	fe 4f       	sbci	r31, 0xFE	; 254
    29b4:	42 e0       	ldi	r20, 0x02	; 2
    29b6:	15 96       	adiw	r26, 0x05	; 5
    29b8:	6c 91       	ld	r22, X
    29ba:	85 81       	ldd	r24, Z+5	; 0x05
    29bc:	0e 94 4e 26 	call	0x4c9c	; 0x4c9c <plot>
    29c0:	7c ce       	rjmp	.-776    	; 0x26ba <schipp+0x2c>
    29c2:	8f 2d       	mov	r24, r15
    29c4:	f0 e1       	ldi	r31, 0x10	; 16
    29c6:	0f 9f       	mul	r16, r31
    29c8:	80 0d       	add	r24, r0
    29ca:	11 24       	eor	r1, r1
    29cc:	0e 94 19 26 	call	0x4c32	; 0x4c32 <noise>
    29d0:	74 ce       	rjmp	.-792    	; 0x26ba <schipp+0x2c>
    29d2:	af 2d       	mov	r26, r15
    29d4:	b0 e0       	ldi	r27, 0x00	; 0
    29d6:	ac 5c       	subi	r26, 0xCC	; 204
    29d8:	be 4f       	sbci	r27, 0xFE	; 254
    29da:	e0 2f       	mov	r30, r16
    29dc:	f0 e0       	ldi	r31, 0x00	; 0
    29de:	ec 5c       	subi	r30, 0xCC	; 204
    29e0:	fe 4f       	sbci	r31, 0xFE	; 254
    29e2:	41 e0       	ldi	r20, 0x01	; 1
    29e4:	15 96       	adiw	r26, 0x05	; 5
    29e6:	6c 91       	ld	r22, X
    29e8:	85 81       	ldd	r24, Z+5	; 0x05
    29ea:	0e 94 fd 25 	call	0x4bfa	; 0x4bfa <key_tone>
    29ee:	65 ce       	rjmp	.-822    	; 0x26ba <schipp+0x2c>
    29f0:	e0 91 38 01 	lds	r30, 0x0138
    29f4:	ef 5f       	subi	r30, 0xFF	; 255
    29f6:	e0 93 38 01 	sts	0x0138, r30
    29fa:	f0 e0       	ldi	r31, 0x00	; 0
    29fc:	ee 0f       	add	r30, r30
    29fe:	ff 1f       	adc	r31, r31
    2a00:	ec 5c       	subi	r30, 0xCC	; 204
    2a02:	fe 4f       	sbci	r31, 0xFE	; 254
    2a04:	a0 2f       	mov	r26, r16
    2a06:	b0 e0       	ldi	r27, 0x00	; 0
    2a08:	ac 5c       	subi	r26, 0xCC	; 204
    2a0a:	be 4f       	sbci	r27, 0xFE	; 254
    2a0c:	15 96       	adiw	r26, 0x05	; 5
    2a0e:	8c 91       	ld	r24, X
    2a10:	90 e0       	ldi	r25, 0x00	; 0
    2a12:	90 a7       	std	Z+40, r25	; 0x28
    2a14:	87 a3       	std	Z+39, r24	; 0x27
    2a16:	51 ce       	rjmp	.-862    	; 0x26ba <schipp+0x2c>
    2a18:	e0 91 38 01 	lds	r30, 0x0138
    2a1c:	8f ef       	ldi	r24, 0xFF	; 255
    2a1e:	8e 0f       	add	r24, r30
    2a20:	80 93 38 01 	sts	0x0138, r24
    2a24:	a0 2f       	mov	r26, r16
    2a26:	b0 e0       	ldi	r27, 0x00	; 0
    2a28:	ac 5c       	subi	r26, 0xCC	; 204
    2a2a:	be 4f       	sbci	r27, 0xFE	; 254
    2a2c:	f0 e0       	ldi	r31, 0x00	; 0
    2a2e:	ee 0f       	add	r30, r30
    2a30:	ff 1f       	adc	r31, r31
    2a32:	ec 5c       	subi	r30, 0xCC	; 204
    2a34:	fe 4f       	sbci	r31, 0xFE	; 254
    2a36:	87 a1       	ldd	r24, Z+39	; 0x27
    2a38:	15 96       	adiw	r26, 0x05	; 5
    2a3a:	8c 93       	st	X, r24
    2a3c:	3e ce       	rjmp	.-900    	; 0x26ba <schipp+0x2c>
    2a3e:	e0 2f       	mov	r30, r16
    2a40:	f0 e0       	ldi	r31, 0x00	; 0
    2a42:	ec 5c       	subi	r30, 0xCC	; 204
    2a44:	fe 4f       	sbci	r31, 0xFE	; 254
    2a46:	d5 82       	std	Z+5, r13	; 0x05
    2a48:	38 ce       	rjmp	.-912    	; 0x26ba <schipp+0x2c>
    2a4a:	e0 2f       	mov	r30, r16
    2a4c:	f0 e0       	ldi	r31, 0x00	; 0
    2a4e:	ec 5c       	subi	r30, 0xCC	; 204
    2a50:	fe 4f       	sbci	r31, 0xFE	; 254
    2a52:	d5 83       	std	Z+5, r29	; 0x05
    2a54:	32 ce       	rjmp	.-924    	; 0x26ba <schipp+0x2c>
    2a56:	28 2f       	mov	r18, r24
    2a58:	30 e0       	ldi	r19, 0x00	; 0
    2a5a:	39 2b       	or	r19, r25
    2a5c:	22 0f       	add	r18, r18
    2a5e:	33 1f       	adc	r19, r19
    2a60:	3f 70       	andi	r19, 0x0F	; 15
    2a62:	30 93 37 01 	sts	0x0137, r19
    2a66:	20 93 36 01 	sts	0x0136, r18
    2a6a:	80 91 9b 01 	lds	r24, 0x019B
    2a6e:	81 60       	ori	r24, 0x01	; 1
    2a70:	16 c1       	rjmp	.+556    	; 0x2c9e <schipp+0x610>
    2a72:	40 91 39 01 	lds	r20, 0x0139
    2a76:	28 2f       	mov	r18, r24
    2a78:	30 e0       	ldi	r19, 0x00	; 0
    2a7a:	39 2b       	or	r19, r25
    2a7c:	22 0f       	add	r18, r18
    2a7e:	33 1f       	adc	r19, r19
    2a80:	3f 70       	andi	r19, 0x0F	; 15
    2a82:	24 0f       	add	r18, r20
    2a84:	31 1d       	adc	r19, r1
    2a86:	24 0f       	add	r18, r20
    2a88:	31 1d       	adc	r19, r1
    2a8a:	87 ce       	rjmp	.-754    	; 0x279a <schipp+0x10c>
    2a8c:	0e 94 6a 2b 	call	0x56d4	; 0x56d4 <rand>
    2a90:	e0 2f       	mov	r30, r16
    2a92:	f0 e0       	ldi	r31, 0x00	; 0
    2a94:	ec 5c       	subi	r30, 0xCC	; 204
    2a96:	fe 4f       	sbci	r31, 0xFE	; 254
    2a98:	90 91 5a 01 	lds	r25, 0x015A
    2a9c:	98 23       	and	r25, r24
    2a9e:	95 83       	std	Z+5, r25	; 0x05
    2aa0:	0c ce       	rjmp	.-1000   	; 0x26ba <schipp+0x2c>
    2aa2:	8f 70       	andi	r24, 0x0F	; 15
    2aa4:	b8 2e       	mov	r11, r24
    2aa6:	10 e0       	ldi	r17, 0x00	; 0
    2aa8:	ef 2c       	mov	r14, r15
    2aaa:	f1 2c       	mov	r15, r1
    2aac:	80 91 36 01 	lds	r24, 0x0136
    2ab0:	90 91 37 01 	lds	r25, 0x0137
    2ab4:	b1 10       	cpse	r11, r1
    2ab6:	14 c0       	rjmp	.+40     	; 0x2ae0 <schipp+0x452>
    2ab8:	44 e1       	ldi	r20, 0x14	; 20
    2aba:	51 e0       	ldi	r21, 0x01	; 1
    2abc:	60 e2       	ldi	r22, 0x20	; 32
    2abe:	70 e0       	ldi	r23, 0x00	; 0
    2ac0:	0e 94 41 24 	call	0x4882	; 0x4882 <sram_load_block>
    2ac4:	d7 01       	movw	r26, r14
    2ac6:	ac 5c       	subi	r26, 0xCC	; 204
    2ac8:	be 4f       	sbci	r27, 0xFE	; 254
    2aca:	f8 01       	movw	r30, r16
    2acc:	ec 5c       	subi	r30, 0xCC	; 204
    2ace:	fe 4f       	sbci	r31, 0xFE	; 254
    2ad0:	44 e1       	ldi	r20, 0x14	; 20
    2ad2:	51 e0       	ldi	r21, 0x01	; 1
    2ad4:	15 96       	adiw	r26, 0x05	; 5
    2ad6:	6c 91       	ld	r22, X
    2ad8:	85 81       	ldd	r24, Z+5	; 0x05
    2ada:	0e 94 38 27 	call	0x4e70	; 0x4e70 <put_big_sprite>
    2ade:	22 c0       	rjmp	.+68     	; 0x2b24 <schipp+0x496>
    2ae0:	20 91 9b 01 	lds	r18, 0x019B
    2ae4:	20 fd       	sbrc	r18, 0
    2ae6:	09 c0       	rjmp	.+18     	; 0x2afa <schipp+0x46c>
    2ae8:	d7 01       	movw	r26, r14
    2aea:	ac 5c       	subi	r26, 0xCC	; 204
    2aec:	be 4f       	sbci	r27, 0xFE	; 254
    2aee:	f8 01       	movw	r30, r16
    2af0:	ec 5c       	subi	r30, 0xCC	; 204
    2af2:	fe 4f       	sbci	r31, 0xFE	; 254
    2af4:	00 e0       	ldi	r16, 0x00	; 0
    2af6:	9c 01       	movw	r18, r24
    2af8:	0f c0       	rjmp	.+30     	; 0x2b18 <schipp+0x48a>
    2afa:	6b 2d       	mov	r22, r11
    2afc:	70 e0       	ldi	r23, 0x00	; 0
    2afe:	44 e1       	ldi	r20, 0x14	; 20
    2b00:	51 e0       	ldi	r21, 0x01	; 1
    2b02:	0e 94 41 24 	call	0x4882	; 0x4882 <sram_load_block>
    2b06:	d7 01       	movw	r26, r14
    2b08:	ac 5c       	subi	r26, 0xCC	; 204
    2b0a:	be 4f       	sbci	r27, 0xFE	; 254
    2b0c:	f8 01       	movw	r30, r16
    2b0e:	ec 5c       	subi	r30, 0xCC	; 204
    2b10:	fe 4f       	sbci	r31, 0xFE	; 254
    2b12:	01 e0       	ldi	r16, 0x01	; 1
    2b14:	24 e1       	ldi	r18, 0x14	; 20
    2b16:	31 e0       	ldi	r19, 0x01	; 1
    2b18:	4b 2d       	mov	r20, r11
    2b1a:	15 96       	adiw	r26, 0x05	; 5
    2b1c:	6c 91       	ld	r22, X
    2b1e:	85 81       	ldd	r24, Z+5	; 0x05
    2b20:	0e 94 9b 26 	call	0x4d36	; 0x4d36 <put_sprite>
    2b24:	80 93 48 01 	sts	0x0148, r24
    2b28:	c8 cd       	rjmp	.-1136   	; 0x26ba <schipp+0x2c>
    2b2a:	8e 39       	cpi	r24, 0x9E	; 158
    2b2c:	19 f0       	breq	.+6      	; 0x2b34 <schipp+0x4a6>
    2b2e:	81 3a       	cpi	r24, 0xA1	; 161
    2b30:	a9 f0       	breq	.+42     	; 0x2b5c <schipp+0x4ce>
    2b32:	dd c0       	rjmp	.+442    	; 0x2cee <schipp+0x660>
    2b34:	e0 2f       	mov	r30, r16
    2b36:	f0 e0       	ldi	r31, 0x00	; 0
    2b38:	ec 5c       	subi	r30, 0xCC	; 204
    2b3a:	fe 4f       	sbci	r31, 0xFE	; 254
    2b3c:	85 81       	ldd	r24, Z+5	; 0x05
    2b3e:	0e 94 c0 1f 	call	0x3f80	; 0x3f80 <joystick_btn_down>
    2b42:	88 23       	and	r24, r24
    2b44:	09 f4       	brne	.+2      	; 0x2b48 <schipp+0x4ba>
    2b46:	b9 cd       	rjmp	.-1166   	; 0x26ba <schipp+0x2c>
    2b48:	80 91 34 01 	lds	r24, 0x0134
    2b4c:	90 91 35 01 	lds	r25, 0x0135
    2b50:	02 96       	adiw	r24, 0x02	; 2
    2b52:	90 93 35 01 	sts	0x0135, r25
    2b56:	80 93 34 01 	sts	0x0134, r24
    2b5a:	af cd       	rjmp	.-1186   	; 0x26ba <schipp+0x2c>
    2b5c:	e0 2f       	mov	r30, r16
    2b5e:	f0 e0       	ldi	r31, 0x00	; 0
    2b60:	ec 5c       	subi	r30, 0xCC	; 204
    2b62:	fe 4f       	sbci	r31, 0xFE	; 254
    2b64:	85 81       	ldd	r24, Z+5	; 0x05
    2b66:	0e 94 c0 1f 	call	0x3f80	; 0x3f80 <joystick_btn_down>
    2b6a:	81 11       	cpse	r24, r1
    2b6c:	a6 cd       	rjmp	.-1204   	; 0x26ba <schipp+0x2c>
    2b6e:	ec cf       	rjmp	.-40     	; 0x2b48 <schipp+0x4ba>
    2b70:	89 32       	cpi	r24, 0x29	; 41
    2b72:	09 f4       	brne	.+2      	; 0x2b76 <schipp+0x4e8>
    2b74:	6e c0       	rjmp	.+220    	; 0x2c52 <schipp+0x5c4>
    2b76:	18 f5       	brcc	.+70     	; 0x2bbe <schipp+0x530>
    2b78:	85 31       	cpi	r24, 0x15	; 21
    2b7a:	09 f4       	brne	.+2      	; 0x2b7e <schipp+0x4f0>
    2b7c:	58 c0       	rjmp	.+176    	; 0x2c2e <schipp+0x5a0>
    2b7e:	48 f4       	brcc	.+18     	; 0x2b92 <schipp+0x504>
    2b80:	87 30       	cpi	r24, 0x07	; 7
    2b82:	09 f4       	brne	.+2      	; 0x2b86 <schipp+0x4f8>
    2b84:	51 c0       	rjmp	.+162    	; 0x2c28 <schipp+0x59a>
    2b86:	8a 30       	cpi	r24, 0x0A	; 10
    2b88:	09 f0       	breq	.+2      	; 0x2b8c <schipp+0x4fe>
    2b8a:	b1 c0       	rjmp	.+354    	; 0x2cee <schipp+0x660>
    2b8c:	0e 94 c6 1f 	call	0x3f8c	; 0x3f8c <joystick_wait_any>
    2b90:	3e ce       	rjmp	.-900    	; 0x280e <schipp+0x180>
    2b92:	88 31       	cpi	r24, 0x18	; 24
    2b94:	09 f4       	brne	.+2      	; 0x2b98 <schipp+0x50a>
    2b96:	53 c0       	rjmp	.+166    	; 0x2c3e <schipp+0x5b0>
    2b98:	8e 31       	cpi	r24, 0x1E	; 30
    2b9a:	09 f0       	breq	.+2      	; 0x2b9e <schipp+0x510>
    2b9c:	a8 c0       	rjmp	.+336    	; 0x2cee <schipp+0x660>
    2b9e:	e0 2f       	mov	r30, r16
    2ba0:	f0 e0       	ldi	r31, 0x00	; 0
    2ba2:	ec 5c       	subi	r30, 0xCC	; 204
    2ba4:	fe 4f       	sbci	r31, 0xFE	; 254
    2ba6:	25 81       	ldd	r18, Z+5	; 0x05
    2ba8:	80 91 36 01 	lds	r24, 0x0136
    2bac:	90 91 37 01 	lds	r25, 0x0137
    2bb0:	82 0f       	add	r24, r18
    2bb2:	91 1d       	adc	r25, r1
    2bb4:	90 93 37 01 	sts	0x0137, r25
    2bb8:	80 93 36 01 	sts	0x0136, r24
    2bbc:	7e cd       	rjmp	.-1284   	; 0x26ba <schipp+0x2c>
    2bbe:	85 35       	cpi	r24, 0x55	; 85
    2bc0:	09 f4       	brne	.+2      	; 0x2bc4 <schipp+0x536>
    2bc2:	70 c0       	rjmp	.+224    	; 0x2ca4 <schipp+0x616>
    2bc4:	d8 f4       	brcc	.+54     	; 0x2bfc <schipp+0x56e>
    2bc6:	80 33       	cpi	r24, 0x30	; 48
    2bc8:	09 f4       	brne	.+2      	; 0x2bcc <schipp+0x53e>
    2bca:	54 c0       	rjmp	.+168    	; 0x2c74 <schipp+0x5e6>
    2bcc:	83 33       	cpi	r24, 0x33	; 51
    2bce:	09 f0       	breq	.+2      	; 0x2bd2 <schipp+0x544>
    2bd0:	8e c0       	rjmp	.+284    	; 0x2cee <schipp+0x660>
    2bd2:	e0 2f       	mov	r30, r16
    2bd4:	f0 e0       	ldi	r31, 0x00	; 0
    2bd6:	ec 5c       	subi	r30, 0xCC	; 204
    2bd8:	fe 4f       	sbci	r31, 0xFE	; 254
    2bda:	85 81       	ldd	r24, Z+5	; 0x05
    2bdc:	6c 2f       	mov	r22, r28
    2bde:	0e 94 c6 29 	call	0x538c	; 0x538c <__udivmodqi4>
    2be2:	90 93 16 01 	sts	0x0116, r25
    2be6:	0e 94 c6 29 	call	0x538c	; 0x538c <__udivmodqi4>
    2bea:	90 93 15 01 	sts	0x0115, r25
    2bee:	80 93 14 01 	sts	0x0114, r24
    2bf2:	44 e1       	ldi	r20, 0x14	; 20
    2bf4:	51 e0       	ldi	r21, 0x01	; 1
    2bf6:	63 e0       	ldi	r22, 0x03	; 3
    2bf8:	70 e0       	ldi	r23, 0x00	; 0
    2bfa:	5a c0       	rjmp	.+180    	; 0x2cb0 <schipp+0x622>
    2bfc:	85 37       	cpi	r24, 0x75	; 117
    2bfe:	09 f4       	brne	.+2      	; 0x2c02 <schipp+0x574>
    2c00:	5e c0       	rjmp	.+188    	; 0x2cbe <schipp+0x630>
    2c02:	85 38       	cpi	r24, 0x85	; 133
    2c04:	09 f4       	brne	.+2      	; 0x2c08 <schipp+0x57a>
    2c06:	66 c0       	rjmp	.+204    	; 0x2cd4 <schipp+0x646>
    2c08:	85 36       	cpi	r24, 0x65	; 101
    2c0a:	09 f0       	breq	.+2      	; 0x2c0e <schipp+0x580>
    2c0c:	70 c0       	rjmp	.+224    	; 0x2cee <schipp+0x660>
    2c0e:	60 2f       	mov	r22, r16
    2c10:	70 e0       	ldi	r23, 0x00	; 0
    2c12:	6f 5f       	subi	r22, 0xFF	; 255
    2c14:	7f 4f       	sbci	r23, 0xFF	; 255
    2c16:	49 e3       	ldi	r20, 0x39	; 57
    2c18:	51 e0       	ldi	r21, 0x01	; 1
    2c1a:	80 91 36 01 	lds	r24, 0x0136
    2c1e:	90 91 37 01 	lds	r25, 0x0137
    2c22:	0e 94 41 24 	call	0x4882	; 0x4882 <sram_load_block>
    2c26:	49 cd       	rjmp	.-1390   	; 0x26ba <schipp+0x2c>
    2c28:	80 91 77 03 	lds	r24, 0x0377
    2c2c:	f0 cd       	rjmp	.-1056   	; 0x280e <schipp+0x180>
    2c2e:	e0 2f       	mov	r30, r16
    2c30:	f0 e0       	ldi	r31, 0x00	; 0
    2c32:	ec 5c       	subi	r30, 0xCC	; 204
    2c34:	fe 4f       	sbci	r31, 0xFE	; 254
    2c36:	85 81       	ldd	r24, Z+5	; 0x05
    2c38:	80 93 77 03 	sts	0x0377, r24
    2c3c:	3e cd       	rjmp	.-1412   	; 0x26ba <schipp+0x2c>
    2c3e:	e0 2f       	mov	r30, r16
    2c40:	f0 e0       	ldi	r31, 0x00	; 0
    2c42:	ec 5c       	subi	r30, 0xCC	; 204
    2c44:	fe 4f       	sbci	r31, 0xFE	; 254
    2c46:	65 81       	ldd	r22, Z+5	; 0x05
    2c48:	8b e0       	ldi	r24, 0x0B	; 11
    2c4a:	92 e0       	ldi	r25, 0x02	; 2
    2c4c:	0e 94 eb 25 	call	0x4bd6	; 0x4bd6 <tone>
    2c50:	34 cd       	rjmp	.-1432   	; 0x26ba <schipp+0x2c>
    2c52:	e0 2f       	mov	r30, r16
    2c54:	f0 e0       	ldi	r31, 0x00	; 0
    2c56:	ec 5c       	subi	r30, 0xCC	; 204
    2c58:	fe 4f       	sbci	r31, 0xFE	; 254
    2c5a:	85 81       	ldd	r24, Z+5	; 0x05
    2c5c:	26 e0       	ldi	r18, 0x06	; 6
    2c5e:	82 9f       	mul	r24, r18
    2c60:	c0 01       	movw	r24, r0
    2c62:	11 24       	eor	r1, r1
    2c64:	86 5f       	subi	r24, 0xF6	; 246
    2c66:	92 4e       	sbci	r25, 0xE2	; 226
    2c68:	90 93 37 01 	sts	0x0137, r25
    2c6c:	80 93 36 01 	sts	0x0136, r24
    2c70:	80 e0       	ldi	r24, 0x00	; 0
    2c72:	10 c0       	rjmp	.+32     	; 0x2c94 <schipp+0x606>
    2c74:	e0 2f       	mov	r30, r16
    2c76:	f0 e0       	ldi	r31, 0x00	; 0
    2c78:	ec 5c       	subi	r30, 0xCC	; 204
    2c7a:	fe 4f       	sbci	r31, 0xFE	; 254
    2c7c:	85 81       	ldd	r24, Z+5	; 0x05
    2c7e:	ea e0       	ldi	r30, 0x0A	; 10
    2c80:	8e 9f       	mul	r24, r30
    2c82:	c0 01       	movw	r24, r0
    2c84:	11 24       	eor	r1, r1
    2c86:	86 59       	subi	r24, 0x96	; 150
    2c88:	93 4e       	sbci	r25, 0xE3	; 227
    2c8a:	90 93 37 01 	sts	0x0137, r25
    2c8e:	80 93 36 01 	sts	0x0136, r24
    2c92:	81 e0       	ldi	r24, 0x01	; 1
    2c94:	0e 94 92 24 	call	0x4924	; 0x4924 <select_font>
    2c98:	80 91 9b 01 	lds	r24, 0x019B
    2c9c:	8e 7f       	andi	r24, 0xFE	; 254
    2c9e:	80 93 9b 01 	sts	0x019B, r24
    2ca2:	0b cd       	rjmp	.-1514   	; 0x26ba <schipp+0x2c>
    2ca4:	60 2f       	mov	r22, r16
    2ca6:	70 e0       	ldi	r23, 0x00	; 0
    2ca8:	6f 5f       	subi	r22, 0xFF	; 255
    2caa:	7f 4f       	sbci	r23, 0xFF	; 255
    2cac:	49 e3       	ldi	r20, 0x39	; 57
    2cae:	51 e0       	ldi	r21, 0x01	; 1
    2cb0:	80 91 36 01 	lds	r24, 0x0136
    2cb4:	90 91 37 01 	lds	r25, 0x0137
    2cb8:	0e 94 6a 24 	call	0x48d4	; 0x48d4 <sram_store_block>
    2cbc:	fe cc       	rjmp	.-1540   	; 0x26ba <schipp+0x2c>
    2cbe:	80 e0       	ldi	r24, 0x00	; 0
    2cc0:	e8 2f       	mov	r30, r24
    2cc2:	f0 e0       	ldi	r31, 0x00	; 0
    2cc4:	ec 5c       	subi	r30, 0xCC	; 204
    2cc6:	fe 4f       	sbci	r31, 0xFE	; 254
    2cc8:	95 81       	ldd	r25, Z+5	; 0x05
    2cca:	95 8b       	std	Z+21, r25	; 0x15
    2ccc:	8f 5f       	subi	r24, 0xFF	; 255
    2cce:	08 17       	cp	r16, r24
    2cd0:	b8 f7       	brcc	.-18     	; 0x2cc0 <schipp+0x632>
    2cd2:	f3 cc       	rjmp	.-1562   	; 0x26ba <schipp+0x2c>
    2cd4:	80 e0       	ldi	r24, 0x00	; 0
    2cd6:	e8 2f       	mov	r30, r24
    2cd8:	f0 e0       	ldi	r31, 0x00	; 0
    2cda:	ec 5c       	subi	r30, 0xCC	; 204
    2cdc:	fe 4f       	sbci	r31, 0xFE	; 254
    2cde:	95 89       	ldd	r25, Z+21	; 0x15
    2ce0:	95 83       	std	Z+5, r25	; 0x05
    2ce2:	8f 5f       	subi	r24, 0xFF	; 255
    2ce4:	08 17       	cp	r16, r24
    2ce6:	b8 f7       	brcc	.-18     	; 0x2cd6 <schipp+0x648>
    2ce8:	e8 cc       	rjmp	.-1584   	; 0x26ba <schipp+0x2c>
    2cea:	81 e0       	ldi	r24, 0x01	; 1
    2cec:	01 c0       	rjmp	.+2      	; 0x2cf0 <schipp+0x662>
    2cee:	82 e0       	ldi	r24, 0x02	; 2
    2cf0:	df 91       	pop	r29
    2cf2:	cf 91       	pop	r28
    2cf4:	1f 91       	pop	r17
    2cf6:	0f 91       	pop	r16
    2cf8:	ff 90       	pop	r15
    2cfa:	ef 90       	pop	r14
    2cfc:	df 90       	pop	r13
    2cfe:	bf 90       	pop	r11
    2d00:	08 95       	ret

00002d02 <fat_get_next_cluster>:
    2d02:	6f 92       	push	r6
    2d04:	7f 92       	push	r7
    2d06:	8f 92       	push	r8
    2d08:	9f 92       	push	r9
    2d0a:	af 92       	push	r10
    2d0c:	bf 92       	push	r11
    2d0e:	cf 92       	push	r12
    2d10:	df 92       	push	r13
    2d12:	ef 92       	push	r14
    2d14:	ff 92       	push	r15
    2d16:	0f 93       	push	r16
    2d18:	1f 93       	push	r17
    2d1a:	cf 93       	push	r28
    2d1c:	df 93       	push	r29
    2d1e:	00 d0       	rcall	.+0      	; 0x2d20 <fat_get_next_cluster+0x1e>
    2d20:	00 d0       	rcall	.+0      	; 0x2d22 <fat_get_next_cluster+0x20>
    2d22:	cd b7       	in	r28, 0x3d	; 61
    2d24:	de b7       	in	r29, 0x3e	; 62
    2d26:	4c 01       	movw	r8, r24
    2d28:	cb 01       	movw	r24, r22
    2d2a:	ba 01       	movw	r22, r20
    2d2c:	81 14       	cp	r8, r1
    2d2e:	91 04       	cpc	r9, r1
    2d30:	09 f4       	brne	.+2      	; 0x2d34 <fat_get_next_cluster+0x32>
    2d32:	76 c0       	rjmp	.+236    	; 0x2e20 <fat_get_next_cluster+0x11e>
    2d34:	62 30       	cpi	r22, 0x02	; 2
    2d36:	71 05       	cpc	r23, r1
    2d38:	81 05       	cpc	r24, r1
    2d3a:	91 05       	cpc	r25, r1
    2d3c:	08 f4       	brcc	.+2      	; 0x2d40 <fat_get_next_cluster+0x3e>
    2d3e:	70 c0       	rjmp	.+224    	; 0x2e20 <fat_get_next_cluster+0x11e>
    2d40:	d4 01       	movw	r26, r8
    2d42:	ed 91       	ld	r30, X+
    2d44:	fc 91       	ld	r31, X
    2d46:	20 85       	ldd	r18, Z+8	; 0x08
    2d48:	60 80       	ld	r6, Z
    2d4a:	71 80       	ldd	r7, Z+1	; 0x01
    2d4c:	2b 30       	cpi	r18, 0x0B	; 11
    2d4e:	89 f5       	brne	.+98     	; 0x2db2 <fat_get_next_cluster+0xb0>
    2d50:	24 e0       	ldi	r18, 0x04	; 4
    2d52:	30 e0       	ldi	r19, 0x00	; 0
    2d54:	40 e0       	ldi	r20, 0x00	; 0
    2d56:	50 e0       	ldi	r21, 0x00	; 0
    2d58:	0e 94 91 2a 	call	0x5522	; 0x5522 <__umulsidi3>
    2d5c:	f4 01       	movw	r30, r8
    2d5e:	a2 84       	ldd	r10, Z+10	; 0x0a
    2d60:	b3 84       	ldd	r11, Z+11	; 0x0b
    2d62:	c4 84       	ldd	r12, Z+12	; 0x0c
    2d64:	d5 84       	ldd	r13, Z+13	; 0x0d
    2d66:	e6 84       	ldd	r14, Z+14	; 0x0e
    2d68:	f7 84       	ldd	r15, Z+15	; 0x0f
    2d6a:	00 89       	ldd	r16, Z+16	; 0x10
    2d6c:	11 89       	ldd	r17, Z+17	; 0x11
    2d6e:	0e 94 da 2a 	call	0x55b4	; 0x55b4 <__adddi3>
    2d72:	f4 e0       	ldi	r31, 0x04	; 4
    2d74:	ef 2e       	mov	r14, r31
    2d76:	f1 2c       	mov	r15, r1
    2d78:	8e 01       	movw	r16, r28
    2d7a:	0f 5f       	subi	r16, 0xFF	; 255
    2d7c:	1f 4f       	sbci	r17, 0xFF	; 255
    2d7e:	f3 01       	movw	r30, r6
    2d80:	09 95       	icall
    2d82:	88 23       	and	r24, r24
    2d84:	09 f4       	brne	.+2      	; 0x2d88 <fat_get_next_cluster+0x86>
    2d86:	4c c0       	rjmp	.+152    	; 0x2e20 <fat_get_next_cluster+0x11e>
    2d88:	49 81       	ldd	r20, Y+1	; 0x01
    2d8a:	5a 81       	ldd	r21, Y+2	; 0x02
    2d8c:	6b 81       	ldd	r22, Y+3	; 0x03
    2d8e:	7c 81       	ldd	r23, Y+4	; 0x04
    2d90:	41 15       	cp	r20, r1
    2d92:	51 05       	cpc	r21, r1
    2d94:	61 05       	cpc	r22, r1
    2d96:	71 05       	cpc	r23, r1
    2d98:	09 f4       	brne	.+2      	; 0x2d9c <fat_get_next_cluster+0x9a>
    2d9a:	42 c0       	rjmp	.+132    	; 0x2e20 <fat_get_next_cluster+0x11e>
    2d9c:	db 01       	movw	r26, r22
    2d9e:	ca 01       	movw	r24, r20
    2da0:	80 5f       	subi	r24, 0xF0	; 240
    2da2:	9f 4f       	sbci	r25, 0xFF	; 255
    2da4:	af 4f       	sbci	r26, 0xFF	; 255
    2da6:	bf 40       	sbci	r27, 0x0F	; 15
    2da8:	40 97       	sbiw	r24, 0x10	; 16
    2daa:	a1 05       	cpc	r26, r1
    2dac:	b1 05       	cpc	r27, r1
    2dae:	a0 f5       	brcc	.+104    	; 0x2e18 <fat_get_next_cluster+0x116>
    2db0:	37 c0       	rjmp	.+110    	; 0x2e20 <fat_get_next_cluster+0x11e>
    2db2:	22 e0       	ldi	r18, 0x02	; 2
    2db4:	30 e0       	ldi	r19, 0x00	; 0
    2db6:	40 e0       	ldi	r20, 0x00	; 0
    2db8:	50 e0       	ldi	r21, 0x00	; 0
    2dba:	0e 94 91 2a 	call	0x5522	; 0x5522 <__umulsidi3>
    2dbe:	d4 01       	movw	r26, r8
    2dc0:	1a 96       	adiw	r26, 0x0a	; 10
    2dc2:	ac 90       	ld	r10, X
    2dc4:	1a 97       	sbiw	r26, 0x0a	; 10
    2dc6:	1b 96       	adiw	r26, 0x0b	; 11
    2dc8:	bc 90       	ld	r11, X
    2dca:	1b 97       	sbiw	r26, 0x0b	; 11
    2dcc:	1c 96       	adiw	r26, 0x0c	; 12
    2dce:	cc 90       	ld	r12, X
    2dd0:	1c 97       	sbiw	r26, 0x0c	; 12
    2dd2:	1d 96       	adiw	r26, 0x0d	; 13
    2dd4:	dc 90       	ld	r13, X
    2dd6:	1d 97       	sbiw	r26, 0x0d	; 13
    2dd8:	1e 96       	adiw	r26, 0x0e	; 14
    2dda:	ec 90       	ld	r14, X
    2ddc:	1e 97       	sbiw	r26, 0x0e	; 14
    2dde:	1f 96       	adiw	r26, 0x0f	; 15
    2de0:	fc 90       	ld	r15, X
    2de2:	1f 97       	sbiw	r26, 0x0f	; 15
    2de4:	50 96       	adiw	r26, 0x10	; 16
    2de6:	0c 91       	ld	r16, X
    2de8:	50 97       	sbiw	r26, 0x10	; 16
    2dea:	51 96       	adiw	r26, 0x11	; 17
    2dec:	1c 91       	ld	r17, X
    2dee:	0e 94 da 2a 	call	0x55b4	; 0x55b4 <__adddi3>
    2df2:	e2 e0       	ldi	r30, 0x02	; 2
    2df4:	ee 2e       	mov	r14, r30
    2df6:	f1 2c       	mov	r15, r1
    2df8:	8e 01       	movw	r16, r28
    2dfa:	0f 5f       	subi	r16, 0xFF	; 255
    2dfc:	1f 4f       	sbci	r17, 0xFF	; 255
    2dfe:	f3 01       	movw	r30, r6
    2e00:	09 95       	icall
    2e02:	88 23       	and	r24, r24
    2e04:	69 f0       	breq	.+26     	; 0x2e20 <fat_get_next_cluster+0x11e>
    2e06:	89 81       	ldd	r24, Y+1	; 0x01
    2e08:	9a 81       	ldd	r25, Y+2	; 0x02
    2e0a:	ac 01       	movw	r20, r24
    2e0c:	60 e0       	ldi	r22, 0x00	; 0
    2e0e:	70 e0       	ldi	r23, 0x00	; 0
    2e10:	01 97       	sbiw	r24, 0x01	; 1
    2e12:	8f 3e       	cpi	r24, 0xEF	; 239
    2e14:	9f 4f       	sbci	r25, 0xFF	; 255
    2e16:	20 f4       	brcc	.+8      	; 0x2e20 <fat_get_next_cluster+0x11e>
    2e18:	34 2f       	mov	r19, r20
    2e1a:	25 2f       	mov	r18, r21
    2e1c:	cb 01       	movw	r24, r22
    2e1e:	04 c0       	rjmp	.+8      	; 0x2e28 <fat_get_next_cluster+0x126>
    2e20:	30 e0       	ldi	r19, 0x00	; 0
    2e22:	20 e0       	ldi	r18, 0x00	; 0
    2e24:	80 e0       	ldi	r24, 0x00	; 0
    2e26:	90 e0       	ldi	r25, 0x00	; 0
    2e28:	63 2f       	mov	r22, r19
    2e2a:	72 2f       	mov	r23, r18
    2e2c:	0f 90       	pop	r0
    2e2e:	0f 90       	pop	r0
    2e30:	0f 90       	pop	r0
    2e32:	0f 90       	pop	r0
    2e34:	df 91       	pop	r29
    2e36:	cf 91       	pop	r28
    2e38:	1f 91       	pop	r17
    2e3a:	0f 91       	pop	r16
    2e3c:	ff 90       	pop	r15
    2e3e:	ef 90       	pop	r14
    2e40:	df 90       	pop	r13
    2e42:	cf 90       	pop	r12
    2e44:	bf 90       	pop	r11
    2e46:	af 90       	pop	r10
    2e48:	9f 90       	pop	r9
    2e4a:	8f 90       	pop	r8
    2e4c:	7f 90       	pop	r7
    2e4e:	6f 90       	pop	r6
    2e50:	08 95       	ret

00002e52 <fat_dir_entry_read_callback>:
    2e52:	8f 92       	push	r8
    2e54:	9f 92       	push	r9
    2e56:	af 92       	push	r10
    2e58:	bf 92       	push	r11
    2e5a:	cf 92       	push	r12
    2e5c:	df 92       	push	r13
    2e5e:	ef 92       	push	r14
    2e60:	ff 92       	push	r15
    2e62:	0f 93       	push	r16
    2e64:	1f 93       	push	r17
    2e66:	cf 93       	push	r28
    2e68:	df 93       	push	r29
    2e6a:	6c 01       	movw	r12, r24
    2e6c:	d7 01       	movw	r26, r14
    2e6e:	cd 91       	ld	r28, X+
    2e70:	dc 91       	ld	r29, X
    2e72:	11 97       	sbiw	r26, 0x01	; 1
    2e74:	12 96       	adiw	r26, 0x02	; 2
    2e76:	8d 91       	ld	r24, X+
    2e78:	9c 91       	ld	r25, X
    2e7a:	13 97       	sbiw	r26, 0x03	; 3
    2e7c:	80 96       	adiw	r24, 0x20	; 32
    2e7e:	13 96       	adiw	r26, 0x03	; 3
    2e80:	9c 93       	st	X, r25
    2e82:	8e 93       	st	-X, r24
    2e84:	12 97       	sbiw	r26, 0x02	; 2
    2e86:	f6 01       	movw	r30, r12
    2e88:	80 81       	ld	r24, Z
    2e8a:	85 3e       	cpi	r24, 0xE5	; 229
    2e8c:	09 f4       	brne	.+2      	; 0x2e90 <fat_dir_entry_read_callback+0x3e>
    2e8e:	8b c0       	rjmp	.+278    	; 0x2fa6 <fat_dir_entry_read_callback+0x154>
    2e90:	88 23       	and	r24, r24
    2e92:	09 f4       	brne	.+2      	; 0x2e96 <fat_dir_entry_read_callback+0x44>
    2e94:	88 c0       	rjmp	.+272    	; 0x2fa6 <fat_dir_entry_read_callback+0x154>
    2e96:	83 85       	ldd	r24, Z+11	; 0x0b
    2e98:	8f 30       	cpi	r24, 0x0F	; 15
    2e9a:	09 f4       	brne	.+2      	; 0x2e9e <fat_dir_entry_read_callback+0x4c>
    2e9c:	84 c0       	rjmp	.+264    	; 0x2fa6 <fat_dir_entry_read_callback+0x154>
    2e9e:	81 e3       	ldi	r24, 0x31	; 49
    2ea0:	de 01       	movw	r26, r28
    2ea2:	1d 92       	st	X+, r1
    2ea4:	8a 95       	dec	r24
    2ea6:	e9 f7       	brne	.-6      	; 0x2ea2 <fat_dir_entry_read_callback+0x50>
    2ea8:	09 a7       	std	Y+41, r16	; 0x29
    2eaa:	1a a7       	std	Y+42, r17	; 0x2a
    2eac:	2b a7       	std	Y+43, r18	; 0x2b
    2eae:	3c a7       	std	Y+44, r19	; 0x2c
    2eb0:	4d a7       	std	Y+45, r20	; 0x2d
    2eb2:	5e a7       	std	Y+46, r21	; 0x2e
    2eb4:	6f a7       	std	Y+47, r22	; 0x2f
    2eb6:	78 ab       	std	Y+48, r23	; 0x30
    2eb8:	d6 01       	movw	r26, r12
    2eba:	ae 01       	movw	r20, r28
    2ebc:	80 e0       	ldi	r24, 0x00	; 0
    2ebe:	9c 91       	ld	r25, X
    2ec0:	90 32       	cpi	r25, 0x20	; 32
    2ec2:	99 f0       	breq	.+38     	; 0x2eea <fat_dir_entry_read_callback+0x98>
    2ec4:	fa 01       	movw	r30, r20
    2ec6:	90 83       	st	Z, r25
    2ec8:	f6 01       	movw	r30, r12
    2eca:	24 85       	ldd	r18, Z+12	; 0x0c
    2ecc:	23 ff       	sbrs	r18, 3
    2ece:	07 c0       	rjmp	.+14     	; 0x2ede <fat_dir_entry_read_callback+0x8c>
    2ed0:	2c 91       	ld	r18, X
    2ed2:	21 54       	subi	r18, 0x41	; 65
    2ed4:	2a 31       	cpi	r18, 0x1A	; 26
    2ed6:	18 f4       	brcc	.+6      	; 0x2ede <fat_dir_entry_read_callback+0x8c>
    2ed8:	90 5e       	subi	r25, 0xE0	; 224
    2eda:	fa 01       	movw	r30, r20
    2edc:	90 83       	st	Z, r25
    2ede:	8f 5f       	subi	r24, 0xFF	; 255
    2ee0:	11 96       	adiw	r26, 0x01	; 1
    2ee2:	4f 5f       	subi	r20, 0xFF	; 255
    2ee4:	5f 4f       	sbci	r21, 0xFF	; 255
    2ee6:	88 30       	cpi	r24, 0x08	; 8
    2ee8:	51 f7       	brne	.-44     	; 0x2ebe <fat_dir_entry_read_callback+0x6c>
    2eea:	98 81       	ld	r25, Y
    2eec:	95 30       	cpi	r25, 0x05	; 5
    2eee:	11 f4       	brne	.+4      	; 0x2ef4 <fat_dir_entry_read_callback+0xa2>
    2ef0:	95 ee       	ldi	r25, 0xE5	; 229
    2ef2:	98 83       	st	Y, r25
    2ef4:	d6 01       	movw	r26, r12
    2ef6:	18 96       	adiw	r26, 0x08	; 8
    2ef8:	9c 91       	ld	r25, X
    2efa:	90 32       	cpi	r25, 0x20	; 32
    2efc:	11 f1       	breq	.+68     	; 0x2f42 <fat_dir_entry_read_callback+0xf0>
    2efe:	fe 01       	movw	r30, r28
    2f00:	e8 0f       	add	r30, r24
    2f02:	f1 1d       	adc	r31, r1
    2f04:	9e e2       	ldi	r25, 0x2E	; 46
    2f06:	90 83       	st	Z, r25
    2f08:	f6 01       	movw	r30, r12
    2f0a:	38 96       	adiw	r30, 0x08	; 8
    2f0c:	34 e0       	ldi	r19, 0x04	; 4
    2f0e:	38 0f       	add	r19, r24
    2f10:	8f 5f       	subi	r24, 0xFF	; 255
    2f12:	90 81       	ld	r25, Z
    2f14:	90 32       	cpi	r25, 0x20	; 32
    2f16:	a9 f0       	breq	.+42     	; 0x2f42 <fat_dir_entry_read_callback+0xf0>
    2f18:	ae 01       	movw	r20, r28
    2f1a:	48 0f       	add	r20, r24
    2f1c:	51 1d       	adc	r21, r1
    2f1e:	da 01       	movw	r26, r20
    2f20:	9c 93       	st	X, r25
    2f22:	d6 01       	movw	r26, r12
    2f24:	1c 96       	adiw	r26, 0x0c	; 12
    2f26:	2c 91       	ld	r18, X
    2f28:	24 ff       	sbrs	r18, 4
    2f2a:	07 c0       	rjmp	.+14     	; 0x2f3a <fat_dir_entry_read_callback+0xe8>
    2f2c:	20 81       	ld	r18, Z
    2f2e:	21 54       	subi	r18, 0x41	; 65
    2f30:	2a 31       	cpi	r18, 0x1A	; 26
    2f32:	18 f4       	brcc	.+6      	; 0x2f3a <fat_dir_entry_read_callback+0xe8>
    2f34:	90 5e       	subi	r25, 0xE0	; 224
    2f36:	da 01       	movw	r26, r20
    2f38:	9c 93       	st	X, r25
    2f3a:	8f 5f       	subi	r24, 0xFF	; 255
    2f3c:	31 96       	adiw	r30, 0x01	; 1
    2f3e:	83 13       	cpse	r24, r19
    2f40:	e8 cf       	rjmp	.-48     	; 0x2f12 <fat_dir_entry_read_callback+0xc0>
    2f42:	fe 01       	movw	r30, r28
    2f44:	e8 0f       	add	r30, r24
    2f46:	f1 1d       	adc	r31, r1
    2f48:	10 82       	st	Z, r1
    2f4a:	f6 01       	movw	r30, r12
    2f4c:	83 85       	ldd	r24, Z+11	; 0x0b
    2f4e:	88 a3       	std	Y+32, r24	; 0x20
    2f50:	c6 01       	movw	r24, r12
    2f52:	4a 96       	adiw	r24, 0x1a	; 26
    2f54:	0e 94 30 10 	call	0x2060	; 0x2060 <read16>
    2f58:	4c 01       	movw	r8, r24
    2f5a:	a1 2c       	mov	r10, r1
    2f5c:	b1 2c       	mov	r11, r1
    2f5e:	89 a2       	std	Y+33, r8	; 0x21
    2f60:	9a a2       	std	Y+34, r9	; 0x22
    2f62:	ab a2       	std	Y+35, r10	; 0x23
    2f64:	bc a2       	std	Y+36, r11	; 0x24
    2f66:	c6 01       	movw	r24, r12
    2f68:	44 96       	adiw	r24, 0x14	; 20
    2f6a:	0e 94 30 10 	call	0x2060	; 0x2060 <read16>
    2f6e:	ac 01       	movw	r20, r24
    2f70:	60 e0       	ldi	r22, 0x00	; 0
    2f72:	70 e0       	ldi	r23, 0x00	; 0
    2f74:	ba 01       	movw	r22, r20
    2f76:	55 27       	eor	r21, r21
    2f78:	44 27       	eor	r20, r20
    2f7a:	48 29       	or	r20, r8
    2f7c:	59 29       	or	r21, r9
    2f7e:	6a 29       	or	r22, r10
    2f80:	7b 29       	or	r23, r11
    2f82:	49 a3       	std	Y+33, r20	; 0x21
    2f84:	5a a3       	std	Y+34, r21	; 0x22
    2f86:	6b a3       	std	Y+35, r22	; 0x23
    2f88:	7c a3       	std	Y+36, r23	; 0x24
    2f8a:	c6 01       	movw	r24, r12
    2f8c:	4c 96       	adiw	r24, 0x1c	; 28
    2f8e:	0e 94 38 10 	call	0x2070	; 0x2070 <read32>
    2f92:	6d a3       	std	Y+37, r22	; 0x25
    2f94:	7e a3       	std	Y+38, r23	; 0x26
    2f96:	8f a3       	std	Y+39, r24	; 0x27
    2f98:	98 a7       	std	Y+40, r25	; 0x28
    2f9a:	81 e0       	ldi	r24, 0x01	; 1
    2f9c:	d7 01       	movw	r26, r14
    2f9e:	14 96       	adiw	r26, 0x04	; 4
    2fa0:	8c 93       	st	X, r24
    2fa2:	80 e0       	ldi	r24, 0x00	; 0
    2fa4:	01 c0       	rjmp	.+2      	; 0x2fa8 <fat_dir_entry_read_callback+0x156>
    2fa6:	81 e0       	ldi	r24, 0x01	; 1
    2fa8:	df 91       	pop	r29
    2faa:	cf 91       	pop	r28
    2fac:	1f 91       	pop	r17
    2fae:	0f 91       	pop	r16
    2fb0:	ff 90       	pop	r15
    2fb2:	ef 90       	pop	r14
    2fb4:	df 90       	pop	r13
    2fb6:	cf 90       	pop	r12
    2fb8:	bf 90       	pop	r11
    2fba:	af 90       	pop	r10
    2fbc:	9f 90       	pop	r9
    2fbe:	8f 90       	pop	r8
    2fc0:	08 95       	ret

00002fc2 <fat_open>:
    2fc2:	2f 92       	push	r2
    2fc4:	3f 92       	push	r3
    2fc6:	4f 92       	push	r4
    2fc8:	5f 92       	push	r5
    2fca:	6f 92       	push	r6
    2fcc:	7f 92       	push	r7
    2fce:	8f 92       	push	r8
    2fd0:	9f 92       	push	r9
    2fd2:	af 92       	push	r10
    2fd4:	bf 92       	push	r11
    2fd6:	cf 92       	push	r12
    2fd8:	df 92       	push	r13
    2fda:	ef 92       	push	r14
    2fdc:	ff 92       	push	r15
    2fde:	0f 93       	push	r16
    2fe0:	1f 93       	push	r17
    2fe2:	cf 93       	push	r28
    2fe4:	df 93       	push	r29
    2fe6:	cd b7       	in	r28, 0x3d	; 61
    2fe8:	de b7       	in	r29, 0x3e	; 62
    2fea:	c9 54       	subi	r28, 0x49	; 73
    2fec:	d1 09       	sbc	r29, r1
    2fee:	0f b6       	in	r0, 0x3f	; 63
    2ff0:	f8 94       	cli
    2ff2:	de bf       	out	0x3e, r29	; 62
    2ff4:	0f be       	out	0x3f, r0	; 63
    2ff6:	cd bf       	out	0x3d, r28	; 61
    2ff8:	9f a3       	std	Y+39, r25	; 0x27
    2ffa:	8e a3       	std	Y+38, r24	; 0x26
    2ffc:	89 2b       	or	r24, r25
    2ffe:	09 f4       	brne	.+2      	; 0x3002 <fat_open+0x40>
    3000:	0f c2       	rjmp	.+1054   	; 0x3420 <fat_open+0x45e>
    3002:	80 91 c5 02 	lds	r24, 0x02C5
    3006:	90 91 c6 02 	lds	r25, 0x02C6
    300a:	89 2b       	or	r24, r25
    300c:	09 f0       	breq	.+2      	; 0x3010 <fat_open+0x4e>
    300e:	08 c2       	rjmp	.+1040   	; 0x3420 <fat_open+0x45e>
    3010:	e5 ec       	ldi	r30, 0xC5	; 197
    3012:	f2 e0       	ldi	r31, 0x02	; 2
    3014:	82 e3       	ldi	r24, 0x32	; 50
    3016:	df 01       	movw	r26, r30
    3018:	1d 92       	st	X+, r1
    301a:	8a 95       	dec	r24
    301c:	e9 f7       	brne	.-6      	; 0x3018 <fat_open+0x56>
    301e:	ee a1       	ldd	r30, Y+38	; 0x26
    3020:	ff a1       	ldd	r31, Y+39	; 0x27
    3022:	f0 93 c6 02 	sts	0x02C6, r31
    3026:	e0 93 c5 02 	sts	0x02C5, r30
    302a:	61 85       	ldd	r22, Z+9	; 0x09
    302c:	72 85       	ldd	r23, Z+10	; 0x0a
    302e:	83 85       	ldd	r24, Z+11	; 0x0b
    3030:	94 85       	ldd	r25, Z+12	; 0x0c
    3032:	20 e0       	ldi	r18, 0x00	; 0
    3034:	32 e0       	ldi	r19, 0x02	; 2
    3036:	40 e0       	ldi	r20, 0x00	; 0
    3038:	50 e0       	ldi	r21, 0x00	; 0
    303a:	0e 94 91 2a 	call	0x5522	; 0x5522 <__umulsidi3>
    303e:	32 2e       	mov	r3, r18
    3040:	23 2e       	mov	r2, r19
    3042:	6a 01       	movw	r12, r20
    3044:	68 ab       	std	Y+48, r22	; 0x30
    3046:	79 ab       	std	Y+49, r23	; 0x31
    3048:	8a ab       	std	Y+50, r24	; 0x32
    304a:	9b ab       	std	Y+51, r25	; 0x33
    304c:	ab e0       	ldi	r26, 0x0B	; 11
    304e:	0e 94 e3 2a 	call	0x55c6	; 0x55c6 <__adddi3_s8>
    3052:	ae a1       	ldd	r26, Y+38	; 0x26
    3054:	bf a1       	ldd	r27, Y+39	; 0x27
    3056:	ed 91       	ld	r30, X+
    3058:	fc 91       	ld	r31, X
    305a:	b5 e2       	ldi	r27, 0x25	; 37
    305c:	eb 2e       	mov	r14, r27
    305e:	f1 2c       	mov	r15, r1
    3060:	8e 01       	movw	r16, r28
    3062:	0f 5f       	subi	r16, 0xFF	; 255
    3064:	1f 4f       	sbci	r17, 0xFF	; 255
    3066:	09 95       	icall
    3068:	81 11       	cpse	r24, r1
    306a:	05 c0       	rjmp	.+10     	; 0x3076 <fat_open+0xb4>
    306c:	10 92 c6 02 	sts	0x02C6, r1
    3070:	10 92 c5 02 	sts	0x02C5, r1
    3074:	d5 c1       	rjmp	.+938    	; 0x3420 <fat_open+0x45e>
    3076:	ce 01       	movw	r24, r28
    3078:	01 96       	adiw	r24, 0x01	; 1
    307a:	0e 94 30 10 	call	0x2060	; 0x2060 <read16>
    307e:	9f a7       	std	Y+47, r25	; 0x2f
    3080:	8e a7       	std	Y+46, r24	; 0x2e
    3082:	ce 01       	movw	r24, r28
    3084:	04 96       	adiw	r24, 0x04	; 4
    3086:	0e 94 30 10 	call	0x2060	; 0x2060 <read16>
    308a:	8c 01       	movw	r16, r24
    308c:	ab 80       	ldd	r10, Y+3	; 0x03
    308e:	ae ae       	std	Y+62, r10	; 0x3e
    3090:	be 80       	ldd	r11, Y+6	; 0x06
    3092:	bf ae       	std	Y+63, r11	; 0x3f
    3094:	ce 01       	movw	r24, r28
    3096:	07 96       	adiw	r24, 0x07	; 7
    3098:	0e 94 30 10 	call	0x2060	; 0x2060 <read16>
    309c:	22 96       	adiw	r28, 0x02	; 2
    309e:	9f af       	std	Y+63, r25	; 0x3f
    30a0:	8e af       	std	Y+62, r24	; 0x3e
    30a2:	22 97       	sbiw	r28, 0x02	; 2
    30a4:	ce 01       	movw	r24, r28
    30a6:	09 96       	adiw	r24, 0x09	; 9
    30a8:	0e 94 30 10 	call	0x2060	; 0x2060 <read16>
    30ac:	3c 01       	movw	r6, r24
    30ae:	ce 01       	movw	r24, r28
    30b0:	0c 96       	adiw	r24, 0x0c	; 12
    30b2:	0e 94 30 10 	call	0x2060	; 0x2060 <read16>
    30b6:	99 af       	std	Y+57, r25	; 0x39
    30b8:	88 af       	std	Y+56, r24	; 0x38
    30ba:	ce 01       	movw	r24, r28
    30bc:	46 96       	adiw	r24, 0x16	; 22
    30be:	0e 94 38 10 	call	0x2070	; 0x2070 <read32>
    30c2:	4b 01       	movw	r8, r22
    30c4:	5c 01       	movw	r10, r24
    30c6:	ce 01       	movw	r24, r28
    30c8:	4a 96       	adiw	r24, 0x1a	; 26
    30ca:	0e 94 38 10 	call	0x2070	; 0x2070 <read32>
    30ce:	6c ab       	std	Y+52, r22	; 0x34
    30d0:	7d ab       	std	Y+53, r23	; 0x35
    30d2:	8e ab       	std	Y+54, r24	; 0x36
    30d4:	9f ab       	std	Y+55, r25	; 0x37
    30d6:	ce 01       	movw	r24, r28
    30d8:	82 96       	adiw	r24, 0x22	; 34
    30da:	0e 94 38 10 	call	0x2070	; 0x2070 <read32>
    30de:	2a 96       	adiw	r28, 0x0a	; 10
    30e0:	6c af       	std	Y+60, r22	; 0x3c
    30e2:	7d af       	std	Y+61, r23	; 0x3d
    30e4:	8e af       	std	Y+62, r24	; 0x3e
    30e6:	9f af       	std	Y+63, r25	; 0x3f
    30e8:	2a 97       	sbiw	r28, 0x0a	; 10
    30ea:	81 14       	cp	r8, r1
    30ec:	91 04       	cpc	r9, r1
    30ee:	a1 04       	cpc	r10, r1
    30f0:	b1 04       	cpc	r11, r1
    30f2:	39 f4       	brne	.+14     	; 0x3102 <fat_open+0x140>
    30f4:	61 14       	cp	r6, r1
    30f6:	71 04       	cpc	r7, r1
    30f8:	09 f4       	brne	.+2      	; 0x30fc <fat_open+0x13a>
    30fa:	b8 cf       	rjmp	.-144    	; 0x306c <fat_open+0xaa>
    30fc:	43 01       	movw	r8, r6
    30fe:	a1 2c       	mov	r10, r1
    3100:	b1 2c       	mov	r11, r1
    3102:	e8 ac       	ldd	r14, Y+56	; 0x38
    3104:	f9 ac       	ldd	r15, Y+57	; 0x39
    3106:	e1 14       	cp	r14, r1
    3108:	f1 04       	cpc	r15, r1
    310a:	41 f0       	breq	.+16     	; 0x311c <fat_open+0x15a>
    310c:	c7 01       	movw	r24, r14
    310e:	a0 e0       	ldi	r26, 0x00	; 0
    3110:	b0 e0       	ldi	r27, 0x00	; 0
    3112:	8c ab       	std	Y+52, r24	; 0x34
    3114:	9d ab       	std	Y+53, r25	; 0x35
    3116:	ae ab       	std	Y+54, r26	; 0x36
    3118:	bf ab       	std	Y+55, r27	; 0x37
    311a:	09 c0       	rjmp	.+18     	; 0x312e <fat_open+0x16c>
    311c:	8c a9       	ldd	r24, Y+52	; 0x34
    311e:	9d a9       	ldd	r25, Y+53	; 0x35
    3120:	ae a9       	ldd	r26, Y+54	; 0x36
    3122:	bf a9       	ldd	r27, Y+55	; 0x37
    3124:	89 2b       	or	r24, r25
    3126:	8a 2b       	or	r24, r26
    3128:	8b 2b       	or	r24, r27
    312a:	09 f4       	brne	.+2      	; 0x312e <fat_open+0x16c>
    312c:	9f cf       	rjmp	.-194    	; 0x306c <fat_open+0xaa>
    312e:	24 01       	movw	r4, r8
    3130:	35 01       	movw	r6, r10
    3132:	40 1a       	sub	r4, r16
    3134:	51 0a       	sbc	r5, r17
    3136:	61 08       	sbc	r6, r1
    3138:	71 08       	sbc	r7, r1
    313a:	9f ad       	ldd	r25, Y+63	; 0x3f
    313c:	89 2f       	mov	r24, r25
    313e:	90 e0       	ldi	r25, 0x00	; 0
    3140:	a0 e0       	ldi	r26, 0x00	; 0
    3142:	b0 e0       	ldi	r27, 0x00	; 0
    3144:	26 96       	adiw	r28, 0x06	; 6
    3146:	8c af       	std	Y+60, r24	; 0x3c
    3148:	9d af       	std	Y+61, r25	; 0x3d
    314a:	ae af       	std	Y+62, r26	; 0x3e
    314c:	bf af       	std	Y+63, r27	; 0x3f
    314e:	26 97       	sbiw	r28, 0x06	; 6
    3150:	2c a9       	ldd	r18, Y+52	; 0x34
    3152:	3d a9       	ldd	r19, Y+53	; 0x35
    3154:	4e a9       	ldd	r20, Y+54	; 0x36
    3156:	5f a9       	ldd	r21, Y+55	; 0x37
    3158:	bc 01       	movw	r22, r24
    315a:	cd 01       	movw	r24, r26
    315c:	0e 94 b6 29 	call	0x536c	; 0x536c <__mulsi3>
    3160:	46 1a       	sub	r4, r22
    3162:	57 0a       	sbc	r5, r23
    3164:	68 0a       	sbc	r6, r24
    3166:	79 0a       	sbc	r7, r25
    3168:	8e a5       	ldd	r24, Y+46	; 0x2e
    316a:	9f a5       	ldd	r25, Y+47	; 0x2f
    316c:	01 97       	sbiw	r24, 0x01	; 1
    316e:	22 96       	adiw	r28, 0x02	; 2
    3170:	2e ad       	ldd	r18, Y+62	; 0x3e
    3172:	3f ad       	ldd	r19, Y+63	; 0x3f
    3174:	22 97       	sbiw	r28, 0x02	; 2
    3176:	45 e0       	ldi	r20, 0x05	; 5
    3178:	22 0f       	add	r18, r18
    317a:	33 1f       	adc	r19, r19
    317c:	4a 95       	dec	r20
    317e:	e1 f7       	brne	.-8      	; 0x3178 <fat_open+0x1b6>
    3180:	82 0f       	add	r24, r18
    3182:	93 1f       	adc	r25, r19
    3184:	6e a5       	ldd	r22, Y+46	; 0x2e
    3186:	7f a5       	ldd	r23, Y+47	; 0x2f
    3188:	0e 94 d2 29 	call	0x53a4	; 0x53a4 <__udivmodhi4>
    318c:	46 1a       	sub	r4, r22
    318e:	57 0a       	sbc	r5, r23
    3190:	61 08       	sbc	r6, r1
    3192:	71 08       	sbc	r7, r1
    3194:	ae ad       	ldd	r26, Y+62	; 0x3e
    3196:	2a 2f       	mov	r18, r26
    3198:	30 e0       	ldi	r19, 0x00	; 0
    319a:	40 e0       	ldi	r20, 0x00	; 0
    319c:	50 e0       	ldi	r21, 0x00	; 0
    319e:	c3 01       	movw	r24, r6
    31a0:	b2 01       	movw	r22, r4
    31a2:	0e 94 e6 29 	call	0x53cc	; 0x53cc <__udivmodsi4>
    31a6:	2a af       	std	Y+58, r18	; 0x3a
    31a8:	3b af       	std	Y+59, r19	; 0x3b
    31aa:	4c af       	std	Y+60, r20	; 0x3c
    31ac:	5d af       	std	Y+61, r21	; 0x3d
    31ae:	25 3f       	cpi	r18, 0xF5	; 245
    31b0:	bf e0       	ldi	r27, 0x0F	; 15
    31b2:	3b 07       	cpc	r19, r27
    31b4:	41 05       	cpc	r20, r1
    31b6:	51 05       	cpc	r21, r1
    31b8:	08 f4       	brcc	.+2      	; 0x31bc <fat_open+0x1fa>
    31ba:	58 cf       	rjmp	.-336    	; 0x306c <fat_open+0xaa>
    31bc:	25 3f       	cpi	r18, 0xF5	; 245
    31be:	3f 4f       	sbci	r19, 0xFF	; 255
    31c0:	41 05       	cpc	r20, r1
    31c2:	51 05       	cpc	r21, r1
    31c4:	30 f4       	brcc	.+12     	; 0x31d2 <fat_open+0x210>
    31c6:	86 e0       	ldi	r24, 0x06	; 6
    31c8:	ae a1       	ldd	r26, Y+38	; 0x26
    31ca:	bf a1       	ldd	r27, Y+39	; 0x27
    31cc:	18 96       	adiw	r26, 0x08	; 8
    31ce:	8c 93       	st	X, r24
    31d0:	04 c0       	rjmp	.+8      	; 0x31da <fat_open+0x218>
    31d2:	8b e0       	ldi	r24, 0x0B	; 11
    31d4:	ee a1       	ldd	r30, Y+38	; 0x26
    31d6:	ff a1       	ldd	r31, Y+39	; 0x27
    31d8:	80 87       	std	Z+8, r24	; 0x08
    31da:	8c e2       	ldi	r24, 0x2C	; 44
    31dc:	e7 ec       	ldi	r30, 0xC7	; 199
    31de:	f2 e0       	ldi	r31, 0x02	; 2
    31e0:	df 01       	movw	r26, r30
    31e2:	1d 92       	st	X+, r1
    31e4:	8a 95       	dec	r24
    31e6:	e9 f7       	brne	.-6      	; 0x31e2 <fat_open+0x220>
    31e8:	ee a5       	ldd	r30, Y+46	; 0x2e
    31ea:	ff a5       	ldd	r31, Y+47	; 0x2f
    31ec:	2f 01       	movw	r4, r30
    31ee:	61 2c       	mov	r6, r1
    31f0:	71 2c       	mov	r7, r1
    31f2:	c5 01       	movw	r24, r10
    31f4:	b4 01       	movw	r22, r8
    31f6:	a3 01       	movw	r20, r6
    31f8:	92 01       	movw	r18, r4
    31fa:	0e 94 91 2a 	call	0x5522	; 0x5522 <__umulsidi3>
    31fe:	20 93 c7 02 	sts	0x02C7, r18
    3202:	30 93 c8 02 	sts	0x02C8, r19
    3206:	40 93 c9 02 	sts	0x02C9, r20
    320a:	50 93 ca 02 	sts	0x02CA, r21
    320e:	60 93 cb 02 	sts	0x02CB, r22
    3212:	70 93 cc 02 	sts	0x02CC, r23
    3216:	80 93 cd 02 	sts	0x02CD, r24
    321a:	90 93 ce 02 	sts	0x02CE, r25
    321e:	b8 01       	movw	r22, r16
    3220:	80 e0       	ldi	r24, 0x00	; 0
    3222:	90 e0       	ldi	r25, 0x00	; 0
    3224:	a3 01       	movw	r20, r6
    3226:	92 01       	movw	r18, r4
    3228:	0e 94 91 2a 	call	0x5522	; 0x5522 <__umulsidi3>
    322c:	a3 2c       	mov	r10, r3
    322e:	b2 2c       	mov	r11, r2
    3230:	e8 a8       	ldd	r14, Y+48	; 0x30
    3232:	f9 a8       	ldd	r15, Y+49	; 0x31
    3234:	0a a9       	ldd	r16, Y+50	; 0x32
    3236:	1b a9       	ldd	r17, Y+51	; 0x33
    3238:	0e 94 da 2a 	call	0x55b4	; 0x55b4 <__adddi3>
    323c:	28 ab       	std	Y+48, r18	; 0x30
    323e:	39 ab       	std	Y+49, r19	; 0x31
    3240:	4a ab       	std	Y+50, r20	; 0x32
    3242:	5b ab       	std	Y+51, r21	; 0x33
    3244:	1b 01       	movw	r2, r22
    3246:	4c 01       	movw	r8, r24
    3248:	20 93 cf 02 	sts	0x02CF, r18
    324c:	30 93 d0 02 	sts	0x02D0, r19
    3250:	40 93 d1 02 	sts	0x02D1, r20
    3254:	50 93 d2 02 	sts	0x02D2, r21
    3258:	60 93 d3 02 	sts	0x02D3, r22
    325c:	30 92 d4 02 	sts	0x02D4, r3
    3260:	80 93 d5 02 	sts	0x02D5, r24
    3264:	90 92 d6 02 	sts	0x02D6, r9
    3268:	6a ad       	ldd	r22, Y+58	; 0x3a
    326a:	7b ad       	ldd	r23, Y+59	; 0x3b
    326c:	8c ad       	ldd	r24, Y+60	; 0x3c
    326e:	9d ad       	ldd	r25, Y+61	; 0x3d
    3270:	6e 5f       	subi	r22, 0xFE	; 254
    3272:	7f 4f       	sbci	r23, 0xFF	; 255
    3274:	8f 4f       	sbci	r24, 0xFF	; 255
    3276:	9f 4f       	sbci	r25, 0xFF	; 255
    3278:	ae a1       	ldd	r26, Y+38	; 0x26
    327a:	bf a1       	ldd	r27, Y+39	; 0x27
    327c:	18 96       	adiw	r26, 0x08	; 8
    327e:	2c 91       	ld	r18, X
    3280:	26 30       	cpi	r18, 0x06	; 6
    3282:	29 f4       	brne	.+10     	; 0x328e <fat_open+0x2cc>
    3284:	22 e0       	ldi	r18, 0x02	; 2
    3286:	30 e0       	ldi	r19, 0x00	; 0
    3288:	40 e0       	ldi	r20, 0x00	; 0
    328a:	50 e0       	ldi	r21, 0x00	; 0
    328c:	04 c0       	rjmp	.+8      	; 0x3296 <fat_open+0x2d4>
    328e:	24 e0       	ldi	r18, 0x04	; 4
    3290:	30 e0       	ldi	r19, 0x00	; 0
    3292:	40 e0       	ldi	r20, 0x00	; 0
    3294:	50 e0       	ldi	r21, 0x00	; 0
    3296:	0e 94 b6 29 	call	0x536c	; 0x536c <__mulsi3>
    329a:	60 93 d7 02 	sts	0x02D7, r22
    329e:	70 93 d8 02 	sts	0x02D8, r23
    32a2:	80 93 d9 02 	sts	0x02D9, r24
    32a6:	90 93 da 02 	sts	0x02DA, r25
    32aa:	ee a5       	ldd	r30, Y+46	; 0x2e
    32ac:	ff a5       	ldd	r31, Y+47	; 0x2f
    32ae:	f0 93 dc 02 	sts	0x02DC, r31
    32b2:	e0 93 db 02 	sts	0x02DB, r30
    32b6:	ae ac       	ldd	r10, Y+62	; 0x3e
    32b8:	ae 9e       	mul	r10, r30
    32ba:	c0 01       	movw	r24, r0
    32bc:	af 9e       	mul	r10, r31
    32be:	90 0d       	add	r25, r0
    32c0:	11 24       	eor	r1, r1
    32c2:	90 93 de 02 	sts	0x02DE, r25
    32c6:	80 93 dd 02 	sts	0x02DD, r24
    32ca:	ae a1       	ldd	r26, Y+38	; 0x26
    32cc:	bf a1       	ldd	r27, Y+39	; 0x27
    32ce:	18 96       	adiw	r26, 0x08	; 8
    32d0:	8c 91       	ld	r24, X
    32d2:	86 30       	cpi	r24, 0x06	; 6
    32d4:	09 f0       	breq	.+2      	; 0x32d8 <fat_open+0x316>
    32d6:	57 c0       	rjmp	.+174    	; 0x3386 <fat_open+0x3c4>
    32d8:	e8 ad       	ldd	r30, Y+56	; 0x38
    32da:	f9 ad       	ldd	r31, Y+57	; 0x39
    32dc:	9f 01       	movw	r18, r30
    32de:	40 e0       	ldi	r20, 0x00	; 0
    32e0:	50 e0       	ldi	r21, 0x00	; 0
    32e2:	c3 01       	movw	r24, r6
    32e4:	b2 01       	movw	r22, r4
    32e6:	0e 94 91 2a 	call	0x5522	; 0x5522 <__umulsidi3>
    32ea:	af ac       	ldd	r10, Y+63	; 0x3f
    32ec:	b1 2c       	mov	r11, r1
    32ee:	c1 2c       	mov	r12, r1
    32f0:	d1 2c       	mov	r13, r1
    32f2:	e1 2c       	mov	r14, r1
    32f4:	f1 2c       	mov	r15, r1
    32f6:	00 e0       	ldi	r16, 0x00	; 0
    32f8:	10 e0       	ldi	r17, 0x00	; 0
    32fa:	0e 94 38 2a 	call	0x5470	; 0x5470 <__muldi3>
    32fe:	a8 a8       	ldd	r10, Y+48	; 0x30
    3300:	b9 a8       	ldd	r11, Y+49	; 0x31
    3302:	ca a8       	ldd	r12, Y+50	; 0x32
    3304:	db a8       	ldd	r13, Y+51	; 0x33
    3306:	71 01       	movw	r14, r2
    3308:	84 01       	movw	r16, r8
    330a:	0e 94 da 2a 	call	0x55b4	; 0x55b4 <__adddi3>
    330e:	19 01       	movw	r2, r18
    3310:	2a 01       	movw	r4, r20
    3312:	3b 01       	movw	r6, r22
    3314:	4c 01       	movw	r8, r24
    3316:	20 93 e7 02 	sts	0x02E7, r18
    331a:	30 92 e8 02 	sts	0x02E8, r3
    331e:	40 93 e9 02 	sts	0x02E9, r20
    3322:	50 92 ea 02 	sts	0x02EA, r5
    3326:	60 93 eb 02 	sts	0x02EB, r22
    332a:	70 92 ec 02 	sts	0x02EC, r7
    332e:	80 93 ed 02 	sts	0x02ED, r24
    3332:	90 92 ee 02 	sts	0x02EE, r9
    3336:	22 96       	adiw	r28, 0x02	; 2
    3338:	ae ac       	ldd	r10, Y+62	; 0x3e
    333a:	bf ac       	ldd	r11, Y+63	; 0x3f
    333c:	22 97       	sbiw	r28, 0x02	; 2
    333e:	b5 01       	movw	r22, r10
    3340:	80 e0       	ldi	r24, 0x00	; 0
    3342:	90 e0       	ldi	r25, 0x00	; 0
    3344:	20 e2       	ldi	r18, 0x20	; 32
    3346:	30 e0       	ldi	r19, 0x00	; 0
    3348:	40 e0       	ldi	r20, 0x00	; 0
    334a:	50 e0       	ldi	r21, 0x00	; 0
    334c:	0e 94 91 2a 	call	0x5522	; 0x5522 <__umulsidi3>
    3350:	59 01       	movw	r10, r18
    3352:	6a 01       	movw	r12, r20
    3354:	7b 01       	movw	r14, r22
    3356:	8c 01       	movw	r16, r24
    3358:	91 01       	movw	r18, r2
    335a:	a2 01       	movw	r20, r4
    335c:	b3 01       	movw	r22, r6
    335e:	c4 01       	movw	r24, r8
    3360:	0e 94 da 2a 	call	0x55b4	; 0x55b4 <__adddi3>
    3364:	20 93 df 02 	sts	0x02DF, r18
    3368:	30 93 e0 02 	sts	0x02E0, r19
    336c:	40 93 e1 02 	sts	0x02E1, r20
    3370:	50 93 e2 02 	sts	0x02E2, r21
    3374:	60 93 e3 02 	sts	0x02E3, r22
    3378:	70 93 e4 02 	sts	0x02E4, r23
    337c:	80 93 e5 02 	sts	0x02E5, r24
    3380:	90 93 e6 02 	sts	0x02E6, r25
    3384:	4a c0       	rjmp	.+148    	; 0x341a <fat_open+0x458>
    3386:	ce a4       	ldd	r12, Y+46	; 0x2e
    3388:	df a4       	ldd	r13, Y+47	; 0x2f
    338a:	b6 01       	movw	r22, r12
    338c:	80 e0       	ldi	r24, 0x00	; 0
    338e:	90 e0       	ldi	r25, 0x00	; 0
    3390:	26 96       	adiw	r28, 0x06	; 6
    3392:	2c ad       	ldd	r18, Y+60	; 0x3c
    3394:	3d ad       	ldd	r19, Y+61	; 0x3d
    3396:	4e ad       	ldd	r20, Y+62	; 0x3e
    3398:	5f ad       	ldd	r21, Y+63	; 0x3f
    339a:	26 97       	sbiw	r28, 0x06	; 6
    339c:	0e 94 91 2a 	call	0x5522	; 0x5522 <__umulsidi3>
    33a0:	cc a8       	ldd	r12, Y+52	; 0x34
    33a2:	dd a8       	ldd	r13, Y+53	; 0x35
    33a4:	ee a8       	ldd	r14, Y+54	; 0x36
    33a6:	ff a8       	ldd	r15, Y+55	; 0x37
    33a8:	56 01       	movw	r10, r12
    33aa:	67 01       	movw	r12, r14
    33ac:	e1 2c       	mov	r14, r1
    33ae:	f1 2c       	mov	r15, r1
    33b0:	87 01       	movw	r16, r14
    33b2:	ae a2       	std	Y+38, r10	; 0x26
    33b4:	bf a2       	std	Y+39, r11	; 0x27
    33b6:	c8 a6       	std	Y+40, r12	; 0x28
    33b8:	d9 a6       	std	Y+41, r13	; 0x29
    33ba:	ea a6       	std	Y+42, r14	; 0x2a
    33bc:	fb a6       	std	Y+43, r15	; 0x2b
    33be:	0c a7       	std	Y+44, r16	; 0x2c
    33c0:	1d a7       	std	Y+45, r17	; 0x2d
    33c2:	e1 2c       	mov	r14, r1
    33c4:	f1 2c       	mov	r15, r1
    33c6:	00 e0       	ldi	r16, 0x00	; 0
    33c8:	10 e0       	ldi	r17, 0x00	; 0
    33ca:	0e 94 38 2a 	call	0x5470	; 0x5470 <__muldi3>
    33ce:	a8 a8       	ldd	r10, Y+48	; 0x30
    33d0:	b9 a8       	ldd	r11, Y+49	; 0x31
    33d2:	ca a8       	ldd	r12, Y+50	; 0x32
    33d4:	db a8       	ldd	r13, Y+51	; 0x33
    33d6:	71 01       	movw	r14, r2
    33d8:	84 01       	movw	r16, r8
    33da:	0e 94 da 2a 	call	0x55b4	; 0x55b4 <__adddi3>
    33de:	20 93 df 02 	sts	0x02DF, r18
    33e2:	30 93 e0 02 	sts	0x02E0, r19
    33e6:	40 93 e1 02 	sts	0x02E1, r20
    33ea:	50 93 e2 02 	sts	0x02E2, r21
    33ee:	60 93 e3 02 	sts	0x02E3, r22
    33f2:	70 93 e4 02 	sts	0x02E4, r23
    33f6:	80 93 e5 02 	sts	0x02E5, r24
    33fa:	90 93 e6 02 	sts	0x02E6, r25
    33fe:	2a 96       	adiw	r28, 0x0a	; 10
    3400:	ec ac       	ldd	r14, Y+60	; 0x3c
    3402:	fd ac       	ldd	r15, Y+61	; 0x3d
    3404:	0e ad       	ldd	r16, Y+62	; 0x3e
    3406:	1f ad       	ldd	r17, Y+63	; 0x3f
    3408:	2a 97       	sbiw	r28, 0x0a	; 10
    340a:	e0 92 ef 02 	sts	0x02EF, r14
    340e:	f0 92 f0 02 	sts	0x02F0, r15
    3412:	00 93 f1 02 	sts	0x02F1, r16
    3416:	10 93 f2 02 	sts	0x02F2, r17
    341a:	85 ec       	ldi	r24, 0xC5	; 197
    341c:	92 e0       	ldi	r25, 0x02	; 2
    341e:	02 c0       	rjmp	.+4      	; 0x3424 <fat_open+0x462>
    3420:	80 e0       	ldi	r24, 0x00	; 0
    3422:	90 e0       	ldi	r25, 0x00	; 0
    3424:	c7 5b       	subi	r28, 0xB7	; 183
    3426:	df 4f       	sbci	r29, 0xFF	; 255
    3428:	0f b6       	in	r0, 0x3f	; 63
    342a:	f8 94       	cli
    342c:	de bf       	out	0x3e, r29	; 62
    342e:	0f be       	out	0x3f, r0	; 63
    3430:	cd bf       	out	0x3d, r28	; 61
    3432:	df 91       	pop	r29
    3434:	cf 91       	pop	r28
    3436:	1f 91       	pop	r17
    3438:	0f 91       	pop	r16
    343a:	ff 90       	pop	r15
    343c:	ef 90       	pop	r14
    343e:	df 90       	pop	r13
    3440:	cf 90       	pop	r12
    3442:	bf 90       	pop	r11
    3444:	af 90       	pop	r10
    3446:	9f 90       	pop	r9
    3448:	8f 90       	pop	r8
    344a:	7f 90       	pop	r7
    344c:	6f 90       	pop	r6
    344e:	5f 90       	pop	r5
    3450:	4f 90       	pop	r4
    3452:	3f 90       	pop	r3
    3454:	2f 90       	pop	r2
    3456:	08 95       	ret

00003458 <fat_close>:
    3458:	00 97       	sbiw	r24, 0x00	; 0
    345a:	19 f0       	breq	.+6      	; 0x3462 <fat_close+0xa>
    345c:	fc 01       	movw	r30, r24
    345e:	11 82       	std	Z+1, r1	; 0x01
    3460:	10 82       	st	Z, r1
    3462:	08 95       	ret

00003464 <fat_open_file>:
    3464:	cf 93       	push	r28
    3466:	df 93       	push	r29
    3468:	00 97       	sbiw	r24, 0x00	; 0
    346a:	99 f0       	breq	.+38     	; 0x3492 <fat_open_file+0x2e>
    346c:	61 15       	cp	r22, r1
    346e:	71 05       	cpc	r23, r1
    3470:	81 f0       	breq	.+32     	; 0x3492 <fat_open_file+0x2e>
    3472:	fb 01       	movw	r30, r22
    3474:	20 a1       	ldd	r18, Z+32	; 0x20
    3476:	24 fd       	sbrc	r18, 4
    3478:	0c c0       	rjmp	.+24     	; 0x3492 <fat_open_file+0x2e>
    347a:	20 91 47 02 	lds	r18, 0x0247
    347e:	30 91 48 02 	lds	r19, 0x0248
    3482:	23 2b       	or	r18, r19
    3484:	49 f0       	breq	.+18     	; 0x3498 <fat_open_file+0x34>
    3486:	20 91 86 02 	lds	r18, 0x0286
    348a:	30 91 87 02 	lds	r19, 0x0287
    348e:	23 2b       	or	r18, r19
    3490:	31 f0       	breq	.+12     	; 0x349e <fat_open_file+0x3a>
    3492:	80 e0       	ldi	r24, 0x00	; 0
    3494:	90 e0       	ldi	r25, 0x00	; 0
    3496:	21 c0       	rjmp	.+66     	; 0x34da <fat_open_file+0x76>
    3498:	c7 e4       	ldi	r28, 0x47	; 71
    349a:	d2 e0       	ldi	r29, 0x02	; 2
    349c:	02 c0       	rjmp	.+4      	; 0x34a2 <fat_open_file+0x3e>
    349e:	c6 e8       	ldi	r28, 0x86	; 134
    34a0:	d2 e0       	ldi	r29, 0x02	; 2
    34a2:	de 01       	movw	r26, r28
    34a4:	12 96       	adiw	r26, 0x02	; 2
    34a6:	21 e3       	ldi	r18, 0x31	; 49
    34a8:	fb 01       	movw	r30, r22
    34aa:	01 90       	ld	r0, Z+
    34ac:	0d 92       	st	X+, r0
    34ae:	2a 95       	dec	r18
    34b0:	e1 f7       	brne	.-8      	; 0x34aa <fat_open_file+0x46>
    34b2:	99 83       	std	Y+1, r25	; 0x01
    34b4:	88 83       	st	Y, r24
    34b6:	1b aa       	std	Y+51, r1	; 0x33
    34b8:	1c aa       	std	Y+52, r1	; 0x34
    34ba:	1d aa       	std	Y+53, r1	; 0x35
    34bc:	1e aa       	std	Y+54, r1	; 0x36
    34be:	1f aa       	std	Y+55, r1	; 0x37
    34c0:	18 ae       	std	Y+56, r1	; 0x38
    34c2:	19 ae       	std	Y+57, r1	; 0x39
    34c4:	1a ae       	std	Y+58, r1	; 0x3a
    34c6:	fb 01       	movw	r30, r22
    34c8:	81 a1       	ldd	r24, Z+33	; 0x21
    34ca:	92 a1       	ldd	r25, Z+34	; 0x22
    34cc:	a3 a1       	ldd	r26, Z+35	; 0x23
    34ce:	b4 a1       	ldd	r27, Z+36	; 0x24
    34d0:	8b af       	std	Y+59, r24	; 0x3b
    34d2:	9c af       	std	Y+60, r25	; 0x3c
    34d4:	ad af       	std	Y+61, r26	; 0x3d
    34d6:	be af       	std	Y+62, r27	; 0x3e
    34d8:	ce 01       	movw	r24, r28
    34da:	df 91       	pop	r29
    34dc:	cf 91       	pop	r28
    34de:	08 95       	ret

000034e0 <fat_close_file>:
    34e0:	00 97       	sbiw	r24, 0x00	; 0
    34e2:	19 f0       	breq	.+6      	; 0x34ea <fat_close_file+0xa>
    34e4:	fc 01       	movw	r30, r24
    34e6:	11 82       	std	Z+1, r1	; 0x01
    34e8:	10 82       	st	Z, r1
    34ea:	08 95       	ret

000034ec <fat_read_file>:
    34ec:	2f 92       	push	r2
    34ee:	3f 92       	push	r3
    34f0:	4f 92       	push	r4
    34f2:	5f 92       	push	r5
    34f4:	6f 92       	push	r6
    34f6:	7f 92       	push	r7
    34f8:	8f 92       	push	r8
    34fa:	9f 92       	push	r9
    34fc:	af 92       	push	r10
    34fe:	bf 92       	push	r11
    3500:	cf 92       	push	r12
    3502:	df 92       	push	r13
    3504:	ef 92       	push	r14
    3506:	ff 92       	push	r15
    3508:	0f 93       	push	r16
    350a:	1f 93       	push	r17
    350c:	cf 93       	push	r28
    350e:	df 93       	push	r29
    3510:	cd b7       	in	r28, 0x3d	; 61
    3512:	de b7       	in	r29, 0x3e	; 62
    3514:	6a 97       	sbiw	r28, 0x1a	; 26
    3516:	0f b6       	in	r0, 0x3f	; 63
    3518:	f8 94       	cli
    351a:	de bf       	out	0x3e, r29	; 62
    351c:	0f be       	out	0x3f, r0	; 63
    351e:	cd bf       	out	0x3d, r28	; 61
    3520:	1c 01       	movw	r2, r24
    3522:	7a 8f       	std	Y+26, r23	; 0x1a
    3524:	69 8f       	std	Y+25, r22	; 0x19
    3526:	5a 8b       	std	Y+18, r21	; 0x12
    3528:	49 8b       	std	Y+17, r20	; 0x11
    352a:	00 97       	sbiw	r24, 0x00	; 0
    352c:	19 f4       	brne	.+6      	; 0x3534 <fat_read_file+0x48>
    352e:	8f ef       	ldi	r24, 0xFF	; 255
    3530:	9f ef       	ldi	r25, 0xFF	; 255
    3532:	c4 c1       	rjmp	.+904    	; 0x38bc <fat_read_file+0x3d0>
    3534:	a9 8c       	ldd	r10, Y+25	; 0x19
    3536:	ba 8c       	ldd	r11, Y+26	; 0x1a
    3538:	ab 28       	or	r10, r11
    353a:	c9 f3       	breq	.-14     	; 0x352e <fat_read_file+0x42>
    353c:	c9 88       	ldd	r12, Y+17	; 0x11
    353e:	da 88       	ldd	r13, Y+18	; 0x12
    3540:	c1 14       	cp	r12, r1
    3542:	d1 04       	cpc	r13, r1
    3544:	a1 f3       	breq	.-24     	; 0x352e <fat_read_file+0x42>
    3546:	dc 01       	movw	r26, r24
    3548:	d3 96       	adiw	r26, 0x33	; 51
    354a:	bc 91       	ld	r27, X
    354c:	b9 83       	std	Y+1, r27	; 0x01
    354e:	fc 01       	movw	r30, r24
    3550:	f4 a9       	ldd	r31, Z+52	; 0x34
    3552:	fa 83       	std	Y+2, r31	; 0x02
    3554:	dc 01       	movw	r26, r24
    3556:	d5 96       	adiw	r26, 0x35	; 53
    3558:	bc 91       	ld	r27, X
    355a:	bb 83       	std	Y+3, r27	; 0x03
    355c:	fc 01       	movw	r30, r24
    355e:	f6 a9       	ldd	r31, Z+54	; 0x36
    3560:	fc 83       	std	Y+4, r31	; 0x04
    3562:	dc 01       	movw	r26, r24
    3564:	d7 96       	adiw	r26, 0x37	; 55
    3566:	bc 91       	ld	r27, X
    3568:	bd 83       	std	Y+5, r27	; 0x05
    356a:	fc 01       	movw	r30, r24
    356c:	f0 ad       	ldd	r31, Z+56	; 0x38
    356e:	fe 83       	std	Y+6, r31	; 0x06
    3570:	dc 01       	movw	r26, r24
    3572:	d9 96       	adiw	r26, 0x39	; 57
    3574:	bc 91       	ld	r27, X
    3576:	bf 83       	std	Y+7, r27	; 0x07
    3578:	fc 01       	movw	r30, r24
    357a:	f2 ad       	ldd	r31, Z+58	; 0x3a
    357c:	f8 87       	std	Y+8, r31	; 0x08
    357e:	dc 01       	movw	r26, r24
    3580:	97 96       	adiw	r26, 0x27	; 39
    3582:	4d 90       	ld	r4, X+
    3584:	5d 90       	ld	r5, X+
    3586:	6d 90       	ld	r6, X+
    3588:	7c 90       	ld	r7, X
    358a:	9a 97       	sbiw	r26, 0x2a	; 42
    358c:	96 01       	movw	r18, r12
    358e:	40 e0       	ldi	r20, 0x00	; 0
    3590:	50 e0       	ldi	r21, 0x00	; 0
    3592:	60 e0       	ldi	r22, 0x00	; 0
    3594:	70 e0       	ldi	r23, 0x00	; 0
    3596:	80 e0       	ldi	r24, 0x00	; 0
    3598:	90 e0       	ldi	r25, 0x00	; 0
    359a:	a9 80       	ldd	r10, Y+1	; 0x01
    359c:	ba 80       	ldd	r11, Y+2	; 0x02
    359e:	cb 80       	ldd	r12, Y+3	; 0x03
    35a0:	dc 80       	ldd	r13, Y+4	; 0x04
    35a2:	ed 80       	ldd	r14, Y+5	; 0x05
    35a4:	fe 80       	ldd	r15, Y+6	; 0x06
    35a6:	0f 81       	ldd	r16, Y+7	; 0x07
    35a8:	18 85       	ldd	r17, Y+8	; 0x08
    35aa:	0e 94 da 2a 	call	0x55b4	; 0x55b4 <__adddi3>
    35ae:	63 01       	movw	r12, r6
    35b0:	52 01       	movw	r10, r4
    35b2:	e1 2c       	mov	r14, r1
    35b4:	f1 2c       	mov	r15, r1
    35b6:	87 01       	movw	r16, r14
    35b8:	49 86       	std	Y+9, r4	; 0x09
    35ba:	ba 86       	std	Y+10, r11	; 0x0a
    35bc:	cb 86       	std	Y+11, r12	; 0x0b
    35be:	dc 86       	std	Y+12, r13	; 0x0c
    35c0:	ed 86       	std	Y+13, r14	; 0x0d
    35c2:	fe 86       	std	Y+14, r15	; 0x0e
    35c4:	0f 87       	std	Y+15, r16	; 0x0f
    35c6:	18 8b       	std	Y+16, r17	; 0x10
    35c8:	e1 2c       	mov	r14, r1
    35ca:	f1 2c       	mov	r15, r1
    35cc:	00 e0       	ldi	r16, 0x00	; 0
    35ce:	10 e0       	ldi	r17, 0x00	; 0
    35d0:	0e 94 f8 2a 	call	0x55f0	; 0x55f0 <__cmpdi2>
    35d4:	59 f0       	breq	.+22     	; 0x35ec <fat_read_file+0x100>
    35d6:	50 f0       	brcs	.+20     	; 0x35ec <fat_read_file+0x100>
    35d8:	62 01       	movw	r12, r4
    35da:	e9 80       	ldd	r14, Y+1	; 0x01
    35dc:	fa 80       	ldd	r15, Y+2	; 0x02
    35de:	ce 18       	sub	r12, r14
    35e0:	df 08       	sbc	r13, r15
    35e2:	da 8a       	std	Y+18, r13	; 0x12
    35e4:	c9 8a       	std	Y+17, r12	; 0x11
    35e6:	cd 28       	or	r12, r13
    35e8:	09 f4       	brne	.+2      	; 0x35ec <fat_read_file+0x100>
    35ea:	66 c1       	rjmp	.+716    	; 0x38b8 <fat_read_file+0x3cc>
    35ec:	d1 01       	movw	r26, r2
    35ee:	ed 91       	ld	r30, X+
    35f0:	fc 91       	ld	r31, X
    35f2:	11 97       	sbiw	r26, 0x01	; 1
    35f4:	a0 8c       	ldd	r10, Z+24	; 0x18
    35f6:	b1 8c       	ldd	r11, Z+25	; 0x19
    35f8:	b8 8e       	std	Y+24, r11	; 0x18
    35fa:	af 8a       	std	Y+23, r10	; 0x17
    35fc:	db 96       	adiw	r26, 0x3b	; 59
    35fe:	4d 90       	ld	r4, X+
    3600:	5d 90       	ld	r5, X+
    3602:	6d 90       	ld	r6, X+
    3604:	7c 90       	ld	r7, X
    3606:	de 97       	sbiw	r26, 0x3e	; 62
    3608:	41 14       	cp	r4, r1
    360a:	51 04       	cpc	r5, r1
    360c:	61 04       	cpc	r6, r1
    360e:	71 04       	cpc	r7, r1
    3610:	09 f0       	breq	.+2      	; 0x3614 <fat_read_file+0x128>
    3612:	4d c0       	rjmp	.+154    	; 0x36ae <fat_read_file+0x1c2>
    3614:	93 96       	adiw	r26, 0x23	; 35
    3616:	4d 90       	ld	r4, X+
    3618:	5d 90       	ld	r5, X+
    361a:	6d 90       	ld	r6, X+
    361c:	7c 90       	ld	r7, X
    361e:	96 97       	sbiw	r26, 0x26	; 38
    3620:	41 14       	cp	r4, r1
    3622:	51 04       	cpc	r5, r1
    3624:	61 04       	cpc	r6, r1
    3626:	71 04       	cpc	r7, r1
    3628:	a9 f4       	brne	.+42     	; 0x3654 <fat_read_file+0x168>
    362a:	e1 e0       	ldi	r30, 0x01	; 1
    362c:	f0 e0       	ldi	r31, 0x00	; 0
    362e:	29 81       	ldd	r18, Y+1	; 0x01
    3630:	3a 81       	ldd	r19, Y+2	; 0x02
    3632:	4b 81       	ldd	r20, Y+3	; 0x03
    3634:	5c 81       	ldd	r21, Y+4	; 0x04
    3636:	6d 81       	ldd	r22, Y+5	; 0x05
    3638:	7e 81       	ldd	r23, Y+6	; 0x06
    363a:	8f 81       	ldd	r24, Y+7	; 0x07
    363c:	98 85       	ldd	r25, Y+8	; 0x08
    363e:	a0 e0       	ldi	r26, 0x00	; 0
    3640:	0e 94 01 2b 	call	0x5602	; 0x5602 <__cmpdi2_s8>
    3644:	11 f4       	brne	.+4      	; 0x364a <fat_read_file+0x15e>
    3646:	e0 e0       	ldi	r30, 0x00	; 0
    3648:	f0 e0       	ldi	r31, 0x00	; 0
    364a:	88 27       	eor	r24, r24
    364c:	99 27       	eor	r25, r25
    364e:	8e 1b       	sub	r24, r30
    3650:	9f 0b       	sbc	r25, r31
    3652:	34 c1       	rjmp	.+616    	; 0x38bc <fat_read_file+0x3d0>
    3654:	29 81       	ldd	r18, Y+1	; 0x01
    3656:	3a 81       	ldd	r19, Y+2	; 0x02
    3658:	4b 81       	ldd	r20, Y+3	; 0x03
    365a:	5c 81       	ldd	r21, Y+4	; 0x04
    365c:	6d 81       	ldd	r22, Y+5	; 0x05
    365e:	7e 81       	ldd	r23, Y+6	; 0x06
    3660:	8f 81       	ldd	r24, Y+7	; 0x07
    3662:	98 85       	ldd	r25, Y+8	; 0x08
    3664:	a0 e0       	ldi	r26, 0x00	; 0
    3666:	0e 94 01 2b 	call	0x5602	; 0x5602 <__cmpdi2_s8>
    366a:	09 f1       	breq	.+66     	; 0x36ae <fat_read_file+0x1c2>
    366c:	c9 80       	ldd	r12, Y+1	; 0x01
    366e:	da 80       	ldd	r13, Y+2	; 0x02
    3670:	eb 80       	ldd	r14, Y+3	; 0x03
    3672:	fc 80       	ldd	r15, Y+4	; 0x04
    3674:	0f 89       	ldd	r16, Y+23	; 0x17
    3676:	18 8d       	ldd	r17, Y+24	; 0x18
    3678:	48 01       	movw	r8, r16
    367a:	a1 2c       	mov	r10, r1
    367c:	b1 2c       	mov	r11, r1
    367e:	c8 14       	cp	r12, r8
    3680:	d9 04       	cpc	r13, r9
    3682:	ea 04       	cpc	r14, r10
    3684:	fb 04       	cpc	r15, r11
    3686:	98 f0       	brcs	.+38     	; 0x36ae <fat_read_file+0x1c2>
    3688:	c8 18       	sub	r12, r8
    368a:	d9 08       	sbc	r13, r9
    368c:	ea 08       	sbc	r14, r10
    368e:	fb 08       	sbc	r15, r11
    3690:	b3 01       	movw	r22, r6
    3692:	a2 01       	movw	r20, r4
    3694:	d1 01       	movw	r26, r2
    3696:	8d 91       	ld	r24, X+
    3698:	9c 91       	ld	r25, X
    369a:	0e 94 81 16 	call	0x2d02	; 0x2d02 <fat_get_next_cluster>
    369e:	2b 01       	movw	r4, r22
    36a0:	3c 01       	movw	r6, r24
    36a2:	61 15       	cp	r22, r1
    36a4:	71 05       	cpc	r23, r1
    36a6:	81 05       	cpc	r24, r1
    36a8:	91 05       	cpc	r25, r1
    36aa:	49 f7       	brne	.-46     	; 0x367e <fat_read_file+0x192>
    36ac:	40 cf       	rjmp	.-384    	; 0x352e <fat_read_file+0x42>
    36ae:	ef 89       	ldd	r30, Y+23	; 0x17
    36b0:	f8 8d       	ldd	r31, Y+24	; 0x18
    36b2:	31 97       	sbiw	r30, 0x01	; 1
    36b4:	a9 80       	ldd	r10, Y+1	; 0x01
    36b6:	ba 80       	ldd	r11, Y+2	; 0x02
    36b8:	ea 21       	and	r30, r10
    36ba:	fb 21       	and	r31, r11
    36bc:	fe 8b       	std	Y+22, r31	; 0x16
    36be:	ed 8b       	std	Y+21, r30	; 0x15
    36c0:	c9 88       	ldd	r12, Y+17	; 0x11
    36c2:	da 88       	ldd	r13, Y+18	; 0x12
    36c4:	da 86       	std	Y+10, r13	; 0x0a
    36c6:	c9 86       	std	Y+9, r12	; 0x09
    36c8:	d1 01       	movw	r26, r2
    36ca:	8d 90       	ld	r8, X+
    36cc:	9c 90       	ld	r9, X
    36ce:	81 14       	cp	r8, r1
    36d0:	91 04       	cpc	r9, r1
    36d2:	79 f1       	breq	.+94     	; 0x3732 <fat_read_file+0x246>
    36d4:	b2 e0       	ldi	r27, 0x02	; 2
    36d6:	4b 16       	cp	r4, r27
    36d8:	51 04       	cpc	r5, r1
    36da:	61 04       	cpc	r6, r1
    36dc:	71 04       	cpc	r7, r1
    36de:	48 f1       	brcs	.+82     	; 0x3732 <fat_read_file+0x246>
    36e0:	f4 01       	movw	r30, r8
    36e2:	80 8d       	ldd	r24, Z+24	; 0x18
    36e4:	91 8d       	ldd	r25, Z+25	; 0x19
    36e6:	9c 01       	movw	r18, r24
    36e8:	40 e0       	ldi	r20, 0x00	; 0
    36ea:	50 e0       	ldi	r21, 0x00	; 0
    36ec:	c3 01       	movw	r24, r6
    36ee:	b2 01       	movw	r22, r4
    36f0:	62 50       	subi	r22, 0x02	; 2
    36f2:	71 09       	sbc	r23, r1
    36f4:	81 09       	sbc	r24, r1
    36f6:	91 09       	sbc	r25, r1
    36f8:	0e 94 91 2a 	call	0x5522	; 0x5522 <__umulsidi3>
    36fc:	d4 01       	movw	r26, r8
    36fe:	5a 96       	adiw	r26, 0x1a	; 26
    3700:	ac 90       	ld	r10, X
    3702:	5a 97       	sbiw	r26, 0x1a	; 26
    3704:	5b 96       	adiw	r26, 0x1b	; 27
    3706:	bc 90       	ld	r11, X
    3708:	5b 97       	sbiw	r26, 0x1b	; 27
    370a:	5c 96       	adiw	r26, 0x1c	; 28
    370c:	cc 90       	ld	r12, X
    370e:	5c 97       	sbiw	r26, 0x1c	; 28
    3710:	5d 96       	adiw	r26, 0x1d	; 29
    3712:	dc 90       	ld	r13, X
    3714:	5d 97       	sbiw	r26, 0x1d	; 29
    3716:	5e 96       	adiw	r26, 0x1e	; 30
    3718:	ec 90       	ld	r14, X
    371a:	5e 97       	sbiw	r26, 0x1e	; 30
    371c:	5f 96       	adiw	r26, 0x1f	; 31
    371e:	fc 90       	ld	r15, X
    3720:	5f 97       	sbiw	r26, 0x1f	; 31
    3722:	90 96       	adiw	r26, 0x20	; 32
    3724:	0c 91       	ld	r16, X
    3726:	90 97       	sbiw	r26, 0x20	; 32
    3728:	91 96       	adiw	r26, 0x21	; 33
    372a:	1c 91       	ld	r17, X
    372c:	0e 94 da 2a 	call	0x55b4	; 0x55b4 <__adddi3>
    3730:	08 c0       	rjmp	.+16     	; 0x3742 <fat_read_file+0x256>
    3732:	20 e0       	ldi	r18, 0x00	; 0
    3734:	30 e0       	ldi	r19, 0x00	; 0
    3736:	40 e0       	ldi	r20, 0x00	; 0
    3738:	50 e0       	ldi	r21, 0x00	; 0
    373a:	60 e0       	ldi	r22, 0x00	; 0
    373c:	70 e0       	ldi	r23, 0x00	; 0
    373e:	80 e0       	ldi	r24, 0x00	; 0
    3740:	90 e0       	ldi	r25, 0x00	; 0
    3742:	ef 89       	ldd	r30, Y+23	; 0x17
    3744:	f8 8d       	ldd	r31, Y+24	; 0x18
    3746:	ad 88       	ldd	r10, Y+21	; 0x15
    3748:	be 88       	ldd	r11, Y+22	; 0x16
    374a:	ea 19       	sub	r30, r10
    374c:	fb 09       	sbc	r31, r11
    374e:	fc 8b       	std	Y+20, r31	; 0x14
    3750:	eb 8b       	std	Y+19, r30	; 0x13
    3752:	c9 84       	ldd	r12, Y+9	; 0x09
    3754:	da 84       	ldd	r13, Y+10	; 0x0a
    3756:	ce 16       	cp	r12, r30
    3758:	df 06       	cpc	r13, r31
    375a:	10 f4       	brcc	.+4      	; 0x3760 <fat_read_file+0x274>
    375c:	dc 8a       	std	Y+20, r13	; 0x14
    375e:	cb 8a       	std	Y+19, r12	; 0x13
    3760:	d4 01       	movw	r26, r8
    3762:	ed 91       	ld	r30, X+
    3764:	fc 91       	ld	r31, X
    3766:	0d 89       	ldd	r16, Y+21	; 0x15
    3768:	1e 89       	ldd	r17, Y+22	; 0x16
    376a:	48 01       	movw	r8, r16
    376c:	a1 2c       	mov	r10, r1
    376e:	b1 2c       	mov	r11, r1
    3770:	c1 2c       	mov	r12, r1
    3772:	d1 2c       	mov	r13, r1
    3774:	76 01       	movw	r14, r12
    3776:	09 83       	std	Y+1, r16	; 0x01
    3778:	9a 82       	std	Y+2, r9	; 0x02
    377a:	ab 82       	std	Y+3, r10	; 0x03
    377c:	bc 82       	std	Y+4, r11	; 0x04
    377e:	cd 82       	std	Y+5, r12	; 0x05
    3780:	de 82       	std	Y+6, r13	; 0x06
    3782:	ef 82       	std	Y+7, r14	; 0x07
    3784:	f8 86       	std	Y+8, r15	; 0x08
    3786:	58 01       	movw	r10, r16
    3788:	c1 2c       	mov	r12, r1
    378a:	d1 2c       	mov	r13, r1
    378c:	e1 2c       	mov	r14, r1
    378e:	f1 2c       	mov	r15, r1
    3790:	00 e0       	ldi	r16, 0x00	; 0
    3792:	10 e0       	ldi	r17, 0x00	; 0
    3794:	0e 94 da 2a 	call	0x55b4	; 0x55b4 <__adddi3>
    3798:	01 90       	ld	r0, Z+
    379a:	f0 81       	ld	r31, Z
    379c:	e0 2d       	mov	r30, r0
    379e:	eb 88       	ldd	r14, Y+19	; 0x13
    37a0:	fc 88       	ldd	r15, Y+20	; 0x14
    37a2:	09 8d       	ldd	r16, Y+25	; 0x19
    37a4:	1a 8d       	ldd	r17, Y+26	; 0x1a
    37a6:	09 95       	icall
    37a8:	81 11       	cpse	r24, r1
    37aa:	07 c0       	rjmp	.+14     	; 0x37ba <fat_read_file+0x2ce>
    37ac:	89 89       	ldd	r24, Y+17	; 0x11
    37ae:	9a 89       	ldd	r25, Y+18	; 0x12
    37b0:	29 85       	ldd	r18, Y+9	; 0x09
    37b2:	3a 85       	ldd	r19, Y+10	; 0x0a
    37b4:	82 1b       	sub	r24, r18
    37b6:	93 0b       	sbc	r25, r19
    37b8:	81 c0       	rjmp	.+258    	; 0x38bc <fat_read_file+0x3d0>
    37ba:	89 8d       	ldd	r24, Y+25	; 0x19
    37bc:	9a 8d       	ldd	r25, Y+26	; 0x1a
    37be:	ab 89       	ldd	r26, Y+19	; 0x13
    37c0:	bc 89       	ldd	r27, Y+20	; 0x14
    37c2:	8a 0f       	add	r24, r26
    37c4:	9b 1f       	adc	r25, r27
    37c6:	9a 8f       	std	Y+26, r25	; 0x1a
    37c8:	89 8f       	std	Y+25, r24	; 0x19
    37ca:	e9 85       	ldd	r30, Y+9	; 0x09
    37cc:	fa 85       	ldd	r31, Y+10	; 0x0a
    37ce:	ea 1b       	sub	r30, r26
    37d0:	fb 0b       	sbc	r31, r27
    37d2:	fa 87       	std	Y+10, r31	; 0x0a
    37d4:	e9 87       	std	Y+9, r30	; 0x09
    37d6:	9d 01       	movw	r18, r26
    37d8:	40 e0       	ldi	r20, 0x00	; 0
    37da:	50 e0       	ldi	r21, 0x00	; 0
    37dc:	60 e0       	ldi	r22, 0x00	; 0
    37de:	70 e0       	ldi	r23, 0x00	; 0
    37e0:	80 e0       	ldi	r24, 0x00	; 0
    37e2:	90 e0       	ldi	r25, 0x00	; 0
    37e4:	d1 01       	movw	r26, r2
    37e6:	d3 96       	adiw	r26, 0x33	; 51
    37e8:	ac 90       	ld	r10, X
    37ea:	d3 97       	sbiw	r26, 0x33	; 51
    37ec:	d4 96       	adiw	r26, 0x34	; 52
    37ee:	bc 90       	ld	r11, X
    37f0:	d4 97       	sbiw	r26, 0x34	; 52
    37f2:	d5 96       	adiw	r26, 0x35	; 53
    37f4:	cc 90       	ld	r12, X
    37f6:	d5 97       	sbiw	r26, 0x35	; 53
    37f8:	d6 96       	adiw	r26, 0x36	; 54
    37fa:	dc 90       	ld	r13, X
    37fc:	d6 97       	sbiw	r26, 0x36	; 54
    37fe:	d7 96       	adiw	r26, 0x37	; 55
    3800:	ec 90       	ld	r14, X
    3802:	d7 97       	sbiw	r26, 0x37	; 55
    3804:	d8 96       	adiw	r26, 0x38	; 56
    3806:	fc 90       	ld	r15, X
    3808:	d8 97       	sbiw	r26, 0x38	; 56
    380a:	d9 96       	adiw	r26, 0x39	; 57
    380c:	0c 91       	ld	r16, X
    380e:	d9 97       	sbiw	r26, 0x39	; 57
    3810:	da 96       	adiw	r26, 0x3a	; 58
    3812:	1c 91       	ld	r17, X
    3814:	da 97       	sbiw	r26, 0x3a	; 58
    3816:	0e 94 da 2a 	call	0x55b4	; 0x55b4 <__adddi3>
    381a:	d3 96       	adiw	r26, 0x33	; 51
    381c:	2c 93       	st	X, r18
    381e:	d3 97       	sbiw	r26, 0x33	; 51
    3820:	d4 96       	adiw	r26, 0x34	; 52
    3822:	3c 93       	st	X, r19
    3824:	d4 97       	sbiw	r26, 0x34	; 52
    3826:	d5 96       	adiw	r26, 0x35	; 53
    3828:	4c 93       	st	X, r20
    382a:	d5 97       	sbiw	r26, 0x35	; 53
    382c:	d6 96       	adiw	r26, 0x36	; 54
    382e:	5c 93       	st	X, r21
    3830:	d6 97       	sbiw	r26, 0x36	; 54
    3832:	d7 96       	adiw	r26, 0x37	; 55
    3834:	6c 93       	st	X, r22
    3836:	d7 97       	sbiw	r26, 0x37	; 55
    3838:	d8 96       	adiw	r26, 0x38	; 56
    383a:	7c 93       	st	X, r23
    383c:	d8 97       	sbiw	r26, 0x38	; 56
    383e:	d9 96       	adiw	r26, 0x39	; 57
    3840:	8c 93       	st	X, r24
    3842:	d9 97       	sbiw	r26, 0x39	; 57
    3844:	da 96       	adiw	r26, 0x3a	; 58
    3846:	9c 93       	st	X, r25
    3848:	da 97       	sbiw	r26, 0x3a	; 58
    384a:	8b 89       	ldd	r24, Y+19	; 0x13
    384c:	9c 89       	ldd	r25, Y+20	; 0x14
    384e:	ed 89       	ldd	r30, Y+21	; 0x15
    3850:	fe 89       	ldd	r31, Y+22	; 0x16
    3852:	8e 0f       	add	r24, r30
    3854:	9f 1f       	adc	r25, r31
    3856:	af 88       	ldd	r10, Y+23	; 0x17
    3858:	b8 8c       	ldd	r11, Y+24	; 0x18
    385a:	8a 15       	cp	r24, r10
    385c:	9b 05       	cpc	r25, r11
    385e:	e8 f0       	brcs	.+58     	; 0x389a <fat_read_file+0x3ae>
    3860:	b3 01       	movw	r22, r6
    3862:	a2 01       	movw	r20, r4
    3864:	8d 91       	ld	r24, X+
    3866:	9c 91       	ld	r25, X
    3868:	0e 94 81 16 	call	0x2d02	; 0x2d02 <fat_get_next_cluster>
    386c:	2b 01       	movw	r4, r22
    386e:	3c 01       	movw	r6, r24
    3870:	61 15       	cp	r22, r1
    3872:	71 05       	cpc	r23, r1
    3874:	81 05       	cpc	r24, r1
    3876:	91 05       	cpc	r25, r1
    3878:	71 f4       	brne	.+28     	; 0x3896 <fat_read_file+0x3aa>
    387a:	d1 01       	movw	r26, r2
    387c:	db 96       	adiw	r26, 0x3b	; 59
    387e:	1d 92       	st	X+, r1
    3880:	1d 92       	st	X+, r1
    3882:	1d 92       	st	X+, r1
    3884:	1c 92       	st	X, r1
    3886:	de 97       	sbiw	r26, 0x3e	; 62
    3888:	89 89       	ldd	r24, Y+17	; 0x11
    388a:	9a 89       	ldd	r25, Y+18	; 0x12
    388c:	e9 85       	ldd	r30, Y+9	; 0x09
    388e:	fa 85       	ldd	r31, Y+10	; 0x0a
    3890:	8e 1b       	sub	r24, r30
    3892:	9f 0b       	sbc	r25, r31
    3894:	13 c0       	rjmp	.+38     	; 0x38bc <fat_read_file+0x3d0>
    3896:	1e 8a       	std	Y+22, r1	; 0x16
    3898:	1d 8a       	std	Y+21, r1	; 0x15
    389a:	d1 01       	movw	r26, r2
    389c:	db 96       	adiw	r26, 0x3b	; 59
    389e:	4d 92       	st	X+, r4
    38a0:	5d 92       	st	X+, r5
    38a2:	6d 92       	st	X+, r6
    38a4:	7c 92       	st	X, r7
    38a6:	de 97       	sbiw	r26, 0x3e	; 62
    38a8:	e9 85       	ldd	r30, Y+9	; 0x09
    38aa:	fa 85       	ldd	r31, Y+10	; 0x0a
    38ac:	ef 2b       	or	r30, r31
    38ae:	09 f0       	breq	.+2      	; 0x38b2 <fat_read_file+0x3c6>
    38b0:	0b cf       	rjmp	.-490    	; 0x36c8 <fat_read_file+0x1dc>
    38b2:	89 89       	ldd	r24, Y+17	; 0x11
    38b4:	9a 89       	ldd	r25, Y+18	; 0x12
    38b6:	02 c0       	rjmp	.+4      	; 0x38bc <fat_read_file+0x3d0>
    38b8:	80 e0       	ldi	r24, 0x00	; 0
    38ba:	90 e0       	ldi	r25, 0x00	; 0
    38bc:	6a 96       	adiw	r28, 0x1a	; 26
    38be:	0f b6       	in	r0, 0x3f	; 63
    38c0:	f8 94       	cli
    38c2:	de bf       	out	0x3e, r29	; 62
    38c4:	0f be       	out	0x3f, r0	; 63
    38c6:	cd bf       	out	0x3d, r28	; 61
    38c8:	df 91       	pop	r29
    38ca:	cf 91       	pop	r28
    38cc:	1f 91       	pop	r17
    38ce:	0f 91       	pop	r16
    38d0:	ff 90       	pop	r15
    38d2:	ef 90       	pop	r14
    38d4:	df 90       	pop	r13
    38d6:	cf 90       	pop	r12
    38d8:	bf 90       	pop	r11
    38da:	af 90       	pop	r10
    38dc:	9f 90       	pop	r9
    38de:	8f 90       	pop	r8
    38e0:	7f 90       	pop	r7
    38e2:	6f 90       	pop	r6
    38e4:	5f 90       	pop	r5
    38e6:	4f 90       	pop	r4
    38e8:	3f 90       	pop	r3
    38ea:	2f 90       	pop	r2
    38ec:	08 95       	ret

000038ee <fat_open_dir>:
    38ee:	cf 93       	push	r28
    38f0:	df 93       	push	r29
    38f2:	00 97       	sbiw	r24, 0x00	; 0
    38f4:	91 f0       	breq	.+36     	; 0x391a <fat_open_dir+0x2c>
    38f6:	61 15       	cp	r22, r1
    38f8:	71 05       	cpc	r23, r1
    38fa:	79 f0       	breq	.+30     	; 0x391a <fat_open_dir+0x2c>
    38fc:	fb 01       	movw	r30, r22
    38fe:	20 a1       	ldd	r18, Z+32	; 0x20
    3900:	24 ff       	sbrs	r18, 4
    3902:	0b c0       	rjmp	.+22     	; 0x391a <fat_open_dir+0x2c>
    3904:	cc e9       	ldi	r28, 0x9C	; 156
    3906:	d1 e0       	ldi	r29, 0x01	; 1
    3908:	28 81       	ld	r18, Y
    390a:	39 81       	ldd	r19, Y+1	; 0x01
    390c:	23 2b       	or	r18, r19
    390e:	41 f0       	breq	.+16     	; 0x3920 <fat_open_dir+0x32>
    3910:	e9 96       	adiw	r28, 0x39	; 57
    3912:	f2 e0       	ldi	r31, 0x02	; 2
    3914:	c7 34       	cpi	r28, 0x47	; 71
    3916:	df 07       	cpc	r29, r31
    3918:	b9 f7       	brne	.-18     	; 0x3908 <fat_open_dir+0x1a>
    391a:	80 e0       	ldi	r24, 0x00	; 0
    391c:	90 e0       	ldi	r25, 0x00	; 0
    391e:	16 c0       	rjmp	.+44     	; 0x394c <fat_open_dir+0x5e>
    3920:	de 01       	movw	r26, r28
    3922:	12 96       	adiw	r26, 0x02	; 2
    3924:	21 e3       	ldi	r18, 0x31	; 49
    3926:	fb 01       	movw	r30, r22
    3928:	01 90       	ld	r0, Z+
    392a:	0d 92       	st	X+, r0
    392c:	2a 95       	dec	r18
    392e:	e1 f7       	brne	.-8      	; 0x3928 <fat_open_dir+0x3a>
    3930:	99 83       	std	Y+1, r25	; 0x01
    3932:	88 83       	st	Y, r24
    3934:	fb 01       	movw	r30, r22
    3936:	81 a1       	ldd	r24, Z+33	; 0x21
    3938:	92 a1       	ldd	r25, Z+34	; 0x22
    393a:	a3 a1       	ldd	r26, Z+35	; 0x23
    393c:	b4 a1       	ldd	r27, Z+36	; 0x24
    393e:	8b ab       	std	Y+51, r24	; 0x33
    3940:	9c ab       	std	Y+52, r25	; 0x34
    3942:	ad ab       	std	Y+53, r26	; 0x35
    3944:	be ab       	std	Y+54, r27	; 0x36
    3946:	18 ae       	std	Y+56, r1	; 0x38
    3948:	1f aa       	std	Y+55, r1	; 0x37
    394a:	ce 01       	movw	r24, r28
    394c:	df 91       	pop	r29
    394e:	cf 91       	pop	r28
    3950:	08 95       	ret

00003952 <fat_close_dir>:
    3952:	00 97       	sbiw	r24, 0x00	; 0
    3954:	19 f0       	breq	.+6      	; 0x395c <fat_close_dir+0xa>
    3956:	fc 01       	movw	r30, r24
    3958:	11 82       	std	Z+1, r1	; 0x01
    395a:	10 82       	st	Z, r1
    395c:	08 95       	ret

0000395e <fat_reset_dir>:
    395e:	fc 01       	movw	r30, r24
    3960:	00 97       	sbiw	r24, 0x00	; 0
    3962:	61 f0       	breq	.+24     	; 0x397c <fat_reset_dir+0x1e>
    3964:	43 a1       	ldd	r20, Z+35	; 0x23
    3966:	54 a1       	ldd	r21, Z+36	; 0x24
    3968:	65 a1       	ldd	r22, Z+37	; 0x25
    396a:	76 a1       	ldd	r23, Z+38	; 0x26
    396c:	43 ab       	std	Z+51, r20	; 0x33
    396e:	54 ab       	std	Z+52, r21	; 0x34
    3970:	65 ab       	std	Z+53, r22	; 0x35
    3972:	76 ab       	std	Z+54, r23	; 0x36
    3974:	10 ae       	std	Z+56, r1	; 0x38
    3976:	17 aa       	std	Z+55, r1	; 0x37
    3978:	81 e0       	ldi	r24, 0x01	; 1
    397a:	08 95       	ret
    397c:	80 e0       	ldi	r24, 0x00	; 0
    397e:	08 95       	ret

00003980 <fat_read_dir>:
    3980:	2f 92       	push	r2
    3982:	3f 92       	push	r3
    3984:	4f 92       	push	r4
    3986:	5f 92       	push	r5
    3988:	6f 92       	push	r6
    398a:	7f 92       	push	r7
    398c:	8f 92       	push	r8
    398e:	9f 92       	push	r9
    3990:	af 92       	push	r10
    3992:	bf 92       	push	r11
    3994:	cf 92       	push	r12
    3996:	df 92       	push	r13
    3998:	ef 92       	push	r14
    399a:	ff 92       	push	r15
    399c:	0f 93       	push	r16
    399e:	1f 93       	push	r17
    39a0:	cf 93       	push	r28
    39a2:	df 93       	push	r29
    39a4:	cd b7       	in	r28, 0x3d	; 61
    39a6:	de b7       	in	r29, 0x3e	; 62
    39a8:	e9 97       	sbiw	r28, 0x39	; 57
    39aa:	0f b6       	in	r0, 0x3f	; 63
    39ac:	f8 94       	cli
    39ae:	de bf       	out	0x3e, r29	; 62
    39b0:	0f be       	out	0x3f, r0	; 63
    39b2:	cd bf       	out	0x3d, r28	; 61
    39b4:	99 ab       	std	Y+49, r25	; 0x31
    39b6:	88 ab       	std	Y+48, r24	; 0x30
    39b8:	89 2b       	or	r24, r25
    39ba:	09 f1       	breq	.+66     	; 0x39fe <fat_read_dir+0x7e>
    39bc:	61 15       	cp	r22, r1
    39be:	71 05       	cpc	r23, r1
    39c0:	f1 f0       	breq	.+60     	; 0x39fe <fat_read_dir+0x7e>
    39c2:	a8 a9       	ldd	r26, Y+48	; 0x30
    39c4:	b9 a9       	ldd	r27, Y+49	; 0x31
    39c6:	2d 90       	ld	r2, X+
    39c8:	3c 90       	ld	r3, X
    39ca:	11 97       	sbiw	r26, 0x01	; 1
    39cc:	f1 01       	movw	r30, r2
    39ce:	00 8c       	ldd	r0, Z+24	; 0x18
    39d0:	f1 8d       	ldd	r31, Z+25	; 0x19
    39d2:	e0 2d       	mov	r30, r0
    39d4:	fb ab       	std	Y+51, r31	; 0x33
    39d6:	ea ab       	std	Y+50, r30	; 0x32
    39d8:	d3 96       	adiw	r26, 0x33	; 51
    39da:	4d 90       	ld	r4, X+
    39dc:	5d 90       	ld	r5, X+
    39de:	6d 90       	ld	r6, X+
    39e0:	7c 90       	ld	r7, X
    39e2:	d6 97       	sbiw	r26, 0x36	; 54
    39e4:	d7 96       	adiw	r26, 0x37	; 55
    39e6:	2d 91       	ld	r18, X+
    39e8:	3c 91       	ld	r19, X
    39ea:	d8 97       	sbiw	r26, 0x38	; 56
    39ec:	3f a7       	std	Y+47, r19	; 0x2f
    39ee:	2e a7       	std	Y+46, r18	; 0x2e
    39f0:	2e 17       	cp	r18, r30
    39f2:	3f 07       	cpc	r19, r31
    39f4:	30 f0       	brcs	.+12     	; 0x3a02 <fat_read_dir+0x82>
    39f6:	88 a9       	ldd	r24, Y+48	; 0x30
    39f8:	99 a9       	ldd	r25, Y+49	; 0x31
    39fa:	0e 94 af 1c 	call	0x395e	; 0x395e <fat_reset_dir>
    39fe:	80 e0       	ldi	r24, 0x00	; 0
    3a00:	05 c1       	rjmp	.+522    	; 0x3c0c <fat_read_dir+0x28c>
    3a02:	fe 01       	movw	r30, r28
    3a04:	b1 96       	adiw	r30, 0x21	; 33
    3a06:	85 e0       	ldi	r24, 0x05	; 5
    3a08:	df 01       	movw	r26, r30
    3a0a:	1d 92       	st	X+, r1
    3a0c:	8a 95       	dec	r24
    3a0e:	e9 f7       	brne	.-6      	; 0x3a0a <fat_read_dir+0x8a>
    3a10:	81 e3       	ldi	r24, 0x31	; 49
    3a12:	fb 01       	movw	r30, r22
    3a14:	11 92       	st	Z+, r1
    3a16:	8a 95       	dec	r24
    3a18:	e9 f7       	brne	.-6      	; 0x3a14 <fat_read_dir+0x94>
    3a1a:	7a a3       	std	Y+34, r23	; 0x22
    3a1c:	69 a3       	std	Y+33, r22	; 0x21
    3a1e:	41 14       	cp	r4, r1
    3a20:	51 04       	cpc	r5, r1
    3a22:	61 04       	cpc	r6, r1
    3a24:	71 04       	cpc	r7, r1
    3a26:	09 f0       	breq	.+2      	; 0x3a2a <fat_read_dir+0xaa>
    3a28:	93 c0       	rjmp	.+294    	; 0x3b50 <fat_read_dir+0x1d0>
    3a2a:	d1 01       	movw	r26, r2
    3a2c:	ed 91       	ld	r30, X+
    3a2e:	fc 91       	ld	r31, X
    3a30:	11 97       	sbiw	r26, 0x01	; 1
    3a32:	80 85       	ldd	r24, Z+8	; 0x08
    3a34:	8b 30       	cpi	r24, 0x0B	; 11
    3a36:	39 f4       	brne	.+14     	; 0x3a46 <fat_read_dir+0xc6>
    3a38:	9a 96       	adiw	r26, 0x2a	; 42
    3a3a:	4d 90       	ld	r4, X+
    3a3c:	5d 90       	ld	r5, X+
    3a3e:	6d 90       	ld	r6, X+
    3a40:	7c 90       	ld	r7, X
    3a42:	9d 97       	sbiw	r26, 0x2d	; 45
    3a44:	85 c0       	rjmp	.+266    	; 0x3b50 <fat_read_dir+0x1d0>
    3a46:	f1 01       	movw	r30, r2
    3a48:	02 8c       	ldd	r0, Z+26	; 0x1a
    3a4a:	f3 8d       	ldd	r31, Z+27	; 0x1b
    3a4c:	e0 2d       	mov	r30, r0
    3a4e:	d1 01       	movw	r26, r2
    3a50:	92 96       	adiw	r26, 0x22	; 34
    3a52:	8d 91       	ld	r24, X+
    3a54:	9c 91       	ld	r25, X
    3a56:	93 97       	sbiw	r26, 0x23	; 35
    3a58:	e8 1b       	sub	r30, r24
    3a5a:	f9 0b       	sbc	r31, r25
    3a5c:	fb ab       	std	Y+51, r31	; 0x33
    3a5e:	ea ab       	std	Y+50, r30	; 0x32
    3a60:	77 c0       	rjmp	.+238    	; 0x3b50 <fat_read_dir+0x1d0>
    3a62:	8d a1       	ldd	r24, Y+37	; 0x25
    3a64:	81 11       	cpse	r24, r1
    3a66:	c3 c0       	rjmp	.+390    	; 0x3bee <fat_read_dir+0x26e>
    3a68:	ea a9       	ldd	r30, Y+50	; 0x32
    3a6a:	fb a9       	ldd	r31, Y+51	; 0x33
    3a6c:	2e a5       	ldd	r18, Y+46	; 0x2e
    3a6e:	3f a5       	ldd	r19, Y+47	; 0x2f
    3a70:	e2 1b       	sub	r30, r18
    3a72:	f3 0b       	sbc	r31, r19
    3a74:	fd ab       	std	Y+53, r31	; 0x35
    3a76:	ec ab       	std	Y+52, r30	; 0x34
    3a78:	a9 01       	movw	r20, r18
    3a7a:	60 e0       	ldi	r22, 0x00	; 0
    3a7c:	70 e0       	ldi	r23, 0x00	; 0
    3a7e:	80 e0       	ldi	r24, 0x00	; 0
    3a80:	90 e0       	ldi	r25, 0x00	; 0
    3a82:	dc 01       	movw	r26, r24
    3a84:	2e a3       	std	Y+38, r18	; 0x26
    3a86:	5f a3       	std	Y+39, r21	; 0x27
    3a88:	68 a7       	std	Y+40, r22	; 0x28
    3a8a:	79 a7       	std	Y+41, r23	; 0x29
    3a8c:	8a a7       	std	Y+42, r24	; 0x2a
    3a8e:	9b a7       	std	Y+43, r25	; 0x2b
    3a90:	ac a7       	std	Y+44, r26	; 0x2c
    3a92:	bd a7       	std	Y+45, r27	; 0x2d
    3a94:	41 14       	cp	r4, r1
    3a96:	51 04       	cpc	r5, r1
    3a98:	61 04       	cpc	r6, r1
    3a9a:	71 04       	cpc	r7, r1
    3a9c:	09 f0       	breq	.+2      	; 0x3aa0 <fat_read_dir+0x120>
    3a9e:	63 c0       	rjmp	.+198    	; 0x3b66 <fat_read_dir+0x1e6>
    3aa0:	40 e0       	ldi	r20, 0x00	; 0
    3aa2:	50 e0       	ldi	r21, 0x00	; 0
    3aa4:	60 e0       	ldi	r22, 0x00	; 0
    3aa6:	70 e0       	ldi	r23, 0x00	; 0
    3aa8:	80 e0       	ldi	r24, 0x00	; 0
    3aaa:	90 e0       	ldi	r25, 0x00	; 0
    3aac:	d1 01       	movw	r26, r2
    3aae:	92 96       	adiw	r26, 0x22	; 34
    3ab0:	ac 90       	ld	r10, X
    3ab2:	92 97       	sbiw	r26, 0x22	; 34
    3ab4:	93 96       	adiw	r26, 0x23	; 35
    3ab6:	bc 90       	ld	r11, X
    3ab8:	93 97       	sbiw	r26, 0x23	; 35
    3aba:	94 96       	adiw	r26, 0x24	; 36
    3abc:	cc 90       	ld	r12, X
    3abe:	94 97       	sbiw	r26, 0x24	; 36
    3ac0:	95 96       	adiw	r26, 0x25	; 37
    3ac2:	dc 90       	ld	r13, X
    3ac4:	95 97       	sbiw	r26, 0x25	; 37
    3ac6:	96 96       	adiw	r26, 0x26	; 38
    3ac8:	ec 90       	ld	r14, X
    3aca:	96 97       	sbiw	r26, 0x26	; 38
    3acc:	97 96       	adiw	r26, 0x27	; 39
    3ace:	fc 90       	ld	r15, X
    3ad0:	97 97       	sbiw	r26, 0x27	; 39
    3ad2:	98 96       	adiw	r26, 0x28	; 40
    3ad4:	0c 91       	ld	r16, X
    3ad6:	98 97       	sbiw	r26, 0x28	; 40
    3ad8:	99 96       	adiw	r26, 0x29	; 41
    3ada:	1c 91       	ld	r17, X
    3adc:	0e 94 da 2a 	call	0x55b4	; 0x55b4 <__adddi3>
    3ae0:	1c a2       	std	Y+36, r1	; 0x24
    3ae2:	1b a2       	std	Y+35, r1	; 0x23
    3ae4:	d1 01       	movw	r26, r2
    3ae6:	ed 91       	ld	r30, X+
    3ae8:	fc 91       	ld	r31, X
    3aea:	02 80       	ldd	r0, Z+2	; 0x02
    3aec:	f3 81       	ldd	r31, Z+3	; 0x03
    3aee:	e0 2d       	mov	r30, r0
    3af0:	de 01       	movw	r26, r28
    3af2:	91 96       	adiw	r26, 0x21	; 33
    3af4:	4d 01       	movw	r8, r26
    3af6:	a9 e2       	ldi	r26, 0x29	; 41
    3af8:	aa 2e       	mov	r10, r26
    3afa:	a7 e1       	ldi	r26, 0x17	; 23
    3afc:	ba 2e       	mov	r11, r26
    3afe:	cc a8       	ldd	r12, Y+52	; 0x34
    3b00:	dd a8       	ldd	r13, Y+53	; 0x35
    3b02:	b0 e2       	ldi	r27, 0x20	; 32
    3b04:	eb 2e       	mov	r14, r27
    3b06:	f1 2c       	mov	r15, r1
    3b08:	8e 01       	movw	r16, r28
    3b0a:	0f 5f       	subi	r16, 0xFF	; 255
    3b0c:	1f 4f       	sbci	r17, 0xFF	; 255
    3b0e:	09 95       	icall
    3b10:	88 23       	and	r24, r24
    3b12:	09 f4       	brne	.+2      	; 0x3b16 <fat_read_dir+0x196>
    3b14:	74 cf       	rjmp	.-280    	; 0x39fe <fat_read_dir+0x7e>
    3b16:	8b a1       	ldd	r24, Y+35	; 0x23
    3b18:	9c a1       	ldd	r25, Y+36	; 0x24
    3b1a:	ee a5       	ldd	r30, Y+46	; 0x2e
    3b1c:	ff a5       	ldd	r31, Y+47	; 0x2f
    3b1e:	e8 0f       	add	r30, r24
    3b20:	f9 1f       	adc	r31, r25
    3b22:	ff a7       	std	Y+47, r31	; 0x2f
    3b24:	ee a7       	std	Y+46, r30	; 0x2e
    3b26:	2a a9       	ldd	r18, Y+50	; 0x32
    3b28:	3b a9       	ldd	r19, Y+51	; 0x33
    3b2a:	e2 17       	cp	r30, r18
    3b2c:	f3 07       	cpc	r31, r19
    3b2e:	08 f4       	brcc	.+2      	; 0x3b32 <fat_read_dir+0x1b2>
    3b30:	98 cf       	rjmp	.-208    	; 0x3a62 <fat_read_dir+0xe2>
    3b32:	b3 01       	movw	r22, r6
    3b34:	a2 01       	movw	r20, r4
    3b36:	c1 01       	movw	r24, r2
    3b38:	0e 94 81 16 	call	0x2d02	; 0x2d02 <fat_get_next_cluster>
    3b3c:	2b 01       	movw	r4, r22
    3b3e:	3c 01       	movw	r6, r24
    3b40:	61 15       	cp	r22, r1
    3b42:	71 05       	cpc	r23, r1
    3b44:	81 05       	cpc	r24, r1
    3b46:	91 05       	cpc	r25, r1
    3b48:	09 f4       	brne	.+2      	; 0x3b4c <fat_read_dir+0x1cc>
    3b4a:	4d c0       	rjmp	.+154    	; 0x3be6 <fat_read_dir+0x266>
    3b4c:	1f a6       	std	Y+47, r1	; 0x2f
    3b4e:	1e a6       	std	Y+46, r1	; 0x2e
    3b50:	b3 01       	movw	r22, r6
    3b52:	a2 01       	movw	r20, r4
    3b54:	42 50       	subi	r20, 0x02	; 2
    3b56:	51 09       	sbc	r21, r1
    3b58:	61 09       	sbc	r22, r1
    3b5a:	71 09       	sbc	r23, r1
    3b5c:	4e ab       	std	Y+54, r20	; 0x36
    3b5e:	5f ab       	std	Y+55, r21	; 0x37
    3b60:	68 af       	std	Y+56, r22	; 0x38
    3b62:	79 af       	std	Y+57, r23	; 0x39
    3b64:	7e cf       	rjmp	.-260    	; 0x3a62 <fat_read_dir+0xe2>
    3b66:	21 14       	cp	r2, r1
    3b68:	31 04       	cpc	r3, r1
    3b6a:	61 f1       	breq	.+88     	; 0x3bc4 <fat_read_dir+0x244>
    3b6c:	b2 e0       	ldi	r27, 0x02	; 2
    3b6e:	4b 16       	cp	r4, r27
    3b70:	51 04       	cpc	r5, r1
    3b72:	61 04       	cpc	r6, r1
    3b74:	71 04       	cpc	r7, r1
    3b76:	30 f1       	brcs	.+76     	; 0x3bc4 <fat_read_dir+0x244>
    3b78:	f1 01       	movw	r30, r2
    3b7a:	20 8d       	ldd	r18, Z+24	; 0x18
    3b7c:	31 8d       	ldd	r19, Z+25	; 0x19
    3b7e:	40 e0       	ldi	r20, 0x00	; 0
    3b80:	50 e0       	ldi	r21, 0x00	; 0
    3b82:	6e a9       	ldd	r22, Y+54	; 0x36
    3b84:	7f a9       	ldd	r23, Y+55	; 0x37
    3b86:	88 ad       	ldd	r24, Y+56	; 0x38
    3b88:	99 ad       	ldd	r25, Y+57	; 0x39
    3b8a:	0e 94 91 2a 	call	0x5522	; 0x5522 <__umulsidi3>
    3b8e:	d1 01       	movw	r26, r2
    3b90:	5a 96       	adiw	r26, 0x1a	; 26
    3b92:	ac 90       	ld	r10, X
    3b94:	5a 97       	sbiw	r26, 0x1a	; 26
    3b96:	5b 96       	adiw	r26, 0x1b	; 27
    3b98:	bc 90       	ld	r11, X
    3b9a:	5b 97       	sbiw	r26, 0x1b	; 27
    3b9c:	5c 96       	adiw	r26, 0x1c	; 28
    3b9e:	cc 90       	ld	r12, X
    3ba0:	5c 97       	sbiw	r26, 0x1c	; 28
    3ba2:	5d 96       	adiw	r26, 0x1d	; 29
    3ba4:	dc 90       	ld	r13, X
    3ba6:	5d 97       	sbiw	r26, 0x1d	; 29
    3ba8:	5e 96       	adiw	r26, 0x1e	; 30
    3baa:	ec 90       	ld	r14, X
    3bac:	5e 97       	sbiw	r26, 0x1e	; 30
    3bae:	5f 96       	adiw	r26, 0x1f	; 31
    3bb0:	fc 90       	ld	r15, X
    3bb2:	5f 97       	sbiw	r26, 0x1f	; 31
    3bb4:	90 96       	adiw	r26, 0x20	; 32
    3bb6:	0c 91       	ld	r16, X
    3bb8:	90 97       	sbiw	r26, 0x20	; 32
    3bba:	91 96       	adiw	r26, 0x21	; 33
    3bbc:	1c 91       	ld	r17, X
    3bbe:	0e 94 da 2a 	call	0x55b4	; 0x55b4 <__adddi3>
    3bc2:	08 c0       	rjmp	.+16     	; 0x3bd4 <fat_read_dir+0x254>
    3bc4:	20 e0       	ldi	r18, 0x00	; 0
    3bc6:	30 e0       	ldi	r19, 0x00	; 0
    3bc8:	40 e0       	ldi	r20, 0x00	; 0
    3bca:	50 e0       	ldi	r21, 0x00	; 0
    3bcc:	60 e0       	ldi	r22, 0x00	; 0
    3bce:	70 e0       	ldi	r23, 0x00	; 0
    3bd0:	80 e0       	ldi	r24, 0x00	; 0
    3bd2:	90 e0       	ldi	r25, 0x00	; 0
    3bd4:	ae a0       	ldd	r10, Y+38	; 0x26
    3bd6:	bf a0       	ldd	r11, Y+39	; 0x27
    3bd8:	c8 a4       	ldd	r12, Y+40	; 0x28
    3bda:	d9 a4       	ldd	r13, Y+41	; 0x29
    3bdc:	ea a4       	ldd	r14, Y+42	; 0x2a
    3bde:	fb a4       	ldd	r15, Y+43	; 0x2b
    3be0:	0c a5       	ldd	r16, Y+44	; 0x2c
    3be2:	1d a5       	ldd	r17, Y+45	; 0x2d
    3be4:	7b cf       	rjmp	.-266    	; 0x3adc <fat_read_dir+0x15c>
    3be6:	8d a1       	ldd	r24, Y+37	; 0x25
    3be8:	88 23       	and	r24, r24
    3bea:	09 f4       	brne	.+2      	; 0x3bee <fat_read_dir+0x26e>
    3bec:	04 cf       	rjmp	.-504    	; 0x39f6 <fat_read_dir+0x76>
    3bee:	a8 a9       	ldd	r26, Y+48	; 0x30
    3bf0:	b9 a9       	ldd	r27, Y+49	; 0x31
    3bf2:	d3 96       	adiw	r26, 0x33	; 51
    3bf4:	4d 92       	st	X+, r4
    3bf6:	5d 92       	st	X+, r5
    3bf8:	6d 92       	st	X+, r6
    3bfa:	7c 92       	st	X, r7
    3bfc:	d6 97       	sbiw	r26, 0x36	; 54
    3bfe:	ee a5       	ldd	r30, Y+46	; 0x2e
    3c00:	ff a5       	ldd	r31, Y+47	; 0x2f
    3c02:	d8 96       	adiw	r26, 0x38	; 56
    3c04:	fc 93       	st	X, r31
    3c06:	ee 93       	st	-X, r30
    3c08:	d7 97       	sbiw	r26, 0x37	; 55
    3c0a:	8d a1       	ldd	r24, Y+37	; 0x25
    3c0c:	e9 96       	adiw	r28, 0x39	; 57
    3c0e:	0f b6       	in	r0, 0x3f	; 63
    3c10:	f8 94       	cli
    3c12:	de bf       	out	0x3e, r29	; 62
    3c14:	0f be       	out	0x3f, r0	; 63
    3c16:	cd bf       	out	0x3d, r28	; 61
    3c18:	df 91       	pop	r29
    3c1a:	cf 91       	pop	r28
    3c1c:	1f 91       	pop	r17
    3c1e:	0f 91       	pop	r16
    3c20:	ff 90       	pop	r15
    3c22:	ef 90       	pop	r14
    3c24:	df 90       	pop	r13
    3c26:	cf 90       	pop	r12
    3c28:	bf 90       	pop	r11
    3c2a:	af 90       	pop	r10
    3c2c:	9f 90       	pop	r9
    3c2e:	8f 90       	pop	r8
    3c30:	7f 90       	pop	r7
    3c32:	6f 90       	pop	r6
    3c34:	5f 90       	pop	r5
    3c36:	4f 90       	pop	r4
    3c38:	3f 90       	pop	r3
    3c3a:	2f 90       	pop	r2
    3c3c:	08 95       	ret

00003c3e <fat_get_dir_entry_of_path>:
    3c3e:	8f 92       	push	r8
    3c40:	9f 92       	push	r9
    3c42:	af 92       	push	r10
    3c44:	bf 92       	push	r11
    3c46:	cf 92       	push	r12
    3c48:	df 92       	push	r13
    3c4a:	ef 92       	push	r14
    3c4c:	ff 92       	push	r15
    3c4e:	0f 93       	push	r16
    3c50:	1f 93       	push	r17
    3c52:	cf 93       	push	r28
    3c54:	df 93       	push	r29
    3c56:	5c 01       	movw	r10, r24
    3c58:	eb 01       	movw	r28, r22
    3c5a:	8a 01       	movw	r16, r20
    3c5c:	00 97       	sbiw	r24, 0x00	; 0
    3c5e:	09 f4       	brne	.+2      	; 0x3c62 <fat_get_dir_entry_of_path+0x24>
    3c60:	6a c0       	rjmp	.+212    	; 0x3d36 <fat_get_dir_entry_of_path+0xf8>
    3c62:	20 97       	sbiw	r28, 0x00	; 0
    3c64:	09 f4       	brne	.+2      	; 0x3c68 <fat_get_dir_entry_of_path+0x2a>
    3c66:	67 c0       	rjmp	.+206    	; 0x3d36 <fat_get_dir_entry_of_path+0xf8>
    3c68:	88 81       	ld	r24, Y
    3c6a:	88 23       	and	r24, r24
    3c6c:	09 f4       	brne	.+2      	; 0x3c70 <fat_get_dir_entry_of_path+0x32>
    3c6e:	63 c0       	rjmp	.+198    	; 0x3d36 <fat_get_dir_entry_of_path+0xf8>
    3c70:	41 15       	cp	r20, r1
    3c72:	51 05       	cpc	r21, r1
    3c74:	09 f4       	brne	.+2      	; 0x3c78 <fat_get_dir_entry_of_path+0x3a>
    3c76:	5f c0       	rjmp	.+190    	; 0x3d36 <fat_get_dir_entry_of_path+0xf8>
    3c78:	8f 32       	cpi	r24, 0x2F	; 47
    3c7a:	09 f4       	brne	.+2      	; 0x3c7e <fat_get_dir_entry_of_path+0x40>
    3c7c:	21 96       	adiw	r28, 0x01	; 1
    3c7e:	81 e3       	ldi	r24, 0x31	; 49
    3c80:	f8 01       	movw	r30, r16
    3c82:	11 92       	st	Z+, r1
    3c84:	8a 95       	dec	r24
    3c86:	e9 f7       	brne	.-6      	; 0x3c82 <fat_get_dir_entry_of_path+0x44>
    3c88:	80 e1       	ldi	r24, 0x10	; 16
    3c8a:	f8 01       	movw	r30, r16
    3c8c:	80 a3       	std	Z+32, r24	; 0x20
    3c8e:	88 81       	ld	r24, Y
    3c90:	81 11       	cpse	r24, r1
    3c92:	02 c0       	rjmp	.+4      	; 0x3c98 <fat_get_dir_entry_of_path+0x5a>
    3c94:	81 e0       	ldi	r24, 0x01	; 1
    3c96:	50 c0       	rjmp	.+160    	; 0x3d38 <fat_get_dir_entry_of_path+0xfa>
    3c98:	b8 01       	movw	r22, r16
    3c9a:	c5 01       	movw	r24, r10
    3c9c:	0e 94 77 1c 	call	0x38ee	; 0x38ee <fat_open_dir>
    3ca0:	7c 01       	movw	r14, r24
    3ca2:	00 97       	sbiw	r24, 0x00	; 0
    3ca4:	09 f4       	brne	.+2      	; 0x3ca8 <fat_get_dir_entry_of_path+0x6a>
    3ca6:	47 c0       	rjmp	.+142    	; 0x3d36 <fat_get_dir_entry_of_path+0xf8>
    3ca8:	6f e2       	ldi	r22, 0x2F	; 47
    3caa:	70 e0       	ldi	r23, 0x00	; 0
    3cac:	ce 01       	movw	r24, r28
    3cae:	0e 94 93 2b 	call	0x5726	; 0x5726 <strchr>
    3cb2:	00 97       	sbiw	r24, 0x00	; 0
    3cb4:	41 f0       	breq	.+16     	; 0x3cc6 <fat_get_dir_entry_of_path+0x88>
    3cb6:	c8 2e       	mov	r12, r24
    3cb8:	cc 1a       	sub	r12, r28
    3cba:	4c 01       	movw	r8, r24
    3cbc:	2f ef       	ldi	r18, 0xFF	; 255
    3cbe:	82 1a       	sub	r8, r18
    3cc0:	92 0a       	sbc	r9, r18
    3cc2:	d1 2c       	mov	r13, r1
    3cc4:	16 c0       	rjmp	.+44     	; 0x3cf2 <fat_get_dir_entry_of_path+0xb4>
    3cc6:	fe 01       	movw	r30, r28
    3cc8:	01 90       	ld	r0, Z+
    3cca:	00 20       	and	r0, r0
    3ccc:	e9 f7       	brne	.-6      	; 0x3cc8 <fat_get_dir_entry_of_path+0x8a>
    3cce:	31 97       	sbiw	r30, 0x01	; 1
    3cd0:	ec 1b       	sub	r30, r28
    3cd2:	fd 0b       	sbc	r31, r29
    3cd4:	ce 2e       	mov	r12, r30
    3cd6:	4e 01       	movw	r8, r28
    3cd8:	8e 0e       	add	r8, r30
    3cda:	91 1c       	adc	r9, r1
    3cdc:	f2 cf       	rjmp	.-28     	; 0x3cc2 <fat_get_dir_entry_of_path+0x84>
    3cde:	f8 01       	movw	r30, r16
    3ce0:	01 90       	ld	r0, Z+
    3ce2:	00 20       	and	r0, r0
    3ce4:	e9 f7       	brne	.-6      	; 0x3ce0 <fat_get_dir_entry_of_path+0xa2>
    3ce6:	31 97       	sbiw	r30, 0x01	; 1
    3ce8:	e0 1b       	sub	r30, r16
    3cea:	f1 0b       	sbc	r31, r17
    3cec:	ec 15       	cp	r30, r12
    3cee:	fd 05       	cpc	r31, r13
    3cf0:	39 f0       	breq	.+14     	; 0x3d00 <fat_get_dir_entry_of_path+0xc2>
    3cf2:	b8 01       	movw	r22, r16
    3cf4:	c7 01       	movw	r24, r14
    3cf6:	0e 94 c0 1c 	call	0x3980	; 0x3980 <fat_read_dir>
    3cfa:	81 11       	cpse	r24, r1
    3cfc:	f0 cf       	rjmp	.-32     	; 0x3cde <fat_get_dir_entry_of_path+0xa0>
    3cfe:	17 c0       	rjmp	.+46     	; 0x3d2e <fat_get_dir_entry_of_path+0xf0>
    3d00:	a6 01       	movw	r20, r12
    3d02:	b8 01       	movw	r22, r16
    3d04:	ce 01       	movw	r24, r28
    3d06:	0e 94 ae 2b 	call	0x575c	; 0x575c <strncmp>
    3d0a:	89 2b       	or	r24, r25
    3d0c:	91 f7       	brne	.-28     	; 0x3cf2 <fat_get_dir_entry_of_path+0xb4>
    3d0e:	c7 01       	movw	r24, r14
    3d10:	0e 94 a9 1c 	call	0x3952	; 0x3952 <fat_close_dir>
    3d14:	cc 0d       	add	r28, r12
    3d16:	dd 1d       	adc	r29, r13
    3d18:	88 81       	ld	r24, Y
    3d1a:	88 23       	and	r24, r24
    3d1c:	09 f4       	brne	.+2      	; 0x3d20 <fat_get_dir_entry_of_path+0xe2>
    3d1e:	ba cf       	rjmp	.-140    	; 0x3c94 <fat_get_dir_entry_of_path+0x56>
    3d20:	f8 01       	movw	r30, r16
    3d22:	80 a1       	ldd	r24, Z+32	; 0x20
    3d24:	84 ff       	sbrs	r24, 4
    3d26:	07 c0       	rjmp	.+14     	; 0x3d36 <fat_get_dir_entry_of_path+0xf8>
    3d28:	e4 01       	movw	r28, r8
    3d2a:	e1 2c       	mov	r14, r1
    3d2c:	f1 2c       	mov	r15, r1
    3d2e:	c7 01       	movw	r24, r14
    3d30:	0e 94 a9 1c 	call	0x3952	; 0x3952 <fat_close_dir>
    3d34:	ac cf       	rjmp	.-168    	; 0x3c8e <fat_get_dir_entry_of_path+0x50>
    3d36:	80 e0       	ldi	r24, 0x00	; 0
    3d38:	df 91       	pop	r29
    3d3a:	cf 91       	pop	r28
    3d3c:	1f 91       	pop	r17
    3d3e:	0f 91       	pop	r16
    3d40:	ff 90       	pop	r15
    3d42:	ef 90       	pop	r14
    3d44:	df 90       	pop	r13
    3d46:	cf 90       	pop	r12
    3d48:	bf 90       	pop	r11
    3d4a:	af 90       	pop	r10
    3d4c:	9f 90       	pop	r9
    3d4e:	8f 90       	pop	r8
    3d50:	08 95       	ret

00003d52 <bad_sdcard>:
    3d52:	cf 93       	push	r28
    3d54:	df 93       	push	r29
    3d56:	ec 01       	movw	r28, r24
    3d58:	0e 94 34 28 	call	0x5068	; 0x5068 <cls>
    3d5c:	82 e0       	ldi	r24, 0x02	; 2
    3d5e:	0e 94 92 24 	call	0x4924	; 0x4924 <select_font>
    3d62:	ce 01       	movw	r24, r28
    3d64:	0e 94 2a 25 	call	0x4a54	; 0x4a54 <prt_pstr>
    3d68:	df 91       	pop	r29
    3d6a:	cf 91       	pop	r28
    3d6c:	0c 94 d9 1f 	jmp	0x3fb2	; 0x3fb2 <prompt_btn>

00003d70 <fs_mount>:
    3d70:	0f 93       	push	r16
    3d72:	18 99       	sbic	0x03, 0	; 3
    3d74:	3d c0       	rjmp	.+122    	; 0x3df0 <fs_mount+0x80>
    3d76:	00 e0       	ldi	r16, 0x00	; 0
    3d78:	20 e0       	ldi	r18, 0x00	; 0
    3d7a:	30 e0       	ldi	r19, 0x00	; 0
    3d7c:	40 e0       	ldi	r20, 0x00	; 0
    3d7e:	50 e0       	ldi	r21, 0x00	; 0
    3d80:	60 e6       	ldi	r22, 0x60	; 96
    3d82:	72 e2       	ldi	r23, 0x22	; 34
    3d84:	81 ea       	ldi	r24, 0xA1	; 161
    3d86:	91 e2       	ldi	r25, 0x21	; 33
    3d88:	0e 94 ed 1f 	call	0x3fda	; 0x3fda <partition_open>
    3d8c:	90 93 5a 03 	sts	0x035A, r25
    3d90:	80 93 59 03 	sts	0x0359, r24
    3d94:	89 2b       	or	r24, r25
    3d96:	b1 f4       	brne	.+44     	; 0x3dc4 <fs_mount+0x54>
    3d98:	0f ef       	ldi	r16, 0xFF	; 255
    3d9a:	20 e0       	ldi	r18, 0x00	; 0
    3d9c:	30 e0       	ldi	r19, 0x00	; 0
    3d9e:	40 e0       	ldi	r20, 0x00	; 0
    3da0:	50 e0       	ldi	r21, 0x00	; 0
    3da2:	60 e6       	ldi	r22, 0x60	; 96
    3da4:	72 e2       	ldi	r23, 0x22	; 34
    3da6:	81 ea       	ldi	r24, 0xA1	; 161
    3da8:	91 e2       	ldi	r25, 0x21	; 33
    3daa:	0e 94 ed 1f 	call	0x3fda	; 0x3fda <partition_open>
    3dae:	90 93 5a 03 	sts	0x035A, r25
    3db2:	80 93 59 03 	sts	0x0359, r24
    3db6:	89 2b       	or	r24, r25
    3db8:	29 f4       	brne	.+10     	; 0x3dc4 <fs_mount+0x54>
    3dba:	80 ea       	ldi	r24, 0xA0	; 160
    3dbc:	90 e1       	ldi	r25, 0x10	; 16
    3dbe:	0e 94 a9 1e 	call	0x3d52	; 0x3d52 <bad_sdcard>
    3dc2:	16 c0       	rjmp	.+44     	; 0x3df0 <fs_mount+0x80>
    3dc4:	80 91 59 03 	lds	r24, 0x0359
    3dc8:	90 91 5a 03 	lds	r25, 0x035A
    3dcc:	0e 94 e1 17 	call	0x2fc2	; 0x2fc2 <fat_open>
    3dd0:	90 93 60 03 	sts	0x0360, r25
    3dd4:	80 93 5f 03 	sts	0x035F, r24
    3dd8:	89 2b       	or	r24, r25
    3dda:	61 f4       	brne	.+24     	; 0x3df4 <fs_mount+0x84>
    3ddc:	8a e8       	ldi	r24, 0x8A	; 138
    3dde:	90 e1       	ldi	r25, 0x10	; 16
    3de0:	0e 94 a9 1e 	call	0x3d52	; 0x3d52 <bad_sdcard>
    3de4:	80 91 59 03 	lds	r24, 0x0359
    3de8:	90 91 5a 03 	lds	r25, 0x035A
    3dec:	0e 94 88 20 	call	0x4110	; 0x4110 <partition_close>
    3df0:	80 e0       	ldi	r24, 0x00	; 0
    3df2:	01 c0       	rjmp	.+2      	; 0x3df6 <fs_mount+0x86>
    3df4:	81 e0       	ldi	r24, 0x01	; 1
    3df6:	0f 91       	pop	r16
    3df8:	08 95       	ret

00003dfa <fs_umount>:
    3dfa:	80 91 5b 03 	lds	r24, 0x035B
    3dfe:	90 91 5c 03 	lds	r25, 0x035C
    3e02:	0e 94 70 1a 	call	0x34e0	; 0x34e0 <fat_close_file>
    3e06:	80 91 5d 03 	lds	r24, 0x035D
    3e0a:	90 91 5e 03 	lds	r25, 0x035E
    3e0e:	0e 94 a9 1c 	call	0x3952	; 0x3952 <fat_close_dir>
    3e12:	80 91 5f 03 	lds	r24, 0x035F
    3e16:	90 91 60 03 	lds	r25, 0x0360
    3e1a:	0e 94 2c 1a 	call	0x3458	; 0x3458 <fat_close>
    3e1e:	80 91 59 03 	lds	r24, 0x0359
    3e22:	90 91 5a 03 	lds	r25, 0x035A
    3e26:	0c 94 88 20 	jmp	0x4110	; 0x4110 <partition_close>

00003e2a <fs_open_dir>:
    3e2a:	48 e2       	ldi	r20, 0x28	; 40
    3e2c:	53 e0       	ldi	r21, 0x03	; 3
    3e2e:	bc 01       	movw	r22, r24
    3e30:	80 91 5f 03 	lds	r24, 0x035F
    3e34:	90 91 60 03 	lds	r25, 0x0360
    3e38:	0e 94 1f 1e 	call	0x3c3e	; 0x3c3e <fat_get_dir_entry_of_path>
    3e3c:	68 e2       	ldi	r22, 0x28	; 40
    3e3e:	73 e0       	ldi	r23, 0x03	; 3
    3e40:	80 91 5f 03 	lds	r24, 0x035F
    3e44:	90 91 60 03 	lds	r25, 0x0360
    3e48:	0e 94 77 1c 	call	0x38ee	; 0x38ee <fat_open_dir>
    3e4c:	90 93 5e 03 	sts	0x035E, r25
    3e50:	80 93 5d 03 	sts	0x035D, r24
    3e54:	89 2b       	or	r24, r25
    3e56:	41 f4       	brne	.+16     	; 0x3e68 <fs_open_dir+0x3e>
    3e58:	85 e7       	ldi	r24, 0x75	; 117
    3e5a:	90 e1       	ldi	r25, 0x10	; 16
    3e5c:	0e 94 a9 1e 	call	0x3d52	; 0x3d52 <bad_sdcard>
    3e60:	0e 94 fd 1e 	call	0x3dfa	; 0x3dfa <fs_umount>
    3e64:	80 e0       	ldi	r24, 0x00	; 0
    3e66:	08 95       	ret
    3e68:	81 e0       	ldi	r24, 0x01	; 1
    3e6a:	08 95       	ret

00003e6c <fs_open_file>:
    3e6c:	cf 93       	push	r28
    3e6e:	df 93       	push	r29
    3e70:	ec 01       	movw	r28, r24
    3e72:	67 ef       	ldi	r22, 0xF7	; 247
    3e74:	72 e0       	ldi	r23, 0x02	; 2
    3e76:	80 91 5d 03 	lds	r24, 0x035D
    3e7a:	90 91 5e 03 	lds	r25, 0x035E
    3e7e:	0e 94 c0 1c 	call	0x3980	; 0x3980 <fat_read_dir>
    3e82:	88 23       	and	r24, r24
    3e84:	11 f1       	breq	.+68     	; 0x3eca <fs_open_file+0x5e>
    3e86:	be 01       	movw	r22, r28
    3e88:	87 ef       	ldi	r24, 0xF7	; 247
    3e8a:	92 e0       	ldi	r25, 0x02	; 2
    3e8c:	0e 94 9e 2b 	call	0x573c	; 0x573c <strcmp>
    3e90:	89 2b       	or	r24, r25
    3e92:	79 f7       	brne	.-34     	; 0x3e72 <fs_open_file+0x6>
    3e94:	80 91 5d 03 	lds	r24, 0x035D
    3e98:	90 91 5e 03 	lds	r25, 0x035E
    3e9c:	0e 94 af 1c 	call	0x395e	; 0x395e <fat_reset_dir>
    3ea0:	67 ef       	ldi	r22, 0xF7	; 247
    3ea2:	72 e0       	ldi	r23, 0x02	; 2
    3ea4:	80 91 5f 03 	lds	r24, 0x035F
    3ea8:	90 91 60 03 	lds	r25, 0x0360
    3eac:	0e 94 32 1a 	call	0x3464	; 0x3464 <fat_open_file>
    3eb0:	90 93 5c 03 	sts	0x035C, r25
    3eb4:	80 93 5b 03 	sts	0x035B, r24
    3eb8:	89 2b       	or	r24, r25
    3eba:	11 f0       	breq	.+4      	; 0x3ec0 <fs_open_file+0x54>
    3ebc:	81 e0       	ldi	r24, 0x01	; 1
    3ebe:	05 c0       	rjmp	.+10     	; 0x3eca <fs_open_file+0x5e>
    3ec0:	80 e6       	ldi	r24, 0x60	; 96
    3ec2:	90 e1       	ldi	r25, 0x10	; 16
    3ec4:	0e 94 a9 1e 	call	0x3d52	; 0x3d52 <bad_sdcard>
    3ec8:	80 e0       	ldi	r24, 0x00	; 0
    3eca:	df 91       	pop	r29
    3ecc:	cf 91       	pop	r28
    3ece:	08 95       	ret

00003ed0 <fs_close_file>:
    3ed0:	80 91 5b 03 	lds	r24, 0x035B
    3ed4:	90 91 5c 03 	lds	r25, 0x035C
    3ed8:	0c 94 70 1a 	jmp	0x34e0	; 0x34e0 <fat_close_file>

00003edc <fs_load_file>:
    3edc:	ef 92       	push	r14
    3ede:	ff 92       	push	r15
    3ee0:	0f 93       	push	r16
    3ee2:	1f 93       	push	r17
    3ee4:	cf 93       	push	r28
    3ee6:	df 93       	push	r29
    3ee8:	cd b7       	in	r28, 0x3d	; 61
    3eea:	de b7       	in	r29, 0x3e	; 62
    3eec:	a0 97       	sbiw	r28, 0x20	; 32
    3eee:	0f b6       	in	r0, 0x3f	; 63
    3ef0:	f8 94       	cli
    3ef2:	de bf       	out	0x3e, r29	; 62
    3ef4:	0f be       	out	0x3f, r0	; 63
    3ef6:	cd bf       	out	0x3d, r28	; 61
    3ef8:	ae 01       	movw	r20, r28
    3efa:	4f 5f       	subi	r20, 0xFF	; 255
    3efc:	5f 4f       	sbci	r21, 0xFF	; 255
    3efe:	60 e2       	ldi	r22, 0x20	; 32
    3f00:	70 e0       	ldi	r23, 0x00	; 0
    3f02:	25 e0       	ldi	r18, 0x05	; 5
    3f04:	88 0f       	add	r24, r24
    3f06:	99 1f       	adc	r25, r25
    3f08:	2a 95       	dec	r18
    3f0a:	e1 f7       	brne	.-8      	; 0x3f04 <fs_load_file+0x28>
    3f0c:	0e 94 41 24 	call	0x4882	; 0x4882 <sram_load_block>
    3f10:	ce 01       	movw	r24, r28
    3f12:	01 96       	adiw	r24, 0x01	; 1
    3f14:	0e 94 36 1f 	call	0x3e6c	; 0x3e6c <fs_open_file>
    3f18:	00 e0       	ldi	r16, 0x00	; 0
    3f1a:	10 e0       	ldi	r17, 0x00	; 0
    3f1c:	88 23       	and	r24, r24
    3f1e:	d9 f0       	breq	.+54     	; 0x3f56 <fs_load_file+0x7a>
    3f20:	40 e2       	ldi	r20, 0x20	; 32
    3f22:	50 e0       	ldi	r21, 0x00	; 0
    3f24:	be 01       	movw	r22, r28
    3f26:	6f 5f       	subi	r22, 0xFF	; 255
    3f28:	7f 4f       	sbci	r23, 0xFF	; 255
    3f2a:	80 91 5b 03 	lds	r24, 0x035B
    3f2e:	90 91 5c 03 	lds	r25, 0x035C
    3f32:	0e 94 76 1a 	call	0x34ec	; 0x34ec <fat_read_file>
    3f36:	7c 01       	movw	r14, r24
    3f38:	18 16       	cp	r1, r24
    3f3a:	19 06       	cpc	r1, r25
    3f3c:	54 f4       	brge	.+20     	; 0x3f52 <fs_load_file+0x76>
    3f3e:	ae 01       	movw	r20, r28
    3f40:	4f 5f       	subi	r20, 0xFF	; 255
    3f42:	5f 4f       	sbci	r21, 0xFF	; 255
    3f44:	b7 01       	movw	r22, r14
    3f46:	c8 01       	movw	r24, r16
    3f48:	0e 94 6a 24 	call	0x48d4	; 0x48d4 <sram_store_block>
    3f4c:	0e 0d       	add	r16, r14
    3f4e:	1f 1d       	adc	r17, r15
    3f50:	e7 cf       	rjmp	.-50     	; 0x3f20 <fs_load_file+0x44>
    3f52:	0e 94 68 1f 	call	0x3ed0	; 0x3ed0 <fs_close_file>
    3f56:	80 2f       	mov	r24, r16
    3f58:	a0 96       	adiw	r28, 0x20	; 32
    3f5a:	0f b6       	in	r0, 0x3f	; 63
    3f5c:	f8 94       	cli
    3f5e:	de bf       	out	0x3e, r29	; 62
    3f60:	0f be       	out	0x3f, r0	; 63
    3f62:	cd bf       	out	0x3d, r28	; 61
    3f64:	df 91       	pop	r29
    3f66:	cf 91       	pop	r28
    3f68:	1f 91       	pop	r17
    3f6a:	0f 91       	pop	r16
    3f6c:	ff 90       	pop	r15
    3f6e:	ef 90       	pop	r14
    3f70:	08 95       	ret

00003f72 <fs_read_dir>:
    3f72:	bc 01       	movw	r22, r24
    3f74:	80 91 5d 03 	lds	r24, 0x035D
    3f78:	90 91 5e 03 	lds	r25, 0x035E
    3f7c:	0c 94 c0 1c 	jmp	0x3980	; 0x3980 <fat_read_dir>

00003f80 <joystick_btn_down>:
    3f80:	96 b1       	in	r25, 0x06	; 6
    3f82:	98 23       	and	r25, r24
    3f84:	81 e0       	ldi	r24, 0x01	; 1
    3f86:	09 f0       	breq	.+2      	; 0x3f8a <joystick_btn_down+0xa>
    3f88:	80 e0       	ldi	r24, 0x00	; 0
    3f8a:	08 95       	ret

00003f8c <joystick_wait_any>:
    3f8c:	86 b1       	in	r24, 0x06	; 6
    3f8e:	8e 73       	andi	r24, 0x3E	; 62
    3f90:	8e 33       	cpi	r24, 0x3E	; 62
    3f92:	e1 f3       	breq	.-8      	; 0x3f8c <joystick_wait_any>
    3f94:	86 b1       	in	r24, 0x06	; 6
    3f96:	80 95       	com	r24
    3f98:	8e 73       	andi	r24, 0x3E	; 62
    3f9a:	08 95       	ret

00003f9c <joystick_wait_release>:
    3f9c:	86 b1       	in	r24, 0x06	; 6
    3f9e:	8e 73       	andi	r24, 0x3E	; 62
    3fa0:	8e 33       	cpi	r24, 0x3E	; 62
    3fa2:	31 f0       	breq	.+12     	; 0x3fb0 <joystick_wait_release+0x14>
    3fa4:	62 e0       	ldi	r22, 0x02	; 2
    3fa6:	84 ef       	ldi	r24, 0xF4	; 244
    3fa8:	91 e0       	ldi	r25, 0x01	; 1
    3faa:	0e 94 eb 25 	call	0x4bd6	; 0x4bd6 <tone>
    3fae:	f6 cf       	rjmp	.-20     	; 0x3f9c <joystick_wait_release>
    3fb0:	08 95       	ret

00003fb2 <prompt_btn>:
    3fb2:	87 eb       	ldi	r24, 0xB7	; 183
    3fb4:	90 e1       	ldi	r25, 0x10	; 16
    3fb6:	0e 94 2a 25 	call	0x4a54	; 0x4a54 <prt_pstr>
    3fba:	35 99       	sbic	0x06, 5	; 6
    3fbc:	fe cf       	rjmp	.-4      	; 0x3fba <prompt_btn+0x8>
    3fbe:	0c 94 ce 1f 	jmp	0x3f9c	; 0x3f9c <joystick_wait_release>

00003fc2 <joystick_break>:
    3fc2:	86 b1       	in	r24, 0x06	; 6
    3fc4:	86 70       	andi	r24, 0x06	; 6
    3fc6:	19 f0       	breq	.+6      	; 0x3fce <joystick_break+0xc>
    3fc8:	86 b1       	in	r24, 0x06	; 6
    3fca:	88 71       	andi	r24, 0x18	; 24
    3fcc:	21 f4       	brne	.+8      	; 0x3fd6 <joystick_break+0x14>
    3fce:	0e 94 ce 1f 	call	0x3f9c	; 0x3f9c <joystick_wait_release>
    3fd2:	81 e0       	ldi	r24, 0x01	; 1
    3fd4:	08 95       	ret
    3fd6:	80 e0       	ldi	r24, 0x00	; 0
    3fd8:	08 95       	ret

00003fda <partition_open>:
    3fda:	5f 92       	push	r5
    3fdc:	6f 92       	push	r6
    3fde:	7f 92       	push	r7
    3fe0:	8f 92       	push	r8
    3fe2:	9f 92       	push	r9
    3fe4:	af 92       	push	r10
    3fe6:	bf 92       	push	r11
    3fe8:	cf 92       	push	r12
    3fea:	df 92       	push	r13
    3fec:	ef 92       	push	r14
    3fee:	ff 92       	push	r15
    3ff0:	0f 93       	push	r16
    3ff2:	1f 93       	push	r17
    3ff4:	cf 93       	push	r28
    3ff6:	df 93       	push	r29
    3ff8:	cd b7       	in	r28, 0x3d	; 61
    3ffa:	de b7       	in	r29, 0x3e	; 62
    3ffc:	60 97       	sbiw	r28, 0x10	; 16
    3ffe:	0f b6       	in	r0, 0x3f	; 63
    4000:	f8 94       	cli
    4002:	de bf       	out	0x3e, r29	; 62
    4004:	0f be       	out	0x3f, r0	; 63
    4006:	cd bf       	out	0x3d, r28	; 61
    4008:	6c 01       	movw	r12, r24
    400a:	5b 01       	movw	r10, r22
    400c:	3a 01       	movw	r6, r20
    400e:	49 01       	movw	r8, r18
    4010:	50 2e       	mov	r5, r16
    4012:	00 97       	sbiw	r24, 0x00	; 0
    4014:	19 f4       	brne	.+6      	; 0x401c <partition_open+0x42>
    4016:	80 e0       	ldi	r24, 0x00	; 0
    4018:	90 e0       	ldi	r25, 0x00	; 0
    401a:	64 c0       	rjmp	.+200    	; 0x40e4 <partition_open+0x10a>
    401c:	61 15       	cp	r22, r1
    401e:	71 05       	cpc	r23, r1
    4020:	d1 f3       	breq	.-12     	; 0x4016 <partition_open+0x3c>
    4022:	83 e0       	ldi	r24, 0x03	; 3
    4024:	80 17       	cp	r24, r16
    4026:	bc f3       	brlt	.-18     	; 0x4016 <partition_open+0x3c>
    4028:	07 ff       	sbrs	r16, 7
    402a:	05 c0       	rjmp	.+10     	; 0x4036 <partition_open+0x5c>
    402c:	80 91 69 03 	lds	r24, 0x0369
    4030:	81 11       	cpse	r24, r1
    4032:	f1 cf       	rjmp	.-30     	; 0x4016 <partition_open+0x3c>
    4034:	1d c0       	rjmp	.+58     	; 0x4070 <partition_open+0x96>
    4036:	a0 e1       	ldi	r26, 0x10	; 16
    4038:	0a 02       	muls	r16, r26
    403a:	f0 01       	movw	r30, r0
    403c:	11 24       	eor	r1, r1
    403e:	e2 54       	subi	r30, 0x42	; 66
    4040:	fe 4f       	sbci	r31, 0xFE	; 254
    4042:	9f 2f       	mov	r25, r31
    4044:	99 0f       	add	r25, r25
    4046:	99 0b       	sbc	r25, r25
    4048:	80 e1       	ldi	r24, 0x10	; 16
    404a:	e8 2e       	mov	r14, r24
    404c:	f1 2c       	mov	r15, r1
    404e:	8e 01       	movw	r16, r28
    4050:	0f 5f       	subi	r16, 0xFF	; 255
    4052:	1f 4f       	sbci	r17, 0xFF	; 255
    4054:	9f 01       	movw	r18, r30
    4056:	49 2f       	mov	r20, r25
    4058:	59 2f       	mov	r21, r25
    405a:	69 2f       	mov	r22, r25
    405c:	79 2f       	mov	r23, r25
    405e:	89 2f       	mov	r24, r25
    4060:	f6 01       	movw	r30, r12
    4062:	09 95       	icall
    4064:	88 23       	and	r24, r24
    4066:	b9 f2       	breq	.-82     	; 0x4016 <partition_open+0x3c>
    4068:	8d 81       	ldd	r24, Y+5	; 0x05
    406a:	81 11       	cpse	r24, r1
    406c:	df cf       	rjmp	.-66     	; 0x402c <partition_open+0x52>
    406e:	d3 cf       	rjmp	.-90     	; 0x4016 <partition_open+0x3c>
    4070:	81 e1       	ldi	r24, 0x11	; 17
    4072:	e1 e6       	ldi	r30, 0x61	; 97
    4074:	f3 e0       	ldi	r31, 0x03	; 3
    4076:	df 01       	movw	r26, r30
    4078:	1d 92       	st	X+, r1
    407a:	8a 95       	dec	r24
    407c:	e9 f7       	brne	.-6      	; 0x4078 <partition_open+0x9e>
    407e:	d0 92 62 03 	sts	0x0362, r13
    4082:	c0 92 61 03 	sts	0x0361, r12
    4086:	b0 92 64 03 	sts	0x0364, r11
    408a:	a0 92 63 03 	sts	0x0363, r10
    408e:	70 92 66 03 	sts	0x0366, r7
    4092:	60 92 65 03 	sts	0x0365, r6
    4096:	90 92 68 03 	sts	0x0368, r9
    409a:	80 92 67 03 	sts	0x0367, r8
    409e:	57 fc       	sbrc	r5, 7
    40a0:	1c c0       	rjmp	.+56     	; 0x40da <partition_open+0x100>
    40a2:	8d 81       	ldd	r24, Y+5	; 0x05
    40a4:	80 93 69 03 	sts	0x0369, r24
    40a8:	ce 01       	movw	r24, r28
    40aa:	09 96       	adiw	r24, 0x09	; 9
    40ac:	0e 94 38 10 	call	0x2070	; 0x2070 <read32>
    40b0:	60 93 6a 03 	sts	0x036A, r22
    40b4:	70 93 6b 03 	sts	0x036B, r23
    40b8:	80 93 6c 03 	sts	0x036C, r24
    40bc:	90 93 6d 03 	sts	0x036D, r25
    40c0:	ce 01       	movw	r24, r28
    40c2:	0d 96       	adiw	r24, 0x0d	; 13
    40c4:	0e 94 38 10 	call	0x2070	; 0x2070 <read32>
    40c8:	60 93 6e 03 	sts	0x036E, r22
    40cc:	70 93 6f 03 	sts	0x036F, r23
    40d0:	80 93 70 03 	sts	0x0370, r24
    40d4:	90 93 71 03 	sts	0x0371, r25
    40d8:	03 c0       	rjmp	.+6      	; 0x40e0 <partition_open+0x106>
    40da:	8f ef       	ldi	r24, 0xFF	; 255
    40dc:	80 93 69 03 	sts	0x0369, r24
    40e0:	81 e6       	ldi	r24, 0x61	; 97
    40e2:	93 e0       	ldi	r25, 0x03	; 3
    40e4:	60 96       	adiw	r28, 0x10	; 16
    40e6:	0f b6       	in	r0, 0x3f	; 63
    40e8:	f8 94       	cli
    40ea:	de bf       	out	0x3e, r29	; 62
    40ec:	0f be       	out	0x3f, r0	; 63
    40ee:	cd bf       	out	0x3d, r28	; 61
    40f0:	df 91       	pop	r29
    40f2:	cf 91       	pop	r28
    40f4:	1f 91       	pop	r17
    40f6:	0f 91       	pop	r16
    40f8:	ff 90       	pop	r15
    40fa:	ef 90       	pop	r14
    40fc:	df 90       	pop	r13
    40fe:	cf 90       	pop	r12
    4100:	bf 90       	pop	r11
    4102:	af 90       	pop	r10
    4104:	9f 90       	pop	r9
    4106:	8f 90       	pop	r8
    4108:	7f 90       	pop	r7
    410a:	6f 90       	pop	r6
    410c:	5f 90       	pop	r5
    410e:	08 95       	ret

00004110 <partition_close>:
    4110:	00 97       	sbiw	r24, 0x00	; 0
    4112:	21 f0       	breq	.+8      	; 0x411c <partition_close+0xc>
    4114:	fc 01       	movw	r30, r24
    4116:	10 86       	std	Z+8, r1	; 0x08
    4118:	81 e0       	ldi	r24, 0x01	; 1
    411a:	08 95       	ret
    411c:	80 e0       	ldi	r24, 0x00	; 0
    411e:	08 95       	ret

00004120 <sd_raw_send_byte>:
    4120:	8e bd       	out	0x2e, r24	; 46
    4122:	0d b4       	in	r0, 0x2d	; 45
    4124:	07 fe       	sbrs	r0, 7
    4126:	fd cf       	rjmp	.-6      	; 0x4122 <sd_raw_send_byte+0x2>
    4128:	8d b5       	in	r24, 0x2d	; 45
    412a:	8f 77       	andi	r24, 0x7F	; 127
    412c:	8d bd       	out	0x2d, r24	; 45
    412e:	08 95       	ret

00004130 <sd_raw_rec_byte>:
    4130:	8f ef       	ldi	r24, 0xFF	; 255
    4132:	8e bd       	out	0x2e, r24	; 46
    4134:	0d b4       	in	r0, 0x2d	; 45
    4136:	07 fe       	sbrs	r0, 7
    4138:	fd cf       	rjmp	.-6      	; 0x4134 <sd_raw_rec_byte+0x4>
    413a:	8d b5       	in	r24, 0x2d	; 45
    413c:	8f 77       	andi	r24, 0x7F	; 127
    413e:	8d bd       	out	0x2d, r24	; 45
    4140:	8e b5       	in	r24, 0x2e	; 46
    4142:	08 95       	ret

00004144 <sd_raw_send_command>:
    4144:	1f 93       	push	r17
    4146:	cf 93       	push	r28
    4148:	df 93       	push	r29
    414a:	00 d0       	rcall	.+0      	; 0x414c <sd_raw_send_command+0x8>
    414c:	00 d0       	rcall	.+0      	; 0x414e <sd_raw_send_command+0xa>
    414e:	cd b7       	in	r28, 0x3d	; 61
    4150:	de b7       	in	r29, 0x3e	; 62
    4152:	18 2f       	mov	r17, r24
    4154:	4c 83       	std	Y+4, r20	; 0x04
    4156:	5b 83       	std	Y+3, r21	; 0x03
    4158:	6a 83       	std	Y+2, r22	; 0x02
    415a:	79 83       	std	Y+1, r23	; 0x01
    415c:	0e 94 98 20 	call	0x4130	; 0x4130 <sd_raw_rec_byte>
    4160:	81 2f       	mov	r24, r17
    4162:	80 64       	ori	r24, 0x40	; 64
    4164:	0e 94 90 20 	call	0x4120	; 0x4120 <sd_raw_send_byte>
    4168:	79 81       	ldd	r23, Y+1	; 0x01
    416a:	87 2f       	mov	r24, r23
    416c:	0e 94 90 20 	call	0x4120	; 0x4120 <sd_raw_send_byte>
    4170:	6a 81       	ldd	r22, Y+2	; 0x02
    4172:	86 2f       	mov	r24, r22
    4174:	0e 94 90 20 	call	0x4120	; 0x4120 <sd_raw_send_byte>
    4178:	5b 81       	ldd	r21, Y+3	; 0x03
    417a:	85 2f       	mov	r24, r21
    417c:	0e 94 90 20 	call	0x4120	; 0x4120 <sd_raw_send_byte>
    4180:	4c 81       	ldd	r20, Y+4	; 0x04
    4182:	84 2f       	mov	r24, r20
    4184:	0e 94 90 20 	call	0x4120	; 0x4120 <sd_raw_send_byte>
    4188:	11 23       	and	r17, r17
    418a:	21 f0       	breq	.+8      	; 0x4194 <sd_raw_send_command+0x50>
    418c:	18 30       	cpi	r17, 0x08	; 8
    418e:	39 f4       	brne	.+14     	; 0x419e <sd_raw_send_command+0x5a>
    4190:	87 e8       	ldi	r24, 0x87	; 135
    4192:	01 c0       	rjmp	.+2      	; 0x4196 <sd_raw_send_command+0x52>
    4194:	85 e9       	ldi	r24, 0x95	; 149
    4196:	0e 94 90 20 	call	0x4120	; 0x4120 <sd_raw_send_byte>
    419a:	1a e0       	ldi	r17, 0x0A	; 10
    419c:	04 c0       	rjmp	.+8      	; 0x41a6 <sd_raw_send_command+0x62>
    419e:	8f ef       	ldi	r24, 0xFF	; 255
    41a0:	fa cf       	rjmp	.-12     	; 0x4196 <sd_raw_send_command+0x52>
    41a2:	11 50       	subi	r17, 0x01	; 1
    41a4:	21 f0       	breq	.+8      	; 0x41ae <sd_raw_send_command+0x6a>
    41a6:	0e 94 98 20 	call	0x4130	; 0x4130 <sd_raw_rec_byte>
    41aa:	8f 3f       	cpi	r24, 0xFF	; 255
    41ac:	d1 f3       	breq	.-12     	; 0x41a2 <sd_raw_send_command+0x5e>
    41ae:	0f 90       	pop	r0
    41b0:	0f 90       	pop	r0
    41b2:	0f 90       	pop	r0
    41b4:	0f 90       	pop	r0
    41b6:	df 91       	pop	r29
    41b8:	cf 91       	pop	r28
    41ba:	1f 91       	pop	r17
    41bc:	08 95       	ret

000041be <sd_raw_available>:
    41be:	83 b1       	in	r24, 0x03	; 3
    41c0:	80 95       	com	r24
    41c2:	81 70       	andi	r24, 0x01	; 1
    41c4:	08 95       	ret

000041c6 <sd_raw_init>:
    41c6:	cf 92       	push	r12
    41c8:	df 92       	push	r13
    41ca:	ef 92       	push	r14
    41cc:	ff 92       	push	r15
    41ce:	1f 93       	push	r17
    41d0:	cf 93       	push	r28
    41d2:	df 93       	push	r29
    41d4:	20 98       	cbi	0x04, 0	; 4
    41d6:	28 9a       	sbi	0x05, 0	; 5
    41d8:	23 9a       	sbi	0x04, 3	; 4
    41da:	25 9a       	sbi	0x04, 5	; 4
    41dc:	21 9a       	sbi	0x04, 1	; 4
    41de:	24 98       	cbi	0x04, 4	; 4
    41e0:	29 9a       	sbi	0x05, 1	; 5
    41e2:	83 e5       	ldi	r24, 0x53	; 83
    41e4:	8c bd       	out	0x2c, r24	; 44
    41e6:	8d b5       	in	r24, 0x2d	; 45
    41e8:	8e 7f       	andi	r24, 0xFE	; 254
    41ea:	8d bd       	out	0x2d, r24	; 45
    41ec:	10 92 72 03 	sts	0x0372, r1
    41f0:	0e 94 df 20 	call	0x41be	; 0x41be <sd_raw_available>
    41f4:	88 23       	and	r24, r24
    41f6:	09 f4       	brne	.+2      	; 0x41fa <sd_raw_init+0x34>
    41f8:	6d c0       	rjmp	.+218    	; 0x42d4 <sd_raw_init+0x10e>
    41fa:	ca e0       	ldi	r28, 0x0A	; 10
    41fc:	0e 94 98 20 	call	0x4130	; 0x4130 <sd_raw_rec_byte>
    4200:	c1 50       	subi	r28, 0x01	; 1
    4202:	e1 f7       	brne	.-8      	; 0x41fc <sd_raw_init+0x36>
    4204:	29 98       	cbi	0x05, 1	; 5
    4206:	c0 e0       	ldi	r28, 0x00	; 0
    4208:	d2 e0       	ldi	r29, 0x02	; 2
    420a:	40 e0       	ldi	r20, 0x00	; 0
    420c:	50 e0       	ldi	r21, 0x00	; 0
    420e:	ba 01       	movw	r22, r20
    4210:	80 e0       	ldi	r24, 0x00	; 0
    4212:	0e 94 a2 20 	call	0x4144	; 0x4144 <sd_raw_send_command>
    4216:	81 30       	cpi	r24, 0x01	; 1
    4218:	21 f0       	breq	.+8      	; 0x4222 <sd_raw_init+0x5c>
    421a:	21 97       	sbiw	r28, 0x01	; 1
    421c:	20 97       	sbiw	r28, 0x00	; 0
    421e:	a9 f7       	brne	.-22     	; 0x420a <sd_raw_init+0x44>
    4220:	58 c0       	rjmp	.+176    	; 0x42d2 <sd_raw_init+0x10c>
    4222:	4a ea       	ldi	r20, 0xAA	; 170
    4224:	51 e0       	ldi	r21, 0x01	; 1
    4226:	60 e0       	ldi	r22, 0x00	; 0
    4228:	70 e0       	ldi	r23, 0x00	; 0
    422a:	88 e0       	ldi	r24, 0x08	; 8
    422c:	0e 94 a2 20 	call	0x4144	; 0x4144 <sd_raw_send_command>
    4230:	82 fd       	sbrc	r24, 2
    4232:	15 c0       	rjmp	.+42     	; 0x425e <sd_raw_init+0x98>
    4234:	0e 94 98 20 	call	0x4130	; 0x4130 <sd_raw_rec_byte>
    4238:	0e 94 98 20 	call	0x4130	; 0x4130 <sd_raw_rec_byte>
    423c:	0e 94 98 20 	call	0x4130	; 0x4130 <sd_raw_rec_byte>
    4240:	80 ff       	sbrs	r24, 0
    4242:	48 c0       	rjmp	.+144    	; 0x42d4 <sd_raw_init+0x10e>
    4244:	0e 94 98 20 	call	0x4130	; 0x4130 <sd_raw_rec_byte>
    4248:	8a 3a       	cpi	r24, 0xAA	; 170
    424a:	09 f0       	breq	.+2      	; 0x424e <sd_raw_init+0x88>
    424c:	43 c0       	rjmp	.+134    	; 0x42d4 <sd_raw_init+0x10e>
    424e:	80 91 72 03 	lds	r24, 0x0372
    4252:	82 60       	ori	r24, 0x02	; 2
    4254:	80 93 72 03 	sts	0x0372, r24
    4258:	c0 e0       	ldi	r28, 0x00	; 0
    425a:	d0 e8       	ldi	r29, 0x80	; 128
    425c:	29 c0       	rjmp	.+82     	; 0x42b0 <sd_raw_init+0xea>
    425e:	40 e0       	ldi	r20, 0x00	; 0
    4260:	50 e0       	ldi	r21, 0x00	; 0
    4262:	ba 01       	movw	r22, r20
    4264:	87 e3       	ldi	r24, 0x37	; 55
    4266:	0e 94 a2 20 	call	0x4144	; 0x4144 <sd_raw_send_command>
    426a:	40 e0       	ldi	r20, 0x00	; 0
    426c:	50 e0       	ldi	r21, 0x00	; 0
    426e:	ba 01       	movw	r22, r20
    4270:	89 e2       	ldi	r24, 0x29	; 41
    4272:	0e 94 a2 20 	call	0x4144	; 0x4144 <sd_raw_send_command>
    4276:	82 fd       	sbrc	r24, 2
    4278:	ef cf       	rjmp	.-34     	; 0x4258 <sd_raw_init+0x92>
    427a:	80 91 72 03 	lds	r24, 0x0372
    427e:	81 60       	ori	r24, 0x01	; 1
    4280:	e9 cf       	rjmp	.-46     	; 0x4254 <sd_raw_init+0x8e>
    4282:	81 fd       	sbrc	r24, 1
    4284:	1b c0       	rjmp	.+54     	; 0x42bc <sd_raw_init+0xf6>
    4286:	c1 2c       	mov	r12, r1
    4288:	d1 2c       	mov	r13, r1
    428a:	76 01       	movw	r14, r12
    428c:	40 e0       	ldi	r20, 0x00	; 0
    428e:	50 e0       	ldi	r21, 0x00	; 0
    4290:	ba 01       	movw	r22, r20
    4292:	87 e3       	ldi	r24, 0x37	; 55
    4294:	0e 94 a2 20 	call	0x4144	; 0x4144 <sd_raw_send_command>
    4298:	b7 01       	movw	r22, r14
    429a:	a6 01       	movw	r20, r12
    429c:	89 e2       	ldi	r24, 0x29	; 41
    429e:	0e 94 a2 20 	call	0x4144	; 0x4144 <sd_raw_send_command>
    42a2:	18 2f       	mov	r17, r24
    42a4:	11 70       	andi	r17, 0x01	; 1
    42a6:	80 ff       	sbrs	r24, 0
    42a8:	17 c0       	rjmp	.+46     	; 0x42d8 <sd_raw_init+0x112>
    42aa:	21 97       	sbiw	r28, 0x01	; 1
    42ac:	20 97       	sbiw	r28, 0x00	; 0
    42ae:	89 f0       	breq	.+34     	; 0x42d2 <sd_raw_init+0x10c>
    42b0:	80 91 72 03 	lds	r24, 0x0372
    42b4:	98 2f       	mov	r25, r24
    42b6:	93 70       	andi	r25, 0x03	; 3
    42b8:	21 f7       	brne	.-56     	; 0x4282 <sd_raw_init+0xbc>
    42ba:	06 c0       	rjmp	.+12     	; 0x42c8 <sd_raw_init+0x102>
    42bc:	c1 2c       	mov	r12, r1
    42be:	d1 2c       	mov	r13, r1
    42c0:	e1 2c       	mov	r14, r1
    42c2:	80 e4       	ldi	r24, 0x40	; 64
    42c4:	f8 2e       	mov	r15, r24
    42c6:	e2 cf       	rjmp	.-60     	; 0x428c <sd_raw_init+0xc6>
    42c8:	40 e0       	ldi	r20, 0x00	; 0
    42ca:	50 e0       	ldi	r21, 0x00	; 0
    42cc:	ba 01       	movw	r22, r20
    42ce:	81 e0       	ldi	r24, 0x01	; 1
    42d0:	e6 cf       	rjmp	.-52     	; 0x429e <sd_raw_init+0xd8>
    42d2:	29 9a       	sbi	0x05, 1	; 5
    42d4:	10 e0       	ldi	r17, 0x00	; 0
    42d6:	2c c0       	rjmp	.+88     	; 0x4330 <sd_raw_init+0x16a>
    42d8:	c0 91 72 03 	lds	r28, 0x0372
    42dc:	c1 ff       	sbrs	r28, 1
    42de:	17 c0       	rjmp	.+46     	; 0x430e <sd_raw_init+0x148>
    42e0:	40 e0       	ldi	r20, 0x00	; 0
    42e2:	50 e0       	ldi	r21, 0x00	; 0
    42e4:	ba 01       	movw	r22, r20
    42e6:	8a e3       	ldi	r24, 0x3A	; 58
    42e8:	0e 94 a2 20 	call	0x4144	; 0x4144 <sd_raw_send_command>
    42ec:	88 23       	and	r24, r24
    42ee:	11 f0       	breq	.+4      	; 0x42f4 <sd_raw_init+0x12e>
    42f0:	29 9a       	sbi	0x05, 1	; 5
    42f2:	1e c0       	rjmp	.+60     	; 0x4330 <sd_raw_init+0x16a>
    42f4:	0e 94 98 20 	call	0x4130	; 0x4130 <sd_raw_rec_byte>
    42f8:	86 ff       	sbrs	r24, 6
    42fa:	03 c0       	rjmp	.+6      	; 0x4302 <sd_raw_init+0x13c>
    42fc:	c4 60       	ori	r28, 0x04	; 4
    42fe:	c0 93 72 03 	sts	0x0372, r28
    4302:	0e 94 98 20 	call	0x4130	; 0x4130 <sd_raw_rec_byte>
    4306:	0e 94 98 20 	call	0x4130	; 0x4130 <sd_raw_rec_byte>
    430a:	0e 94 98 20 	call	0x4130	; 0x4130 <sd_raw_rec_byte>
    430e:	40 e0       	ldi	r20, 0x00	; 0
    4310:	52 e0       	ldi	r21, 0x02	; 2
    4312:	60 e0       	ldi	r22, 0x00	; 0
    4314:	70 e0       	ldi	r23, 0x00	; 0
    4316:	80 e1       	ldi	r24, 0x10	; 16
    4318:	0e 94 a2 20 	call	0x4144	; 0x4144 <sd_raw_send_command>
    431c:	29 9a       	sbi	0x05, 1	; 5
    431e:	81 11       	cpse	r24, r1
    4320:	07 c0       	rjmp	.+14     	; 0x4330 <sd_raw_init+0x16a>
    4322:	8c b5       	in	r24, 0x2c	; 44
    4324:	8c 7f       	andi	r24, 0xFC	; 252
    4326:	8c bd       	out	0x2c, r24	; 44
    4328:	8d b5       	in	r24, 0x2d	; 45
    432a:	81 60       	ori	r24, 0x01	; 1
    432c:	8d bd       	out	0x2d, r24	; 45
    432e:	11 e0       	ldi	r17, 0x01	; 1
    4330:	81 2f       	mov	r24, r17
    4332:	df 91       	pop	r29
    4334:	cf 91       	pop	r28
    4336:	1f 91       	pop	r17
    4338:	ff 90       	pop	r15
    433a:	ef 90       	pop	r14
    433c:	df 90       	pop	r13
    433e:	cf 90       	pop	r12
    4340:	08 95       	ret

00004342 <sd_raw_read>:
    4342:	2f 92       	push	r2
    4344:	3f 92       	push	r3
    4346:	4f 92       	push	r4
    4348:	5f 92       	push	r5
    434a:	6f 92       	push	r6
    434c:	7f 92       	push	r7
    434e:	8f 92       	push	r8
    4350:	9f 92       	push	r9
    4352:	af 92       	push	r10
    4354:	bf 92       	push	r11
    4356:	cf 92       	push	r12
    4358:	df 92       	push	r13
    435a:	ef 92       	push	r14
    435c:	ff 92       	push	r15
    435e:	0f 93       	push	r16
    4360:	1f 93       	push	r17
    4362:	cf 93       	push	r28
    4364:	df 93       	push	r29
    4366:	cd b7       	in	r28, 0x3d	; 61
    4368:	de b7       	in	r29, 0x3e	; 62
    436a:	2e 97       	sbiw	r28, 0x0e	; 14
    436c:	0f b6       	in	r0, 0x3f	; 63
    436e:	f8 94       	cli
    4370:	de bf       	out	0x3e, r29	; 62
    4372:	0f be       	out	0x3f, r0	; 63
    4374:	cd bf       	out	0x3d, r28	; 61
    4376:	19 01       	movw	r2, r18
    4378:	2a 01       	movw	r4, r20
    437a:	3b 01       	movw	r6, r22
    437c:	4c 01       	movw	r8, r24
    437e:	1c 83       	std	Y+4, r17	; 0x04
    4380:	0b 83       	std	Y+3, r16	; 0x03
    4382:	fe 86       	std	Y+14, r15	; 0x0e
    4384:	ed 86       	std	Y+13, r14	; 0x0d
    4386:	4d 85       	ldd	r20, Y+13	; 0x0d
    4388:	5e 85       	ldd	r21, Y+14	; 0x0e
    438a:	45 2b       	or	r20, r21
    438c:	09 f4       	brne	.+2      	; 0x4390 <sd_raw_read+0x4e>
    438e:	7e c0       	rjmp	.+252    	; 0x448c <sd_raw_read+0x14a>
    4390:	91 01       	movw	r18, r2
    4392:	31 70       	andi	r19, 0x01	; 1
    4394:	3a 83       	std	Y+2, r19	; 0x02
    4396:	29 83       	std	Y+1, r18	; 0x01
    4398:	40 e0       	ldi	r20, 0x00	; 0
    439a:	50 e0       	ldi	r21, 0x00	; 0
    439c:	60 e0       	ldi	r22, 0x00	; 0
    439e:	70 e0       	ldi	r23, 0x00	; 0
    43a0:	cb 01       	movw	r24, r22
    43a2:	2d 83       	std	Y+5, r18	; 0x05
    43a4:	3e 83       	std	Y+6, r19	; 0x06
    43a6:	4f 83       	std	Y+7, r20	; 0x07
    43a8:	58 87       	std	Y+8, r21	; 0x08
    43aa:	69 87       	std	Y+9, r22	; 0x09
    43ac:	7a 87       	std	Y+10, r23	; 0x0a
    43ae:	8b 87       	std	Y+11, r24	; 0x0b
    43b0:	9c 87       	std	Y+12, r25	; 0x0c
    43b2:	91 01       	movw	r18, r2
    43b4:	a2 01       	movw	r20, r4
    43b6:	b3 01       	movw	r22, r6
    43b8:	c4 01       	movw	r24, r8
    43ba:	ad 80       	ldd	r10, Y+5	; 0x05
    43bc:	be 80       	ldd	r11, Y+6	; 0x06
    43be:	c1 2c       	mov	r12, r1
    43c0:	d1 2c       	mov	r13, r1
    43c2:	e1 2c       	mov	r14, r1
    43c4:	f1 2c       	mov	r15, r1
    43c6:	00 e0       	ldi	r16, 0x00	; 0
    43c8:	10 e0       	ldi	r17, 0x00	; 0
    43ca:	0e 94 ef 2a 	call	0x55de	; 0x55de <__subdi3>
    43ce:	e1 2c       	mov	r14, r1
    43d0:	e2 e0       	ldi	r30, 0x02	; 2
    43d2:	fe 2e       	mov	r15, r30
    43d4:	e9 81       	ldd	r30, Y+1	; 0x01
    43d6:	fa 81       	ldd	r31, Y+2	; 0x02
    43d8:	ee 1a       	sub	r14, r30
    43da:	ff 0a       	sbc	r15, r31
    43dc:	ed 85       	ldd	r30, Y+13	; 0x0d
    43de:	fe 85       	ldd	r31, Y+14	; 0x0e
    43e0:	ee 15       	cp	r30, r14
    43e2:	ff 05       	cpc	r31, r15
    43e4:	08 f4       	brcc	.+2      	; 0x43e8 <sd_raw_read+0xa6>
    43e6:	7f 01       	movw	r14, r30
    43e8:	29 98       	cbi	0x05, 1	; 5
    43ea:	e0 91 72 03 	lds	r30, 0x0372
    43ee:	e2 ff       	sbrs	r30, 2
    43f0:	03 c0       	rjmp	.+6      	; 0x43f8 <sd_raw_read+0xb6>
    43f2:	09 e0       	ldi	r16, 0x09	; 9
    43f4:	0e 94 be 2a 	call	0x557c	; 0x557c <__lshrdi3>
    43f8:	ba 01       	movw	r22, r20
    43fa:	42 2f       	mov	r20, r18
    43fc:	53 2f       	mov	r21, r19
    43fe:	81 e1       	ldi	r24, 0x11	; 17
    4400:	0e 94 a2 20 	call	0x4144	; 0x4144 <sd_raw_send_command>
    4404:	88 23       	and	r24, r24
    4406:	19 f0       	breq	.+6      	; 0x440e <sd_raw_read+0xcc>
    4408:	29 9a       	sbi	0x05, 1	; 5
    440a:	80 e0       	ldi	r24, 0x00	; 0
    440c:	40 c0       	rjmp	.+128    	; 0x448e <sd_raw_read+0x14c>
    440e:	0e 94 98 20 	call	0x4130	; 0x4130 <sd_raw_rec_byte>
    4412:	8e 3f       	cpi	r24, 0xFE	; 254
    4414:	e1 f7       	brne	.-8      	; 0x440e <sd_raw_read+0xcc>
    4416:	c9 80       	ldd	r12, Y+1	; 0x01
    4418:	da 80       	ldd	r13, Y+2	; 0x02
    441a:	ce 0c       	add	r12, r14
    441c:	df 1c       	adc	r13, r15
    441e:	00 e0       	ldi	r16, 0x00	; 0
    4420:	10 e0       	ldi	r17, 0x00	; 0
    4422:	0e 94 98 20 	call	0x4130	; 0x4130 <sd_raw_rec_byte>
    4426:	29 81       	ldd	r18, Y+1	; 0x01
    4428:	3a 81       	ldd	r19, Y+2	; 0x02
    442a:	02 17       	cp	r16, r18
    442c:	13 07       	cpc	r17, r19
    442e:	48 f0       	brcs	.+18     	; 0x4442 <sd_raw_read+0x100>
    4430:	0c 15       	cp	r16, r12
    4432:	1d 05       	cpc	r17, r13
    4434:	30 f4       	brcc	.+12     	; 0x4442 <sd_raw_read+0x100>
    4436:	eb 81       	ldd	r30, Y+3	; 0x03
    4438:	fc 81       	ldd	r31, Y+4	; 0x04
    443a:	80 83       	st	Z, r24
    443c:	31 96       	adiw	r30, 0x01	; 1
    443e:	fc 83       	std	Y+4, r31	; 0x04
    4440:	eb 83       	std	Y+3, r30	; 0x03
    4442:	0f 5f       	subi	r16, 0xFF	; 255
    4444:	1f 4f       	sbci	r17, 0xFF	; 255
    4446:	01 15       	cp	r16, r1
    4448:	f2 e0       	ldi	r31, 0x02	; 2
    444a:	1f 07       	cpc	r17, r31
    444c:	51 f7       	brne	.-44     	; 0x4422 <sd_raw_read+0xe0>
    444e:	0e 94 98 20 	call	0x4130	; 0x4130 <sd_raw_rec_byte>
    4452:	0e 94 98 20 	call	0x4130	; 0x4130 <sd_raw_rec_byte>
    4456:	29 9a       	sbi	0x05, 1	; 5
    4458:	0e 94 98 20 	call	0x4130	; 0x4130 <sd_raw_rec_byte>
    445c:	2d 85       	ldd	r18, Y+13	; 0x0d
    445e:	3e 85       	ldd	r19, Y+14	; 0x0e
    4460:	2e 19       	sub	r18, r14
    4462:	3f 09       	sbc	r19, r15
    4464:	3e 87       	std	Y+14, r19	; 0x0e
    4466:	2d 87       	std	Y+13, r18	; 0x0d
    4468:	97 01       	movw	r18, r14
    446a:	40 e0       	ldi	r20, 0x00	; 0
    446c:	50 e0       	ldi	r21, 0x00	; 0
    446e:	60 e0       	ldi	r22, 0x00	; 0
    4470:	70 e0       	ldi	r23, 0x00	; 0
    4472:	80 e0       	ldi	r24, 0x00	; 0
    4474:	90 e0       	ldi	r25, 0x00	; 0
    4476:	51 01       	movw	r10, r2
    4478:	62 01       	movw	r12, r4
    447a:	73 01       	movw	r14, r6
    447c:	84 01       	movw	r16, r8
    447e:	0e 94 da 2a 	call	0x55b4	; 0x55b4 <__adddi3>
    4482:	19 01       	movw	r2, r18
    4484:	2a 01       	movw	r4, r20
    4486:	3b 01       	movw	r6, r22
    4488:	4c 01       	movw	r8, r24
    448a:	7d cf       	rjmp	.-262    	; 0x4386 <sd_raw_read+0x44>
    448c:	81 e0       	ldi	r24, 0x01	; 1
    448e:	2e 96       	adiw	r28, 0x0e	; 14
    4490:	0f b6       	in	r0, 0x3f	; 63
    4492:	f8 94       	cli
    4494:	de bf       	out	0x3e, r29	; 62
    4496:	0f be       	out	0x3f, r0	; 63
    4498:	cd bf       	out	0x3d, r28	; 61
    449a:	df 91       	pop	r29
    449c:	cf 91       	pop	r28
    449e:	1f 91       	pop	r17
    44a0:	0f 91       	pop	r16
    44a2:	ff 90       	pop	r15
    44a4:	ef 90       	pop	r14
    44a6:	df 90       	pop	r13
    44a8:	cf 90       	pop	r12
    44aa:	bf 90       	pop	r11
    44ac:	af 90       	pop	r10
    44ae:	9f 90       	pop	r9
    44b0:	8f 90       	pop	r8
    44b2:	7f 90       	pop	r7
    44b4:	6f 90       	pop	r6
    44b6:	5f 90       	pop	r5
    44b8:	4f 90       	pop	r4
    44ba:	3f 90       	pop	r3
    44bc:	2f 90       	pop	r2
    44be:	08 95       	ret

000044c0 <sd_raw_read_interval>:
    44c0:	2f 92       	push	r2
    44c2:	3f 92       	push	r3
    44c4:	4f 92       	push	r4
    44c6:	5f 92       	push	r5
    44c8:	6f 92       	push	r6
    44ca:	7f 92       	push	r7
    44cc:	8f 92       	push	r8
    44ce:	9f 92       	push	r9
    44d0:	af 92       	push	r10
    44d2:	bf 92       	push	r11
    44d4:	cf 92       	push	r12
    44d6:	df 92       	push	r13
    44d8:	ef 92       	push	r14
    44da:	ff 92       	push	r15
    44dc:	0f 93       	push	r16
    44de:	1f 93       	push	r17
    44e0:	cf 93       	push	r28
    44e2:	df 93       	push	r29
    44e4:	cd b7       	in	r28, 0x3d	; 61
    44e6:	de b7       	in	r29, 0x3e	; 62
    44e8:	68 97       	sbiw	r28, 0x18	; 24
    44ea:	0f b6       	in	r0, 0x3f	; 63
    44ec:	f8 94       	cli
    44ee:	de bf       	out	0x3e, r29	; 62
    44f0:	0f be       	out	0x3f, r0	; 63
    44f2:	cd bf       	out	0x3d, r28	; 61
    44f4:	29 83       	std	Y+1, r18	; 0x01
    44f6:	3a 83       	std	Y+2, r19	; 0x02
    44f8:	4b 83       	std	Y+3, r20	; 0x03
    44fa:	5c 83       	std	Y+4, r21	; 0x04
    44fc:	6d 83       	std	Y+5, r22	; 0x05
    44fe:	7e 83       	std	Y+6, r23	; 0x06
    4500:	8f 83       	std	Y+7, r24	; 0x07
    4502:	98 87       	std	Y+8, r25	; 0x08
    4504:	1a 8b       	std	Y+18, r17	; 0x12
    4506:	09 8b       	std	Y+17, r16	; 0x11
    4508:	37 01       	movw	r6, r14
    450a:	16 01       	movw	r2, r12
    450c:	bc 8a       	std	Y+20, r11	; 0x14
    450e:	ab 8a       	std	Y+19, r10	; 0x13
    4510:	9e 8a       	std	Y+22, r9	; 0x16
    4512:	8d 8a       	std	Y+21, r8	; 0x15
    4514:	01 2b       	or	r16, r17
    4516:	09 f4       	brne	.+2      	; 0x451a <sd_raw_read_interval+0x5a>
    4518:	ea c0       	rjmp	.+468    	; 0x46ee <sd_raw_read_interval+0x22e>
    451a:	e1 14       	cp	r14, r1
    451c:	f1 04       	cpc	r15, r1
    451e:	09 f4       	brne	.+2      	; 0x4522 <sd_raw_read_interval+0x62>
    4520:	e6 c0       	rjmp	.+460    	; 0x46ee <sd_raw_read_interval+0x22e>
    4522:	ce 14       	cp	r12, r14
    4524:	df 04       	cpc	r13, r15
    4526:	08 f4       	brcc	.+2      	; 0x452a <sd_raw_read_interval+0x6a>
    4528:	e2 c0       	rjmp	.+452    	; 0x46ee <sd_raw_read_interval+0x22e>
    452a:	ab 28       	or	r10, r11
    452c:	09 f4       	brne	.+2      	; 0x4530 <sd_raw_read_interval+0x70>
    452e:	df c0       	rjmp	.+446    	; 0x46ee <sd_raw_read_interval+0x22e>
    4530:	29 98       	cbi	0x05, 1	; 5
    4532:	29 89       	ldd	r18, Y+17	; 0x11
    4534:	3a 89       	ldd	r19, Y+18	; 0x12
    4536:	2e 0d       	add	r18, r14
    4538:	3f 1d       	adc	r19, r15
    453a:	38 8f       	std	Y+24, r19	; 0x18
    453c:	2f 8b       	std	Y+23, r18	; 0x17
    453e:	49 81       	ldd	r20, Y+1	; 0x01
    4540:	5a 81       	ldd	r21, Y+2	; 0x02
    4542:	51 70       	andi	r21, 0x01	; 1
    4544:	5a 87       	std	Y+10, r21	; 0x0a
    4546:	49 87       	std	Y+9, r20	; 0x09
    4548:	41 2c       	mov	r4, r1
    454a:	f2 e0       	ldi	r31, 0x02	; 2
    454c:	5f 2e       	mov	r5, r31
    454e:	44 1a       	sub	r4, r20
    4550:	55 0a       	sbc	r5, r21
    4552:	80 91 72 03 	lds	r24, 0x0372
    4556:	82 ff       	sbrs	r24, 2
    4558:	14 c0       	rjmp	.+40     	; 0x4582 <sd_raw_read_interval+0xc2>
    455a:	29 81       	ldd	r18, Y+1	; 0x01
    455c:	3a 81       	ldd	r19, Y+2	; 0x02
    455e:	4b 81       	ldd	r20, Y+3	; 0x03
    4560:	5c 81       	ldd	r21, Y+4	; 0x04
    4562:	6d 81       	ldd	r22, Y+5	; 0x05
    4564:	7e 81       	ldd	r23, Y+6	; 0x06
    4566:	8f 81       	ldd	r24, Y+7	; 0x07
    4568:	98 85       	ldd	r25, Y+8	; 0x08
    456a:	09 e0       	ldi	r16, 0x09	; 9
    456c:	0e 94 be 2a 	call	0x557c	; 0x557c <__lshrdi3>
    4570:	f2 2f       	mov	r31, r18
    4572:	e3 2f       	mov	r30, r19
    4574:	94 2f       	mov	r25, r20
    4576:	85 2f       	mov	r24, r21
    4578:	4f 2f       	mov	r20, r31
    457a:	5e 2f       	mov	r21, r30
    457c:	69 2f       	mov	r22, r25
    457e:	78 2f       	mov	r23, r24
    4580:	0d c0       	rjmp	.+26     	; 0x459c <sd_raw_read_interval+0xdc>
    4582:	69 85       	ldd	r22, Y+9	; 0x09
    4584:	7a 85       	ldd	r23, Y+10	; 0x0a
    4586:	cb 01       	movw	r24, r22
    4588:	a0 e0       	ldi	r26, 0x00	; 0
    458a:	b0 e0       	ldi	r27, 0x00	; 0
    458c:	49 81       	ldd	r20, Y+1	; 0x01
    458e:	5a 81       	ldd	r21, Y+2	; 0x02
    4590:	6b 81       	ldd	r22, Y+3	; 0x03
    4592:	7c 81       	ldd	r23, Y+4	; 0x04
    4594:	48 1b       	sub	r20, r24
    4596:	59 0b       	sbc	r21, r25
    4598:	6a 0b       	sbc	r22, r26
    459a:	7b 0b       	sbc	r23, r27
    459c:	81 e1       	ldi	r24, 0x11	; 17
    459e:	0e 94 a2 20 	call	0x4144	; 0x4144 <sd_raw_send_command>
    45a2:	88 23       	and	r24, r24
    45a4:	11 f0       	breq	.+4      	; 0x45aa <sd_raw_read_interval+0xea>
    45a6:	29 9a       	sbi	0x05, 1	; 5
    45a8:	a2 c0       	rjmp	.+324    	; 0x46ee <sd_raw_read_interval+0x22e>
    45aa:	0e 94 98 20 	call	0x4130	; 0x4130 <sd_raw_rec_byte>
    45ae:	8e 3f       	cpi	r24, 0xFE	; 254
    45b0:	e1 f7       	brne	.-8      	; 0x45aa <sd_raw_read_interval+0xea>
    45b2:	00 e0       	ldi	r16, 0x00	; 0
    45b4:	10 e0       	ldi	r17, 0x00	; 0
    45b6:	89 85       	ldd	r24, Y+9	; 0x09
    45b8:	9a 85       	ldd	r25, Y+10	; 0x0a
    45ba:	08 17       	cp	r16, r24
    45bc:	19 07       	cpc	r17, r25
    45be:	29 f0       	breq	.+10     	; 0x45ca <sd_raw_read_interval+0x10a>
    45c0:	0e 94 98 20 	call	0x4130	; 0x4130 <sd_raw_rec_byte>
    45c4:	0f 5f       	subi	r16, 0xFF	; 255
    45c6:	1f 4f       	sbci	r17, 0xFF	; 255
    45c8:	f6 cf       	rjmp	.-20     	; 0x45b6 <sd_raw_read_interval+0xf6>
    45ca:	4c 01       	movw	r8, r24
    45cc:	46 14       	cp	r4, r6
    45ce:	57 04       	cpc	r5, r7
    45d0:	68 f0       	brcs	.+26     	; 0x45ec <sd_raw_read_interval+0x12c>
    45d2:	26 14       	cp	r2, r6
    45d4:	37 04       	cpc	r3, r7
    45d6:	50 f0       	brcs	.+20     	; 0x45ec <sd_raw_read_interval+0x12c>
    45d8:	09 89       	ldd	r16, Y+17	; 0x11
    45da:	1a 89       	ldd	r17, Y+18	; 0x12
    45dc:	09 c0       	rjmp	.+18     	; 0x45f0 <sd_raw_read_interval+0x130>
    45de:	46 18       	sub	r4, r6
    45e0:	57 08       	sbc	r5, r7
    45e2:	26 18       	sub	r2, r6
    45e4:	37 08       	sbc	r3, r7
    45e6:	41 14       	cp	r4, r1
    45e8:	51 04       	cpc	r5, r1
    45ea:	71 f5       	brne	.+92     	; 0x4648 <sd_raw_read_interval+0x188>
    45ec:	91 2c       	mov	r9, r1
    45ee:	33 c0       	rjmp	.+102    	; 0x4656 <sd_raw_read_interval+0x196>
    45f0:	2f 89       	ldd	r18, Y+23	; 0x17
    45f2:	38 8d       	ldd	r19, Y+24	; 0x18
    45f4:	02 17       	cp	r16, r18
    45f6:	13 07       	cpc	r17, r19
    45f8:	31 f0       	breq	.+12     	; 0x4606 <sd_raw_read_interval+0x146>
    45fa:	0e 94 98 20 	call	0x4130	; 0x4130 <sd_raw_rec_byte>
    45fe:	f8 01       	movw	r30, r16
    4600:	81 93       	st	Z+, r24
    4602:	8f 01       	movw	r16, r30
    4604:	f5 cf       	rjmp	.-22     	; 0x45f0 <sd_raw_read_interval+0x130>
    4606:	94 01       	movw	r18, r8
    4608:	40 e0       	ldi	r20, 0x00	; 0
    460a:	50 e0       	ldi	r21, 0x00	; 0
    460c:	60 e0       	ldi	r22, 0x00	; 0
    460e:	70 e0       	ldi	r23, 0x00	; 0
    4610:	80 e0       	ldi	r24, 0x00	; 0
    4612:	90 e0       	ldi	r25, 0x00	; 0
    4614:	a9 80       	ldd	r10, Y+1	; 0x01
    4616:	ba 80       	ldd	r11, Y+2	; 0x02
    4618:	cb 80       	ldd	r12, Y+3	; 0x03
    461a:	dc 80       	ldd	r13, Y+4	; 0x04
    461c:	ed 80       	ldd	r14, Y+5	; 0x05
    461e:	fe 80       	ldd	r15, Y+6	; 0x06
    4620:	0f 81       	ldd	r16, Y+7	; 0x07
    4622:	18 85       	ldd	r17, Y+8	; 0x08
    4624:	0e 94 da 2a 	call	0x55b4	; 0x55b4 <__adddi3>
    4628:	ed 88       	ldd	r14, Y+21	; 0x15
    462a:	fe 88       	ldd	r15, Y+22	; 0x16
    462c:	89 01       	movw	r16, r18
    462e:	9a 01       	movw	r18, r20
    4630:	ab 01       	movw	r20, r22
    4632:	bc 01       	movw	r22, r24
    4634:	89 89       	ldd	r24, Y+17	; 0x11
    4636:	9a 89       	ldd	r25, Y+18	; 0x12
    4638:	eb 89       	ldd	r30, Y+19	; 0x13
    463a:	fc 89       	ldd	r31, Y+20	; 0x14
    463c:	09 95       	icall
    463e:	81 11       	cpse	r24, r1
    4640:	ce cf       	rjmp	.-100    	; 0x45de <sd_raw_read_interval+0x11e>
    4642:	99 24       	eor	r9, r9
    4644:	93 94       	inc	r9
    4646:	07 c0       	rjmp	.+14     	; 0x4656 <sd_raw_read_interval+0x196>
    4648:	86 0c       	add	r8, r6
    464a:	97 1c       	adc	r9, r7
    464c:	21 14       	cp	r2, r1
    464e:	31 04       	cpc	r3, r1
    4650:	09 f0       	breq	.+2      	; 0x4654 <sd_raw_read_interval+0x194>
    4652:	bc cf       	rjmp	.-136    	; 0x45cc <sd_raw_read_interval+0x10c>
    4654:	cb cf       	rjmp	.-106    	; 0x45ec <sd_raw_read_interval+0x12c>
    4656:	41 14       	cp	r4, r1
    4658:	51 04       	cpc	r5, r1
    465a:	31 f0       	breq	.+12     	; 0x4668 <sd_raw_read_interval+0x1a8>
    465c:	0e 94 98 20 	call	0x4130	; 0x4130 <sd_raw_rec_byte>
    4660:	f1 e0       	ldi	r31, 0x01	; 1
    4662:	4f 1a       	sub	r4, r31
    4664:	51 08       	sbc	r5, r1
    4666:	f7 cf       	rjmp	.-18     	; 0x4656 <sd_raw_read_interval+0x196>
    4668:	0e 94 98 20 	call	0x4130	; 0x4130 <sd_raw_rec_byte>
    466c:	0e 94 98 20 	call	0x4130	; 0x4130 <sd_raw_rec_byte>
    4670:	26 14       	cp	r2, r6
    4672:	37 04       	cpc	r3, r7
    4674:	b8 f1       	brcs	.+110    	; 0x46e4 <sd_raw_read_interval+0x224>
    4676:	49 85       	ldd	r20, Y+9	; 0x09
    4678:	5a 85       	ldd	r21, Y+10	; 0x0a
    467a:	9a 01       	movw	r18, r20
    467c:	40 e0       	ldi	r20, 0x00	; 0
    467e:	50 e0       	ldi	r21, 0x00	; 0
    4680:	60 e0       	ldi	r22, 0x00	; 0
    4682:	70 e0       	ldi	r23, 0x00	; 0
    4684:	cb 01       	movw	r24, r22
    4686:	29 87       	std	Y+9, r18	; 0x09
    4688:	3a 87       	std	Y+10, r19	; 0x0a
    468a:	4b 87       	std	Y+11, r20	; 0x0b
    468c:	5c 87       	std	Y+12, r21	; 0x0c
    468e:	6d 87       	std	Y+13, r22	; 0x0d
    4690:	7e 87       	std	Y+14, r23	; 0x0e
    4692:	8f 87       	std	Y+15, r24	; 0x0f
    4694:	98 8b       	std	Y+16, r25	; 0x10
    4696:	20 e0       	ldi	r18, 0x00	; 0
    4698:	32 e0       	ldi	r19, 0x02	; 2
    469a:	40 e0       	ldi	r20, 0x00	; 0
    469c:	50 e0       	ldi	r21, 0x00	; 0
    469e:	60 e0       	ldi	r22, 0x00	; 0
    46a0:	70 e0       	ldi	r23, 0x00	; 0
    46a2:	80 e0       	ldi	r24, 0x00	; 0
    46a4:	90 e0       	ldi	r25, 0x00	; 0
    46a6:	a9 84       	ldd	r10, Y+9	; 0x09
    46a8:	ba 84       	ldd	r11, Y+10	; 0x0a
    46aa:	c1 2c       	mov	r12, r1
    46ac:	d1 2c       	mov	r13, r1
    46ae:	e1 2c       	mov	r14, r1
    46b0:	f1 2c       	mov	r15, r1
    46b2:	00 e0       	ldi	r16, 0x00	; 0
    46b4:	10 e0       	ldi	r17, 0x00	; 0
    46b6:	0e 94 ef 2a 	call	0x55de	; 0x55de <__subdi3>
    46ba:	a9 80       	ldd	r10, Y+1	; 0x01
    46bc:	ba 80       	ldd	r11, Y+2	; 0x02
    46be:	cb 80       	ldd	r12, Y+3	; 0x03
    46c0:	dc 80       	ldd	r13, Y+4	; 0x04
    46c2:	ed 80       	ldd	r14, Y+5	; 0x05
    46c4:	fe 80       	ldd	r15, Y+6	; 0x06
    46c6:	0f 81       	ldd	r16, Y+7	; 0x07
    46c8:	18 85       	ldd	r17, Y+8	; 0x08
    46ca:	0e 94 da 2a 	call	0x55b4	; 0x55b4 <__adddi3>
    46ce:	29 83       	std	Y+1, r18	; 0x01
    46d0:	3a 83       	std	Y+2, r19	; 0x02
    46d2:	4b 83       	std	Y+3, r20	; 0x03
    46d4:	5c 83       	std	Y+4, r21	; 0x04
    46d6:	6d 83       	std	Y+5, r22	; 0x05
    46d8:	7e 83       	std	Y+6, r23	; 0x06
    46da:	8f 83       	std	Y+7, r24	; 0x07
    46dc:	98 87       	std	Y+8, r25	; 0x08
    46de:	99 20       	and	r9, r9
    46e0:	09 f4       	brne	.+2      	; 0x46e4 <sd_raw_read_interval+0x224>
    46e2:	2d cf       	rjmp	.-422    	; 0x453e <sd_raw_read_interval+0x7e>
    46e4:	29 9a       	sbi	0x05, 1	; 5
    46e6:	0e 94 98 20 	call	0x4130	; 0x4130 <sd_raw_rec_byte>
    46ea:	81 e0       	ldi	r24, 0x01	; 1
    46ec:	01 c0       	rjmp	.+2      	; 0x46f0 <sd_raw_read_interval+0x230>
    46ee:	80 e0       	ldi	r24, 0x00	; 0
    46f0:	68 96       	adiw	r28, 0x18	; 24
    46f2:	0f b6       	in	r0, 0x3f	; 63
    46f4:	f8 94       	cli
    46f6:	de bf       	out	0x3e, r29	; 62
    46f8:	0f be       	out	0x3f, r0	; 63
    46fa:	cd bf       	out	0x3d, r28	; 61
    46fc:	df 91       	pop	r29
    46fe:	cf 91       	pop	r28
    4700:	1f 91       	pop	r17
    4702:	0f 91       	pop	r16
    4704:	ff 90       	pop	r15
    4706:	ef 90       	pop	r14
    4708:	df 90       	pop	r13
    470a:	cf 90       	pop	r12
    470c:	bf 90       	pop	r11
    470e:	af 90       	pop	r10
    4710:	9f 90       	pop	r9
    4712:	8f 90       	pop	r8
    4714:	7f 90       	pop	r7
    4716:	6f 90       	pop	r6
    4718:	5f 90       	pop	r5
    471a:	4f 90       	pop	r4
    471c:	3f 90       	pop	r3
    471e:	2f 90       	pop	r2
    4720:	08 95       	ret

00004722 <sram_wrmode>:
    4722:	40 98       	cbi	0x08, 0	; 8
    4724:	9d b5       	in	r25, 0x2d	; 45
    4726:	91 60       	ori	r25, 0x01	; 1
    4728:	9d bd       	out	0x2d, r25	; 45
    472a:	91 e0       	ldi	r25, 0x01	; 1
    472c:	9e bd       	out	0x2e, r25	; 46
    472e:	0d b4       	in	r0, 0x2d	; 45
    4730:	07 fe       	sbrs	r0, 7
    4732:	fd cf       	rjmp	.-6      	; 0x472e <sram_wrmode+0xc>
    4734:	9d b5       	in	r25, 0x2d	; 45
    4736:	91 60       	ori	r25, 0x01	; 1
    4738:	9d bd       	out	0x2d, r25	; 45
    473a:	8e bd       	out	0x2e, r24	; 46
    473c:	0d b4       	in	r0, 0x2d	; 45
    473e:	07 fe       	sbrs	r0, 7
    4740:	fd cf       	rjmp	.-6      	; 0x473c <sram_wrmode+0x1a>
    4742:	40 9a       	sbi	0x08, 0	; 8
    4744:	08 95       	ret

00004746 <sram_clear>:
    4746:	40 98       	cbi	0x08, 0	; 8
    4748:	8d b5       	in	r24, 0x2d	; 45
    474a:	81 60       	ori	r24, 0x01	; 1
    474c:	8d bd       	out	0x2d, r24	; 45
    474e:	82 e0       	ldi	r24, 0x02	; 2
    4750:	8e bd       	out	0x2e, r24	; 46
    4752:	0d b4       	in	r0, 0x2d	; 45
    4754:	07 fe       	sbrs	r0, 7
    4756:	fd cf       	rjmp	.-6      	; 0x4752 <sram_clear+0xc>
    4758:	8d b5       	in	r24, 0x2d	; 45
    475a:	81 60       	ori	r24, 0x01	; 1
    475c:	8d bd       	out	0x2d, r24	; 45
    475e:	1e bc       	out	0x2e, r1	; 46
    4760:	0d b4       	in	r0, 0x2d	; 45
    4762:	07 fe       	sbrs	r0, 7
    4764:	fd cf       	rjmp	.-6      	; 0x4760 <sram_clear+0x1a>
    4766:	8d b5       	in	r24, 0x2d	; 45
    4768:	81 60       	ori	r24, 0x01	; 1
    476a:	8d bd       	out	0x2d, r24	; 45
    476c:	1e bc       	out	0x2e, r1	; 46
    476e:	0d b4       	in	r0, 0x2d	; 45
    4770:	07 fe       	sbrs	r0, 7
    4772:	fd cf       	rjmp	.-6      	; 0x476e <sram_clear+0x28>
    4774:	80 e0       	ldi	r24, 0x00	; 0
    4776:	90 e0       	ldi	r25, 0x00	; 0
    4778:	a1 e0       	ldi	r26, 0x01	; 1
    477a:	b0 e0       	ldi	r27, 0x00	; 0
    477c:	2d b5       	in	r18, 0x2d	; 45
    477e:	21 60       	ori	r18, 0x01	; 1
    4780:	2d bd       	out	0x2d, r18	; 45
    4782:	1e bc       	out	0x2e, r1	; 46
    4784:	0d b4       	in	r0, 0x2d	; 45
    4786:	07 fe       	sbrs	r0, 7
    4788:	fd cf       	rjmp	.-6      	; 0x4784 <sram_clear+0x3e>
    478a:	01 97       	sbiw	r24, 0x01	; 1
    478c:	a1 09       	sbc	r26, r1
    478e:	b1 09       	sbc	r27, r1
    4790:	00 97       	sbiw	r24, 0x00	; 0
    4792:	a1 05       	cpc	r26, r1
    4794:	b1 05       	cpc	r27, r1
    4796:	91 f7       	brne	.-28     	; 0x477c <sram_clear+0x36>
    4798:	40 9a       	sbi	0x08, 0	; 8
    479a:	08 95       	ret

0000479c <sram_init>:
    479c:	38 9a       	sbi	0x07, 0	; 7
    479e:	40 9a       	sbi	0x08, 0	; 8
    47a0:	80 e4       	ldi	r24, 0x40	; 64
    47a2:	0e 94 91 23 	call	0x4722	; 0x4722 <sram_wrmode>
    47a6:	0c 94 a3 23 	jmp	0x4746	; 0x4746 <sram_clear>

000047aa <sram_write_byte>:
    47aa:	40 98       	cbi	0x08, 0	; 8
    47ac:	2d b5       	in	r18, 0x2d	; 45
    47ae:	21 60       	ori	r18, 0x01	; 1
    47b0:	2d bd       	out	0x2d, r18	; 45
    47b2:	22 e0       	ldi	r18, 0x02	; 2
    47b4:	2e bd       	out	0x2e, r18	; 46
    47b6:	0d b4       	in	r0, 0x2d	; 45
    47b8:	07 fe       	sbrs	r0, 7
    47ba:	fd cf       	rjmp	.-6      	; 0x47b6 <sram_write_byte+0xc>
    47bc:	2d b5       	in	r18, 0x2d	; 45
    47be:	21 60       	ori	r18, 0x01	; 1
    47c0:	2d bd       	out	0x2d, r18	; 45
    47c2:	9e bd       	out	0x2e, r25	; 46
    47c4:	0d b4       	in	r0, 0x2d	; 45
    47c6:	07 fe       	sbrs	r0, 7
    47c8:	fd cf       	rjmp	.-6      	; 0x47c4 <sram_write_byte+0x1a>
    47ca:	9d b5       	in	r25, 0x2d	; 45
    47cc:	91 60       	ori	r25, 0x01	; 1
    47ce:	9d bd       	out	0x2d, r25	; 45
    47d0:	8e bd       	out	0x2e, r24	; 46
    47d2:	0d b4       	in	r0, 0x2d	; 45
    47d4:	07 fe       	sbrs	r0, 7
    47d6:	fd cf       	rjmp	.-6      	; 0x47d2 <sram_write_byte+0x28>
    47d8:	8d b5       	in	r24, 0x2d	; 45
    47da:	81 60       	ori	r24, 0x01	; 1
    47dc:	8d bd       	out	0x2d, r24	; 45
    47de:	6e bd       	out	0x2e, r22	; 46
    47e0:	0d b4       	in	r0, 0x2d	; 45
    47e2:	07 fe       	sbrs	r0, 7
    47e4:	fd cf       	rjmp	.-6      	; 0x47e0 <sram_write_byte+0x36>
    47e6:	40 9a       	sbi	0x08, 0	; 8
    47e8:	08 95       	ret

000047ea <sram_read_byte>:
    47ea:	40 98       	cbi	0x08, 0	; 8
    47ec:	2d b5       	in	r18, 0x2d	; 45
    47ee:	21 60       	ori	r18, 0x01	; 1
    47f0:	2d bd       	out	0x2d, r18	; 45
    47f2:	23 e0       	ldi	r18, 0x03	; 3
    47f4:	2e bd       	out	0x2e, r18	; 46
    47f6:	0d b4       	in	r0, 0x2d	; 45
    47f8:	07 fe       	sbrs	r0, 7
    47fa:	fd cf       	rjmp	.-6      	; 0x47f6 <sram_read_byte+0xc>
    47fc:	2d b5       	in	r18, 0x2d	; 45
    47fe:	21 60       	ori	r18, 0x01	; 1
    4800:	2d bd       	out	0x2d, r18	; 45
    4802:	9e bd       	out	0x2e, r25	; 46
    4804:	0d b4       	in	r0, 0x2d	; 45
    4806:	07 fe       	sbrs	r0, 7
    4808:	fd cf       	rjmp	.-6      	; 0x4804 <sram_read_byte+0x1a>
    480a:	9d b5       	in	r25, 0x2d	; 45
    480c:	91 60       	ori	r25, 0x01	; 1
    480e:	9d bd       	out	0x2d, r25	; 45
    4810:	8e bd       	out	0x2e, r24	; 46
    4812:	0d b4       	in	r0, 0x2d	; 45
    4814:	07 fe       	sbrs	r0, 7
    4816:	fd cf       	rjmp	.-6      	; 0x4812 <sram_read_byte+0x28>
    4818:	8d b5       	in	r24, 0x2d	; 45
    481a:	81 60       	ori	r24, 0x01	; 1
    481c:	8d bd       	out	0x2d, r24	; 45
    481e:	1e bc       	out	0x2e, r1	; 46
    4820:	0d b4       	in	r0, 0x2d	; 45
    4822:	07 fe       	sbrs	r0, 7
    4824:	fd cf       	rjmp	.-6      	; 0x4820 <sram_read_byte+0x36>
    4826:	40 9a       	sbi	0x08, 0	; 8
    4828:	8e b5       	in	r24, 0x2e	; 46
    482a:	08 95       	ret

0000482c <sram_read_word>:
    482c:	40 98       	cbi	0x08, 0	; 8
    482e:	2d b5       	in	r18, 0x2d	; 45
    4830:	21 60       	ori	r18, 0x01	; 1
    4832:	2d bd       	out	0x2d, r18	; 45
    4834:	23 e0       	ldi	r18, 0x03	; 3
    4836:	2e bd       	out	0x2e, r18	; 46
    4838:	0d b4       	in	r0, 0x2d	; 45
    483a:	07 fe       	sbrs	r0, 7
    483c:	fd cf       	rjmp	.-6      	; 0x4838 <sram_read_word+0xc>
    483e:	2d b5       	in	r18, 0x2d	; 45
    4840:	21 60       	ori	r18, 0x01	; 1
    4842:	2d bd       	out	0x2d, r18	; 45
    4844:	9e bd       	out	0x2e, r25	; 46
    4846:	0d b4       	in	r0, 0x2d	; 45
    4848:	07 fe       	sbrs	r0, 7
    484a:	fd cf       	rjmp	.-6      	; 0x4846 <sram_read_word+0x1a>
    484c:	9d b5       	in	r25, 0x2d	; 45
    484e:	91 60       	ori	r25, 0x01	; 1
    4850:	9d bd       	out	0x2d, r25	; 45
    4852:	8e bd       	out	0x2e, r24	; 46
    4854:	0d b4       	in	r0, 0x2d	; 45
    4856:	07 fe       	sbrs	r0, 7
    4858:	fd cf       	rjmp	.-6      	; 0x4854 <sram_read_word+0x28>
    485a:	8d b5       	in	r24, 0x2d	; 45
    485c:	81 60       	ori	r24, 0x01	; 1
    485e:	8d bd       	out	0x2d, r24	; 45
    4860:	1e bc       	out	0x2e, r1	; 46
    4862:	0d b4       	in	r0, 0x2d	; 45
    4864:	07 fe       	sbrs	r0, 7
    4866:	fd cf       	rjmp	.-6      	; 0x4862 <sram_read_word+0x36>
    4868:	8e b5       	in	r24, 0x2e	; 46
    486a:	90 e0       	ldi	r25, 0x00	; 0
    486c:	2d b5       	in	r18, 0x2d	; 45
    486e:	21 60       	ori	r18, 0x01	; 1
    4870:	2d bd       	out	0x2d, r18	; 45
    4872:	1e bc       	out	0x2e, r1	; 46
    4874:	0d b4       	in	r0, 0x2d	; 45
    4876:	07 fe       	sbrs	r0, 7
    4878:	fd cf       	rjmp	.-6      	; 0x4874 <sram_read_word+0x48>
    487a:	2e b5       	in	r18, 0x2e	; 46
    487c:	40 9a       	sbi	0x08, 0	; 8
    487e:	92 2b       	or	r25, r18
    4880:	08 95       	ret

00004882 <sram_load_block>:
    4882:	40 98       	cbi	0x08, 0	; 8
    4884:	2d b5       	in	r18, 0x2d	; 45
    4886:	21 60       	ori	r18, 0x01	; 1
    4888:	2d bd       	out	0x2d, r18	; 45
    488a:	23 e0       	ldi	r18, 0x03	; 3
    488c:	2e bd       	out	0x2e, r18	; 46
    488e:	0d b4       	in	r0, 0x2d	; 45
    4890:	07 fe       	sbrs	r0, 7
    4892:	fd cf       	rjmp	.-6      	; 0x488e <sram_load_block+0xc>
    4894:	2d b5       	in	r18, 0x2d	; 45
    4896:	21 60       	ori	r18, 0x01	; 1
    4898:	2d bd       	out	0x2d, r18	; 45
    489a:	9e bd       	out	0x2e, r25	; 46
    489c:	0d b4       	in	r0, 0x2d	; 45
    489e:	07 fe       	sbrs	r0, 7
    48a0:	fd cf       	rjmp	.-6      	; 0x489c <sram_load_block+0x1a>
    48a2:	9d b5       	in	r25, 0x2d	; 45
    48a4:	91 60       	ori	r25, 0x01	; 1
    48a6:	9d bd       	out	0x2d, r25	; 45
    48a8:	8e bd       	out	0x2e, r24	; 46
    48aa:	0d b4       	in	r0, 0x2d	; 45
    48ac:	07 fe       	sbrs	r0, 7
    48ae:	fd cf       	rjmp	.-6      	; 0x48aa <sram_load_block+0x28>
    48b0:	fa 01       	movw	r30, r20
    48b2:	64 0f       	add	r22, r20
    48b4:	75 1f       	adc	r23, r21
    48b6:	e6 17       	cp	r30, r22
    48b8:	f7 07       	cpc	r31, r23
    48ba:	51 f0       	breq	.+20     	; 0x48d0 <sram_load_block+0x4e>
    48bc:	8d b5       	in	r24, 0x2d	; 45
    48be:	81 60       	ori	r24, 0x01	; 1
    48c0:	8d bd       	out	0x2d, r24	; 45
    48c2:	1e bc       	out	0x2e, r1	; 46
    48c4:	0d b4       	in	r0, 0x2d	; 45
    48c6:	07 fe       	sbrs	r0, 7
    48c8:	fd cf       	rjmp	.-6      	; 0x48c4 <sram_load_block+0x42>
    48ca:	8e b5       	in	r24, 0x2e	; 46
    48cc:	81 93       	st	Z+, r24
    48ce:	f3 cf       	rjmp	.-26     	; 0x48b6 <sram_load_block+0x34>
    48d0:	40 9a       	sbi	0x08, 0	; 8
    48d2:	08 95       	ret

000048d4 <sram_store_block>:
    48d4:	40 98       	cbi	0x08, 0	; 8
    48d6:	2d b5       	in	r18, 0x2d	; 45
    48d8:	21 60       	ori	r18, 0x01	; 1
    48da:	2d bd       	out	0x2d, r18	; 45
    48dc:	22 e0       	ldi	r18, 0x02	; 2
    48de:	2e bd       	out	0x2e, r18	; 46
    48e0:	0d b4       	in	r0, 0x2d	; 45
    48e2:	07 fe       	sbrs	r0, 7
    48e4:	fd cf       	rjmp	.-6      	; 0x48e0 <sram_store_block+0xc>
    48e6:	2d b5       	in	r18, 0x2d	; 45
    48e8:	21 60       	ori	r18, 0x01	; 1
    48ea:	2d bd       	out	0x2d, r18	; 45
    48ec:	9e bd       	out	0x2e, r25	; 46
    48ee:	0d b4       	in	r0, 0x2d	; 45
    48f0:	07 fe       	sbrs	r0, 7
    48f2:	fd cf       	rjmp	.-6      	; 0x48ee <sram_store_block+0x1a>
    48f4:	9d b5       	in	r25, 0x2d	; 45
    48f6:	91 60       	ori	r25, 0x01	; 1
    48f8:	9d bd       	out	0x2d, r25	; 45
    48fa:	8e bd       	out	0x2e, r24	; 46
    48fc:	0d b4       	in	r0, 0x2d	; 45
    48fe:	07 fe       	sbrs	r0, 7
    4900:	fd cf       	rjmp	.-6      	; 0x48fc <sram_store_block+0x28>
    4902:	fa 01       	movw	r30, r20
    4904:	64 0f       	add	r22, r20
    4906:	75 1f       	adc	r23, r21
    4908:	e6 17       	cp	r30, r22
    490a:	f7 07       	cpc	r31, r23
    490c:	49 f0       	breq	.+18     	; 0x4920 <sram_store_block+0x4c>
    490e:	91 91       	ld	r25, Z+
    4910:	8d b5       	in	r24, 0x2d	; 45
    4912:	81 60       	ori	r24, 0x01	; 1
    4914:	8d bd       	out	0x2d, r24	; 45
    4916:	9e bd       	out	0x2e, r25	; 46
    4918:	0d b4       	in	r0, 0x2d	; 45
    491a:	07 fe       	sbrs	r0, 7
    491c:	fd cf       	rjmp	.-6      	; 0x4918 <sram_store_block+0x44>
    491e:	f4 cf       	rjmp	.-24     	; 0x4908 <sram_store_block+0x34>
    4920:	40 9a       	sbi	0x08, 0	; 8
    4922:	08 95       	ret

00004924 <select_font>:
    4924:	80 93 0e 01 	sts	0x010E, r24
    4928:	08 95       	ret

0000492a <new_line>:
    492a:	10 92 74 03 	sts	0x0374, r1
    492e:	80 91 0e 01 	lds	r24, 0x010E
    4932:	81 30       	cpi	r24, 0x01	; 1
    4934:	71 f0       	breq	.+28     	; 0x4952 <new_line+0x28>
    4936:	18 f0       	brcs	.+6      	; 0x493e <new_line+0x14>
    4938:	82 30       	cpi	r24, 0x02	; 2
    493a:	a9 f0       	breq	.+42     	; 0x4966 <new_line+0x3c>
    493c:	08 95       	ret
    493e:	20 91 73 03 	lds	r18, 0x0373
    4942:	82 2f       	mov	r24, r18
    4944:	90 e0       	ldi	r25, 0x00	; 0
    4946:	ce 97       	sbiw	r24, 0x3e	; 62
    4948:	14 f4       	brge	.+4      	; 0x494e <new_line+0x24>
    494a:	2a 5f       	subi	r18, 0xFA	; 250
    494c:	13 c0       	rjmp	.+38     	; 0x4974 <new_line+0x4a>
    494e:	86 e0       	ldi	r24, 0x06	; 6
    4950:	15 c0       	rjmp	.+42     	; 0x497c <new_line+0x52>
    4952:	20 91 73 03 	lds	r18, 0x0373
    4956:	82 2f       	mov	r24, r18
    4958:	90 e0       	ldi	r25, 0x00	; 0
    495a:	c6 97       	sbiw	r24, 0x36	; 54
    495c:	14 f4       	brge	.+4      	; 0x4962 <new_line+0x38>
    495e:	26 5f       	subi	r18, 0xF6	; 246
    4960:	09 c0       	rjmp	.+18     	; 0x4974 <new_line+0x4a>
    4962:	8a e0       	ldi	r24, 0x0A	; 10
    4964:	0b c0       	rjmp	.+22     	; 0x497c <new_line+0x52>
    4966:	20 91 73 03 	lds	r18, 0x0373
    496a:	82 2f       	mov	r24, r18
    496c:	90 e0       	ldi	r25, 0x00	; 0
    496e:	ca 97       	sbiw	r24, 0x3a	; 58
    4970:	24 f4       	brge	.+8      	; 0x497a <new_line+0x50>
    4972:	28 5f       	subi	r18, 0xF8	; 248
    4974:	20 93 73 03 	sts	0x0373, r18
    4978:	08 95       	ret
    497a:	88 e0       	ldi	r24, 0x08	; 8
    497c:	0c 94 6a 28 	jmp	0x50d4	; 0x50d4 <scroll_up>

00004980 <put_char>:
    4980:	0f 93       	push	r16
    4982:	90 91 0e 01 	lds	r25, 0x010E
    4986:	91 30       	cpi	r25, 0x01	; 1
    4988:	f9 f0       	breq	.+62     	; 0x49c8 <put_char+0x48>
    498a:	18 f0       	brcs	.+6      	; 0x4992 <put_char+0x12>
    498c:	92 30       	cpi	r25, 0x02	; 2
    498e:	a1 f1       	breq	.+104    	; 0x49f8 <put_char+0x78>
    4990:	4e c0       	rjmp	.+156    	; 0x4a2e <put_char+0xae>
    4992:	80 31       	cpi	r24, 0x10	; 16
    4994:	08 f0       	brcs	.+2      	; 0x4998 <put_char+0x18>
    4996:	4b c0       	rjmp	.+150    	; 0x4a2e <put_char+0xae>
    4998:	96 e0       	ldi	r25, 0x06	; 6
    499a:	89 9f       	mul	r24, r25
    499c:	90 01       	movw	r18, r0
    499e:	11 24       	eor	r1, r1
    49a0:	26 5f       	subi	r18, 0xF6	; 246
    49a2:	32 4e       	sbci	r19, 0xE2	; 226
    49a4:	00 e0       	ldi	r16, 0x00	; 0
    49a6:	46 e0       	ldi	r20, 0x06	; 6
    49a8:	60 91 73 03 	lds	r22, 0x0373
    49ac:	80 91 74 03 	lds	r24, 0x0374
    49b0:	0e 94 9b 26 	call	0x4d36	; 0x4d36 <put_sprite>
    49b4:	80 91 74 03 	lds	r24, 0x0374
    49b8:	8c 5f       	subi	r24, 0xFC	; 252
    49ba:	80 93 74 03 	sts	0x0374, r24
    49be:	8e 37       	cpi	r24, 0x7E	; 126
    49c0:	b0 f1       	brcs	.+108    	; 0x4a2e <put_char+0xae>
    49c2:	0f 91       	pop	r16
    49c4:	0c 94 95 24 	jmp	0x492a	; 0x492a <new_line>
    49c8:	80 31       	cpi	r24, 0x10	; 16
    49ca:	88 f5       	brcc	.+98     	; 0x4a2e <put_char+0xae>
    49cc:	9a e0       	ldi	r25, 0x0A	; 10
    49ce:	89 9f       	mul	r24, r25
    49d0:	90 01       	movw	r18, r0
    49d2:	11 24       	eor	r1, r1
    49d4:	26 59       	subi	r18, 0x96	; 150
    49d6:	33 4e       	sbci	r19, 0xE3	; 227
    49d8:	00 e0       	ldi	r16, 0x00	; 0
    49da:	4a e0       	ldi	r20, 0x0A	; 10
    49dc:	60 91 73 03 	lds	r22, 0x0373
    49e0:	80 91 74 03 	lds	r24, 0x0374
    49e4:	0e 94 9b 26 	call	0x4d36	; 0x4d36 <put_sprite>
    49e8:	80 91 74 03 	lds	r24, 0x0374
    49ec:	88 5f       	subi	r24, 0xF8	; 248
    49ee:	80 93 74 03 	sts	0x0374, r24
    49f2:	8a 37       	cpi	r24, 0x7A	; 122
    49f4:	e0 f0       	brcs	.+56     	; 0x4a2e <put_char+0xae>
    49f6:	e5 cf       	rjmp	.-54     	; 0x49c2 <put_char+0x42>
    49f8:	8a 30       	cpi	r24, 0x0A	; 10
    49fa:	19 f3       	breq	.-58     	; 0x49c2 <put_char+0x42>
    49fc:	90 ee       	ldi	r25, 0xE0	; 224
    49fe:	98 0f       	add	r25, r24
    4a00:	95 36       	cpi	r25, 0x65	; 101
    4a02:	a8 f4       	brcc	.+42     	; 0x4a2e <put_char+0xae>
    4a04:	98 e0       	ldi	r25, 0x08	; 8
    4a06:	89 9f       	mul	r24, r25
    4a08:	90 01       	movw	r18, r0
    4a0a:	11 24       	eor	r1, r1
    4a0c:	2e 5b       	subi	r18, 0xBE	; 190
    4a0e:	37 4e       	sbci	r19, 0xE7	; 231
    4a10:	00 e0       	ldi	r16, 0x00	; 0
    4a12:	48 e0       	ldi	r20, 0x08	; 8
    4a14:	60 91 73 03 	lds	r22, 0x0373
    4a18:	80 91 74 03 	lds	r24, 0x0374
    4a1c:	0e 94 9b 26 	call	0x4d36	; 0x4d36 <put_sprite>
    4a20:	80 91 74 03 	lds	r24, 0x0374
    4a24:	8a 5f       	subi	r24, 0xFA	; 250
    4a26:	80 93 74 03 	sts	0x0374, r24
    4a2a:	8c 37       	cpi	r24, 0x7C	; 124
    4a2c:	50 f6       	brcc	.-108    	; 0x49c2 <put_char+0x42>
    4a2e:	0f 91       	pop	r16
    4a30:	08 95       	ret

00004a32 <set_cursor>:
    4a32:	80 93 74 03 	sts	0x0374, r24
    4a36:	60 93 73 03 	sts	0x0373, r22
    4a3a:	08 95       	ret

00004a3c <print>:
    4a3c:	cf 93       	push	r28
    4a3e:	df 93       	push	r29
    4a40:	ec 01       	movw	r28, r24
    4a42:	89 91       	ld	r24, Y+
    4a44:	88 23       	and	r24, r24
    4a46:	19 f0       	breq	.+6      	; 0x4a4e <print+0x12>
    4a48:	0e 94 c0 24 	call	0x4980	; 0x4980 <put_char>
    4a4c:	fa cf       	rjmp	.-12     	; 0x4a42 <print+0x6>
    4a4e:	df 91       	pop	r29
    4a50:	cf 91       	pop	r28
    4a52:	08 95       	ret

00004a54 <prt_pstr>:
    4a54:	cf 93       	push	r28
    4a56:	df 93       	push	r29
    4a58:	fc 01       	movw	r30, r24
    4a5a:	84 91       	lpm	r24, Z
    4a5c:	ef 01       	movw	r28, r30
    4a5e:	21 96       	adiw	r28, 0x01	; 1
    4a60:	88 23       	and	r24, r24
    4a62:	21 f0       	breq	.+8      	; 0x4a6c <prt_pstr+0x18>
    4a64:	0e 94 c0 24 	call	0x4980	; 0x4980 <put_char>
    4a68:	fe 01       	movw	r30, r28
    4a6a:	f7 cf       	rjmp	.-18     	; 0x4a5a <prt_pstr+0x6>
    4a6c:	df 91       	pop	r29
    4a6e:	cf 91       	pop	r28
    4a70:	08 95       	ret

00004a72 <print_hex>:
    4a72:	0f 93       	push	r16
    4a74:	1f 93       	push	r17
    4a76:	cf 93       	push	r28
    4a78:	df 93       	push	r29
    4a7a:	00 d0       	rcall	.+0      	; 0x4a7c <print_hex+0xa>
    4a7c:	00 d0       	rcall	.+0      	; 0x4a7e <print_hex+0xc>
    4a7e:	1f 92       	push	r1
    4a80:	cd b7       	in	r28, 0x3d	; 61
    4a82:	de b7       	in	r29, 0x3e	; 62
    4a84:	13 e0       	ldi	r17, 0x03	; 3
    4a86:	48 2f       	mov	r20, r24
    4a88:	4f 70       	andi	r20, 0x0F	; 15
    4a8a:	21 2f       	mov	r18, r17
    4a8c:	30 e0       	ldi	r19, 0x00	; 0
    4a8e:	e1 e0       	ldi	r30, 0x01	; 1
    4a90:	f0 e0       	ldi	r31, 0x00	; 0
    4a92:	ec 0f       	add	r30, r28
    4a94:	fd 1f       	adc	r31, r29
    4a96:	e2 0f       	add	r30, r18
    4a98:	f3 1f       	adc	r31, r19
    4a9a:	4a 30       	cpi	r20, 0x0A	; 10
    4a9c:	10 f4       	brcc	.+4      	; 0x4aa2 <print_hex+0x30>
    4a9e:	40 5d       	subi	r20, 0xD0	; 208
    4aa0:	01 c0       	rjmp	.+2      	; 0x4aa4 <print_hex+0x32>
    4aa2:	49 5c       	subi	r20, 0xC9	; 201
    4aa4:	40 83       	st	Z, r20
    4aa6:	34 e0       	ldi	r19, 0x04	; 4
    4aa8:	96 95       	lsr	r25
    4aaa:	87 95       	ror	r24
    4aac:	3a 95       	dec	r19
    4aae:	e1 f7       	brne	.-8      	; 0x4aa8 <print_hex+0x36>
    4ab0:	11 50       	subi	r17, 0x01	; 1
    4ab2:	61 50       	subi	r22, 0x01	; 1
    4ab4:	00 97       	sbiw	r24, 0x00	; 0
    4ab6:	39 f7       	brne	.-50     	; 0x4a86 <print_hex+0x14>
    4ab8:	06 2f       	mov	r16, r22
    4aba:	80 e2       	ldi	r24, 0x20	; 32
    4abc:	6d 83       	std	Y+5, r22	; 0x05
    4abe:	0e 94 c0 24 	call	0x4980	; 0x4980 <put_char>
    4ac2:	6d 81       	ldd	r22, Y+5	; 0x05
    4ac4:	91 2f       	mov	r25, r17
    4ac6:	96 1b       	sub	r25, r22
    4ac8:	20 e3       	ldi	r18, 0x30	; 48
    4aca:	89 2f       	mov	r24, r25
    4acc:	86 0f       	add	r24, r22
    4ace:	66 23       	and	r22, r22
    4ad0:	49 f0       	breq	.+18     	; 0x4ae4 <print_hex+0x72>
    4ad2:	e1 e0       	ldi	r30, 0x01	; 1
    4ad4:	f0 e0       	ldi	r31, 0x00	; 0
    4ad6:	ec 0f       	add	r30, r28
    4ad8:	fd 1f       	adc	r31, r29
    4ada:	e8 0f       	add	r30, r24
    4adc:	f1 1d       	adc	r31, r1
    4ade:	20 83       	st	Z, r18
    4ae0:	61 50       	subi	r22, 0x01	; 1
    4ae2:	f3 cf       	rjmp	.-26     	; 0x4aca <print_hex+0x58>
    4ae4:	81 e0       	ldi	r24, 0x01	; 1
    4ae6:	81 0f       	add	r24, r17
    4ae8:	80 1b       	sub	r24, r16
    4aea:	84 30       	cpi	r24, 0x04	; 4
    4aec:	68 f4       	brcc	.+26     	; 0x4b08 <print_hex+0x96>
    4aee:	11 e0       	ldi	r17, 0x01	; 1
    4af0:	18 0f       	add	r17, r24
    4af2:	e1 e0       	ldi	r30, 0x01	; 1
    4af4:	f0 e0       	ldi	r31, 0x00	; 0
    4af6:	ec 0f       	add	r30, r28
    4af8:	fd 1f       	adc	r31, r29
    4afa:	e8 0f       	add	r30, r24
    4afc:	f1 1d       	adc	r31, r1
    4afe:	80 81       	ld	r24, Z
    4b00:	0e 94 c0 24 	call	0x4980	; 0x4980 <put_char>
    4b04:	81 2f       	mov	r24, r17
    4b06:	f1 cf       	rjmp	.-30     	; 0x4aea <print_hex+0x78>
    4b08:	0f 90       	pop	r0
    4b0a:	0f 90       	pop	r0
    4b0c:	0f 90       	pop	r0
    4b0e:	0f 90       	pop	r0
    4b10:	0f 90       	pop	r0
    4b12:	df 91       	pop	r29
    4b14:	cf 91       	pop	r28
    4b16:	1f 91       	pop	r17
    4b18:	0f 91       	pop	r16
    4b1a:	08 95       	ret

00004b1c <text_scroller>:
    4b1c:	ff 92       	push	r15
    4b1e:	0f 93       	push	r16
    4b20:	1f 93       	push	r17
    4b22:	cf 93       	push	r28
    4b24:	df 93       	push	r29
    4b26:	ec 01       	movw	r28, r24
    4b28:	06 2f       	mov	r16, r22
    4b2a:	0e 94 34 28 	call	0x5068	; 0x5068 <cls>
    4b2e:	82 e0       	ldi	r24, 0x02	; 2
    4b30:	80 93 0e 01 	sts	0x010E, r24
    4b34:	9e 01       	movw	r18, r28
    4b36:	2f 5f       	subi	r18, 0xFF	; 255
    4b38:	3f 4f       	sbci	r19, 0xFF	; 255
    4b3a:	fe 01       	movw	r30, r28
    4b3c:	14 91       	lpm	r17, Z
    4b3e:	40 e2       	ldi	r20, 0x20	; 32
    4b40:	f4 2e       	mov	r15, r20
    4b42:	11 23       	and	r17, r17
    4b44:	89 f1       	breq	.+98     	; 0x4ba8 <text_scroller+0x8c>
    4b46:	10 92 74 03 	sts	0x0374, r1
    4b4a:	f0 92 73 03 	sts	0x0373, r15
    4b4e:	e9 01       	movw	r28, r18
    4b50:	1a 30       	cpi	r17, 0x0A	; 10
    4b52:	a1 f0       	breq	.+40     	; 0x4b7c <text_scroller+0x60>
    4b54:	81 2f       	mov	r24, r17
    4b56:	0e 94 c0 24 	call	0x4980	; 0x4980 <put_char>
    4b5a:	21 96       	adiw	r28, 0x01	; 1
    4b5c:	fe 01       	movw	r30, r28
    4b5e:	31 97       	sbiw	r30, 0x01	; 1
    4b60:	14 91       	lpm	r17, Z
    4b62:	0e 94 e1 1f 	call	0x3fc2	; 0x3fc2 <joystick_break>
    4b66:	88 23       	and	r24, r24
    4b68:	39 f0       	breq	.+14     	; 0x4b78 <text_scroller+0x5c>
    4b6a:	df 91       	pop	r29
    4b6c:	cf 91       	pop	r28
    4b6e:	1f 91       	pop	r17
    4b70:	0f 91       	pop	r16
    4b72:	ff 90       	pop	r15
    4b74:	0c 94 34 28 	jmp	0x5068	; 0x5068 <cls>
    4b78:	11 11       	cpse	r17, r1
    4b7a:	ea cf       	rjmp	.-44     	; 0x4b50 <text_scroller+0x34>
    4b7c:	18 e0       	ldi	r17, 0x08	; 8
    4b7e:	00 93 77 03 	sts	0x0377, r16
    4b82:	80 91 77 03 	lds	r24, 0x0377
    4b86:	81 11       	cpse	r24, r1
    4b88:	fc cf       	rjmp	.-8      	; 0x4b82 <text_scroller+0x66>
    4b8a:	81 e0       	ldi	r24, 0x01	; 1
    4b8c:	0e 94 6a 28 	call	0x50d4	; 0x50d4 <scroll_up>
    4b90:	0e 94 e1 1f 	call	0x3fc2	; 0x3fc2 <joystick_break>
    4b94:	81 11       	cpse	r24, r1
    4b96:	e9 cf       	rjmp	.-46     	; 0x4b6a <text_scroller+0x4e>
    4b98:	11 50       	subi	r17, 0x01	; 1
    4b9a:	89 f7       	brne	.-30     	; 0x4b7e <text_scroller+0x62>
    4b9c:	9e 01       	movw	r18, r28
    4b9e:	2f 5f       	subi	r18, 0xFF	; 255
    4ba0:	3f 4f       	sbci	r19, 0xFF	; 255
    4ba2:	fe 01       	movw	r30, r28
    4ba4:	14 91       	lpm	r17, Z
    4ba6:	cd cf       	rjmp	.-102    	; 0x4b42 <text_scroller+0x26>
    4ba8:	c0 e2       	ldi	r28, 0x20	; 32
    4baa:	00 93 77 03 	sts	0x0377, r16
    4bae:	80 91 77 03 	lds	r24, 0x0377
    4bb2:	81 11       	cpse	r24, r1
    4bb4:	fc cf       	rjmp	.-8      	; 0x4bae <text_scroller+0x92>
    4bb6:	81 e0       	ldi	r24, 0x01	; 1
    4bb8:	0e 94 6a 28 	call	0x50d4	; 0x50d4 <scroll_up>
    4bbc:	0e 94 e1 1f 	call	0x3fc2	; 0x3fc2 <joystick_break>
    4bc0:	81 11       	cpse	r24, r1
    4bc2:	d3 cf       	rjmp	.-90     	; 0x4b6a <text_scroller+0x4e>
    4bc4:	c1 50       	subi	r28, 0x01	; 1
    4bc6:	89 f7       	brne	.-30     	; 0x4baa <text_scroller+0x8e>
    4bc8:	d0 cf       	rjmp	.-96     	; 0x4b6a <text_scroller+0x4e>

00004bca <tone_init>:
    4bca:	56 9a       	sbi	0x0a, 6	; 10
    4bcc:	83 e0       	ldi	r24, 0x03	; 3
    4bce:	85 bd       	out	0x25, r24	; 37
    4bd0:	82 e4       	ldi	r24, 0x42	; 66
    4bd2:	84 bd       	out	0x24, r24	; 36
    4bd4:	08 95       	ret

00004bd6 <tone>:
    4bd6:	cf 93       	push	r28
    4bd8:	c6 2f       	mov	r28, r22
    4bda:	9c 01       	movw	r18, r24
    4bdc:	40 e0       	ldi	r20, 0x00	; 0
    4bde:	50 e0       	ldi	r21, 0x00	; 0
    4be0:	68 e4       	ldi	r22, 0x48	; 72
    4be2:	78 ee       	ldi	r23, 0xE8	; 232
    4be4:	81 e0       	ldi	r24, 0x01	; 1
    4be6:	90 e0       	ldi	r25, 0x00	; 0
    4be8:	0e 94 08 2a 	call	0x5410	; 0x5410 <__divmodsi4>
    4bec:	21 50       	subi	r18, 0x01	; 1
    4bee:	27 bd       	out	0x27, r18	; 39
    4bf0:	56 9a       	sbi	0x0a, 6	; 10
    4bf2:	c0 93 76 03 	sts	0x0376, r28
    4bf6:	cf 91       	pop	r28
    4bf8:	08 95       	ret

00004bfa <key_tone>:
    4bfa:	cf 93       	push	r28
    4bfc:	df 93       	push	r29
    4bfe:	1f 92       	push	r1
    4c00:	cd b7       	in	r28, 0x3d	; 61
    4c02:	de b7       	in	r29, 0x3e	; 62
    4c04:	8f 70       	andi	r24, 0x0F	; 15
    4c06:	e8 2f       	mov	r30, r24
    4c08:	f0 e0       	ldi	r31, 0x00	; 0
    4c0a:	ee 0f       	add	r30, r30
    4c0c:	ff 1f       	adc	r31, r31
    4c0e:	e6 59       	subi	r30, 0x96	; 150
    4c10:	f2 4e       	sbci	r31, 0xE2	; 226
    4c12:	85 91       	lpm	r24, Z+
    4c14:	94 91       	lpm	r25, Z
    4c16:	49 83       	std	Y+1, r20	; 0x01
    4c18:	0e 94 eb 25 	call	0x4bd6	; 0x4bd6 <tone>
    4c1c:	49 81       	ldd	r20, Y+1	; 0x01
    4c1e:	44 23       	and	r20, r20
    4c20:	21 f0       	breq	.+8      	; 0x4c2a <key_tone+0x30>
    4c22:	80 91 76 03 	lds	r24, 0x0376
    4c26:	81 11       	cpse	r24, r1
    4c28:	fc cf       	rjmp	.-8      	; 0x4c22 <key_tone+0x28>
    4c2a:	0f 90       	pop	r0
    4c2c:	df 91       	pop	r29
    4c2e:	cf 91       	pop	r28
    4c30:	08 95       	ret

00004c32 <noise>:
    4c32:	14 bc       	out	0x24, r1	; 36
    4c34:	56 9a       	sbi	0x0a, 6	; 10
    4c36:	80 93 76 03 	sts	0x0376, r24
    4c3a:	80 91 76 03 	lds	r24, 0x0376
    4c3e:	88 23       	and	r24, r24
    4c40:	41 f0       	breq	.+16     	; 0x4c52 <noise+0x20>
    4c42:	0e 94 6a 2b 	call	0x56d4	; 0x56d4 <rand>
    4c46:	80 ff       	sbrs	r24, 0
    4c48:	02 c0       	rjmp	.+4      	; 0x4c4e <noise+0x1c>
    4c4a:	5e 9a       	sbi	0x0b, 6	; 11
    4c4c:	f6 cf       	rjmp	.-20     	; 0x4c3a <noise+0x8>
    4c4e:	5e 98       	cbi	0x0b, 6	; 11
    4c50:	f4 cf       	rjmp	.-24     	; 0x4c3a <noise+0x8>
    4c52:	56 98       	cbi	0x0a, 6	; 10
    4c54:	82 e4       	ldi	r24, 0x42	; 66
    4c56:	84 bd       	out	0x24, r24	; 36
    4c58:	08 95       	ret

00004c5a <tvout_init>:
    4c5a:	22 9a       	sbi	0x04, 2	; 4
    4c5c:	82 ec       	ldi	r24, 0xC2	; 194
    4c5e:	80 93 c2 00 	sts	0x00C2, r24
    4c62:	87 ef       	ldi	r24, 0xF7	; 247
    4c64:	93 e0       	ldi	r25, 0x03	; 3
    4c66:	90 93 89 00 	sts	0x0089, r25
    4c6a:	80 93 88 00 	sts	0x0088, r24
    4c6e:	83 e6       	ldi	r24, 0x63	; 99
    4c70:	93 e0       	ldi	r25, 0x03	; 3
    4c72:	90 93 8b 00 	sts	0x008B, r25
    4c76:	80 93 8a 00 	sts	0x008A, r24
    4c7a:	83 e3       	ldi	r24, 0x33	; 51
    4c7c:	80 93 80 00 	sts	0x0080, r24
    4c80:	89 e1       	ldi	r24, 0x19	; 25
    4c82:	80 93 81 00 	sts	0x0081, r24
    4c86:	ef e6       	ldi	r30, 0x6F	; 111
    4c88:	f0 e0       	ldi	r31, 0x00	; 0
    4c8a:	80 81       	ld	r24, Z
    4c8c:	84 60       	ori	r24, 0x04	; 4
    4c8e:	80 83       	st	Z, r24
    4c90:	08 95       	ret

00004c92 <video_write_byte>:
    4c92:	88 58       	subi	r24, 0x88	; 136
    4c94:	9c 4f       	sbci	r25, 0xFC	; 252
    4c96:	fc 01       	movw	r30, r24
    4c98:	60 83       	st	Z, r22
    4c9a:	08 95       	ret

00004c9c <plot>:
    4c9c:	87 fd       	sbrc	r24, 7
    4c9e:	4a c0       	rjmp	.+148    	; 0x4d34 <plot+0x98>
    4ca0:	68 34       	cpi	r22, 0x48	; 72
    4ca2:	08 f0       	brcs	.+2      	; 0x4ca6 <plot+0xa>
    4ca4:	47 c0       	rjmp	.+142    	; 0x4d34 <plot+0x98>
    4ca6:	e8 2f       	mov	r30, r24
    4ca8:	e5 95       	asr	r30
    4caa:	e5 95       	asr	r30
    4cac:	e5 95       	asr	r30
    4cae:	80 95       	com	r24
    4cb0:	87 70       	andi	r24, 0x07	; 7
    4cb2:	41 30       	cpi	r20, 0x01	; 1
    4cb4:	b9 f0       	breq	.+46     	; 0x4ce4 <plot+0x48>
    4cb6:	18 f0       	brcs	.+6      	; 0x4cbe <plot+0x22>
    4cb8:	42 30       	cpi	r20, 0x02	; 2
    4cba:	49 f1       	breq	.+82     	; 0x4d0e <plot+0x72>
    4cbc:	08 95       	ret
    4cbe:	ff 27       	eor	r31, r31
    4cc0:	e7 fd       	sbrc	r30, 7
    4cc2:	f0 95       	com	r31
    4cc4:	90 e1       	ldi	r25, 0x10	; 16
    4cc6:	69 02       	muls	r22, r25
    4cc8:	e0 0d       	add	r30, r0
    4cca:	f1 1d       	adc	r31, r1
    4ccc:	11 24       	eor	r1, r1
    4cce:	e8 58       	subi	r30, 0x88	; 136
    4cd0:	fc 4f       	sbci	r31, 0xFC	; 252
    4cd2:	21 e0       	ldi	r18, 0x01	; 1
    4cd4:	30 e0       	ldi	r19, 0x00	; 0
    4cd6:	01 c0       	rjmp	.+2      	; 0x4cda <plot+0x3e>
    4cd8:	22 0f       	add	r18, r18
    4cda:	8a 95       	dec	r24
    4cdc:	ea f7       	brpl	.-6      	; 0x4cd8 <plot+0x3c>
    4cde:	80 81       	ld	r24, Z
    4ce0:	82 2b       	or	r24, r18
    4ce2:	27 c0       	rjmp	.+78     	; 0x4d32 <plot+0x96>
    4ce4:	ff 27       	eor	r31, r31
    4ce6:	e7 fd       	sbrc	r30, 7
    4ce8:	f0 95       	com	r31
    4cea:	90 e1       	ldi	r25, 0x10	; 16
    4cec:	69 02       	muls	r22, r25
    4cee:	e0 0d       	add	r30, r0
    4cf0:	f1 1d       	adc	r31, r1
    4cf2:	11 24       	eor	r1, r1
    4cf4:	e8 58       	subi	r30, 0x88	; 136
    4cf6:	fc 4f       	sbci	r31, 0xFC	; 252
    4cf8:	21 e0       	ldi	r18, 0x01	; 1
    4cfa:	30 e0       	ldi	r19, 0x00	; 0
    4cfc:	01 c0       	rjmp	.+2      	; 0x4d00 <plot+0x64>
    4cfe:	22 0f       	add	r18, r18
    4d00:	8a 95       	dec	r24
    4d02:	ea f7       	brpl	.-6      	; 0x4cfe <plot+0x62>
    4d04:	20 95       	com	r18
    4d06:	80 81       	ld	r24, Z
    4d08:	28 23       	and	r18, r24
    4d0a:	20 83       	st	Z, r18
    4d0c:	08 95       	ret
    4d0e:	ff 27       	eor	r31, r31
    4d10:	e7 fd       	sbrc	r30, 7
    4d12:	f0 95       	com	r31
    4d14:	90 e1       	ldi	r25, 0x10	; 16
    4d16:	69 02       	muls	r22, r25
    4d18:	e0 0d       	add	r30, r0
    4d1a:	f1 1d       	adc	r31, r1
    4d1c:	11 24       	eor	r1, r1
    4d1e:	e8 58       	subi	r30, 0x88	; 136
    4d20:	fc 4f       	sbci	r31, 0xFC	; 252
    4d22:	21 e0       	ldi	r18, 0x01	; 1
    4d24:	30 e0       	ldi	r19, 0x00	; 0
    4d26:	01 c0       	rjmp	.+2      	; 0x4d2a <plot+0x8e>
    4d28:	22 0f       	add	r18, r18
    4d2a:	8a 95       	dec	r24
    4d2c:	ea f7       	brpl	.-6      	; 0x4d28 <plot+0x8c>
    4d2e:	80 81       	ld	r24, Z
    4d30:	82 27       	eor	r24, r18
    4d32:	80 83       	st	Z, r24
    4d34:	08 95       	ret

00004d36 <put_sprite>:
    4d36:	af 92       	push	r10
    4d38:	bf 92       	push	r11
    4d3a:	cf 92       	push	r12
    4d3c:	df 92       	push	r13
    4d3e:	ef 92       	push	r14
    4d40:	ff 92       	push	r15
    4d42:	0f 93       	push	r16
    4d44:	1f 93       	push	r17
    4d46:	cf 93       	push	r28
    4d48:	df 93       	push	r29
    4d4a:	89 3f       	cpi	r24, 0xF9	; 249
    4d4c:	0c f4       	brge	.+2      	; 0x4d50 <put_sprite+0x1a>
    4d4e:	84 c0       	rjmp	.+264    	; 0x4e58 <put_sprite+0x122>
    4d50:	9e e0       	ldi	r25, 0x0E	; 14
    4d52:	96 0f       	add	r25, r22
    4d54:	96 35       	cpi	r25, 0x56	; 86
    4d56:	08 f0       	brcs	.+2      	; 0x4d5a <put_sprite+0x24>
    4d58:	7f c0       	rjmp	.+254    	; 0x4e58 <put_sprite+0x122>
    4d5a:	50 e0       	ldi	r21, 0x00	; 0
    4d5c:	87 ff       	sbrs	r24, 7
    4d5e:	2a c0       	rjmp	.+84     	; 0x4db4 <put_sprite+0x7e>
    4d60:	81 95       	neg	r24
    4d62:	90 e0       	ldi	r25, 0x00	; 0
    4d64:	70 e0       	ldi	r23, 0x00	; 0
    4d66:	e7 2f       	mov	r30, r23
    4d68:	ff 27       	eor	r31, r31
    4d6a:	e7 fd       	sbrc	r30, 7
    4d6c:	f0 95       	com	r31
    4d6e:	e4 17       	cp	r30, r20
    4d70:	f5 07       	cpc	r31, r21
    4d72:	0c f0       	brlt	.+2      	; 0x4d76 <put_sprite+0x40>
    4d74:	6e c0       	rjmp	.+220    	; 0x4e52 <put_sprite+0x11c>
    4d76:	c1 e0       	ldi	r28, 0x01	; 1
    4d78:	c6 0f       	add	r28, r22
    4d7a:	68 34       	cpi	r22, 0x48	; 72
    4d7c:	c0 f4       	brcc	.+48     	; 0x4dae <put_sprite+0x78>
    4d7e:	e2 0f       	add	r30, r18
    4d80:	f3 1f       	adc	r31, r19
    4d82:	01 30       	cpi	r16, 0x01	; 1
    4d84:	11 f4       	brne	.+4      	; 0x4d8a <put_sprite+0x54>
    4d86:	e0 81       	ld	r30, Z
    4d88:	01 c0       	rjmp	.+2      	; 0x4d8c <put_sprite+0x56>
    4d8a:	e4 91       	lpm	r30, Z
    4d8c:	f0 e1       	ldi	r31, 0x10	; 16
    4d8e:	6f 02       	muls	r22, r31
    4d90:	d0 01       	movw	r26, r0
    4d92:	11 24       	eor	r1, r1
    4d94:	a8 58       	subi	r26, 0x88	; 136
    4d96:	bc 4f       	sbci	r27, 0xFC	; 252
    4d98:	6c 91       	ld	r22, X
    4d9a:	08 2e       	mov	r0, r24
    4d9c:	01 c0       	rjmp	.+2      	; 0x4da0 <put_sprite+0x6a>
    4d9e:	ee 0f       	add	r30, r30
    4da0:	0a 94       	dec	r0
    4da2:	ea f7       	brpl	.-6      	; 0x4d9e <put_sprite+0x68>
    4da4:	f6 2f       	mov	r31, r22
    4da6:	fe 23       	and	r31, r30
    4da8:	9f 2b       	or	r25, r31
    4daa:	e6 27       	eor	r30, r22
    4dac:	ec 93       	st	X, r30
    4dae:	6c 2f       	mov	r22, r28
    4db0:	7f 5f       	subi	r23, 0xFF	; 255
    4db2:	d9 cf       	rjmp	.-78     	; 0x4d66 <put_sprite+0x30>
    4db4:	78 2f       	mov	r23, r24
    4db6:	77 70       	andi	r23, 0x07	; 7
    4db8:	c7 2e       	mov	r12, r23
    4dba:	17 2f       	mov	r17, r23
    4dbc:	11 95       	neg	r17
    4dbe:	17 70       	andi	r17, 0x07	; 7
    4dc0:	85 95       	asr	r24
    4dc2:	85 95       	asr	r24
    4dc4:	85 95       	asr	r24
    4dc6:	90 e0       	ldi	r25, 0x00	; 0
    4dc8:	d1 2c       	mov	r13, r1
    4dca:	e8 2e       	mov	r14, r24
    4dcc:	ff 24       	eor	r15, r15
    4dce:	e7 fc       	sbrc	r14, 7
    4dd0:	f0 94       	com	r15
    4dd2:	ed 2d       	mov	r30, r13
    4dd4:	ff 27       	eor	r31, r31
    4dd6:	e7 fd       	sbrc	r30, 7
    4dd8:	f0 95       	com	r31
    4dda:	e4 17       	cp	r30, r20
    4ddc:	f5 07       	cpc	r31, r21
    4dde:	cc f5       	brge	.+114    	; 0x4e52 <put_sprite+0x11c>
    4de0:	bb 24       	eor	r11, r11
    4de2:	b3 94       	inc	r11
    4de4:	b6 0e       	add	r11, r22
    4de6:	68 34       	cpi	r22, 0x48	; 72
    4de8:	88 f5       	brcc	.+98     	; 0x4e4c <put_sprite+0x116>
    4dea:	e2 0f       	add	r30, r18
    4dec:	f3 1f       	adc	r31, r19
    4dee:	01 30       	cpi	r16, 0x01	; 1
    4df0:	11 f4       	brne	.+4      	; 0x4df6 <put_sprite+0xc0>
    4df2:	e0 81       	ld	r30, Z
    4df4:	01 c0       	rjmp	.+2      	; 0x4df8 <put_sprite+0xc2>
    4df6:	e4 91       	lpm	r30, Z
    4df8:	d7 01       	movw	r26, r14
    4dfa:	f0 e1       	ldi	r31, 0x10	; 16
    4dfc:	6f 02       	muls	r22, r31
    4dfe:	a0 0d       	add	r26, r0
    4e00:	b1 1d       	adc	r27, r1
    4e02:	11 24       	eor	r1, r1
    4e04:	ed 01       	movw	r28, r26
    4e06:	c8 58       	subi	r28, 0x88	; 136
    4e08:	dc 4f       	sbci	r29, 0xFC	; 252
    4e0a:	a8 80       	ld	r10, Y
    4e0c:	6e 2f       	mov	r22, r30
    4e0e:	70 e0       	ldi	r23, 0x00	; 0
    4e10:	fb 01       	movw	r30, r22
    4e12:	0c 2c       	mov	r0, r12
    4e14:	02 c0       	rjmp	.+4      	; 0x4e1a <put_sprite+0xe4>
    4e16:	f5 95       	asr	r31
    4e18:	e7 95       	ror	r30
    4e1a:	0a 94       	dec	r0
    4e1c:	e2 f7       	brpl	.-8      	; 0x4e16 <put_sprite+0xe0>
    4e1e:	fa 2d       	mov	r31, r10
    4e20:	fe 23       	and	r31, r30
    4e22:	9f 2b       	or	r25, r31
    4e24:	ea 25       	eor	r30, r10
    4e26:	e8 83       	st	Y, r30
    4e28:	11 23       	and	r17, r17
    4e2a:	81 f0       	breq	.+32     	; 0x4e4c <put_sprite+0x116>
    4e2c:	8f 30       	cpi	r24, 0x0F	; 15
    4e2e:	71 f0       	breq	.+28     	; 0x4e4c <put_sprite+0x116>
    4e30:	a7 58       	subi	r26, 0x87	; 135
    4e32:	bc 4f       	sbci	r27, 0xFC	; 252
    4e34:	cc 91       	ld	r28, X
    4e36:	fb 01       	movw	r30, r22
    4e38:	01 2e       	mov	r0, r17
    4e3a:	01 c0       	rjmp	.+2      	; 0x4e3e <put_sprite+0x108>
    4e3c:	ee 0f       	add	r30, r30
    4e3e:	0a 94       	dec	r0
    4e40:	ea f7       	brpl	.-6      	; 0x4e3c <put_sprite+0x106>
    4e42:	6c 2f       	mov	r22, r28
    4e44:	6e 23       	and	r22, r30
    4e46:	96 2b       	or	r25, r22
    4e48:	ec 27       	eor	r30, r28
    4e4a:	ec 93       	st	X, r30
    4e4c:	6b 2d       	mov	r22, r11
    4e4e:	d3 94       	inc	r13
    4e50:	c0 cf       	rjmp	.-128    	; 0x4dd2 <put_sprite+0x9c>
    4e52:	81 e0       	ldi	r24, 0x01	; 1
    4e54:	91 11       	cpse	r25, r1
    4e56:	01 c0       	rjmp	.+2      	; 0x4e5a <put_sprite+0x124>
    4e58:	80 e0       	ldi	r24, 0x00	; 0
    4e5a:	df 91       	pop	r29
    4e5c:	cf 91       	pop	r28
    4e5e:	1f 91       	pop	r17
    4e60:	0f 91       	pop	r16
    4e62:	ff 90       	pop	r15
    4e64:	ef 90       	pop	r14
    4e66:	df 90       	pop	r13
    4e68:	cf 90       	pop	r12
    4e6a:	bf 90       	pop	r11
    4e6c:	af 90       	pop	r10
    4e6e:	08 95       	ret

00004e70 <put_big_sprite>:
    4e70:	8f 92       	push	r8
    4e72:	9f 92       	push	r9
    4e74:	bf 92       	push	r11
    4e76:	cf 92       	push	r12
    4e78:	df 92       	push	r13
    4e7a:	ef 92       	push	r14
    4e7c:	ff 92       	push	r15
    4e7e:	0f 93       	push	r16
    4e80:	1f 93       	push	r17
    4e82:	cf 93       	push	r28
    4e84:	df 93       	push	r29
    4e86:	81 3f       	cpi	r24, 0xF1	; 241
    4e88:	0c f4       	brge	.+2      	; 0x4e8c <put_big_sprite+0x1c>
    4e8a:	e1 c0       	rjmp	.+450    	; 0x504e <put_big_sprite+0x1de>
    4e8c:	9f e0       	ldi	r25, 0x0F	; 15
    4e8e:	96 0f       	add	r25, r22
    4e90:	97 35       	cpi	r25, 0x57	; 87
    4e92:	08 f0       	brcs	.+2      	; 0x4e96 <put_big_sprite+0x26>
    4e94:	dc c0       	rjmp	.+440    	; 0x504e <put_big_sprite+0x1de>
    4e96:	fa 01       	movw	r30, r20
    4e98:	31 96       	adiw	r30, 0x01	; 1
    4e9a:	89 3f       	cpi	r24, 0xF9	; 249
    4e9c:	04 f5       	brge	.+64     	; 0x4ede <put_big_sprite+0x6e>
    4e9e:	38 ef       	ldi	r19, 0xF8	; 248
    4ea0:	38 1b       	sub	r19, r24
    4ea2:	20 e1       	ldi	r18, 0x10	; 16
    4ea4:	10 e0       	ldi	r17, 0x00	; 0
    4ea6:	41 e0       	ldi	r20, 0x01	; 1
    4ea8:	46 0f       	add	r20, r22
    4eaa:	68 34       	cpi	r22, 0x48	; 72
    4eac:	90 f4       	brcc	.+36     	; 0x4ed2 <put_big_sprite+0x62>
    4eae:	80 e1       	ldi	r24, 0x10	; 16
    4eb0:	68 02       	muls	r22, r24
    4eb2:	d0 01       	movw	r26, r0
    4eb4:	11 24       	eor	r1, r1
    4eb6:	a8 58       	subi	r26, 0x88	; 136
    4eb8:	bc 4f       	sbci	r27, 0xFC	; 252
    4eba:	5c 91       	ld	r21, X
    4ebc:	80 81       	ld	r24, Z
    4ebe:	03 2e       	mov	r0, r19
    4ec0:	01 c0       	rjmp	.+2      	; 0x4ec4 <put_big_sprite+0x54>
    4ec2:	88 0f       	add	r24, r24
    4ec4:	0a 94       	dec	r0
    4ec6:	ea f7       	brpl	.-6      	; 0x4ec2 <put_big_sprite+0x52>
    4ec8:	95 2f       	mov	r25, r21
    4eca:	98 23       	and	r25, r24
    4ecc:	19 2b       	or	r17, r25
    4ece:	85 27       	eor	r24, r21
    4ed0:	8c 93       	st	X, r24
    4ed2:	64 2f       	mov	r22, r20
    4ed4:	21 50       	subi	r18, 0x01	; 1
    4ed6:	32 96       	adiw	r30, 0x02	; 2
    4ed8:	21 11       	cpse	r18, r1
    4eda:	e5 cf       	rjmp	.-54     	; 0x4ea6 <put_big_sprite+0x36>
    4edc:	b5 c0       	rjmp	.+362    	; 0x5048 <put_big_sprite+0x1d8>
    4ede:	87 ff       	sbrs	r24, 7
    4ee0:	43 c0       	rjmp	.+134    	; 0x4f68 <put_big_sprite+0xf8>
    4ee2:	78 2f       	mov	r23, r24
    4ee4:	71 95       	neg	r23
    4ee6:	88 5f       	subi	r24, 0xF8	; 248
    4ee8:	90 e1       	ldi	r25, 0x10	; 16
    4eea:	10 e0       	ldi	r17, 0x00	; 0
    4eec:	01 e0       	ldi	r16, 0x01	; 1
    4eee:	06 0f       	add	r16, r22
    4ef0:	68 34       	cpi	r22, 0x48	; 72
    4ef2:	a0 f5       	brcc	.+104    	; 0x4f5c <put_big_sprite+0xec>
    4ef4:	a0 e1       	ldi	r26, 0x10	; 16
    4ef6:	6a 02       	muls	r22, r26
    4ef8:	40 01       	movw	r8, r0
    4efa:	11 24       	eor	r1, r1
    4efc:	e4 01       	movw	r28, r8
    4efe:	c8 58       	subi	r28, 0x88	; 136
    4f00:	dc 4f       	sbci	r29, 0xFC	; 252
    4f02:	b8 80       	ld	r11, Y
    4f04:	af 01       	movw	r20, r30
    4f06:	41 50       	subi	r20, 0x01	; 1
    4f08:	51 09       	sbc	r21, r1
    4f0a:	da 01       	movw	r26, r20
    4f0c:	2c 91       	ld	r18, X
    4f0e:	07 2e       	mov	r0, r23
    4f10:	01 c0       	rjmp	.+2      	; 0x4f14 <put_big_sprite+0xa4>
    4f12:	22 0f       	add	r18, r18
    4f14:	0a 94       	dec	r0
    4f16:	ea f7       	brpl	.-6      	; 0x4f12 <put_big_sprite+0xa2>
    4f18:	3b 2d       	mov	r19, r11
    4f1a:	32 27       	eor	r19, r18
    4f1c:	38 83       	st	Y, r19
    4f1e:	c0 80       	ld	r12, Z
    4f20:	d1 2c       	mov	r13, r1
    4f22:	76 01       	movw	r14, r12
    4f24:	08 2e       	mov	r0, r24
    4f26:	02 c0       	rjmp	.+4      	; 0x4f2c <put_big_sprite+0xbc>
    4f28:	f5 94       	asr	r15
    4f2a:	e7 94       	ror	r14
    4f2c:	0a 94       	dec	r0
    4f2e:	e2 f7       	brpl	.-8      	; 0x4f28 <put_big_sprite+0xb8>
    4f30:	43 2f       	mov	r20, r19
    4f32:	4e 25       	eor	r20, r14
    4f34:	48 83       	st	Y, r20
    4f36:	d4 01       	movw	r26, r8
    4f38:	a7 58       	subi	r26, 0x87	; 135
    4f3a:	bc 4f       	sbci	r27, 0xFC	; 252
    4f3c:	6c 91       	ld	r22, X
    4f3e:	a6 01       	movw	r20, r12
    4f40:	07 2e       	mov	r0, r23
    4f42:	01 c0       	rjmp	.+2      	; 0x4f46 <put_big_sprite+0xd6>
    4f44:	44 0f       	add	r20, r20
    4f46:	0a 94       	dec	r0
    4f48:	ea f7       	brpl	.-6      	; 0x4f44 <put_big_sprite+0xd4>
    4f4a:	56 2f       	mov	r21, r22
    4f4c:	54 23       	and	r21, r20
    4f4e:	15 2b       	or	r17, r21
    4f50:	2b 21       	and	r18, r11
    4f52:	12 2b       	or	r17, r18
    4f54:	e3 22       	and	r14, r19
    4f56:	1e 29       	or	r17, r14
    4f58:	46 27       	eor	r20, r22
    4f5a:	4c 93       	st	X, r20
    4f5c:	60 2f       	mov	r22, r16
    4f5e:	91 50       	subi	r25, 0x01	; 1
    4f60:	32 96       	adiw	r30, 0x02	; 2
    4f62:	91 11       	cpse	r25, r1
    4f64:	c3 cf       	rjmp	.-122    	; 0x4eec <put_big_sprite+0x7c>
    4f66:	70 c0       	rjmp	.+224    	; 0x5048 <put_big_sprite+0x1d8>
    4f68:	08 2f       	mov	r16, r24
    4f6a:	07 70       	andi	r16, 0x07	; 7
    4f6c:	90 2f       	mov	r25, r16
    4f6e:	91 95       	neg	r25
    4f70:	97 70       	andi	r25, 0x07	; 7
    4f72:	85 95       	asr	r24
    4f74:	85 95       	asr	r24
    4f76:	85 95       	asr	r24
    4f78:	20 e1       	ldi	r18, 0x10	; 16
    4f7a:	d2 2e       	mov	r13, r18
    4f7c:	10 e0       	ldi	r17, 0x00	; 0
    4f7e:	88 2e       	mov	r8, r24
    4f80:	99 24       	eor	r9, r9
    4f82:	87 fc       	sbrc	r8, 7
    4f84:	90 94       	com	r9
    4f86:	cc 24       	eor	r12, r12
    4f88:	c3 94       	inc	r12
    4f8a:	c6 0e       	add	r12, r22
    4f8c:	68 34       	cpi	r22, 0x48	; 72
    4f8e:	08 f0       	brcs	.+2      	; 0x4f92 <put_big_sprite+0x122>
    4f90:	56 c0       	rjmp	.+172    	; 0x503e <put_big_sprite+0x1ce>
    4f92:	94 01       	movw	r18, r8
    4f94:	b0 e1       	ldi	r27, 0x10	; 16
    4f96:	6b 02       	muls	r22, r27
    4f98:	20 0d       	add	r18, r0
    4f9a:	31 1d       	adc	r19, r1
    4f9c:	11 24       	eor	r1, r1
    4f9e:	d9 01       	movw	r26, r18
    4fa0:	a8 58       	subi	r26, 0x88	; 136
    4fa2:	bc 4f       	sbci	r27, 0xFC	; 252
    4fa4:	bc 90       	ld	r11, X
    4fa6:	bf 01       	movw	r22, r30
    4fa8:	61 50       	subi	r22, 0x01	; 1
    4faa:	71 09       	sbc	r23, r1
    4fac:	eb 01       	movw	r28, r22
    4fae:	e8 80       	ld	r14, Y
    4fb0:	f1 2c       	mov	r15, r1
    4fb2:	a7 01       	movw	r20, r14
    4fb4:	00 2e       	mov	r0, r16
    4fb6:	02 c0       	rjmp	.+4      	; 0x4fbc <put_big_sprite+0x14c>
    4fb8:	55 95       	asr	r21
    4fba:	47 95       	ror	r20
    4fbc:	0a 94       	dec	r0
    4fbe:	e2 f7       	brpl	.-8      	; 0x4fb8 <put_big_sprite+0x148>
    4fc0:	5b 2d       	mov	r21, r11
    4fc2:	54 23       	and	r21, r20
    4fc4:	15 2b       	or	r17, r21
    4fc6:	4b 25       	eor	r20, r11
    4fc8:	4c 93       	st	X, r20
    4fca:	8f 30       	cpi	r24, 0x0F	; 15
    4fcc:	c1 f1       	breq	.+112    	; 0x503e <put_big_sprite+0x1ce>
    4fce:	d9 01       	movw	r26, r18
    4fd0:	11 96       	adiw	r26, 0x01	; 1
    4fd2:	99 23       	and	r25, r25
    4fd4:	81 f0       	breq	.+32     	; 0x4ff6 <put_big_sprite+0x186>
    4fd6:	ad 01       	movw	r20, r26
    4fd8:	48 58       	subi	r20, 0x88	; 136
    4fda:	5c 4f       	sbci	r21, 0xFC	; 252
    4fdc:	ea 01       	movw	r28, r20
    4fde:	b8 80       	ld	r11, Y
    4fe0:	b7 01       	movw	r22, r14
    4fe2:	09 2e       	mov	r0, r25
    4fe4:	01 c0       	rjmp	.+2      	; 0x4fe8 <put_big_sprite+0x178>
    4fe6:	66 0f       	add	r22, r22
    4fe8:	0a 94       	dec	r0
    4fea:	ea f7       	brpl	.-6      	; 0x4fe6 <put_big_sprite+0x176>
    4fec:	7b 2d       	mov	r23, r11
    4fee:	76 23       	and	r23, r22
    4ff0:	17 2b       	or	r17, r23
    4ff2:	6b 25       	eor	r22, r11
    4ff4:	68 83       	st	Y, r22
    4ff6:	a8 58       	subi	r26, 0x88	; 136
    4ff8:	bc 4f       	sbci	r27, 0xFC	; 252
    4ffa:	fc 90       	ld	r15, X
    4ffc:	40 81       	ld	r20, Z
    4ffe:	50 e0       	ldi	r21, 0x00	; 0
    5000:	ba 01       	movw	r22, r20
    5002:	00 2e       	mov	r0, r16
    5004:	02 c0       	rjmp	.+4      	; 0x500a <put_big_sprite+0x19a>
    5006:	75 95       	asr	r23
    5008:	67 95       	ror	r22
    500a:	0a 94       	dec	r0
    500c:	e2 f7       	brpl	.-8      	; 0x5006 <put_big_sprite+0x196>
    500e:	7f 2d       	mov	r23, r15
    5010:	76 23       	and	r23, r22
    5012:	17 2b       	or	r17, r23
    5014:	6f 25       	eor	r22, r15
    5016:	6c 93       	st	X, r22
    5018:	99 23       	and	r25, r25
    501a:	89 f0       	breq	.+34     	; 0x503e <put_big_sprite+0x1ce>
    501c:	8e 30       	cpi	r24, 0x0E	; 14
    501e:	79 f0       	breq	.+30     	; 0x503e <put_big_sprite+0x1ce>
    5020:	d9 01       	movw	r26, r18
    5022:	a6 58       	subi	r26, 0x86	; 134
    5024:	bc 4f       	sbci	r27, 0xFC	; 252
    5026:	6c 91       	ld	r22, X
    5028:	9a 01       	movw	r18, r20
    502a:	09 2e       	mov	r0, r25
    502c:	01 c0       	rjmp	.+2      	; 0x5030 <put_big_sprite+0x1c0>
    502e:	22 0f       	add	r18, r18
    5030:	0a 94       	dec	r0
    5032:	ea f7       	brpl	.-6      	; 0x502e <put_big_sprite+0x1be>
    5034:	36 2f       	mov	r19, r22
    5036:	32 23       	and	r19, r18
    5038:	13 2b       	or	r17, r19
    503a:	26 27       	eor	r18, r22
    503c:	2c 93       	st	X, r18
    503e:	6c 2d       	mov	r22, r12
    5040:	da 94       	dec	r13
    5042:	32 96       	adiw	r30, 0x02	; 2
    5044:	d1 10       	cpse	r13, r1
    5046:	9f cf       	rjmp	.-194    	; 0x4f86 <put_big_sprite+0x116>
    5048:	81 e0       	ldi	r24, 0x01	; 1
    504a:	11 11       	cpse	r17, r1
    504c:	01 c0       	rjmp	.+2      	; 0x5050 <put_big_sprite+0x1e0>
    504e:	80 e0       	ldi	r24, 0x00	; 0
    5050:	df 91       	pop	r29
    5052:	cf 91       	pop	r28
    5054:	1f 91       	pop	r17
    5056:	0f 91       	pop	r16
    5058:	ff 90       	pop	r15
    505a:	ef 90       	pop	r14
    505c:	df 90       	pop	r13
    505e:	cf 90       	pop	r12
    5060:	bf 90       	pop	r11
    5062:	9f 90       	pop	r9
    5064:	8f 90       	pop	r8
    5066:	08 95       	ret

00005068 <cls>:
    5068:	80 e8       	ldi	r24, 0x80	; 128
    506a:	94 e0       	ldi	r25, 0x04	; 4
    506c:	e8 e7       	ldi	r30, 0x78	; 120
    506e:	f3 e0       	ldi	r31, 0x03	; 3
    5070:	df 01       	movw	r26, r30
    5072:	9c 01       	movw	r18, r24
    5074:	1d 92       	st	X+, r1
    5076:	21 50       	subi	r18, 0x01	; 1
    5078:	30 40       	sbci	r19, 0x00	; 0
    507a:	e1 f7       	brne	.-8      	; 0x5074 <cls+0xc>
    507c:	60 e0       	ldi	r22, 0x00	; 0
    507e:	80 e0       	ldi	r24, 0x00	; 0
    5080:	0c 94 19 25 	jmp	0x4a32	; 0x4a32 <set_cursor>

00005084 <scroll_down>:
    5084:	cf 93       	push	r28
    5086:	df 93       	push	r29
    5088:	88 23       	and	r24, r24
    508a:	09 f1       	breq	.+66     	; 0x50ce <scroll_down+0x4a>
    508c:	8f 71       	andi	r24, 0x1F	; 31
    508e:	90 e0       	ldi	r25, 0x00	; 0
    5090:	ec 01       	movw	r28, r24
    5092:	34 e0       	ldi	r19, 0x04	; 4
    5094:	cc 0f       	add	r28, r28
    5096:	dd 1f       	adc	r29, r29
    5098:	3a 95       	dec	r19
    509a:	e1 f7       	brne	.-8      	; 0x5094 <scroll_down+0x10>
    509c:	48 e4       	ldi	r20, 0x48	; 72
    509e:	50 e0       	ldi	r21, 0x00	; 0
    50a0:	48 1b       	sub	r20, r24
    50a2:	59 0b       	sbc	r21, r25
    50a4:	64 e0       	ldi	r22, 0x04	; 4
    50a6:	44 0f       	add	r20, r20
    50a8:	55 1f       	adc	r21, r21
    50aa:	6a 95       	dec	r22
    50ac:	e1 f7       	brne	.-8      	; 0x50a6 <scroll_down+0x22>
    50ae:	68 e7       	ldi	r22, 0x78	; 120
    50b0:	73 e0       	ldi	r23, 0x03	; 3
    50b2:	ce 01       	movw	r24, r28
    50b4:	88 58       	subi	r24, 0x88	; 136
    50b6:	9c 4f       	sbci	r25, 0xFC	; 252
    50b8:	0e 94 7a 2b 	call	0x56f4	; 0x56f4 <memmove>
    50bc:	ae 01       	movw	r20, r28
    50be:	60 e0       	ldi	r22, 0x00	; 0
    50c0:	70 e0       	ldi	r23, 0x00	; 0
    50c2:	88 e7       	ldi	r24, 0x78	; 120
    50c4:	93 e0       	ldi	r25, 0x03	; 3
    50c6:	df 91       	pop	r29
    50c8:	cf 91       	pop	r28
    50ca:	0c 94 8c 2b 	jmp	0x5718	; 0x5718 <memset>
    50ce:	df 91       	pop	r29
    50d0:	cf 91       	pop	r28
    50d2:	08 95       	ret

000050d4 <scroll_up>:
    50d4:	0f 93       	push	r16
    50d6:	1f 93       	push	r17
    50d8:	cf 93       	push	r28
    50da:	df 93       	push	r29
    50dc:	88 23       	and	r24, r24
    50de:	51 f1       	breq	.+84     	; 0x5134 <scroll_up+0x60>
    50e0:	8f 71       	andi	r24, 0x1F	; 31
    50e2:	08 2f       	mov	r16, r24
    50e4:	10 e0       	ldi	r17, 0x00	; 0
    50e6:	e8 01       	movw	r28, r16
    50e8:	74 e0       	ldi	r23, 0x04	; 4
    50ea:	cc 0f       	add	r28, r28
    50ec:	dd 1f       	adc	r29, r29
    50ee:	7a 95       	dec	r23
    50f0:	e1 f7       	brne	.-8      	; 0x50ea <scroll_up+0x16>
    50f2:	48 e4       	ldi	r20, 0x48	; 72
    50f4:	50 e0       	ldi	r21, 0x00	; 0
    50f6:	40 1b       	sub	r20, r16
    50f8:	51 0b       	sbc	r21, r17
    50fa:	e4 e0       	ldi	r30, 0x04	; 4
    50fc:	44 0f       	add	r20, r20
    50fe:	55 1f       	adc	r21, r21
    5100:	ea 95       	dec	r30
    5102:	e1 f7       	brne	.-8      	; 0x50fc <scroll_up+0x28>
    5104:	be 01       	movw	r22, r28
    5106:	68 58       	subi	r22, 0x88	; 136
    5108:	7c 4f       	sbci	r23, 0xFC	; 252
    510a:	88 e7       	ldi	r24, 0x78	; 120
    510c:	93 e0       	ldi	r25, 0x03	; 3
    510e:	0e 94 7a 2b 	call	0x56f4	; 0x56f4 <memmove>
    5112:	20 ef       	ldi	r18, 0xF0	; 240
    5114:	20 03       	mulsu	r18, r16
    5116:	c0 01       	movw	r24, r0
    5118:	21 9f       	mul	r18, r17
    511a:	90 0d       	add	r25, r0
    511c:	11 24       	eor	r1, r1
    511e:	ae 01       	movw	r20, r28
    5120:	60 e0       	ldi	r22, 0x00	; 0
    5122:	70 e0       	ldi	r23, 0x00	; 0
    5124:	88 50       	subi	r24, 0x08	; 8
    5126:	98 4f       	sbci	r25, 0xF8	; 248
    5128:	df 91       	pop	r29
    512a:	cf 91       	pop	r28
    512c:	1f 91       	pop	r17
    512e:	0f 91       	pop	r16
    5130:	0c 94 8c 2b 	jmp	0x5718	; 0x5718 <memset>
    5134:	df 91       	pop	r29
    5136:	cf 91       	pop	r28
    5138:	1f 91       	pop	r17
    513a:	0f 91       	pop	r16
    513c:	08 95       	ret

0000513e <chip_scroll_right>:
    513e:	cf 93       	push	r28
    5140:	df 93       	push	r29
    5142:	a8 e7       	ldi	r26, 0x78	; 120
    5144:	b3 e0       	ldi	r27, 0x03	; 3
    5146:	cd 01       	movw	r24, r26
    5148:	40 96       	adiw	r24, 0x10	; 16
    514a:	9d 01       	movw	r18, r26
    514c:	2f 5f       	subi	r18, 0xFF	; 255
    514e:	3f 4f       	sbci	r19, 0xFF	; 255
    5150:	fc 01       	movw	r30, r24
    5152:	31 97       	sbiw	r30, 0x01	; 1
    5154:	ef 01       	movw	r28, r30
    5156:	21 97       	sbiw	r28, 0x01	; 1
    5158:	48 81       	ld	r20, Y
    515a:	60 e1       	ldi	r22, 0x10	; 16
    515c:	46 9f       	mul	r20, r22
    515e:	a0 01       	movw	r20, r0
    5160:	11 24       	eor	r1, r1
    5162:	50 81       	ld	r21, Z
    5164:	52 95       	swap	r21
    5166:	5f 70       	andi	r21, 0x0F	; 15
    5168:	54 2b       	or	r21, r20
    516a:	50 83       	st	Z, r21
    516c:	e2 17       	cp	r30, r18
    516e:	f3 07       	cpc	r31, r19
    5170:	81 f7       	brne	.-32     	; 0x5152 <chip_scroll_right+0x14>
    5172:	2c 91       	ld	r18, X
    5174:	22 95       	swap	r18
    5176:	2f 70       	andi	r18, 0x0F	; 15
    5178:	2c 93       	st	X, r18
    517a:	27 e0       	ldi	r18, 0x07	; 7
    517c:	88 3f       	cpi	r24, 0xF8	; 248
    517e:	92 07       	cpc	r25, r18
    5180:	11 f0       	breq	.+4      	; 0x5186 <chip_scroll_right+0x48>
    5182:	dc 01       	movw	r26, r24
    5184:	e0 cf       	rjmp	.-64     	; 0x5146 <chip_scroll_right+0x8>
    5186:	df 91       	pop	r29
    5188:	cf 91       	pop	r28
    518a:	08 95       	ret

0000518c <chip_scroll_left>:
    518c:	87 e8       	ldi	r24, 0x87	; 135
    518e:	93 e0       	ldi	r25, 0x03	; 3
    5190:	fc 01       	movw	r30, r24
    5192:	3f 97       	sbiw	r30, 0x0f	; 15
    5194:	20 81       	ld	r18, Z
    5196:	40 e1       	ldi	r20, 0x10	; 16
    5198:	24 9f       	mul	r18, r20
    519a:	90 01       	movw	r18, r0
    519c:	11 24       	eor	r1, r1
    519e:	31 81       	ldd	r19, Z+1	; 0x01
    51a0:	32 95       	swap	r19
    51a2:	3f 70       	andi	r19, 0x0F	; 15
    51a4:	32 2b       	or	r19, r18
    51a6:	31 93       	st	Z+, r19
    51a8:	e8 17       	cp	r30, r24
    51aa:	f9 07       	cpc	r31, r25
    51ac:	99 f7       	brne	.-26     	; 0x5194 <chip_scroll_left+0x8>
    51ae:	80 81       	ld	r24, Z
    51b0:	82 95       	swap	r24
    51b2:	80 7f       	andi	r24, 0xF0	; 240
    51b4:	80 83       	st	Z, r24
    51b6:	cf 01       	movw	r24, r30
    51b8:	40 96       	adiw	r24, 0x10	; 16
    51ba:	28 e0       	ldi	r18, 0x08	; 8
    51bc:	87 30       	cpi	r24, 0x07	; 7
    51be:	92 07       	cpc	r25, r18
    51c0:	39 f7       	brne	.-50     	; 0x5190 <chip_scroll_left+0x4>
    51c2:	08 95       	ret

000051c4 <__vector_12>:
    51c4:	1f 92       	push	r1
    51c6:	0f 92       	push	r0
    51c8:	0f b6       	in	r0, 0x3f	; 63
    51ca:	0f 92       	push	r0
    51cc:	11 24       	eor	r1, r1
    51ce:	2f 93       	push	r18
    51d0:	8f 93       	push	r24
    51d2:	9f 93       	push	r25
    51d4:	ef 93       	push	r30
    51d6:	ff 93       	push	r31
    51d8:	80 91 10 01 	lds	r24, 0x0110
    51dc:	90 91 11 01 	lds	r25, 0x0111
    51e0:	01 96       	adiw	r24, 0x01	; 1
    51e2:	90 93 11 01 	sts	0x0111, r25
    51e6:	80 93 10 01 	sts	0x0110, r24
    51ea:	80 91 10 01 	lds	r24, 0x0110
    51ee:	90 91 11 01 	lds	r25, 0x0111
    51f2:	83 31       	cpi	r24, 0x13	; 19
    51f4:	91 05       	cpc	r25, r1
    51f6:	09 f4       	brne	.+2      	; 0x51fa <__vector_12+0x36>
    51f8:	3f c0       	rjmp	.+126    	; 0x5278 <__vector_12+0xb4>
    51fa:	ec f4       	brge	.+58     	; 0x5236 <__vector_12+0x72>
    51fc:	86 30       	cpi	r24, 0x06	; 6
    51fe:	91 05       	cpc	r25, r1
    5200:	89 f1       	breq	.+98     	; 0x5264 <__vector_12+0xa0>
    5202:	54 f4       	brge	.+20     	; 0x5218 <__vector_12+0x54>
    5204:	89 2b       	or	r24, r25
    5206:	09 f0       	breq	.+2      	; 0x520a <__vector_12+0x46>
    5208:	70 c0       	rjmp	.+224    	; 0x52ea <__vector_12+0x126>
    520a:	8b ef       	ldi	r24, 0xFB	; 251
    520c:	91 e0       	ldi	r25, 0x01	; 1
    520e:	90 93 89 00 	sts	0x0089, r25
    5212:	80 93 88 00 	sts	0x0088, r24
    5216:	2d c0       	rjmp	.+90     	; 0x5272 <__vector_12+0xae>
    5218:	8c 30       	cpi	r24, 0x0C	; 12
    521a:	91 05       	cpc	r25, r1
    521c:	51 f1       	breq	.+84     	; 0x5272 <__vector_12+0xae>
    521e:	42 97       	sbiw	r24, 0x12	; 18
    5220:	09 f0       	breq	.+2      	; 0x5224 <__vector_12+0x60>
    5222:	63 c0       	rjmp	.+198    	; 0x52ea <__vector_12+0x126>
    5224:	87 ef       	ldi	r24, 0xF7	; 247
    5226:	93 e0       	ldi	r25, 0x03	; 3
    5228:	90 93 89 00 	sts	0x0089, r25
    522c:	80 93 88 00 	sts	0x0088, r24
    5230:	8a e4       	ldi	r24, 0x4A	; 74
    5232:	90 e0       	ldi	r25, 0x00	; 0
    5234:	19 c0       	rjmp	.+50     	; 0x5268 <__vector_12+0xa4>
    5236:	87 3d       	cpi	r24, 0xD7	; 215
    5238:	91 05       	cpc	r25, r1
    523a:	c9 f1       	breq	.+114    	; 0x52ae <__vector_12+0xea>
    523c:	5c f4       	brge	.+22     	; 0x5254 <__vector_12+0x90>
    523e:	84 31       	cpi	r24, 0x14	; 20
    5240:	91 05       	cpc	r25, r1
    5242:	29 f1       	breq	.+74     	; 0x528e <__vector_12+0xca>
    5244:	88 34       	cpi	r24, 0x48	; 72
    5246:	91 05       	cpc	r25, r1
    5248:	09 f0       	breq	.+2      	; 0x524c <__vector_12+0x88>
    524a:	4f c0       	rjmp	.+158    	; 0x52ea <__vector_12+0x126>
    524c:	81 e0       	ldi	r24, 0x01	; 1
    524e:	80 93 75 03 	sts	0x0375, r24
    5252:	82 c0       	rjmp	.+260    	; 0x5358 <__vector_12+0x194>
    5254:	8f 30       	cpi	r24, 0x0F	; 15
    5256:	21 e0       	ldi	r18, 0x01	; 1
    5258:	92 07       	cpc	r25, r18
    525a:	61 f1       	breq	.+88     	; 0x52b4 <__vector_12+0xf0>
    525c:	80 31       	cpi	r24, 0x10	; 16
    525e:	91 40       	sbci	r25, 0x01	; 1
    5260:	b9 f1       	breq	.+110    	; 0x52d0 <__vector_12+0x10c>
    5262:	43 c0       	rjmp	.+134    	; 0x52ea <__vector_12+0x126>
    5264:	86 ed       	ldi	r24, 0xD6	; 214
    5266:	91 e0       	ldi	r25, 0x01	; 1
    5268:	90 93 8b 00 	sts	0x008B, r25
    526c:	80 93 8a 00 	sts	0x008A, r24
    5270:	73 c0       	rjmp	.+230    	; 0x5358 <__vector_12+0x194>
    5272:	85 e2       	ldi	r24, 0x25	; 37
    5274:	90 e0       	ldi	r25, 0x00	; 0
    5276:	f8 cf       	rjmp	.-16     	; 0x5268 <__vector_12+0xa4>
    5278:	80 91 77 03 	lds	r24, 0x0377
    527c:	88 23       	and	r24, r24
    527e:	09 f4       	brne	.+2      	; 0x5282 <__vector_12+0xbe>
    5280:	6b c0       	rjmp	.+214    	; 0x5358 <__vector_12+0x194>
    5282:	80 91 77 03 	lds	r24, 0x0377
    5286:	81 50       	subi	r24, 0x01	; 1
    5288:	80 93 77 03 	sts	0x0377, r24
    528c:	65 c0       	rjmp	.+202    	; 0x5358 <__vector_12+0x194>
    528e:	80 91 76 03 	lds	r24, 0x0376
    5292:	88 23       	and	r24, r24
    5294:	09 f4       	brne	.+2      	; 0x5298 <__vector_12+0xd4>
    5296:	60 c0       	rjmp	.+192    	; 0x5358 <__vector_12+0x194>
    5298:	80 91 76 03 	lds	r24, 0x0376
    529c:	81 50       	subi	r24, 0x01	; 1
    529e:	80 93 76 03 	sts	0x0376, r24
    52a2:	80 91 76 03 	lds	r24, 0x0376
    52a6:	81 11       	cpse	r24, r1
    52a8:	57 c0       	rjmp	.+174    	; 0x5358 <__vector_12+0x194>
    52aa:	56 98       	cbi	0x0a, 6	; 10
    52ac:	55 c0       	rjmp	.+170    	; 0x5358 <__vector_12+0x194>
    52ae:	10 92 75 03 	sts	0x0375, r1
    52b2:	52 c0       	rjmp	.+164    	; 0x5358 <__vector_12+0x194>
    52b4:	80 91 0f 01 	lds	r24, 0x010F
    52b8:	88 23       	and	r24, r24
    52ba:	09 f4       	brne	.+2      	; 0x52be <__vector_12+0xfa>
    52bc:	4d c0       	rjmp	.+154    	; 0x5358 <__vector_12+0x194>
    52be:	8f ef       	ldi	r24, 0xFF	; 255
    52c0:	9f ef       	ldi	r25, 0xFF	; 255
    52c2:	90 93 11 01 	sts	0x0111, r25
    52c6:	80 93 10 01 	sts	0x0110, r24
    52ca:	10 92 0f 01 	sts	0x010F, r1
    52ce:	44 c0       	rjmp	.+136    	; 0x5358 <__vector_12+0x194>
    52d0:	80 91 0f 01 	lds	r24, 0x010F
    52d4:	81 11       	cpse	r24, r1
    52d6:	09 c0       	rjmp	.+18     	; 0x52ea <__vector_12+0x126>
    52d8:	8f ef       	ldi	r24, 0xFF	; 255
    52da:	9f ef       	ldi	r25, 0xFF	; 255
    52dc:	90 93 11 01 	sts	0x0111, r25
    52e0:	80 93 10 01 	sts	0x0110, r24
    52e4:	81 e0       	ldi	r24, 0x01	; 1
    52e6:	80 93 0f 01 	sts	0x010F, r24
    52ea:	80 91 75 03 	lds	r24, 0x0375
    52ee:	88 23       	and	r24, r24
    52f0:	99 f1       	breq	.+102    	; 0x5358 <__vector_12+0x194>
    52f2:	e0 91 10 01 	lds	r30, 0x0110
    52f6:	f0 91 11 01 	lds	r31, 0x0111
    52fa:	10 92 c5 00 	sts	0x00C5, r1
    52fe:	10 92 c4 00 	sts	0x00C4, r1
    5302:	88 e0       	ldi	r24, 0x08	; 8
    5304:	80 93 c1 00 	sts	0x00C1, r24
    5308:	82 e0       	ldi	r24, 0x02	; 2
    530a:	90 e0       	ldi	r25, 0x00	; 0
    530c:	90 93 c5 00 	sts	0x00C5, r25
    5310:	80 93 c4 00 	sts	0x00C4, r24
    5314:	10 92 c6 00 	sts	0x00C6, r1
    5318:	e8 54       	subi	r30, 0x48	; 72
    531a:	f1 09       	sbc	r31, r1
    531c:	f5 95       	asr	r31
    531e:	e7 95       	ror	r30
    5320:	94 e0       	ldi	r25, 0x04	; 4
    5322:	ee 0f       	add	r30, r30
    5324:	ff 1f       	adc	r31, r31
    5326:	9a 95       	dec	r25
    5328:	e1 f7       	brne	.-8      	; 0x5322 <__vector_12+0x15e>
    532a:	e8 58       	subi	r30, 0x88	; 136
    532c:	fc 4f       	sbci	r31, 0xFC	; 252
    532e:	cf 01       	movw	r24, r30
    5330:	40 96       	adiw	r24, 0x10	; 16
    5332:	20 91 c0 00 	lds	r18, 0x00C0
    5336:	25 ff       	sbrs	r18, 5
    5338:	fc cf       	rjmp	.-8      	; 0x5332 <__vector_12+0x16e>
    533a:	21 91       	ld	r18, Z+
    533c:	20 93 c6 00 	sts	0x00C6, r18
    5340:	e8 17       	cp	r30, r24
    5342:	f9 07       	cpc	r31, r25
    5344:	b1 f7       	brne	.-20     	; 0x5332 <__vector_12+0x16e>
    5346:	80 91 c0 00 	lds	r24, 0x00C0
    534a:	86 ff       	sbrs	r24, 6
    534c:	fc cf       	rjmp	.-8      	; 0x5346 <__vector_12+0x182>
    534e:	80 91 c1 00 	lds	r24, 0x00C1
    5352:	87 7f       	andi	r24, 0xF7	; 247
    5354:	80 93 c1 00 	sts	0x00C1, r24
    5358:	ff 91       	pop	r31
    535a:	ef 91       	pop	r30
    535c:	9f 91       	pop	r25
    535e:	8f 91       	pop	r24
    5360:	2f 91       	pop	r18
    5362:	0f 90       	pop	r0
    5364:	0f be       	out	0x3f, r0	; 63
    5366:	0f 90       	pop	r0
    5368:	1f 90       	pop	r1
    536a:	18 95       	reti

0000536c <__mulsi3>:
    536c:	db 01       	movw	r26, r22
    536e:	8f 93       	push	r24
    5370:	9f 93       	push	r25
    5372:	0e 94 2d 2a 	call	0x545a	; 0x545a <__muluhisi3>
    5376:	bf 91       	pop	r27
    5378:	af 91       	pop	r26
    537a:	a2 9f       	mul	r26, r18
    537c:	80 0d       	add	r24, r0
    537e:	91 1d       	adc	r25, r1
    5380:	a3 9f       	mul	r26, r19
    5382:	90 0d       	add	r25, r0
    5384:	b2 9f       	mul	r27, r18
    5386:	90 0d       	add	r25, r0
    5388:	11 24       	eor	r1, r1
    538a:	08 95       	ret

0000538c <__udivmodqi4>:
    538c:	99 1b       	sub	r25, r25
    538e:	79 e0       	ldi	r23, 0x09	; 9
    5390:	04 c0       	rjmp	.+8      	; 0x539a <__udivmodqi4_ep>

00005392 <__udivmodqi4_loop>:
    5392:	99 1f       	adc	r25, r25
    5394:	96 17       	cp	r25, r22
    5396:	08 f0       	brcs	.+2      	; 0x539a <__udivmodqi4_ep>
    5398:	96 1b       	sub	r25, r22

0000539a <__udivmodqi4_ep>:
    539a:	88 1f       	adc	r24, r24
    539c:	7a 95       	dec	r23
    539e:	c9 f7       	brne	.-14     	; 0x5392 <__udivmodqi4_loop>
    53a0:	80 95       	com	r24
    53a2:	08 95       	ret

000053a4 <__udivmodhi4>:
    53a4:	aa 1b       	sub	r26, r26
    53a6:	bb 1b       	sub	r27, r27
    53a8:	51 e1       	ldi	r21, 0x11	; 17
    53aa:	07 c0       	rjmp	.+14     	; 0x53ba <__udivmodhi4_ep>

000053ac <__udivmodhi4_loop>:
    53ac:	aa 1f       	adc	r26, r26
    53ae:	bb 1f       	adc	r27, r27
    53b0:	a6 17       	cp	r26, r22
    53b2:	b7 07       	cpc	r27, r23
    53b4:	10 f0       	brcs	.+4      	; 0x53ba <__udivmodhi4_ep>
    53b6:	a6 1b       	sub	r26, r22
    53b8:	b7 0b       	sbc	r27, r23

000053ba <__udivmodhi4_ep>:
    53ba:	88 1f       	adc	r24, r24
    53bc:	99 1f       	adc	r25, r25
    53be:	5a 95       	dec	r21
    53c0:	a9 f7       	brne	.-22     	; 0x53ac <__udivmodhi4_loop>
    53c2:	80 95       	com	r24
    53c4:	90 95       	com	r25
    53c6:	bc 01       	movw	r22, r24
    53c8:	cd 01       	movw	r24, r26
    53ca:	08 95       	ret

000053cc <__udivmodsi4>:
    53cc:	a1 e2       	ldi	r26, 0x21	; 33
    53ce:	1a 2e       	mov	r1, r26
    53d0:	aa 1b       	sub	r26, r26
    53d2:	bb 1b       	sub	r27, r27
    53d4:	fd 01       	movw	r30, r26
    53d6:	0d c0       	rjmp	.+26     	; 0x53f2 <__udivmodsi4_ep>

000053d8 <__udivmodsi4_loop>:
    53d8:	aa 1f       	adc	r26, r26
    53da:	bb 1f       	adc	r27, r27
    53dc:	ee 1f       	adc	r30, r30
    53de:	ff 1f       	adc	r31, r31
    53e0:	a2 17       	cp	r26, r18
    53e2:	b3 07       	cpc	r27, r19
    53e4:	e4 07       	cpc	r30, r20
    53e6:	f5 07       	cpc	r31, r21
    53e8:	20 f0       	brcs	.+8      	; 0x53f2 <__udivmodsi4_ep>
    53ea:	a2 1b       	sub	r26, r18
    53ec:	b3 0b       	sbc	r27, r19
    53ee:	e4 0b       	sbc	r30, r20
    53f0:	f5 0b       	sbc	r31, r21

000053f2 <__udivmodsi4_ep>:
    53f2:	66 1f       	adc	r22, r22
    53f4:	77 1f       	adc	r23, r23
    53f6:	88 1f       	adc	r24, r24
    53f8:	99 1f       	adc	r25, r25
    53fa:	1a 94       	dec	r1
    53fc:	69 f7       	brne	.-38     	; 0x53d8 <__udivmodsi4_loop>
    53fe:	60 95       	com	r22
    5400:	70 95       	com	r23
    5402:	80 95       	com	r24
    5404:	90 95       	com	r25
    5406:	9b 01       	movw	r18, r22
    5408:	ac 01       	movw	r20, r24
    540a:	bd 01       	movw	r22, r26
    540c:	cf 01       	movw	r24, r30
    540e:	08 95       	ret

00005410 <__divmodsi4>:
    5410:	05 2e       	mov	r0, r21
    5412:	97 fb       	bst	r25, 7
    5414:	1e f4       	brtc	.+6      	; 0x541c <__divmodsi4+0xc>
    5416:	00 94       	com	r0
    5418:	0e 94 1f 2a 	call	0x543e	; 0x543e <__negsi2>
    541c:	57 fd       	sbrc	r21, 7
    541e:	07 d0       	rcall	.+14     	; 0x542e <__divmodsi4_neg2>
    5420:	0e 94 e6 29 	call	0x53cc	; 0x53cc <__udivmodsi4>
    5424:	07 fc       	sbrc	r0, 7
    5426:	03 d0       	rcall	.+6      	; 0x542e <__divmodsi4_neg2>
    5428:	4e f4       	brtc	.+18     	; 0x543c <__divmodsi4_exit>
    542a:	0c 94 1f 2a 	jmp	0x543e	; 0x543e <__negsi2>

0000542e <__divmodsi4_neg2>:
    542e:	50 95       	com	r21
    5430:	40 95       	com	r20
    5432:	30 95       	com	r19
    5434:	21 95       	neg	r18
    5436:	3f 4f       	sbci	r19, 0xFF	; 255
    5438:	4f 4f       	sbci	r20, 0xFF	; 255
    543a:	5f 4f       	sbci	r21, 0xFF	; 255

0000543c <__divmodsi4_exit>:
    543c:	08 95       	ret

0000543e <__negsi2>:
    543e:	90 95       	com	r25
    5440:	80 95       	com	r24
    5442:	70 95       	com	r23
    5444:	61 95       	neg	r22
    5446:	7f 4f       	sbci	r23, 0xFF	; 255
    5448:	8f 4f       	sbci	r24, 0xFF	; 255
    544a:	9f 4f       	sbci	r25, 0xFF	; 255
    544c:	08 95       	ret

0000544e <__tablejump2__>:
    544e:	ee 0f       	add	r30, r30
    5450:	ff 1f       	adc	r31, r31

00005452 <__tablejump__>:
    5452:	05 90       	lpm	r0, Z+
    5454:	f4 91       	lpm	r31, Z
    5456:	e0 2d       	mov	r30, r0
    5458:	09 94       	ijmp

0000545a <__muluhisi3>:
    545a:	0e 94 0d 2b 	call	0x561a	; 0x561a <__umulhisi3>
    545e:	a5 9f       	mul	r26, r21
    5460:	90 0d       	add	r25, r0
    5462:	b4 9f       	mul	r27, r20
    5464:	90 0d       	add	r25, r0
    5466:	a4 9f       	mul	r26, r20
    5468:	80 0d       	add	r24, r0
    546a:	91 1d       	adc	r25, r1
    546c:	11 24       	eor	r1, r1
    546e:	08 95       	ret

00005470 <__muldi3>:
    5470:	df 93       	push	r29
    5472:	cf 93       	push	r28
    5474:	1f 93       	push	r17
    5476:	0f 93       	push	r16
    5478:	9a 9d       	mul	r25, r10
    547a:	f0 2d       	mov	r31, r0
    547c:	21 9f       	mul	r18, r17
    547e:	f0 0d       	add	r31, r0
    5480:	8b 9d       	mul	r24, r11
    5482:	f0 0d       	add	r31, r0
    5484:	8a 9d       	mul	r24, r10
    5486:	e0 2d       	mov	r30, r0
    5488:	f1 0d       	add	r31, r1
    548a:	03 9f       	mul	r16, r19
    548c:	f0 0d       	add	r31, r0
    548e:	02 9f       	mul	r16, r18
    5490:	e0 0d       	add	r30, r0
    5492:	f1 1d       	adc	r31, r1
    5494:	4e 9d       	mul	r20, r14
    5496:	e0 0d       	add	r30, r0
    5498:	f1 1d       	adc	r31, r1
    549a:	5e 9d       	mul	r21, r14
    549c:	f0 0d       	add	r31, r0
    549e:	4f 9d       	mul	r20, r15
    54a0:	f0 0d       	add	r31, r0
    54a2:	7f 93       	push	r23
    54a4:	6f 93       	push	r22
    54a6:	bf 92       	push	r11
    54a8:	af 92       	push	r10
    54aa:	5f 93       	push	r21
    54ac:	4f 93       	push	r20
    54ae:	d5 01       	movw	r26, r10
    54b0:	0e 94 0d 2b 	call	0x561a	; 0x561a <__umulhisi3>
    54b4:	8b 01       	movw	r16, r22
    54b6:	ac 01       	movw	r20, r24
    54b8:	d7 01       	movw	r26, r14
    54ba:	0e 94 0d 2b 	call	0x561a	; 0x561a <__umulhisi3>
    54be:	eb 01       	movw	r28, r22
    54c0:	e8 0f       	add	r30, r24
    54c2:	f9 1f       	adc	r31, r25
    54c4:	d6 01       	movw	r26, r12
    54c6:	0e 94 88 2a 	call	0x5510	; 0x5510 <__muldi3_6>
    54ca:	2f 91       	pop	r18
    54cc:	3f 91       	pop	r19
    54ce:	d6 01       	movw	r26, r12
    54d0:	0e 94 0d 2b 	call	0x561a	; 0x561a <__umulhisi3>
    54d4:	c6 0f       	add	r28, r22
    54d6:	d7 1f       	adc	r29, r23
    54d8:	e8 1f       	adc	r30, r24
    54da:	f9 1f       	adc	r31, r25
    54dc:	af 91       	pop	r26
    54de:	bf 91       	pop	r27
    54e0:	0e 94 88 2a 	call	0x5510	; 0x5510 <__muldi3_6>
    54e4:	2f 91       	pop	r18
    54e6:	3f 91       	pop	r19
    54e8:	0e 94 0d 2b 	call	0x561a	; 0x561a <__umulhisi3>
    54ec:	c6 0f       	add	r28, r22
    54ee:	d7 1f       	adc	r29, r23
    54f0:	e8 1f       	adc	r30, r24
    54f2:	f9 1f       	adc	r31, r25
    54f4:	d6 01       	movw	r26, r12
    54f6:	0e 94 0d 2b 	call	0x561a	; 0x561a <__umulhisi3>
    54fa:	e6 0f       	add	r30, r22
    54fc:	f7 1f       	adc	r31, r23
    54fe:	98 01       	movw	r18, r16
    5500:	be 01       	movw	r22, r28
    5502:	cf 01       	movw	r24, r30
    5504:	11 24       	eor	r1, r1
    5506:	0f 91       	pop	r16
    5508:	1f 91       	pop	r17
    550a:	cf 91       	pop	r28
    550c:	df 91       	pop	r29
    550e:	08 95       	ret

00005510 <__muldi3_6>:
    5510:	0e 94 0d 2b 	call	0x561a	; 0x561a <__umulhisi3>
    5514:	46 0f       	add	r20, r22
    5516:	57 1f       	adc	r21, r23
    5518:	c8 1f       	adc	r28, r24
    551a:	d9 1f       	adc	r29, r25
    551c:	08 f4       	brcc	.+2      	; 0x5520 <__muldi3_6+0x10>
    551e:	31 96       	adiw	r30, 0x01	; 1
    5520:	08 95       	ret

00005522 <__umulsidi3>:
    5522:	e8 94       	clt

00005524 <__umulsidi3_helper>:
    5524:	df 93       	push	r29
    5526:	cf 93       	push	r28
    5528:	fc 01       	movw	r30, r24
    552a:	db 01       	movw	r26, r22
    552c:	0e 94 0d 2b 	call	0x561a	; 0x561a <__umulhisi3>
    5530:	7f 93       	push	r23
    5532:	6f 93       	push	r22
    5534:	e9 01       	movw	r28, r18
    5536:	9a 01       	movw	r18, r20
    5538:	ac 01       	movw	r20, r24
    553a:	bf 93       	push	r27
    553c:	af 93       	push	r26
    553e:	3f 93       	push	r19
    5540:	2f 93       	push	r18
    5542:	df 01       	movw	r26, r30
    5544:	0e 94 0d 2b 	call	0x561a	; 0x561a <__umulhisi3>
    5548:	26 f4       	brtc	.+8      	; 0x5552 <__umulsidi3_helper+0x2e>
    554a:	6c 1b       	sub	r22, r28
    554c:	7d 0b       	sbc	r23, r29
    554e:	82 0b       	sbc	r24, r18
    5550:	93 0b       	sbc	r25, r19
    5552:	9e 01       	movw	r18, r28
    5554:	eb 01       	movw	r28, r22
    5556:	fc 01       	movw	r30, r24
    5558:	0e 94 88 2a 	call	0x5510	; 0x5510 <__muldi3_6>
    555c:	af 91       	pop	r26
    555e:	bf 91       	pop	r27
    5560:	2f 91       	pop	r18
    5562:	3f 91       	pop	r19
    5564:	0e 94 88 2a 	call	0x5510	; 0x5510 <__muldi3_6>
    5568:	be 01       	movw	r22, r28
    556a:	cf 01       	movw	r24, r30
    556c:	f9 01       	movw	r30, r18
    556e:	2f 91       	pop	r18
    5570:	3f 91       	pop	r19
    5572:	cf 91       	pop	r28
    5574:	df 91       	pop	r29
    5576:	08 95       	ret

00005578 <__ashrdi3>:
    5578:	97 fb       	bst	r25, 7
    557a:	10 f8       	bld	r1, 0

0000557c <__lshrdi3>:
    557c:	16 94       	lsr	r1
    557e:	00 08       	sbc	r0, r0
    5580:	0f 93       	push	r16
    5582:	08 30       	cpi	r16, 0x08	; 8
    5584:	98 f0       	brcs	.+38     	; 0x55ac <__lshrdi3+0x30>
    5586:	08 50       	subi	r16, 0x08	; 8
    5588:	23 2f       	mov	r18, r19
    558a:	34 2f       	mov	r19, r20
    558c:	45 2f       	mov	r20, r21
    558e:	56 2f       	mov	r21, r22
    5590:	67 2f       	mov	r22, r23
    5592:	78 2f       	mov	r23, r24
    5594:	89 2f       	mov	r24, r25
    5596:	90 2d       	mov	r25, r0
    5598:	f4 cf       	rjmp	.-24     	; 0x5582 <__lshrdi3+0x6>
    559a:	05 94       	asr	r0
    559c:	97 95       	ror	r25
    559e:	87 95       	ror	r24
    55a0:	77 95       	ror	r23
    55a2:	67 95       	ror	r22
    55a4:	57 95       	ror	r21
    55a6:	47 95       	ror	r20
    55a8:	37 95       	ror	r19
    55aa:	27 95       	ror	r18
    55ac:	0a 95       	dec	r16
    55ae:	aa f7       	brpl	.-22     	; 0x559a <__lshrdi3+0x1e>
    55b0:	0f 91       	pop	r16
    55b2:	08 95       	ret

000055b4 <__adddi3>:
    55b4:	2a 0d       	add	r18, r10
    55b6:	3b 1d       	adc	r19, r11
    55b8:	4c 1d       	adc	r20, r12
    55ba:	5d 1d       	adc	r21, r13
    55bc:	6e 1d       	adc	r22, r14
    55be:	7f 1d       	adc	r23, r15
    55c0:	80 1f       	adc	r24, r16
    55c2:	91 1f       	adc	r25, r17
    55c4:	08 95       	ret

000055c6 <__adddi3_s8>:
    55c6:	00 24       	eor	r0, r0
    55c8:	a7 fd       	sbrc	r26, 7
    55ca:	00 94       	com	r0
    55cc:	2a 0f       	add	r18, r26
    55ce:	30 1d       	adc	r19, r0
    55d0:	40 1d       	adc	r20, r0
    55d2:	50 1d       	adc	r21, r0
    55d4:	60 1d       	adc	r22, r0
    55d6:	70 1d       	adc	r23, r0
    55d8:	80 1d       	adc	r24, r0
    55da:	90 1d       	adc	r25, r0
    55dc:	08 95       	ret

000055de <__subdi3>:
    55de:	2a 19       	sub	r18, r10
    55e0:	3b 09       	sbc	r19, r11
    55e2:	4c 09       	sbc	r20, r12
    55e4:	5d 09       	sbc	r21, r13
    55e6:	6e 09       	sbc	r22, r14
    55e8:	7f 09       	sbc	r23, r15
    55ea:	80 0b       	sbc	r24, r16
    55ec:	91 0b       	sbc	r25, r17
    55ee:	08 95       	ret

000055f0 <__cmpdi2>:
    55f0:	2a 15       	cp	r18, r10
    55f2:	3b 05       	cpc	r19, r11
    55f4:	4c 05       	cpc	r20, r12
    55f6:	5d 05       	cpc	r21, r13
    55f8:	6e 05       	cpc	r22, r14
    55fa:	7f 05       	cpc	r23, r15
    55fc:	80 07       	cpc	r24, r16
    55fe:	91 07       	cpc	r25, r17
    5600:	08 95       	ret

00005602 <__cmpdi2_s8>:
    5602:	00 24       	eor	r0, r0
    5604:	a7 fd       	sbrc	r26, 7
    5606:	00 94       	com	r0
    5608:	2a 17       	cp	r18, r26
    560a:	30 05       	cpc	r19, r0
    560c:	40 05       	cpc	r20, r0
    560e:	50 05       	cpc	r21, r0
    5610:	60 05       	cpc	r22, r0
    5612:	70 05       	cpc	r23, r0
    5614:	80 05       	cpc	r24, r0
    5616:	90 05       	cpc	r25, r0
    5618:	08 95       	ret

0000561a <__umulhisi3>:
    561a:	a2 9f       	mul	r26, r18
    561c:	b0 01       	movw	r22, r0
    561e:	b3 9f       	mul	r27, r19
    5620:	c0 01       	movw	r24, r0
    5622:	a3 9f       	mul	r26, r19
    5624:	70 0d       	add	r23, r0
    5626:	81 1d       	adc	r24, r1
    5628:	11 24       	eor	r1, r1
    562a:	91 1d       	adc	r25, r1
    562c:	b2 9f       	mul	r27, r18
    562e:	70 0d       	add	r23, r0
    5630:	81 1d       	adc	r24, r1
    5632:	11 24       	eor	r1, r1
    5634:	91 1d       	adc	r25, r1
    5636:	08 95       	ret

00005638 <do_rand>:
    5638:	8f 92       	push	r8
    563a:	9f 92       	push	r9
    563c:	af 92       	push	r10
    563e:	bf 92       	push	r11
    5640:	cf 92       	push	r12
    5642:	df 92       	push	r13
    5644:	ef 92       	push	r14
    5646:	ff 92       	push	r15
    5648:	cf 93       	push	r28
    564a:	df 93       	push	r29
    564c:	ec 01       	movw	r28, r24
    564e:	68 81       	ld	r22, Y
    5650:	79 81       	ldd	r23, Y+1	; 0x01
    5652:	8a 81       	ldd	r24, Y+2	; 0x02
    5654:	9b 81       	ldd	r25, Y+3	; 0x03
    5656:	61 15       	cp	r22, r1
    5658:	71 05       	cpc	r23, r1
    565a:	81 05       	cpc	r24, r1
    565c:	91 05       	cpc	r25, r1
    565e:	21 f4       	brne	.+8      	; 0x5668 <do_rand+0x30>
    5660:	64 e2       	ldi	r22, 0x24	; 36
    5662:	79 ed       	ldi	r23, 0xD9	; 217
    5664:	8b e5       	ldi	r24, 0x5B	; 91
    5666:	97 e0       	ldi	r25, 0x07	; 7
    5668:	2d e1       	ldi	r18, 0x1D	; 29
    566a:	33 ef       	ldi	r19, 0xF3	; 243
    566c:	41 e0       	ldi	r20, 0x01	; 1
    566e:	50 e0       	ldi	r21, 0x00	; 0
    5670:	0e 94 08 2a 	call	0x5410	; 0x5410 <__divmodsi4>
    5674:	49 01       	movw	r8, r18
    5676:	5a 01       	movw	r10, r20
    5678:	9b 01       	movw	r18, r22
    567a:	ac 01       	movw	r20, r24
    567c:	a7 ea       	ldi	r26, 0xA7	; 167
    567e:	b1 e4       	ldi	r27, 0x41	; 65
    5680:	0e 94 2d 2a 	call	0x545a	; 0x545a <__muluhisi3>
    5684:	6b 01       	movw	r12, r22
    5686:	7c 01       	movw	r14, r24
    5688:	ac ee       	ldi	r26, 0xEC	; 236
    568a:	b4 ef       	ldi	r27, 0xF4	; 244
    568c:	a5 01       	movw	r20, r10
    568e:	94 01       	movw	r18, r8
    5690:	0e 94 e2 2b 	call	0x57c4	; 0x57c4 <__mulohisi3>
    5694:	c6 0e       	add	r12, r22
    5696:	d7 1e       	adc	r13, r23
    5698:	e8 1e       	adc	r14, r24
    569a:	f9 1e       	adc	r15, r25
    569c:	f7 fe       	sbrs	r15, 7
    569e:	06 c0       	rjmp	.+12     	; 0x56ac <do_rand+0x74>
    56a0:	81 e0       	ldi	r24, 0x01	; 1
    56a2:	c8 1a       	sub	r12, r24
    56a4:	d1 08       	sbc	r13, r1
    56a6:	e1 08       	sbc	r14, r1
    56a8:	80 e8       	ldi	r24, 0x80	; 128
    56aa:	f8 0a       	sbc	r15, r24
    56ac:	c8 82       	st	Y, r12
    56ae:	d9 82       	std	Y+1, r13	; 0x01
    56b0:	ea 82       	std	Y+2, r14	; 0x02
    56b2:	fb 82       	std	Y+3, r15	; 0x03
    56b4:	c6 01       	movw	r24, r12
    56b6:	9f 77       	andi	r25, 0x7F	; 127
    56b8:	df 91       	pop	r29
    56ba:	cf 91       	pop	r28
    56bc:	ff 90       	pop	r15
    56be:	ef 90       	pop	r14
    56c0:	df 90       	pop	r13
    56c2:	cf 90       	pop	r12
    56c4:	bf 90       	pop	r11
    56c6:	af 90       	pop	r10
    56c8:	9f 90       	pop	r9
    56ca:	8f 90       	pop	r8
    56cc:	08 95       	ret

000056ce <rand_r>:
    56ce:	0e 94 1c 2b 	call	0x5638	; 0x5638 <do_rand>
    56d2:	08 95       	ret

000056d4 <rand>:
    56d4:	80 e0       	ldi	r24, 0x00	; 0
    56d6:	91 e0       	ldi	r25, 0x01	; 1
    56d8:	0e 94 1c 2b 	call	0x5638	; 0x5638 <do_rand>
    56dc:	08 95       	ret

000056de <srand>:
    56de:	a0 e0       	ldi	r26, 0x00	; 0
    56e0:	b0 e0       	ldi	r27, 0x00	; 0
    56e2:	80 93 00 01 	sts	0x0100, r24
    56e6:	90 93 01 01 	sts	0x0101, r25
    56ea:	a0 93 02 01 	sts	0x0102, r26
    56ee:	b0 93 03 01 	sts	0x0103, r27
    56f2:	08 95       	ret

000056f4 <memmove>:
    56f4:	68 17       	cp	r22, r24
    56f6:	79 07       	cpc	r23, r25
    56f8:	68 f4       	brcc	.+26     	; 0x5714 <memmove+0x20>
    56fa:	fb 01       	movw	r30, r22
    56fc:	dc 01       	movw	r26, r24
    56fe:	e4 0f       	add	r30, r20
    5700:	f5 1f       	adc	r31, r21
    5702:	a4 0f       	add	r26, r20
    5704:	b5 1f       	adc	r27, r21
    5706:	02 c0       	rjmp	.+4      	; 0x570c <memmove+0x18>
    5708:	02 90       	ld	r0, -Z
    570a:	0e 92       	st	-X, r0
    570c:	41 50       	subi	r20, 0x01	; 1
    570e:	50 40       	sbci	r21, 0x00	; 0
    5710:	d8 f7       	brcc	.-10     	; 0x5708 <memmove+0x14>
    5712:	08 95       	ret
    5714:	0c 94 d6 2b 	jmp	0x57ac	; 0x57ac <memcpy>

00005718 <memset>:
    5718:	dc 01       	movw	r26, r24
    571a:	01 c0       	rjmp	.+2      	; 0x571e <memset+0x6>
    571c:	6d 93       	st	X+, r22
    571e:	41 50       	subi	r20, 0x01	; 1
    5720:	50 40       	sbci	r21, 0x00	; 0
    5722:	e0 f7       	brcc	.-8      	; 0x571c <memset+0x4>
    5724:	08 95       	ret

00005726 <strchr>:
    5726:	fc 01       	movw	r30, r24
    5728:	81 91       	ld	r24, Z+
    572a:	86 17       	cp	r24, r22
    572c:	21 f0       	breq	.+8      	; 0x5736 <strchr+0x10>
    572e:	88 23       	and	r24, r24
    5730:	d9 f7       	brne	.-10     	; 0x5728 <strchr+0x2>
    5732:	99 27       	eor	r25, r25
    5734:	08 95       	ret
    5736:	31 97       	sbiw	r30, 0x01	; 1
    5738:	cf 01       	movw	r24, r30
    573a:	08 95       	ret

0000573c <strcmp>:
    573c:	fb 01       	movw	r30, r22
    573e:	dc 01       	movw	r26, r24
    5740:	8d 91       	ld	r24, X+
    5742:	01 90       	ld	r0, Z+
    5744:	80 19       	sub	r24, r0
    5746:	01 10       	cpse	r0, r1
    5748:	d9 f3       	breq	.-10     	; 0x5740 <strcmp+0x4>
    574a:	99 0b       	sbc	r25, r25
    574c:	08 95       	ret

0000574e <strcpy>:
    574e:	fb 01       	movw	r30, r22
    5750:	dc 01       	movw	r26, r24
    5752:	01 90       	ld	r0, Z+
    5754:	0d 92       	st	X+, r0
    5756:	00 20       	and	r0, r0
    5758:	e1 f7       	brne	.-8      	; 0x5752 <strcpy+0x4>
    575a:	08 95       	ret

0000575c <strncmp>:
    575c:	fb 01       	movw	r30, r22
    575e:	dc 01       	movw	r26, r24
    5760:	41 50       	subi	r20, 0x01	; 1
    5762:	50 40       	sbci	r21, 0x00	; 0
    5764:	30 f0       	brcs	.+12     	; 0x5772 <strncmp+0x16>
    5766:	8d 91       	ld	r24, X+
    5768:	01 90       	ld	r0, Z+
    576a:	80 19       	sub	r24, r0
    576c:	19 f4       	brne	.+6      	; 0x5774 <strncmp+0x18>
    576e:	00 20       	and	r0, r0
    5770:	b9 f7       	brne	.-18     	; 0x5760 <strncmp+0x4>
    5772:	88 1b       	sub	r24, r24
    5774:	99 0b       	sbc	r25, r25
    5776:	08 95       	ret

00005778 <strstr>:
    5778:	fb 01       	movw	r30, r22
    577a:	51 91       	ld	r21, Z+
    577c:	55 23       	and	r21, r21
    577e:	a9 f0       	breq	.+42     	; 0x57aa <strstr+0x32>
    5780:	bf 01       	movw	r22, r30
    5782:	dc 01       	movw	r26, r24
    5784:	4d 91       	ld	r20, X+
    5786:	45 17       	cp	r20, r21
    5788:	41 11       	cpse	r20, r1
    578a:	e1 f7       	brne	.-8      	; 0x5784 <strstr+0xc>
    578c:	59 f4       	brne	.+22     	; 0x57a4 <strstr+0x2c>
    578e:	cd 01       	movw	r24, r26
    5790:	01 90       	ld	r0, Z+
    5792:	00 20       	and	r0, r0
    5794:	49 f0       	breq	.+18     	; 0x57a8 <strstr+0x30>
    5796:	4d 91       	ld	r20, X+
    5798:	40 15       	cp	r20, r0
    579a:	41 11       	cpse	r20, r1
    579c:	c9 f3       	breq	.-14     	; 0x5790 <strstr+0x18>
    579e:	fb 01       	movw	r30, r22
    57a0:	41 11       	cpse	r20, r1
    57a2:	ef cf       	rjmp	.-34     	; 0x5782 <strstr+0xa>
    57a4:	81 e0       	ldi	r24, 0x01	; 1
    57a6:	90 e0       	ldi	r25, 0x00	; 0
    57a8:	01 97       	sbiw	r24, 0x01	; 1
    57aa:	08 95       	ret

000057ac <memcpy>:
    57ac:	fb 01       	movw	r30, r22
    57ae:	dc 01       	movw	r26, r24
    57b0:	02 c0       	rjmp	.+4      	; 0x57b6 <memcpy+0xa>
    57b2:	01 90       	ld	r0, Z+
    57b4:	0d 92       	st	X+, r0
    57b6:	41 50       	subi	r20, 0x01	; 1
    57b8:	50 40       	sbci	r21, 0x00	; 0
    57ba:	d8 f7       	brcc	.-10     	; 0x57b2 <memcpy+0x6>
    57bc:	08 95       	ret

000057be <__mulshisi3>:
    57be:	b7 ff       	sbrs	r27, 7
    57c0:	0c 94 2d 2a 	jmp	0x545a	; 0x545a <__muluhisi3>

000057c4 <__mulohisi3>:
    57c4:	0e 94 2d 2a 	call	0x545a	; 0x545a <__muluhisi3>
    57c8:	82 1b       	sub	r24, r18
    57ca:	93 0b       	sbc	r25, r19
    57cc:	08 95       	ret

000057ce <_exit>:
    57ce:	f8 94       	cli

000057d0 <__stop_program>:
    57d0:	ff cf       	rjmp	.-2      	; 0x57d0 <__stop_program>
